ARM GAS  C:\Users\3130\AppData\Local\Temp\ccB4W5HA.s 			page 1


   1              		.cpu cortex-m0
   2              		.fpu softvfp
   3              		.eabi_attribute 20, 1
   4              		.eabi_attribute 21, 1
   5              		.eabi_attribute 23, 3
   6              		.eabi_attribute 24, 1
   7              		.eabi_attribute 25, 1
   8              		.eabi_attribute 26, 1
   9              		.eabi_attribute 30, 2
  10              		.eabi_attribute 34, 0
  11              		.eabi_attribute 18, 4
  12              		.code	16
  13              		.file	"chcond.c"
  14              		.text
  15              	.Ltext0:
  16              		.cfi_sections	.debug_frame
  17              		.section	.text.chCondInit,"ax",%progbits
  18              		.align	2
  19              		.p2align 4,,15
  20              		.global	chCondInit
  21              		.code	16
  22              		.thumb_func
  23              		.type	chCondInit, %function
  24              	chCondInit:
  25              	.LFB7:
  26              		.file 1 "../../ChibiOS_2.6.1/os/kernel/src/chcond.c"
  27              		.loc 1 59 0
  28              		.cfi_startproc
  29              	.LVL0:
  30              		.loc 1 63 0
  31 0000 4060     		str	r0, [r0, #4]
  32 0002 0060     		str	r0, [r0]
  33              		.loc 1 64 0
  34              		@ sp needed for prologue
  35 0004 7047     		bx	lr
  36              		.cfi_endproc
  37              	.LFE7:
  38              		.size	chCondInit, .-chCondInit
  39 0006 C046C046 		.section	.text.chCondSignal,"ax",%progbits
  39      C046C046 
  39      C046
  40              		.align	2
  41              		.p2align 4,,15
  42              		.global	chCondSignal
  43              		.code	16
  44              		.thumb_func
  45              		.type	chCondSignal, %function
  46              	chCondSignal:
  47              	.LFB8:
  48              		.loc 1 73 0
  49              		.cfi_startproc
  50              	.LVL1:
  51 0000 08B5     		push	{r3, lr}
  52              	.LCFI0:
  53              		.cfi_def_cfa_offset 8
  54              		.cfi_offset 3, -8
  55              		.cfi_offset 14, -4
ARM GAS  C:\Users\3130\AppData\Local\Temp\ccB4W5HA.s 			page 2


  56              		.loc 1 77 0
  57              	@ 77 "../../ChibiOS_2.6.1/os/kernel/src/chcond.c" 1
  58 0002 72B6     		cpsid   i
  59              	@ 0 "" 2
  60              		.loc 1 78 0
  61              		.code	16
  62 0004 0368     		ldr	r3, [r0]
  63 0006 8342     		cmp	r3, r0
  64 0008 06D0     		beq	.L3
  65              	.LVL2:
  66              	.LBB12:
  67              	.LBB13:
  68              		.file 2 "../../ChibiOS_2.6.1/os/kernel/include/chinline.h"
  69              		.loc 2 62 0
  70 000a 1A68     		ldr	r2, [r3]
  71              	.LBE13:
  72              	.LBE12:
  73              		.loc 1 79 0
  74 000c 0021     		mov	r1, #0
  75              	.LBB15:
  76              	.LBB14:
  77              		.loc 2 62 0
  78 000e 0260     		str	r2, [r0]
  79 0010 5060     		str	r0, [r2, #4]
  80              	.LBE14:
  81              	.LBE15:
  82              		.loc 1 79 0
  83 0012 181C     		mov	r0, r3
  84              	.LVL3:
  85 0014 FFF7FEFF 		bl	chSchWakeupS
  86              	.LVL4:
  87              	.L3:
  88              		.loc 1 80 0
  89              	@ 80 "../../ChibiOS_2.6.1/os/kernel/src/chcond.c" 1
  90 0018 62B6     		cpsie   i
  91              	@ 0 "" 2
  92              		.loc 1 81 0
  93              		.code	16
  94              		@ sp needed for prologue
  95 001a 08BD     		pop	{r3, pc}
  96              		.cfi_endproc
  97              	.LFE8:
  98              		.size	chCondSignal, .-chCondSignal
  99 001c C046C046 		.section	.text.chCondSignalI,"ax",%progbits
 100              		.align	2
 101              		.p2align 4,,15
 102              		.global	chCondSignalI
 103              		.code	16
 104              		.thumb_func
 105              		.type	chCondSignalI, %function
 106              	chCondSignalI:
 107              	.LFB9:
 108              		.loc 1 94 0
 109              		.cfi_startproc
 110              	.LVL5:
 111 0000 08B5     		push	{r3, lr}
 112              	.LCFI1:
ARM GAS  C:\Users\3130\AppData\Local\Temp\ccB4W5HA.s 			page 3


 113              		.cfi_def_cfa_offset 8
 114              		.cfi_offset 3, -8
 115              		.cfi_offset 14, -4
 116              		.loc 1 99 0
 117 0002 0368     		ldr	r3, [r0]
 118 0004 8342     		cmp	r3, r0
 119 0006 07D0     		beq	.L5
 120              	.LVL6:
 121              	.LBB16:
 122              	.LBB17:
 123              		.loc 2 62 0
 124 0008 1A68     		ldr	r2, [r3]
 125 000a 0260     		str	r2, [r0]
 126 000c 5060     		str	r0, [r2, #4]
 127              	.LBE17:
 128              	.LBE16:
 129              		.loc 1 100 0
 130 000e 181C     		mov	r0, r3
 131              	.LVL7:
 132 0010 FFF7FEFF 		bl	chSchReadyI
 133              	.LVL8:
 134 0014 0021     		mov	r1, #0
 135 0016 4162     		str	r1, [r0, #36]
 136              	.LVL9:
 137              	.L5:
 138              		.loc 1 101 0
 139              		@ sp needed for prologue
 140 0018 08BD     		pop	{r3, pc}
 141              		.cfi_endproc
 142              	.LFE9:
 143              		.size	chCondSignalI, .-chCondSignalI
 144 001a C046C046 		.section	.text.chCondBroadcastI,"ax",%progbits
 144      C046
 145              		.align	2
 146              		.p2align 4,,15
 147              		.global	chCondBroadcastI
 148              		.code	16
 149              		.thumb_func
 150              		.type	chCondBroadcastI, %function
 151              	chCondBroadcastI:
 152              	.LFB11:
 153              		.loc 1 129 0
 154              		.cfi_startproc
 155              	.LVL10:
 156 0000 38B5     		push	{r3, r4, r5, lr}
 157              	.LCFI2:
 158              		.cfi_def_cfa_offset 16
 159              		.cfi_offset 3, -16
 160              		.cfi_offset 4, -12
 161              		.cfi_offset 5, -8
 162              		.cfi_offset 14, -4
 163              		.loc 1 129 0
 164 0002 041C     		mov	r4, r0
 165              		.loc 1 137 0
 166 0004 0068     		ldr	r0, [r0]
 167              	.LVL11:
 168 0006 A042     		cmp	r0, r4
ARM GAS  C:\Users\3130\AppData\Local\Temp\ccB4W5HA.s 			page 4


 169 0008 0AD0     		beq	.L7
 170              		.loc 1 138 0
 171 000a 0225     		mov	r5, #2
 172 000c 6D42     		neg	r5, r5
 173              	.L11:
 174              	.LVL12:
 175              	.LBB18:
 176              	.LBB19:
 177              		.loc 2 62 0
 178 000e 0368     		ldr	r3, [r0]
 179 0010 2360     		str	r3, [r4]
 180 0012 5C60     		str	r4, [r3, #4]
 181              	.LBE19:
 182              	.LBE18:
 183              		.loc 1 138 0
 184 0014 FFF7FEFF 		bl	chSchReadyI
 185              	.LVL13:
 186 0018 4562     		str	r5, [r0, #36]
 187              		.loc 1 137 0
 188 001a 2068     		ldr	r0, [r4]
 189 001c A042     		cmp	r0, r4
 190 001e F6D1     		bne	.L11
 191              	.LVL14:
 192              	.L7:
 193              		.loc 1 139 0
 194              		@ sp needed for prologue
 195              	.LVL15:
 196 0020 38BD     		pop	{r3, r4, r5, pc}
 197              		.cfi_endproc
 198              	.LFE11:
 199              		.size	chCondBroadcastI, .-chCondBroadcastI
 200 0022 C046C046 		.section	.text.chCondBroadcast,"ax",%progbits
 200      C046C046 
 200      C046C046 
 200      C046
 201              		.align	2
 202              		.p2align 4,,15
 203              		.global	chCondBroadcast
 204              		.code	16
 205              		.thumb_func
 206              		.type	chCondBroadcast, %function
 207              	chCondBroadcast:
 208              	.LFB10:
 209              		.loc 1 110 0
 210              		.cfi_startproc
 211              	.LVL16:
 212 0000 08B5     		push	{r3, lr}
 213              	.LCFI3:
 214              		.cfi_def_cfa_offset 8
 215              		.cfi_offset 3, -8
 216              		.cfi_offset 14, -4
 217              		.loc 1 112 0
 218              	@ 112 "../../ChibiOS_2.6.1/os/kernel/src/chcond.c" 1
 219 0002 72B6     		cpsid   i
 220              	@ 0 "" 2
 221              		.loc 1 113 0
 222              		.code	16
ARM GAS  C:\Users\3130\AppData\Local\Temp\ccB4W5HA.s 			page 5


 223 0004 FFF7FEFF 		bl	chCondBroadcastI
 224              	.LVL17:
 225              		.loc 1 114 0
 226 0008 FFF7FEFF 		bl	chSchRescheduleS
 227              	.LVL18:
 228              		.loc 1 115 0
 229              	@ 115 "../../ChibiOS_2.6.1/os/kernel/src/chcond.c" 1
 230 000c 62B6     		cpsie   i
 231              	@ 0 "" 2
 232              		.loc 1 116 0
 233              		.code	16
 234              		@ sp needed for prologue
 235 000e 08BD     		pop	{r3, pc}
 236              		.cfi_endproc
 237              	.LFE10:
 238              		.size	chCondBroadcast, .-chCondBroadcast
 239              		.section	.text.chCondWaitS,"ax",%progbits
 240              		.align	2
 241              		.p2align 4,,15
 242              		.global	chCondWaitS
 243              		.code	16
 244              		.thumb_func
 245              		.type	chCondWaitS, %function
 246              	chCondWaitS:
 247              	.LFB13:
 248              		.loc 1 184 0
 249              		.cfi_startproc
 250              	.LVL19:
 251              		.loc 1 185 0
 252 0000 104B     		ldr	r3, .L22
 253              		.loc 1 184 0
 254 0002 70B5     		push	{r4, r5, r6, lr}
 255              	.LCFI4:
 256              		.cfi_def_cfa_offset 16
 257              		.cfi_offset 4, -16
 258              		.cfi_offset 5, -12
 259              		.cfi_offset 6, -8
 260              		.cfi_offset 14, -4
 261              		.loc 1 184 0
 262 0004 051C     		mov	r5, r0
 263              		.loc 1 185 0
 264 0006 9C69     		ldr	r4, [r3, #24]
 265              	.LVL20:
 266              		.loc 1 195 0
 267 0008 FFF7FEFF 		bl	chMtxUnlockS
 268              	.LVL21:
 269              		.loc 1 196 0
 270 000c 6562     		str	r5, [r4, #36]
 271              		.loc 1 195 0
 272 000e 061C     		mov	r6, r0
 273              	.LVL22:
 274              		.loc 1 197 0
 275 0010 2A1C     		mov	r2, r5
 276              	.LVL23:
 277              		.loc 2 43 0
 278 0012 2B1C     		mov	r3, r5
 279 0014 03E0     		b	.L16
ARM GAS  C:\Users\3130\AppData\Local\Temp\ccB4W5HA.s 			page 6


 280              	.LVL24:
 281              	.L21:
 282              	.LBB20:
 283              	.LBB21:
 284              		.loc 2 46 0
 285 0016 9868     		ldr	r0, [r3, #8]
 286 0018 A168     		ldr	r1, [r4, #8]
 287 001a 8842     		cmp	r0, r1
 288 001c 10D3     		bcc	.L20
 289              	.L16:
 290              		.loc 2 45 0
 291 001e 1B68     		ldr	r3, [r3]
 292              	.LVL25:
 293              		.loc 2 46 0
 294 0020 9D42     		cmp	r5, r3
 295 0022 F8D1     		bne	.L21
 296              	.LVL26:
 297              	.L17:
 298              		.loc 2 48 0
 299 0024 5568     		ldr	r5, [r2, #4]
 300              	.LVL27:
 301              		.loc 2 47 0
 302 0026 2260     		str	r2, [r4]
 303              		.loc 2 48 0
 304 0028 6560     		str	r5, [r4, #4]
 305              		.loc 2 49 0
 306 002a 2C60     		str	r4, [r5]
 307 002c 5460     		str	r4, [r2, #4]
 308              	.LBE21:
 309              	.LBE20:
 310              		.loc 1 198 0
 311 002e 0520     		mov	r0, #5
 312 0030 FFF7FEFF 		bl	chSchGoSleepS
 313              	.LVL28:
 314              		.loc 1 199 0
 315 0034 646A     		ldr	r4, [r4, #36]
 316              	.LVL29:
 317              		.loc 1 200 0
 318 0036 301C     		mov	r0, r6
 319 0038 FFF7FEFF 		bl	chMtxLockS
 320              	.LVL30:
 321              		.loc 1 202 0
 322              		@ sp needed for prologue
 323 003c 201C     		mov	r0, r4
 324              	.LVL31:
 325              	.LVL32:
 326 003e 70BD     		pop	{r4, r5, r6, pc}
 327              	.LVL33:
 328              	.L20:
 329              	.LBB23:
 330              	.LBB22:
 331              		.loc 2 46 0
 332 0040 1A1C     		mov	r2, r3
 333              	.LVL34:
 334 0042 EFE7     		b	.L17
 335              	.L23:
 336              		.align	2
ARM GAS  C:\Users\3130\AppData\Local\Temp\ccB4W5HA.s 			page 7


 337              	.L22:
 338 0044 00000000 		.word	rlist
 339              	.LBE22:
 340              	.LBE23:
 341              		.cfi_endproc
 342              	.LFE13:
 343              		.size	chCondWaitS, .-chCondWaitS
 344 0048 C046C046 		.section	.text.chCondWait,"ax",%progbits
 344      C046C046 
 345              		.align	2
 346              		.p2align 4,,15
 347              		.global	chCondWait
 348              		.code	16
 349              		.thumb_func
 350              		.type	chCondWait, %function
 351              	chCondWait:
 352              	.LFB12:
 353              		.loc 1 158 0
 354              		.cfi_startproc
 355              	.LVL35:
 356 0000 08B5     		push	{r3, lr}
 357              	.LCFI5:
 358              		.cfi_def_cfa_offset 8
 359              		.cfi_offset 3, -8
 360              		.cfi_offset 14, -4
 361              		.loc 1 161 0
 362              	@ 161 "../../ChibiOS_2.6.1/os/kernel/src/chcond.c" 1
 363 0002 72B6     		cpsid   i
 364              	@ 0 "" 2
 365              		.loc 1 162 0
 366              		.code	16
 367 0004 FFF7FEFF 		bl	chCondWaitS
 368              	.LVL36:
 369              		.loc 1 163 0
 370              	@ 163 "../../ChibiOS_2.6.1/os/kernel/src/chcond.c" 1
 371 0008 62B6     		cpsie   i
 372              	@ 0 "" 2
 373              		.loc 1 165 0
 374              		.code	16
 375              		@ sp needed for prologue
 376 000a 08BD     		pop	{r3, pc}
 377              		.cfi_endproc
 378              	.LFE12:
 379              		.size	chCondWait, .-chCondWait
 380 000c C046C046 		.section	.text.chCondWaitTimeoutS,"ax",%progbits
 381              		.align	2
 382              		.p2align 4,,15
 383              		.global	chCondWaitTimeoutS
 384              		.code	16
 385              		.thumb_func
 386              		.type	chCondWaitTimeoutS, %function
 387              	chCondWaitTimeoutS:
 388              	.LFB15:
 389              		.loc 1 270 0
 390              		.cfi_startproc
 391              	.LVL37:
 392 0000 70B5     		push	{r4, r5, r6, lr}
ARM GAS  C:\Users\3130\AppData\Local\Temp\ccB4W5HA.s 			page 8


 393              	.LCFI6:
 394              		.cfi_def_cfa_offset 16
 395              		.cfi_offset 4, -16
 396              		.cfi_offset 5, -12
 397              		.cfi_offset 6, -8
 398              		.cfi_offset 14, -4
 399              		.loc 1 270 0
 400 0002 041C     		mov	r4, r0
 401 0004 0D1C     		mov	r5, r1
 402              		.loc 1 280 0
 403 0006 FFF7FEFF 		bl	chMtxUnlockS
 404              	.LVL38:
 405              		.loc 1 281 0
 406 000a 0E4B     		ldr	r3, .L32
 407              		.loc 1 280 0
 408 000c 061C     		mov	r6, r0
 409              	.LVL39:
 410              		.loc 1 281 0
 411 000e 9A69     		ldr	r2, [r3, #24]
 412              		.loc 2 43 0
 413 0010 231C     		mov	r3, r4
 414              		.loc 1 281 0
 415 0012 5462     		str	r4, [r2, #36]
 416              	.LVL40:
 417              	.L29:
 418              	.LBB24:
 419              	.LBB25:
 420              		.loc 2 45 0
 421 0014 1B68     		ldr	r3, [r3]
 422              	.LVL41:
 423              		.loc 2 46 0
 424 0016 9C42     		cmp	r4, r3
 425 0018 03D0     		beq	.L30
 426 001a 9968     		ldr	r1, [r3, #8]
 427 001c 9068     		ldr	r0, [r2, #8]
 428 001e 8142     		cmp	r1, r0
 429 0020 F8D2     		bcs	.L29
 430              	.L30:
 431              		.loc 2 48 0
 432 0022 5C68     		ldr	r4, [r3, #4]
 433              	.LVL42:
 434              		.loc 2 47 0
 435 0024 1360     		str	r3, [r2]
 436              		.loc 2 48 0
 437 0026 5460     		str	r4, [r2, #4]
 438              	.LBE25:
 439              	.LBE24:
 440              		.loc 1 283 0
 441 0028 291C     		mov	r1, r5
 442              	.LBB27:
 443              	.LBB26:
 444              		.loc 2 49 0
 445 002a 5A60     		str	r2, [r3, #4]
 446 002c 2260     		str	r2, [r4]
 447              	.LBE26:
 448              	.LBE27:
 449              		.loc 1 283 0
ARM GAS  C:\Users\3130\AppData\Local\Temp\ccB4W5HA.s 			page 9


 450 002e 0520     		mov	r0, #5
 451 0030 FFF7FEFF 		bl	chSchGoSleepTimeoutS
 452              	.LVL43:
 453 0034 051C     		mov	r5, r0
 454              	.LVL44:
 455              		.loc 1 284 0
 456 0036 681C     		add	r0, r5, #1
 457 0038 02D0     		beq	.L28
 458              	.LVL45:
 459              		.loc 1 285 0
 460 003a 301C     		mov	r0, r6
 461 003c FFF7FEFF 		bl	chMtxLockS
 462              	.LVL46:
 463              	.L28:
 464              		.loc 1 287 0
 465 0040 281C     		mov	r0, r5
 466              		@ sp needed for prologue
 467              	.LVL47:
 468              	.LVL48:
 469 0042 70BD     		pop	{r4, r5, r6, pc}
 470              	.L33:
 471              		.align	2
 472              	.L32:
 473 0044 00000000 		.word	rlist
 474              		.cfi_endproc
 475              	.LFE15:
 476              		.size	chCondWaitTimeoutS, .-chCondWaitTimeoutS
 477 0048 C046C046 		.section	.text.chCondWaitTimeout,"ax",%progbits
 477      C046C046 
 478              		.align	2
 479              		.p2align 4,,15
 480              		.global	chCondWaitTimeout
 481              		.code	16
 482              		.thumb_func
 483              		.type	chCondWaitTimeout, %function
 484              	chCondWaitTimeout:
 485              	.LFB14:
 486              		.loc 1 233 0
 487              		.cfi_startproc
 488              	.LVL49:
 489 0000 08B5     		push	{r3, lr}
 490              	.LCFI7:
 491              		.cfi_def_cfa_offset 8
 492              		.cfi_offset 3, -8
 493              		.cfi_offset 14, -4
 494              		.loc 1 236 0
 495              	@ 236 "../../ChibiOS_2.6.1/os/kernel/src/chcond.c" 1
 496 0002 72B6     		cpsid   i
 497              	@ 0 "" 2
 498              		.loc 1 237 0
 499              		.code	16
 500 0004 FFF7FEFF 		bl	chCondWaitTimeoutS
 501              	.LVL50:
 502              		.loc 1 238 0
 503              	@ 238 "../../ChibiOS_2.6.1/os/kernel/src/chcond.c" 1
 504 0008 62B6     		cpsie   i
 505              	@ 0 "" 2
ARM GAS  C:\Users\3130\AppData\Local\Temp\ccB4W5HA.s 			page 10


 506              		.loc 1 240 0
 507              		.code	16
 508              		@ sp needed for prologue
 509 000a 08BD     		pop	{r3, pc}
 510              		.cfi_endproc
 511              	.LFE14:
 512              		.size	chCondWaitTimeout, .-chCondWaitTimeout
 513 000c C046C046 		.text
 514              	.Letext0:
 515              		.file 3 "c:\\stm32f0-discovery_tools\\gcc-arm-none-eabi\\bin\\../lib/gcc/arm-none-eabi/4.7.4/../..
 516              		.file 4 "../../ChibiOS_2.6.1/os/ports/GCC/ARMCMx/chtypes.h"
 517              		.file 5 "../../ChibiOS_2.6.1/os/kernel/include/chlists.h"
 518              		.file 6 "../../ChibiOS_2.6.1/os/kernel/include/chthreads.h"
 519              		.file 7 "../../ChibiOS_2.6.1/os/ports/GCC/ARMCMx/chcore_v6m.h"
 520              		.file 8 "../../ChibiOS_2.6.1/os/kernel/include/chschd.h"
 521              		.file 9 "../../ChibiOS_2.6.1/os/kernel/include/chmtx.h"
 522              		.file 10 "../../ChibiOS_2.6.1/os/kernel/include/chcond.h"
 523              		.section	.debug_info,"",%progbits
 524              	.Ldebug_info0:
 525 0000 0D090000 		.4byte	0x90d
 526 0004 0200     		.2byte	0x2
 527 0006 00000000 		.4byte	.Ldebug_abbrev0
 528 000a 04       		.byte	0x4
 529 000b 01       		.uleb128 0x1
 530 000c 6F030000 		.4byte	.LASF79
 531 0010 01       		.byte	0x1
 532 0011 00000000 		.4byte	.LASF80
 533 0015 FC020000 		.4byte	.LASF81
 534 0019 90000000 		.4byte	.Ldebug_ranges0+0x90
 535 001d 00000000 		.4byte	0
 536 0021 00000000 		.4byte	0
 537 0025 00000000 		.4byte	.Ldebug_line0
 538 0029 02       		.uleb128 0x2
 539 002a 04       		.byte	0x4
 540 002b 05       		.byte	0x5
 541 002c 696E7400 		.ascii	"int\000"
 542 0030 03       		.uleb128 0x3
 543 0031 04       		.byte	0x4
 544 0032 07       		.byte	0x7
 545 0033 18010000 		.4byte	.LASF0
 546 0037 03       		.uleb128 0x3
 547 0038 01       		.byte	0x1
 548 0039 06       		.byte	0x6
 549 003a 89000000 		.4byte	.LASF1
 550 003e 04       		.uleb128 0x4
 551 003f 67030000 		.4byte	.LASF5
 552 0043 03       		.byte	0x3
 553 0044 2A       		.byte	0x2a
 554 0045 49000000 		.4byte	0x49
 555 0049 03       		.uleb128 0x3
 556 004a 01       		.byte	0x1
 557 004b 08       		.byte	0x8
 558 004c 1B020000 		.4byte	.LASF2
 559 0050 03       		.uleb128 0x3
 560 0051 02       		.byte	0x2
 561 0052 05       		.byte	0x5
 562 0053 33020000 		.4byte	.LASF3
ARM GAS  C:\Users\3130\AppData\Local\Temp\ccB4W5HA.s 			page 11


 563 0057 03       		.uleb128 0x3
 564 0058 02       		.byte	0x2
 565 0059 07       		.byte	0x7
 566 005a 3F010000 		.4byte	.LASF4
 567 005e 04       		.uleb128 0x4
 568 005f 13020000 		.4byte	.LASF6
 569 0063 03       		.byte	0x3
 570 0064 4F       		.byte	0x4f
 571 0065 69000000 		.4byte	0x69
 572 0069 03       		.uleb128 0x3
 573 006a 04       		.byte	0x4
 574 006b 05       		.byte	0x5
 575 006c B7000000 		.4byte	.LASF7
 576 0070 04       		.uleb128 0x4
 577 0071 94020000 		.4byte	.LASF8
 578 0075 03       		.byte	0x3
 579 0076 50       		.byte	0x50
 580 0077 7B000000 		.4byte	0x7b
 581 007b 03       		.uleb128 0x3
 582 007c 04       		.byte	0x4
 583 007d 07       		.byte	0x7
 584 007e 25010000 		.4byte	.LASF9
 585 0082 03       		.uleb128 0x3
 586 0083 08       		.byte	0x8
 587 0084 05       		.byte	0x5
 588 0085 7B000000 		.4byte	.LASF10
 589 0089 03       		.uleb128 0x3
 590 008a 08       		.byte	0x8
 591 008b 07       		.byte	0x7
 592 008c 43000000 		.4byte	.LASF11
 593 0090 03       		.uleb128 0x3
 594 0091 01       		.byte	0x1
 595 0092 02       		.byte	0x2
 596 0093 0D020000 		.4byte	.LASF12
 597 0097 04       		.uleb128 0x4
 598 0098 64010000 		.4byte	.LASF13
 599 009c 04       		.byte	0x4
 600 009d 2C       		.byte	0x2c
 601 009e 3E000000 		.4byte	0x3e
 602 00a2 04       		.uleb128 0x4
 603 00a3 C0000000 		.4byte	.LASF14
 604 00a7 04       		.byte	0x4
 605 00a8 2D       		.byte	0x2d
 606 00a9 3E000000 		.4byte	0x3e
 607 00ad 04       		.uleb128 0x4
 608 00ae E8010000 		.4byte	.LASF15
 609 00b2 04       		.byte	0x4
 610 00b3 2E       		.byte	0x2e
 611 00b4 3E000000 		.4byte	0x3e
 612 00b8 04       		.uleb128 0x4
 613 00b9 A5000000 		.4byte	.LASF16
 614 00bd 04       		.byte	0x4
 615 00be 2F       		.byte	0x2f
 616 00bf 3E000000 		.4byte	0x3e
 617 00c3 04       		.uleb128 0x4
 618 00c4 F7010000 		.4byte	.LASF17
 619 00c8 04       		.byte	0x4
ARM GAS  C:\Users\3130\AppData\Local\Temp\ccB4W5HA.s 			page 12


 620 00c9 30       		.byte	0x30
 621 00ca 70000000 		.4byte	0x70
 622 00ce 04       		.uleb128 0x4
 623 00cf 52010000 		.4byte	.LASF18
 624 00d3 04       		.byte	0x4
 625 00d4 31       		.byte	0x31
 626 00d5 5E000000 		.4byte	0x5e
 627 00d9 04       		.uleb128 0x4
 628 00da 78010000 		.4byte	.LASF19
 629 00de 04       		.byte	0x4
 630 00df 33       		.byte	0x33
 631 00e0 70000000 		.4byte	0x70
 632 00e4 04       		.uleb128 0x4
 633 00e5 D5020000 		.4byte	.LASF20
 634 00e9 04       		.byte	0x4
 635 00ea 35       		.byte	0x35
 636 00eb 70000000 		.4byte	0x70
 637 00ef 04       		.uleb128 0x4
 638 00f0 6C020000 		.4byte	.LASF21
 639 00f4 05       		.byte	0x5
 640 00f5 2A       		.byte	0x2a
 641 00f6 FA000000 		.4byte	0xfa
 642 00fa 05       		.uleb128 0x5
 643 00fb 6C020000 		.4byte	.LASF21
 644 00ff 48       		.byte	0x48
 645 0100 06       		.byte	0x6
 646 0101 5E       		.byte	0x5e
 647 0102 1F020000 		.4byte	0x21f
 648 0106 06       		.uleb128 0x6
 649 0107 5D020000 		.4byte	.LASF22
 650 010b 06       		.byte	0x6
 651 010c 5F       		.byte	0x5f
 652 010d 44020000 		.4byte	0x244
 653 0111 02       		.byte	0x2
 654 0112 23       		.byte	0x23
 655 0113 00       		.uleb128 0
 656 0114 06       		.uleb128 0x6
 657 0115 F0010000 		.4byte	.LASF23
 658 0119 06       		.byte	0x6
 659 011a 61       		.byte	0x61
 660 011b 44020000 		.4byte	0x244
 661 011f 02       		.byte	0x2
 662 0120 23       		.byte	0x23
 663 0121 04       		.uleb128 0x4
 664 0122 06       		.uleb128 0x6
 665 0123 74000000 		.4byte	.LASF24
 666 0127 06       		.byte	0x6
 667 0128 63       		.byte	0x63
 668 0129 C3000000 		.4byte	0xc3
 669 012d 02       		.byte	0x2
 670 012e 23       		.byte	0x23
 671 012f 08       		.uleb128 0x8
 672 0130 06       		.uleb128 0x6
 673 0131 CE030000 		.4byte	.LASF25
 674 0135 06       		.byte	0x6
 675 0136 64       		.byte	0x64
 676 0137 08030000 		.4byte	0x308
ARM GAS  C:\Users\3130\AppData\Local\Temp\ccB4W5HA.s 			page 13


 677 013b 02       		.byte	0x2
 678 013c 23       		.byte	0x23
 679 013d 0C       		.uleb128 0xc
 680 013e 06       		.uleb128 0x6
 681 013f D4000000 		.4byte	.LASF26
 682 0143 06       		.byte	0x6
 683 0144 66       		.byte	0x66
 684 0145 44020000 		.4byte	0x244
 685 0149 02       		.byte	0x2
 686 014a 23       		.byte	0x23
 687 014b 10       		.uleb128 0x10
 688 014c 06       		.uleb128 0x6
 689 014d A6010000 		.4byte	.LASF27
 690 0151 06       		.byte	0x6
 691 0152 67       		.byte	0x67
 692 0153 44020000 		.4byte	0x244
 693 0157 02       		.byte	0x2
 694 0158 23       		.byte	0x23
 695 0159 14       		.uleb128 0x14
 696 015a 06       		.uleb128 0x6
 697 015b 98030000 		.4byte	.LASF28
 698 015f 06       		.byte	0x6
 699 0160 6E       		.byte	0x6e
 700 0161 40040000 		.4byte	0x440
 701 0165 02       		.byte	0x2
 702 0166 23       		.byte	0x23
 703 0167 18       		.uleb128 0x18
 704 0168 06       		.uleb128 0x6
 705 0169 3D020000 		.4byte	.LASF29
 706 016d 06       		.byte	0x6
 707 016e 79       		.byte	0x79
 708 016f A2000000 		.4byte	0xa2
 709 0173 02       		.byte	0x2
 710 0174 23       		.byte	0x23
 711 0175 1C       		.uleb128 0x1c
 712 0176 06       		.uleb128 0x6
 713 0177 64020000 		.4byte	.LASF30
 714 017b 06       		.byte	0x6
 715 017c 7D       		.byte	0x7d
 716 017d 97000000 		.4byte	0x97
 717 0181 02       		.byte	0x2
 718 0182 23       		.byte	0x23
 719 0183 1D       		.uleb128 0x1d
 720 0184 06       		.uleb128 0x6
 721 0185 50030000 		.4byte	.LASF31
 722 0189 06       		.byte	0x6
 723 018a 82       		.byte	0x82
 724 018b AD000000 		.4byte	0xad
 725 018f 02       		.byte	0x2
 726 0190 23       		.byte	0x23
 727 0191 1E       		.uleb128 0x1e
 728 0192 06       		.uleb128 0x6
 729 0193 45020000 		.4byte	.LASF32
 730 0197 06       		.byte	0x6
 731 0198 88       		.byte	0x88
 732 0199 B8000000 		.4byte	0xb8
 733 019d 02       		.byte	0x2
ARM GAS  C:\Users\3130\AppData\Local\Temp\ccB4W5HA.s 			page 14


 734 019e 23       		.byte	0x23
 735 019f 1F       		.uleb128 0x1f
 736 01a0 06       		.uleb128 0x6
 737 01a1 F5020000 		.4byte	.LASF33
 738 01a5 06       		.byte	0x6
 739 01a6 8F       		.byte	0x8f
 740 01a7 30030000 		.4byte	0x330
 741 01ab 02       		.byte	0x2
 742 01ac 23       		.byte	0x23
 743 01ad 20       		.uleb128 0x20
 744 01ae 07       		.uleb128 0x7
 745 01af 705F7500 		.ascii	"p_u\000"
 746 01b3 06       		.byte	0x6
 747 01b4 B4       		.byte	0xb4
 748 01b5 0B040000 		.4byte	0x40b
 749 01b9 02       		.byte	0x2
 750 01ba 23       		.byte	0x23
 751 01bb 24       		.uleb128 0x24
 752 01bc 06       		.uleb128 0x6
 753 01bd D4030000 		.4byte	.LASF34
 754 01c1 06       		.byte	0x6
 755 01c2 B9       		.byte	0xb9
 756 01c3 6C020000 		.4byte	0x26c
 757 01c7 02       		.byte	0x2
 758 01c8 23       		.byte	0x23
 759 01c9 28       		.uleb128 0x28
 760 01ca 06       		.uleb128 0x6
 761 01cb 38030000 		.4byte	.LASF35
 762 01cf 06       		.byte	0x6
 763 01d0 BF       		.byte	0xbf
 764 01d1 4A020000 		.4byte	0x24a
 765 01d5 02       		.byte	0x2
 766 01d6 23       		.byte	0x23
 767 01d7 2C       		.uleb128 0x2c
 768 01d8 06       		.uleb128 0x6
 769 01d9 2B000000 		.4byte	.LASF36
 770 01dd 06       		.byte	0x6
 771 01de C3       		.byte	0xc3
 772 01df CE000000 		.4byte	0xce
 773 01e3 02       		.byte	0x2
 774 01e4 23       		.byte	0x23
 775 01e5 34       		.uleb128 0x34
 776 01e6 06       		.uleb128 0x6
 777 01e7 89020000 		.4byte	.LASF37
 778 01eb 06       		.byte	0x6
 779 01ec C9       		.byte	0xc9
 780 01ed D9000000 		.4byte	0xd9
 781 01f1 02       		.byte	0x2
 782 01f2 23       		.byte	0x23
 783 01f3 38       		.uleb128 0x38
 784 01f4 06       		.uleb128 0x6
 785 01f5 29020000 		.4byte	.LASF38
 786 01f9 06       		.byte	0x6
 787 01fa D0       		.byte	0xd0
 788 01fb 52040000 		.4byte	0x452
 789 01ff 02       		.byte	0x2
 790 0200 23       		.byte	0x23
ARM GAS  C:\Users\3130\AppData\Local\Temp\ccB4W5HA.s 			page 15


 791 0201 3C       		.uleb128 0x3c
 792 0202 06       		.uleb128 0x6
 793 0203 DF020000 		.4byte	.LASF39
 794 0207 06       		.byte	0x6
 795 0208 D4       		.byte	0xd4
 796 0209 C3000000 		.4byte	0xc3
 797 020d 02       		.byte	0x2
 798 020e 23       		.byte	0x23
 799 020f 40       		.uleb128 0x40
 800 0210 06       		.uleb128 0x6
 801 0211 95000000 		.4byte	.LASF40
 802 0215 06       		.byte	0x6
 803 0216 DA       		.byte	0xda
 804 0217 82020000 		.4byte	0x282
 805 021b 02       		.byte	0x2
 806 021c 23       		.byte	0x23
 807 021d 44       		.uleb128 0x44
 808 021e 00       		.byte	0
 809 021f 08       		.uleb128 0x8
 810 0220 08       		.byte	0x8
 811 0221 05       		.byte	0x5
 812 0222 61       		.byte	0x61
 813 0223 44020000 		.4byte	0x244
 814 0227 06       		.uleb128 0x6
 815 0228 5D020000 		.4byte	.LASF22
 816 022c 05       		.byte	0x5
 817 022d 62       		.byte	0x62
 818 022e 44020000 		.4byte	0x244
 819 0232 02       		.byte	0x2
 820 0233 23       		.byte	0x23
 821 0234 00       		.uleb128 0
 822 0235 06       		.uleb128 0x6
 823 0236 F0010000 		.4byte	.LASF23
 824 023a 05       		.byte	0x5
 825 023b 64       		.byte	0x64
 826 023c 44020000 		.4byte	0x244
 827 0240 02       		.byte	0x2
 828 0241 23       		.byte	0x23
 829 0242 04       		.uleb128 0x4
 830 0243 00       		.byte	0
 831 0244 09       		.uleb128 0x9
 832 0245 04       		.byte	0x4
 833 0246 EF000000 		.4byte	0xef
 834 024a 04       		.uleb128 0x4
 835 024b B4010000 		.4byte	.LASF41
 836 024f 05       		.byte	0x5
 837 0250 66       		.byte	0x66
 838 0251 1F020000 		.4byte	0x21f
 839 0255 08       		.uleb128 0x8
 840 0256 04       		.byte	0x4
 841 0257 05       		.byte	0x5
 842 0258 6B       		.byte	0x6b
 843 0259 6C020000 		.4byte	0x26c
 844 025d 06       		.uleb128 0x6
 845 025e 5D020000 		.4byte	.LASF22
 846 0262 05       		.byte	0x5
 847 0263 6D       		.byte	0x6d
ARM GAS  C:\Users\3130\AppData\Local\Temp\ccB4W5HA.s 			page 16


 848 0264 44020000 		.4byte	0x244
 849 0268 02       		.byte	0x2
 850 0269 23       		.byte	0x23
 851 026a 00       		.uleb128 0
 852 026b 00       		.byte	0
 853 026c 04       		.uleb128 0x4
 854 026d 6C010000 		.4byte	.LASF42
 855 0271 05       		.byte	0x5
 856 0272 70       		.byte	0x70
 857 0273 55020000 		.4byte	0x255
 858 0277 04       		.uleb128 0x4
 859 0278 F5000000 		.4byte	.LASF43
 860 027c 07       		.byte	0x7
 861 027d A7       		.byte	0xa7
 862 027e 82020000 		.4byte	0x282
 863 0282 0A       		.uleb128 0xa
 864 0283 04       		.byte	0x4
 865 0284 05       		.uleb128 0x5
 866 0285 31030000 		.4byte	.LASF44
 867 0289 24       		.byte	0x24
 868 028a 07       		.byte	0x7
 869 028b BA       		.byte	0xba
 870 028c 08030000 		.4byte	0x308
 871 0290 07       		.uleb128 0x7
 872 0291 723800   		.ascii	"r8\000"
 873 0294 07       		.byte	0x7
 874 0295 BB       		.byte	0xbb
 875 0296 77020000 		.4byte	0x277
 876 029a 02       		.byte	0x2
 877 029b 23       		.byte	0x23
 878 029c 00       		.uleb128 0
 879 029d 07       		.uleb128 0x7
 880 029e 723900   		.ascii	"r9\000"
 881 02a1 07       		.byte	0x7
 882 02a2 BC       		.byte	0xbc
 883 02a3 77020000 		.4byte	0x277
 884 02a7 02       		.byte	0x2
 885 02a8 23       		.byte	0x23
 886 02a9 04       		.uleb128 0x4
 887 02aa 07       		.uleb128 0x7
 888 02ab 72313000 		.ascii	"r10\000"
 889 02af 07       		.byte	0x7
 890 02b0 BD       		.byte	0xbd
 891 02b1 77020000 		.4byte	0x277
 892 02b5 02       		.byte	0x2
 893 02b6 23       		.byte	0x23
 894 02b7 08       		.uleb128 0x8
 895 02b8 07       		.uleb128 0x7
 896 02b9 72313100 		.ascii	"r11\000"
 897 02bd 07       		.byte	0x7
 898 02be BE       		.byte	0xbe
 899 02bf 77020000 		.4byte	0x277
 900 02c3 02       		.byte	0x2
 901 02c4 23       		.byte	0x23
 902 02c5 0C       		.uleb128 0xc
 903 02c6 07       		.uleb128 0x7
 904 02c7 723400   		.ascii	"r4\000"
ARM GAS  C:\Users\3130\AppData\Local\Temp\ccB4W5HA.s 			page 17


 905 02ca 07       		.byte	0x7
 906 02cb BF       		.byte	0xbf
 907 02cc 77020000 		.4byte	0x277
 908 02d0 02       		.byte	0x2
 909 02d1 23       		.byte	0x23
 910 02d2 10       		.uleb128 0x10
 911 02d3 07       		.uleb128 0x7
 912 02d4 723500   		.ascii	"r5\000"
 913 02d7 07       		.byte	0x7
 914 02d8 C0       		.byte	0xc0
 915 02d9 77020000 		.4byte	0x277
 916 02dd 02       		.byte	0x2
 917 02de 23       		.byte	0x23
 918 02df 14       		.uleb128 0x14
 919 02e0 07       		.uleb128 0x7
 920 02e1 723600   		.ascii	"r6\000"
 921 02e4 07       		.byte	0x7
 922 02e5 C1       		.byte	0xc1
 923 02e6 77020000 		.4byte	0x277
 924 02ea 02       		.byte	0x2
 925 02eb 23       		.byte	0x23
 926 02ec 18       		.uleb128 0x18
 927 02ed 07       		.uleb128 0x7
 928 02ee 723700   		.ascii	"r7\000"
 929 02f1 07       		.byte	0x7
 930 02f2 C2       		.byte	0xc2
 931 02f3 77020000 		.4byte	0x277
 932 02f7 02       		.byte	0x2
 933 02f8 23       		.byte	0x23
 934 02f9 1C       		.uleb128 0x1c
 935 02fa 07       		.uleb128 0x7
 936 02fb 6C7200   		.ascii	"lr\000"
 937 02fe 07       		.byte	0x7
 938 02ff C3       		.byte	0xc3
 939 0300 77020000 		.4byte	0x277
 940 0304 02       		.byte	0x2
 941 0305 23       		.byte	0x23
 942 0306 20       		.uleb128 0x20
 943 0307 00       		.byte	0
 944 0308 05       		.uleb128 0x5
 945 0309 37010000 		.4byte	.LASF45
 946 030d 04       		.byte	0x4
 947 030e 07       		.byte	0x7
 948 030f CD       		.byte	0xcd
 949 0310 23030000 		.4byte	0x323
 950 0314 07       		.uleb128 0x7
 951 0315 72313300 		.ascii	"r13\000"
 952 0319 07       		.byte	0x7
 953 031a CE       		.byte	0xce
 954 031b 23030000 		.4byte	0x323
 955 031f 02       		.byte	0x2
 956 0320 23       		.byte	0x23
 957 0321 00       		.uleb128 0
 958 0322 00       		.byte	0
 959 0323 09       		.uleb128 0x9
 960 0324 04       		.byte	0x4
 961 0325 84020000 		.4byte	0x284
ARM GAS  C:\Users\3130\AppData\Local\Temp\ccB4W5HA.s 			page 18


 962 0329 03       		.uleb128 0x3
 963 032a 04       		.byte	0x4
 964 032b 07       		.byte	0x7
 965 032c 8A010000 		.4byte	.LASF46
 966 0330 0B       		.uleb128 0xb
 967 0331 E4000000 		.4byte	0xe4
 968 0335 08       		.uleb128 0x8
 969 0336 1C       		.byte	0x1c
 970 0337 08       		.byte	0x8
 971 0338 5E       		.byte	0x5e
 972 0339 92030000 		.4byte	0x392
 973 033d 06       		.uleb128 0x6
 974 033e 9D020000 		.4byte	.LASF47
 975 0342 08       		.byte	0x8
 976 0343 5F       		.byte	0x5f
 977 0344 4A020000 		.4byte	0x24a
 978 0348 02       		.byte	0x2
 979 0349 23       		.byte	0x23
 980 034a 00       		.uleb128 0
 981 034b 06       		.uleb128 0x6
 982 034c 4F020000 		.4byte	.LASF48
 983 0350 08       		.byte	0x8
 984 0351 60       		.byte	0x60
 985 0352 C3000000 		.4byte	0xc3
 986 0356 02       		.byte	0x2
 987 0357 23       		.byte	0x23
 988 0358 08       		.uleb128 0x8
 989 0359 06       		.uleb128 0x6
 990 035a AE010000 		.4byte	.LASF49
 991 035e 08       		.byte	0x8
 992 035f 62       		.byte	0x62
 993 0360 08030000 		.4byte	0x308
 994 0364 02       		.byte	0x2
 995 0365 23       		.byte	0x23
 996 0366 0C       		.uleb128 0xc
 997 0367 06       		.uleb128 0x6
 998 0368 ED000000 		.4byte	.LASF50
 999 036c 08       		.byte	0x8
 1000 036d 65       		.byte	0x65
 1001 036e 44020000 		.4byte	0x244
 1002 0372 02       		.byte	0x2
 1003 0373 23       		.byte	0x23
 1004 0374 10       		.uleb128 0x10
 1005 0375 06       		.uleb128 0x6
 1006 0376 D0010000 		.4byte	.LASF51
 1007 037a 08       		.byte	0x8
 1008 037b 66       		.byte	0x66
 1009 037c 44020000 		.4byte	0x244
 1010 0380 02       		.byte	0x2
 1011 0381 23       		.byte	0x23
 1012 0382 14       		.uleb128 0x14
 1013 0383 06       		.uleb128 0x6
 1014 0384 C6010000 		.4byte	.LASF52
 1015 0388 08       		.byte	0x8
 1016 0389 69       		.byte	0x69
 1017 038a 44020000 		.4byte	0x244
 1018 038e 02       		.byte	0x2
ARM GAS  C:\Users\3130\AppData\Local\Temp\ccB4W5HA.s 			page 19


 1019 038f 23       		.byte	0x23
 1020 0390 18       		.uleb128 0x18
 1021 0391 00       		.byte	0
 1022 0392 04       		.uleb128 0x4
 1023 0393 57030000 		.4byte	.LASF53
 1024 0397 08       		.byte	0x8
 1025 0398 6B       		.byte	0x6b
 1026 0399 35030000 		.4byte	0x335
 1027 039d 05       		.uleb128 0x5
 1028 039e 84010000 		.4byte	.LASF54
 1029 03a2 10       		.byte	0x10
 1030 03a3 09       		.byte	0x9
 1031 03a4 2C       		.byte	0x2c
 1032 03a5 D4030000 		.4byte	0x3d4
 1033 03a9 06       		.uleb128 0x6
 1034 03aa 9D000000 		.4byte	.LASF55
 1035 03ae 09       		.byte	0x9
 1036 03af 2D       		.byte	0x2d
 1037 03b0 4A020000 		.4byte	0x24a
 1038 03b4 02       		.byte	0x2
 1039 03b5 23       		.byte	0x23
 1040 03b6 00       		.uleb128 0
 1041 03b7 06       		.uleb128 0x6
 1042 03b8 C6030000 		.4byte	.LASF56
 1043 03bc 09       		.byte	0x9
 1044 03bd 2F       		.byte	0x2f
 1045 03be 44020000 		.4byte	0x244
 1046 03c2 02       		.byte	0x2
 1047 03c3 23       		.byte	0x23
 1048 03c4 08       		.uleb128 0x8
 1049 03c5 06       		.uleb128 0x6
 1050 03c6 CE020000 		.4byte	.LASF57
 1051 03ca 09       		.byte	0x9
 1052 03cb 31       		.byte	0x31
 1053 03cc D4030000 		.4byte	0x3d4
 1054 03d0 02       		.byte	0x2
 1055 03d1 23       		.byte	0x23
 1056 03d2 0C       		.uleb128 0xc
 1057 03d3 00       		.byte	0
 1058 03d4 09       		.uleb128 0x9
 1059 03d5 04       		.byte	0x4
 1060 03d6 9D030000 		.4byte	0x39d
 1061 03da 04       		.uleb128 0x4
 1062 03db 84010000 		.4byte	.LASF54
 1063 03df 09       		.byte	0x9
 1064 03e0 33       		.byte	0x33
 1065 03e1 9D030000 		.4byte	0x39d
 1066 03e5 05       		.uleb128 0x5
 1067 03e6 AF000000 		.4byte	.LASF58
 1068 03ea 08       		.byte	0x8
 1069 03eb 0A       		.byte	0xa
 1070 03ec 36       		.byte	0x36
 1071 03ed 00040000 		.4byte	0x400
 1072 03f1 06       		.uleb128 0x6
 1073 03f2 73020000 		.4byte	.LASF59
 1074 03f6 0A       		.byte	0xa
 1075 03f7 37       		.byte	0x37
ARM GAS  C:\Users\3130\AppData\Local\Temp\ccB4W5HA.s 			page 20


 1076 03f8 4A020000 		.4byte	0x24a
 1077 03fc 02       		.byte	0x2
 1078 03fd 23       		.byte	0x23
 1079 03fe 00       		.uleb128 0
 1080 03ff 00       		.byte	0
 1081 0400 04       		.uleb128 0x4
 1082 0401 AF000000 		.4byte	.LASF58
 1083 0405 0A       		.byte	0xa
 1084 0406 38       		.byte	0x38
 1085 0407 E5030000 		.4byte	0x3e5
 1086 040b 0C       		.uleb128 0xc
 1087 040c 04       		.byte	0x4
 1088 040d 06       		.byte	0x6
 1089 040e 96       		.byte	0x96
 1090 040f 40040000 		.4byte	0x440
 1091 0413 0D       		.uleb128 0xd
 1092 0414 3C000000 		.4byte	.LASF60
 1093 0418 06       		.byte	0x6
 1094 0419 9D       		.byte	0x9d
 1095 041a CE000000 		.4byte	0xce
 1096 041e 0D       		.uleb128 0xd
 1097 041f 5A000000 		.4byte	.LASF61
 1098 0423 06       		.byte	0x6
 1099 0424 A4       		.byte	0xa4
 1100 0425 CE000000 		.4byte	0xce
 1101 0429 0D       		.uleb128 0xd
 1102 042a 91030000 		.4byte	.LASF62
 1103 042e 06       		.byte	0x6
 1104 042f AB       		.byte	0xab
 1105 0430 82020000 		.4byte	0x282
 1106 0434 0D       		.uleb128 0xd
 1107 0435 56020000 		.4byte	.LASF63
 1108 0439 06       		.byte	0x6
 1109 043a B2       		.byte	0xb2
 1110 043b D9000000 		.4byte	0xd9
 1111 043f 00       		.byte	0
 1112 0440 09       		.uleb128 0x9
 1113 0441 04       		.byte	0x4
 1114 0442 46040000 		.4byte	0x446
 1115 0446 0E       		.uleb128 0xe
 1116 0447 4B040000 		.4byte	0x44b
 1117 044b 03       		.uleb128 0x3
 1118 044c 01       		.byte	0x1
 1119 044d 08       		.byte	0x8
 1120 044e B1020000 		.4byte	.LASF64
 1121 0452 09       		.uleb128 0x9
 1122 0453 04       		.byte	0x4
 1123 0454 DA030000 		.4byte	0x3da
 1124 0458 0F       		.uleb128 0xf
 1125 0459 B6020000 		.4byte	.LASF82
 1126 045d 02       		.byte	0x2
 1127 045e 3B       		.byte	0x3b
 1128 045f 01       		.byte	0x1
 1129 0460 44020000 		.4byte	0x244
 1130 0464 03       		.byte	0x3
 1131 0465 7F040000 		.4byte	0x47f
 1132 0469 10       		.uleb128 0x10
ARM GAS  C:\Users\3130\AppData\Local\Temp\ccB4W5HA.s 			page 21


 1133 046a 74717000 		.ascii	"tqp\000"
 1134 046e 02       		.byte	0x2
 1135 046f 3B       		.byte	0x3b
 1136 0470 7F040000 		.4byte	0x47f
 1137 0474 11       		.uleb128 0x11
 1138 0475 747000   		.ascii	"tp\000"
 1139 0478 02       		.byte	0x2
 1140 0479 3C       		.byte	0x3c
 1141 047a 44020000 		.4byte	0x244
 1142 047e 00       		.byte	0
 1143 047f 09       		.uleb128 0x9
 1144 0480 04       		.byte	0x4
 1145 0481 4A020000 		.4byte	0x24a
 1146 0485 12       		.uleb128 0x12
 1147 0486 58010000 		.4byte	.LASF83
 1148 048a 02       		.byte	0x2
 1149 048b 29       		.byte	0x29
 1150 048c 01       		.byte	0x1
 1151 048d 03       		.byte	0x3
 1152 048e B2040000 		.4byte	0x4b2
 1153 0492 10       		.uleb128 0x10
 1154 0493 747000   		.ascii	"tp\000"
 1155 0496 02       		.byte	0x2
 1156 0497 29       		.byte	0x29
 1157 0498 44020000 		.4byte	0x244
 1158 049c 10       		.uleb128 0x10
 1159 049d 74717000 		.ascii	"tqp\000"
 1160 04a1 02       		.byte	0x2
 1161 04a2 29       		.byte	0x29
 1162 04a3 7F040000 		.4byte	0x47f
 1163 04a7 11       		.uleb128 0x11
 1164 04a8 637000   		.ascii	"cp\000"
 1165 04ab 02       		.byte	0x2
 1166 04ac 2B       		.byte	0x2b
 1167 04ad 44020000 		.4byte	0x244
 1168 04b1 00       		.byte	0
 1169 04b2 13       		.uleb128 0x13
 1170 04b3 01       		.byte	0x1
 1171 04b4 31000000 		.4byte	.LASF65
 1172 04b8 01       		.byte	0x1
 1173 04b9 3B       		.byte	0x3b
 1174 04ba 01       		.byte	0x1
 1175 04bb 00000000 		.4byte	.LFB7
 1176 04bf 06000000 		.4byte	.LFE7
 1177 04c3 02       		.byte	0x2
 1178 04c4 7D       		.byte	0x7d
 1179 04c5 00       		.sleb128 0
 1180 04c6 01       		.byte	0x1
 1181 04c7 D8040000 		.4byte	0x4d8
 1182 04cb 14       		.uleb128 0x14
 1183 04cc 637000   		.ascii	"cp\000"
 1184 04cf 01       		.byte	0x1
 1185 04d0 3B       		.byte	0x3b
 1186 04d1 D8040000 		.4byte	0x4d8
 1187 04d5 01       		.byte	0x1
 1188 04d6 50       		.byte	0x50
 1189 04d7 00       		.byte	0
ARM GAS  C:\Users\3130\AppData\Local\Temp\ccB4W5HA.s 			page 22


 1190 04d8 09       		.uleb128 0x9
 1191 04d9 04       		.byte	0x4
 1192 04da 00040000 		.4byte	0x400
 1193 04de 15       		.uleb128 0x15
 1194 04df 01       		.byte	0x1
 1195 04e0 FE000000 		.4byte	.LASF66
 1196 04e4 01       		.byte	0x1
 1197 04e5 49       		.byte	0x49
 1198 04e6 01       		.byte	0x1
 1199 04e7 00000000 		.4byte	.LFB8
 1200 04eb 1C000000 		.4byte	.LFE8
 1201 04ef 00000000 		.4byte	.LLST0
 1202 04f3 01       		.byte	0x1
 1203 04f4 42050000 		.4byte	0x542
 1204 04f8 16       		.uleb128 0x16
 1205 04f9 637000   		.ascii	"cp\000"
 1206 04fc 01       		.byte	0x1
 1207 04fd 49       		.byte	0x49
 1208 04fe D8040000 		.4byte	0x4d8
 1209 0502 20000000 		.4byte	.LLST1
 1210 0506 17       		.uleb128 0x17
 1211 0507 58040000 		.4byte	0x458
 1212 050b 0A000000 		.4byte	.LBB12
 1213 050f 00000000 		.4byte	.Ldebug_ranges0+0
 1214 0513 01       		.byte	0x1
 1215 0514 4F       		.byte	0x4f
 1216 0515 32050000 		.4byte	0x532
 1217 0519 18       		.uleb128 0x18
 1218 051a 69040000 		.4byte	0x469
 1219 051e 4D000000 		.4byte	.LLST2
 1220 0522 19       		.uleb128 0x19
 1221 0523 18000000 		.4byte	.Ldebug_ranges0+0x18
 1222 0527 1A       		.uleb128 0x1a
 1223 0528 74040000 		.4byte	0x474
 1224 052c 7A000000 		.4byte	.LLST3
 1225 0530 00       		.byte	0
 1226 0531 00       		.byte	0
 1227 0532 1B       		.uleb128 0x1b
 1228 0533 18000000 		.4byte	.LVL4
 1229 0537 86080000 		.4byte	0x886
 1230 053b 1C       		.uleb128 0x1c
 1231 053c 01       		.byte	0x1
 1232 053d 51       		.byte	0x51
 1233 053e 01       		.byte	0x1
 1234 053f 30       		.byte	0x30
 1235 0540 00       		.byte	0
 1236 0541 00       		.byte	0
 1237 0542 15       		.uleb128 0x15
 1238 0543 01       		.byte	0x1
 1239 0544 FF010000 		.4byte	.LASF67
 1240 0548 01       		.byte	0x1
 1241 0549 5E       		.byte	0x5e
 1242 054a 01       		.byte	0x1
 1243 054b 00000000 		.4byte	.LFB9
 1244 054f 1A000000 		.4byte	.LFE9
 1245 0553 8D000000 		.4byte	.LLST4
 1246 0557 01       		.byte	0x1
ARM GAS  C:\Users\3130\AppData\Local\Temp\ccB4W5HA.s 			page 23


 1247 0558 A4050000 		.4byte	0x5a4
 1248 055c 16       		.uleb128 0x16
 1249 055d 637000   		.ascii	"cp\000"
 1250 0560 01       		.byte	0x1
 1251 0561 5E       		.byte	0x5e
 1252 0562 D8040000 		.4byte	0x4d8
 1253 0566 AD000000 		.4byte	.LLST5
 1254 056a 1D       		.uleb128 0x1d
 1255 056b 58040000 		.4byte	0x458
 1256 056f 08000000 		.4byte	.LBB16
 1257 0573 0E000000 		.4byte	.LBE16
 1258 0577 01       		.byte	0x1
 1259 0578 64       		.byte	0x64
 1260 0579 9A050000 		.4byte	0x59a
 1261 057d 18       		.uleb128 0x18
 1262 057e 69040000 		.4byte	0x469
 1263 0582 DA000000 		.4byte	.LLST6
 1264 0586 1E       		.uleb128 0x1e
 1265 0587 08000000 		.4byte	.LBB17
 1266 058b 0E000000 		.4byte	.LBE17
 1267 058f 1A       		.uleb128 0x1a
 1268 0590 74040000 		.4byte	0x474
 1269 0594 07010000 		.4byte	.LLST7
 1270 0598 00       		.byte	0
 1271 0599 00       		.byte	0
 1272 059a 1F       		.uleb128 0x1f
 1273 059b 14000000 		.4byte	.LVL8
 1274 059f 9F080000 		.4byte	0x89f
 1275 05a3 00       		.byte	0
 1276 05a4 15       		.uleb128 0x15
 1277 05a5 01       		.byte	0x1
 1278 05a6 63000000 		.4byte	.LASF68
 1279 05aa 01       		.byte	0x1
 1280 05ab 81       		.byte	0x81
 1281 05ac 01       		.byte	0x1
 1282 05ad 00000000 		.4byte	.LFB11
 1283 05b1 22000000 		.4byte	.LFE11
 1284 05b5 1A010000 		.4byte	.LLST8
 1285 05b9 01       		.byte	0x1
 1286 05ba 06060000 		.4byte	0x606
 1287 05be 16       		.uleb128 0x16
 1288 05bf 637000   		.ascii	"cp\000"
 1289 05c2 01       		.byte	0x1
 1290 05c3 81       		.byte	0x81
 1291 05c4 D8040000 		.4byte	0x4d8
 1292 05c8 3A010000 		.4byte	.LLST9
 1293 05cc 1D       		.uleb128 0x1d
 1294 05cd 58040000 		.4byte	0x458
 1295 05d1 0E000000 		.4byte	.LBB18
 1296 05d5 14000000 		.4byte	.LBE18
 1297 05d9 01       		.byte	0x1
 1298 05da 8A       		.byte	0x8a
 1299 05db FC050000 		.4byte	0x5fc
 1300 05df 18       		.uleb128 0x18
 1301 05e0 69040000 		.4byte	0x469
 1302 05e4 66010000 		.4byte	.LLST10
 1303 05e8 1E       		.uleb128 0x1e
ARM GAS  C:\Users\3130\AppData\Local\Temp\ccB4W5HA.s 			page 24


 1304 05e9 0E000000 		.4byte	.LBB19
 1305 05ed 14000000 		.4byte	.LBE19
 1306 05f1 1A       		.uleb128 0x1a
 1307 05f2 74040000 		.4byte	0x474
 1308 05f6 79010000 		.4byte	.LLST11
 1309 05fa 00       		.byte	0
 1310 05fb 00       		.byte	0
 1311 05fc 1F       		.uleb128 0x1f
 1312 05fd 18000000 		.4byte	.LVL13
 1313 0601 9F080000 		.4byte	0x89f
 1314 0605 00       		.byte	0
 1315 0606 15       		.uleb128 0x15
 1316 0607 01       		.byte	0x1
 1317 0608 D8010000 		.4byte	.LASF69
 1318 060c 01       		.byte	0x1
 1319 060d 6E       		.byte	0x6e
 1320 060e 01       		.byte	0x1
 1321 060f 00000000 		.4byte	.LFB10
 1322 0613 10000000 		.4byte	.LFE10
 1323 0617 8C010000 		.4byte	.LLST12
 1324 061b 01       		.byte	0x1
 1325 061c 4D060000 		.4byte	0x64d
 1326 0620 16       		.uleb128 0x16
 1327 0621 637000   		.ascii	"cp\000"
 1328 0624 01       		.byte	0x1
 1329 0625 6E       		.byte	0x6e
 1330 0626 D8040000 		.4byte	0x4d8
 1331 062a AC010000 		.4byte	.LLST13
 1332 062e 20       		.uleb128 0x20
 1333 062f 08000000 		.4byte	.LVL17
 1334 0633 A4050000 		.4byte	0x5a4
 1335 0637 43060000 		.4byte	0x643
 1336 063b 1C       		.uleb128 0x1c
 1337 063c 01       		.byte	0x1
 1338 063d 50       		.byte	0x50
 1339 063e 03       		.byte	0x3
 1340 063f F3       		.byte	0xf3
 1341 0640 01       		.uleb128 0x1
 1342 0641 50       		.byte	0x50
 1343 0642 00       		.byte	0
 1344 0643 1F       		.uleb128 0x1f
 1345 0644 0C000000 		.4byte	.LVL18
 1346 0648 B7080000 		.4byte	0x8b7
 1347 064c 00       		.byte	0
 1348 064d 21       		.uleb128 0x21
 1349 064e 01       		.byte	0x1
 1350 064f C2020000 		.4byte	.LASF70
 1351 0653 01       		.byte	0x1
 1352 0654 B8       		.byte	0xb8
 1353 0655 01       		.byte	0x1
 1354 0656 CE000000 		.4byte	0xce
 1355 065a 00000000 		.4byte	.LFB13
 1356 065e 48000000 		.4byte	.LFE13
 1357 0662 CD010000 		.4byte	.LLST14
 1358 0666 01       		.byte	0x1
 1359 0667 07070000 		.4byte	0x707
 1360 066b 16       		.uleb128 0x16
ARM GAS  C:\Users\3130\AppData\Local\Temp\ccB4W5HA.s 			page 25


 1361 066c 637000   		.ascii	"cp\000"
 1362 066f 01       		.byte	0x1
 1363 0670 B8       		.byte	0xb8
 1364 0671 D8040000 		.4byte	0x4d8
 1365 0675 ED010000 		.4byte	.LLST15
 1366 0679 22       		.uleb128 0x22
 1367 067a 63747000 		.ascii	"ctp\000"
 1368 067e 01       		.byte	0x1
 1369 067f B9       		.byte	0xb9
 1370 0680 44020000 		.4byte	0x244
 1371 0684 51020000 		.4byte	.LLST16
 1372 0688 22       		.uleb128 0x22
 1373 0689 6D7000   		.ascii	"mp\000"
 1374 068c 01       		.byte	0x1
 1375 068d BA       		.byte	0xba
 1376 068e 52040000 		.4byte	0x452
 1377 0692 6F020000 		.4byte	.LLST17
 1378 0696 22       		.uleb128 0x22
 1379 0697 6D736700 		.ascii	"msg\000"
 1380 069b 01       		.byte	0x1
 1381 069c BB       		.byte	0xbb
 1382 069d CE000000 		.4byte	0xce
 1383 06a1 98020000 		.4byte	.LLST18
 1384 06a5 17       		.uleb128 0x17
 1385 06a6 85040000 		.4byte	0x485
 1386 06aa 16000000 		.4byte	.LBB20
 1387 06ae 30000000 		.4byte	.Ldebug_ranges0+0x30
 1388 06b2 01       		.byte	0x1
 1389 06b3 C5       		.byte	0xc5
 1390 06b4 DA060000 		.4byte	0x6da
 1391 06b8 18       		.uleb128 0x18
 1392 06b9 9C040000 		.4byte	0x49c
 1393 06bd B6020000 		.4byte	.LLST19
 1394 06c1 18       		.uleb128 0x18
 1395 06c2 92040000 		.4byte	0x492
 1396 06c6 0F030000 		.4byte	.LLST20
 1397 06ca 19       		.uleb128 0x19
 1398 06cb 48000000 		.4byte	.Ldebug_ranges0+0x48
 1399 06cf 1A       		.uleb128 0x1a
 1400 06d0 A7040000 		.4byte	0x4a7
 1401 06d4 2D030000 		.4byte	.LLST21
 1402 06d8 00       		.byte	0
 1403 06d9 00       		.byte	0
 1404 06da 1F       		.uleb128 0x1f
 1405 06db 0C000000 		.4byte	.LVL21
 1406 06df C1080000 		.4byte	0x8c1
 1407 06e3 20       		.uleb128 0x20
 1408 06e4 34000000 		.4byte	.LVL28
 1409 06e8 CF080000 		.4byte	0x8cf
 1410 06ec F6060000 		.4byte	0x6f6
 1411 06f0 1C       		.uleb128 0x1c
 1412 06f1 01       		.byte	0x1
 1413 06f2 50       		.byte	0x50
 1414 06f3 01       		.byte	0x1
 1415 06f4 35       		.byte	0x35
 1416 06f5 00       		.byte	0
 1417 06f6 1B       		.uleb128 0x1b
ARM GAS  C:\Users\3130\AppData\Local\Temp\ccB4W5HA.s 			page 26


 1418 06f7 3C000000 		.4byte	.LVL30
 1419 06fb E3080000 		.4byte	0x8e3
 1420 06ff 1C       		.uleb128 0x1c
 1421 0700 01       		.byte	0x1
 1422 0701 50       		.byte	0x50
 1423 0702 02       		.byte	0x2
 1424 0703 76       		.byte	0x76
 1425 0704 00       		.sleb128 0
 1426 0705 00       		.byte	0
 1427 0706 00       		.byte	0
 1428 0707 21       		.uleb128 0x21
 1429 0708 01       		.byte	0x1
 1430 0709 EA020000 		.4byte	.LASF71
 1431 070d 01       		.byte	0x1
 1432 070e 9E       		.byte	0x9e
 1433 070f 01       		.byte	0x1
 1434 0710 CE000000 		.4byte	0xce
 1435 0714 00000000 		.4byte	.LFB12
 1436 0718 0C000000 		.4byte	.LFE12
 1437 071c 56030000 		.4byte	.LLST22
 1438 0720 01       		.byte	0x1
 1439 0721 52070000 		.4byte	0x752
 1440 0725 16       		.uleb128 0x16
 1441 0726 637000   		.ascii	"cp\000"
 1442 0729 01       		.byte	0x1
 1443 072a 9E       		.byte	0x9e
 1444 072b D8040000 		.4byte	0x4d8
 1445 072f 76030000 		.4byte	.LLST23
 1446 0733 23       		.uleb128 0x23
 1447 0734 6D736700 		.ascii	"msg\000"
 1448 0738 01       		.byte	0x1
 1449 0739 9F       		.byte	0x9f
 1450 073a CE000000 		.4byte	0xce
 1451 073e 01       		.byte	0x1
 1452 073f 50       		.byte	0x50
 1453 0740 1B       		.uleb128 0x1b
 1454 0741 08000000 		.4byte	.LVL36
 1455 0745 4D060000 		.4byte	0x64d
 1456 0749 1C       		.uleb128 0x1c
 1457 074a 01       		.byte	0x1
 1458 074b 50       		.byte	0x50
 1459 074c 03       		.byte	0x3
 1460 074d F3       		.byte	0xf3
 1461 074e 01       		.uleb128 0x1
 1462 074f 50       		.byte	0x50
 1463 0750 00       		.byte	0
 1464 0751 00       		.byte	0
 1465 0752 24       		.uleb128 0x24
 1466 0753 01       		.byte	0x1
 1467 0754 93010000 		.4byte	.LASF72
 1468 0758 01       		.byte	0x1
 1469 0759 0E01     		.2byte	0x10e
 1470 075b 01       		.byte	0x1
 1471 075c CE000000 		.4byte	0xce
 1472 0760 00000000 		.4byte	.LFB15
 1473 0764 48000000 		.4byte	.LFE15
 1474 0768 97030000 		.4byte	.LLST24
ARM GAS  C:\Users\3130\AppData\Local\Temp\ccB4W5HA.s 			page 27


 1475 076c 01       		.byte	0x1
 1476 076d 18080000 		.4byte	0x818
 1477 0771 25       		.uleb128 0x25
 1478 0772 637000   		.ascii	"cp\000"
 1479 0775 01       		.byte	0x1
 1480 0776 0E01     		.2byte	0x10e
 1481 0778 D8040000 		.4byte	0x4d8
 1482 077c B7030000 		.4byte	.LLST25
 1483 0780 26       		.uleb128 0x26
 1484 0781 C1010000 		.4byte	.LASF73
 1485 0785 01       		.byte	0x1
 1486 0786 0E01     		.2byte	0x10e
 1487 0788 E4000000 		.4byte	0xe4
 1488 078c EF030000 		.4byte	.LLST26
 1489 0790 27       		.uleb128 0x27
 1490 0791 6D7000   		.ascii	"mp\000"
 1491 0794 01       		.byte	0x1
 1492 0795 0F01     		.2byte	0x10f
 1493 0797 52040000 		.4byte	0x452
 1494 079b 1B040000 		.4byte	.LLST27
 1495 079f 27       		.uleb128 0x27
 1496 07a0 6D736700 		.ascii	"msg\000"
 1497 07a4 01       		.byte	0x1
 1498 07a5 1001     		.2byte	0x110
 1499 07a7 CE000000 		.4byte	0xce
 1500 07ab 39040000 		.4byte	.LLST28
 1501 07af 28       		.uleb128 0x28
 1502 07b0 85040000 		.4byte	0x485
 1503 07b4 14000000 		.4byte	.LBB24
 1504 07b8 60000000 		.4byte	.Ldebug_ranges0+0x60
 1505 07bc 01       		.byte	0x1
 1506 07bd 1A01     		.2byte	0x11a
 1507 07bf E5070000 		.4byte	0x7e5
 1508 07c3 18       		.uleb128 0x18
 1509 07c4 9C040000 		.4byte	0x49c
 1510 07c8 62040000 		.4byte	.LLST29
 1511 07cc 18       		.uleb128 0x18
 1512 07cd 92040000 		.4byte	0x492
 1513 07d1 8F040000 		.4byte	.LLST30
 1514 07d5 19       		.uleb128 0x19
 1515 07d6 78000000 		.4byte	.Ldebug_ranges0+0x78
 1516 07da 1A       		.uleb128 0x1a
 1517 07db A7040000 		.4byte	0x4a7
 1518 07df A2040000 		.4byte	.LLST31
 1519 07e3 00       		.byte	0
 1520 07e4 00       		.byte	0
 1521 07e5 1F       		.uleb128 0x1f
 1522 07e6 0A000000 		.4byte	.LVL38
 1523 07ea C1080000 		.4byte	0x8c1
 1524 07ee 20       		.uleb128 0x20
 1525 07ef 34000000 		.4byte	.LVL43
 1526 07f3 F7080000 		.4byte	0x8f7
 1527 07f7 07080000 		.4byte	0x807
 1528 07fb 1C       		.uleb128 0x1c
 1529 07fc 01       		.byte	0x1
 1530 07fd 51       		.byte	0x51
 1531 07fe 02       		.byte	0x2
ARM GAS  C:\Users\3130\AppData\Local\Temp\ccB4W5HA.s 			page 28


 1532 07ff 75       		.byte	0x75
 1533 0800 00       		.sleb128 0
 1534 0801 1C       		.uleb128 0x1c
 1535 0802 01       		.byte	0x1
 1536 0803 50       		.byte	0x50
 1537 0804 01       		.byte	0x1
 1538 0805 35       		.byte	0x35
 1539 0806 00       		.byte	0
 1540 0807 1B       		.uleb128 0x1b
 1541 0808 40000000 		.4byte	.LVL46
 1542 080c E3080000 		.4byte	0x8e3
 1543 0810 1C       		.uleb128 0x1c
 1544 0811 01       		.byte	0x1
 1545 0812 50       		.byte	0x50
 1546 0813 02       		.byte	0x2
 1547 0814 76       		.byte	0x76
 1548 0815 00       		.sleb128 0
 1549 0816 00       		.byte	0
 1550 0817 00       		.byte	0
 1551 0818 21       		.uleb128 0x21
 1552 0819 01       		.byte	0x1
 1553 081a 9F030000 		.4byte	.LASF74
 1554 081e 01       		.byte	0x1
 1555 081f E9       		.byte	0xe9
 1556 0820 01       		.byte	0x1
 1557 0821 CE000000 		.4byte	0xce
 1558 0825 00000000 		.4byte	.LFB14
 1559 0829 0C000000 		.4byte	.LFE14
 1560 082d B5040000 		.4byte	.LLST32
 1561 0831 01       		.byte	0x1
 1562 0832 79080000 		.4byte	0x879
 1563 0836 16       		.uleb128 0x16
 1564 0837 637000   		.ascii	"cp\000"
 1565 083a 01       		.byte	0x1
 1566 083b E9       		.byte	0xe9
 1567 083c D8040000 		.4byte	0x4d8
 1568 0840 D5040000 		.4byte	.LLST33
 1569 0844 29       		.uleb128 0x29
 1570 0845 C1010000 		.4byte	.LASF73
 1571 0849 01       		.byte	0x1
 1572 084a E9       		.byte	0xe9
 1573 084b E4000000 		.4byte	0xe4
 1574 084f F6040000 		.4byte	.LLST34
 1575 0853 23       		.uleb128 0x23
 1576 0854 6D736700 		.ascii	"msg\000"
 1577 0858 01       		.byte	0x1
 1578 0859 EA       		.byte	0xea
 1579 085a CE000000 		.4byte	0xce
 1580 085e 01       		.byte	0x1
 1581 085f 50       		.byte	0x50
 1582 0860 1B       		.uleb128 0x1b
 1583 0861 08000000 		.4byte	.LVL50
 1584 0865 52070000 		.4byte	0x752
 1585 0869 1C       		.uleb128 0x1c
 1586 086a 01       		.byte	0x1
 1587 086b 51       		.byte	0x51
 1588 086c 03       		.byte	0x3
ARM GAS  C:\Users\3130\AppData\Local\Temp\ccB4W5HA.s 			page 29


 1589 086d F3       		.byte	0xf3
 1590 086e 01       		.uleb128 0x1
 1591 086f 51       		.byte	0x51
 1592 0870 1C       		.uleb128 0x1c
 1593 0871 01       		.byte	0x1
 1594 0872 50       		.byte	0x50
 1595 0873 03       		.byte	0x3
 1596 0874 F3       		.byte	0xf3
 1597 0875 01       		.uleb128 0x1
 1598 0876 50       		.byte	0x50
 1599 0877 00       		.byte	0
 1600 0878 00       		.byte	0
 1601 0879 2A       		.uleb128 0x2a
 1602 087a 61030000 		.4byte	.LASF84
 1603 087e 08       		.byte	0x8
 1604 087f 6F       		.byte	0x6f
 1605 0880 92030000 		.4byte	0x392
 1606 0884 01       		.byte	0x1
 1607 0885 01       		.byte	0x1
 1608 0886 2B       		.uleb128 0x2b
 1609 0887 01       		.byte	0x1
 1610 0888 43030000 		.4byte	.LASF75
 1611 088c 08       		.byte	0x8
 1612 088d 99       		.byte	0x99
 1613 088e 01       		.byte	0x1
 1614 088f 01       		.byte	0x1
 1615 0890 9F080000 		.4byte	0x89f
 1616 0894 2C       		.uleb128 0x2c
 1617 0895 44020000 		.4byte	0x244
 1618 0899 2C       		.uleb128 0x2c
 1619 089a CE000000 		.4byte	0xce
 1620 089e 00       		.byte	0
 1621 089f 2D       		.uleb128 0x2d
 1622 08a0 01       		.byte	0x1
 1623 08a1 A5020000 		.4byte	.LASF85
 1624 08a5 08       		.byte	0x8
 1625 08a6 90       		.byte	0x90
 1626 08a7 01       		.byte	0x1
 1627 08a8 44020000 		.4byte	0x244
 1628 08ac 01       		.byte	0x1
 1629 08ad B7080000 		.4byte	0x8b7
 1630 08b1 2C       		.uleb128 0x2c
 1631 08b2 44020000 		.4byte	0x244
 1632 08b6 00       		.byte	0
 1633 08b7 2E       		.uleb128 0x2e
 1634 08b8 01       		.byte	0x1
 1635 08b9 DC000000 		.4byte	.LASF86
 1636 08bd 08       		.byte	0x8
 1637 08be 9C       		.byte	0x9c
 1638 08bf 01       		.byte	0x1
 1639 08c0 01       		.byte	0x1
 1640 08c1 2F       		.uleb128 0x2f
 1641 08c2 01       		.byte	0x1
 1642 08c3 0B010000 		.4byte	.LASF87
 1643 08c7 09       		.byte	0x9
 1644 08c8 3E       		.byte	0x3e
 1645 08c9 01       		.byte	0x1
ARM GAS  C:\Users\3130\AppData\Local\Temp\ccB4W5HA.s 			page 30


 1646 08ca 52040000 		.4byte	0x452
 1647 08ce 01       		.byte	0x1
 1648 08cf 2B       		.uleb128 0x2b
 1649 08d0 01       		.byte	0x1
 1650 08d1 7B020000 		.4byte	.LASF76
 1651 08d5 08       		.byte	0x8
 1652 08d6 93       		.byte	0x93
 1653 08d7 01       		.byte	0x1
 1654 08d8 01       		.byte	0x1
 1655 08d9 E3080000 		.4byte	0x8e3
 1656 08dd 2C       		.uleb128 0x2c
 1657 08de A2000000 		.4byte	0xa2
 1658 08e2 00       		.byte	0
 1659 08e3 2B       		.uleb128 0x2b
 1660 08e4 01       		.byte	0x1
 1661 08e5 C9000000 		.4byte	.LASF77
 1662 08e9 09       		.byte	0x9
 1663 08ea 3A       		.byte	0x3a
 1664 08eb 01       		.byte	0x1
 1665 08ec 01       		.byte	0x1
 1666 08ed F7080000 		.4byte	0x8f7
 1667 08f1 2C       		.uleb128 0x2c
 1668 08f2 52040000 		.4byte	0x452
 1669 08f6 00       		.byte	0
 1670 08f7 30       		.uleb128 0x30
 1671 08f8 01       		.byte	0x1
 1672 08f9 B1030000 		.4byte	.LASF78
 1673 08fd 08       		.byte	0x8
 1674 08fe 96       		.byte	0x96
 1675 08ff 01       		.byte	0x1
 1676 0900 CE000000 		.4byte	0xce
 1677 0904 01       		.byte	0x1
 1678 0905 2C       		.uleb128 0x2c
 1679 0906 A2000000 		.4byte	0xa2
 1680 090a 2C       		.uleb128 0x2c
 1681 090b E4000000 		.4byte	0xe4
 1682 090f 00       		.byte	0
 1683 0910 00       		.byte	0
 1684              		.section	.debug_abbrev,"",%progbits
 1685              	.Ldebug_abbrev0:
 1686 0000 01       		.uleb128 0x1
 1687 0001 11       		.uleb128 0x11
 1688 0002 01       		.byte	0x1
 1689 0003 25       		.uleb128 0x25
 1690 0004 0E       		.uleb128 0xe
 1691 0005 13       		.uleb128 0x13
 1692 0006 0B       		.uleb128 0xb
 1693 0007 03       		.uleb128 0x3
 1694 0008 0E       		.uleb128 0xe
 1695 0009 1B       		.uleb128 0x1b
 1696 000a 0E       		.uleb128 0xe
 1697 000b 55       		.uleb128 0x55
 1698 000c 06       		.uleb128 0x6
 1699 000d 11       		.uleb128 0x11
 1700 000e 01       		.uleb128 0x1
 1701 000f 52       		.uleb128 0x52
 1702 0010 01       		.uleb128 0x1
ARM GAS  C:\Users\3130\AppData\Local\Temp\ccB4W5HA.s 			page 31


 1703 0011 10       		.uleb128 0x10
 1704 0012 06       		.uleb128 0x6
 1705 0013 00       		.byte	0
 1706 0014 00       		.byte	0
 1707 0015 02       		.uleb128 0x2
 1708 0016 24       		.uleb128 0x24
 1709 0017 00       		.byte	0
 1710 0018 0B       		.uleb128 0xb
 1711 0019 0B       		.uleb128 0xb
 1712 001a 3E       		.uleb128 0x3e
 1713 001b 0B       		.uleb128 0xb
 1714 001c 03       		.uleb128 0x3
 1715 001d 08       		.uleb128 0x8
 1716 001e 00       		.byte	0
 1717 001f 00       		.byte	0
 1718 0020 03       		.uleb128 0x3
 1719 0021 24       		.uleb128 0x24
 1720 0022 00       		.byte	0
 1721 0023 0B       		.uleb128 0xb
 1722 0024 0B       		.uleb128 0xb
 1723 0025 3E       		.uleb128 0x3e
 1724 0026 0B       		.uleb128 0xb
 1725 0027 03       		.uleb128 0x3
 1726 0028 0E       		.uleb128 0xe
 1727 0029 00       		.byte	0
 1728 002a 00       		.byte	0
 1729 002b 04       		.uleb128 0x4
 1730 002c 16       		.uleb128 0x16
 1731 002d 00       		.byte	0
 1732 002e 03       		.uleb128 0x3
 1733 002f 0E       		.uleb128 0xe
 1734 0030 3A       		.uleb128 0x3a
 1735 0031 0B       		.uleb128 0xb
 1736 0032 3B       		.uleb128 0x3b
 1737 0033 0B       		.uleb128 0xb
 1738 0034 49       		.uleb128 0x49
 1739 0035 13       		.uleb128 0x13
 1740 0036 00       		.byte	0
 1741 0037 00       		.byte	0
 1742 0038 05       		.uleb128 0x5
 1743 0039 13       		.uleb128 0x13
 1744 003a 01       		.byte	0x1
 1745 003b 03       		.uleb128 0x3
 1746 003c 0E       		.uleb128 0xe
 1747 003d 0B       		.uleb128 0xb
 1748 003e 0B       		.uleb128 0xb
 1749 003f 3A       		.uleb128 0x3a
 1750 0040 0B       		.uleb128 0xb
 1751 0041 3B       		.uleb128 0x3b
 1752 0042 0B       		.uleb128 0xb
 1753 0043 01       		.uleb128 0x1
 1754 0044 13       		.uleb128 0x13
 1755 0045 00       		.byte	0
 1756 0046 00       		.byte	0
 1757 0047 06       		.uleb128 0x6
 1758 0048 0D       		.uleb128 0xd
 1759 0049 00       		.byte	0
ARM GAS  C:\Users\3130\AppData\Local\Temp\ccB4W5HA.s 			page 32


 1760 004a 03       		.uleb128 0x3
 1761 004b 0E       		.uleb128 0xe
 1762 004c 3A       		.uleb128 0x3a
 1763 004d 0B       		.uleb128 0xb
 1764 004e 3B       		.uleb128 0x3b
 1765 004f 0B       		.uleb128 0xb
 1766 0050 49       		.uleb128 0x49
 1767 0051 13       		.uleb128 0x13
 1768 0052 38       		.uleb128 0x38
 1769 0053 0A       		.uleb128 0xa
 1770 0054 00       		.byte	0
 1771 0055 00       		.byte	0
 1772 0056 07       		.uleb128 0x7
 1773 0057 0D       		.uleb128 0xd
 1774 0058 00       		.byte	0
 1775 0059 03       		.uleb128 0x3
 1776 005a 08       		.uleb128 0x8
 1777 005b 3A       		.uleb128 0x3a
 1778 005c 0B       		.uleb128 0xb
 1779 005d 3B       		.uleb128 0x3b
 1780 005e 0B       		.uleb128 0xb
 1781 005f 49       		.uleb128 0x49
 1782 0060 13       		.uleb128 0x13
 1783 0061 38       		.uleb128 0x38
 1784 0062 0A       		.uleb128 0xa
 1785 0063 00       		.byte	0
 1786 0064 00       		.byte	0
 1787 0065 08       		.uleb128 0x8
 1788 0066 13       		.uleb128 0x13
 1789 0067 01       		.byte	0x1
 1790 0068 0B       		.uleb128 0xb
 1791 0069 0B       		.uleb128 0xb
 1792 006a 3A       		.uleb128 0x3a
 1793 006b 0B       		.uleb128 0xb
 1794 006c 3B       		.uleb128 0x3b
 1795 006d 0B       		.uleb128 0xb
 1796 006e 01       		.uleb128 0x1
 1797 006f 13       		.uleb128 0x13
 1798 0070 00       		.byte	0
 1799 0071 00       		.byte	0
 1800 0072 09       		.uleb128 0x9
 1801 0073 0F       		.uleb128 0xf
 1802 0074 00       		.byte	0
 1803 0075 0B       		.uleb128 0xb
 1804 0076 0B       		.uleb128 0xb
 1805 0077 49       		.uleb128 0x49
 1806 0078 13       		.uleb128 0x13
 1807 0079 00       		.byte	0
 1808 007a 00       		.byte	0
 1809 007b 0A       		.uleb128 0xa
 1810 007c 0F       		.uleb128 0xf
 1811 007d 00       		.byte	0
 1812 007e 0B       		.uleb128 0xb
 1813 007f 0B       		.uleb128 0xb
 1814 0080 00       		.byte	0
 1815 0081 00       		.byte	0
 1816 0082 0B       		.uleb128 0xb
ARM GAS  C:\Users\3130\AppData\Local\Temp\ccB4W5HA.s 			page 33


 1817 0083 35       		.uleb128 0x35
 1818 0084 00       		.byte	0
 1819 0085 49       		.uleb128 0x49
 1820 0086 13       		.uleb128 0x13
 1821 0087 00       		.byte	0
 1822 0088 00       		.byte	0
 1823 0089 0C       		.uleb128 0xc
 1824 008a 17       		.uleb128 0x17
 1825 008b 01       		.byte	0x1
 1826 008c 0B       		.uleb128 0xb
 1827 008d 0B       		.uleb128 0xb
 1828 008e 3A       		.uleb128 0x3a
 1829 008f 0B       		.uleb128 0xb
 1830 0090 3B       		.uleb128 0x3b
 1831 0091 0B       		.uleb128 0xb
 1832 0092 01       		.uleb128 0x1
 1833 0093 13       		.uleb128 0x13
 1834 0094 00       		.byte	0
 1835 0095 00       		.byte	0
 1836 0096 0D       		.uleb128 0xd
 1837 0097 0D       		.uleb128 0xd
 1838 0098 00       		.byte	0
 1839 0099 03       		.uleb128 0x3
 1840 009a 0E       		.uleb128 0xe
 1841 009b 3A       		.uleb128 0x3a
 1842 009c 0B       		.uleb128 0xb
 1843 009d 3B       		.uleb128 0x3b
 1844 009e 0B       		.uleb128 0xb
 1845 009f 49       		.uleb128 0x49
 1846 00a0 13       		.uleb128 0x13
 1847 00a1 00       		.byte	0
 1848 00a2 00       		.byte	0
 1849 00a3 0E       		.uleb128 0xe
 1850 00a4 26       		.uleb128 0x26
 1851 00a5 00       		.byte	0
 1852 00a6 49       		.uleb128 0x49
 1853 00a7 13       		.uleb128 0x13
 1854 00a8 00       		.byte	0
 1855 00a9 00       		.byte	0
 1856 00aa 0F       		.uleb128 0xf
 1857 00ab 2E       		.uleb128 0x2e
 1858 00ac 01       		.byte	0x1
 1859 00ad 03       		.uleb128 0x3
 1860 00ae 0E       		.uleb128 0xe
 1861 00af 3A       		.uleb128 0x3a
 1862 00b0 0B       		.uleb128 0xb
 1863 00b1 3B       		.uleb128 0x3b
 1864 00b2 0B       		.uleb128 0xb
 1865 00b3 27       		.uleb128 0x27
 1866 00b4 0C       		.uleb128 0xc
 1867 00b5 49       		.uleb128 0x49
 1868 00b6 13       		.uleb128 0x13
 1869 00b7 20       		.uleb128 0x20
 1870 00b8 0B       		.uleb128 0xb
 1871 00b9 01       		.uleb128 0x1
 1872 00ba 13       		.uleb128 0x13
 1873 00bb 00       		.byte	0
ARM GAS  C:\Users\3130\AppData\Local\Temp\ccB4W5HA.s 			page 34


 1874 00bc 00       		.byte	0
 1875 00bd 10       		.uleb128 0x10
 1876 00be 05       		.uleb128 0x5
 1877 00bf 00       		.byte	0
 1878 00c0 03       		.uleb128 0x3
 1879 00c1 08       		.uleb128 0x8
 1880 00c2 3A       		.uleb128 0x3a
 1881 00c3 0B       		.uleb128 0xb
 1882 00c4 3B       		.uleb128 0x3b
 1883 00c5 0B       		.uleb128 0xb
 1884 00c6 49       		.uleb128 0x49
 1885 00c7 13       		.uleb128 0x13
 1886 00c8 00       		.byte	0
 1887 00c9 00       		.byte	0
 1888 00ca 11       		.uleb128 0x11
 1889 00cb 34       		.uleb128 0x34
 1890 00cc 00       		.byte	0
 1891 00cd 03       		.uleb128 0x3
 1892 00ce 08       		.uleb128 0x8
 1893 00cf 3A       		.uleb128 0x3a
 1894 00d0 0B       		.uleb128 0xb
 1895 00d1 3B       		.uleb128 0x3b
 1896 00d2 0B       		.uleb128 0xb
 1897 00d3 49       		.uleb128 0x49
 1898 00d4 13       		.uleb128 0x13
 1899 00d5 00       		.byte	0
 1900 00d6 00       		.byte	0
 1901 00d7 12       		.uleb128 0x12
 1902 00d8 2E       		.uleb128 0x2e
 1903 00d9 01       		.byte	0x1
 1904 00da 03       		.uleb128 0x3
 1905 00db 0E       		.uleb128 0xe
 1906 00dc 3A       		.uleb128 0x3a
 1907 00dd 0B       		.uleb128 0xb
 1908 00de 3B       		.uleb128 0x3b
 1909 00df 0B       		.uleb128 0xb
 1910 00e0 27       		.uleb128 0x27
 1911 00e1 0C       		.uleb128 0xc
 1912 00e2 20       		.uleb128 0x20
 1913 00e3 0B       		.uleb128 0xb
 1914 00e4 01       		.uleb128 0x1
 1915 00e5 13       		.uleb128 0x13
 1916 00e6 00       		.byte	0
 1917 00e7 00       		.byte	0
 1918 00e8 13       		.uleb128 0x13
 1919 00e9 2E       		.uleb128 0x2e
 1920 00ea 01       		.byte	0x1
 1921 00eb 3F       		.uleb128 0x3f
 1922 00ec 0C       		.uleb128 0xc
 1923 00ed 03       		.uleb128 0x3
 1924 00ee 0E       		.uleb128 0xe
 1925 00ef 3A       		.uleb128 0x3a
 1926 00f0 0B       		.uleb128 0xb
 1927 00f1 3B       		.uleb128 0x3b
 1928 00f2 0B       		.uleb128 0xb
 1929 00f3 27       		.uleb128 0x27
 1930 00f4 0C       		.uleb128 0xc
ARM GAS  C:\Users\3130\AppData\Local\Temp\ccB4W5HA.s 			page 35


 1931 00f5 11       		.uleb128 0x11
 1932 00f6 01       		.uleb128 0x1
 1933 00f7 12       		.uleb128 0x12
 1934 00f8 01       		.uleb128 0x1
 1935 00f9 40       		.uleb128 0x40
 1936 00fa 0A       		.uleb128 0xa
 1937 00fb 9742     		.uleb128 0x2117
 1938 00fd 0C       		.uleb128 0xc
 1939 00fe 01       		.uleb128 0x1
 1940 00ff 13       		.uleb128 0x13
 1941 0100 00       		.byte	0
 1942 0101 00       		.byte	0
 1943 0102 14       		.uleb128 0x14
 1944 0103 05       		.uleb128 0x5
 1945 0104 00       		.byte	0
 1946 0105 03       		.uleb128 0x3
 1947 0106 08       		.uleb128 0x8
 1948 0107 3A       		.uleb128 0x3a
 1949 0108 0B       		.uleb128 0xb
 1950 0109 3B       		.uleb128 0x3b
 1951 010a 0B       		.uleb128 0xb
 1952 010b 49       		.uleb128 0x49
 1953 010c 13       		.uleb128 0x13
 1954 010d 02       		.uleb128 0x2
 1955 010e 0A       		.uleb128 0xa
 1956 010f 00       		.byte	0
 1957 0110 00       		.byte	0
 1958 0111 15       		.uleb128 0x15
 1959 0112 2E       		.uleb128 0x2e
 1960 0113 01       		.byte	0x1
 1961 0114 3F       		.uleb128 0x3f
 1962 0115 0C       		.uleb128 0xc
 1963 0116 03       		.uleb128 0x3
 1964 0117 0E       		.uleb128 0xe
 1965 0118 3A       		.uleb128 0x3a
 1966 0119 0B       		.uleb128 0xb
 1967 011a 3B       		.uleb128 0x3b
 1968 011b 0B       		.uleb128 0xb
 1969 011c 27       		.uleb128 0x27
 1970 011d 0C       		.uleb128 0xc
 1971 011e 11       		.uleb128 0x11
 1972 011f 01       		.uleb128 0x1
 1973 0120 12       		.uleb128 0x12
 1974 0121 01       		.uleb128 0x1
 1975 0122 40       		.uleb128 0x40
 1976 0123 06       		.uleb128 0x6
 1977 0124 9742     		.uleb128 0x2117
 1978 0126 0C       		.uleb128 0xc
 1979 0127 01       		.uleb128 0x1
 1980 0128 13       		.uleb128 0x13
 1981 0129 00       		.byte	0
 1982 012a 00       		.byte	0
 1983 012b 16       		.uleb128 0x16
 1984 012c 05       		.uleb128 0x5
 1985 012d 00       		.byte	0
 1986 012e 03       		.uleb128 0x3
 1987 012f 08       		.uleb128 0x8
ARM GAS  C:\Users\3130\AppData\Local\Temp\ccB4W5HA.s 			page 36


 1988 0130 3A       		.uleb128 0x3a
 1989 0131 0B       		.uleb128 0xb
 1990 0132 3B       		.uleb128 0x3b
 1991 0133 0B       		.uleb128 0xb
 1992 0134 49       		.uleb128 0x49
 1993 0135 13       		.uleb128 0x13
 1994 0136 02       		.uleb128 0x2
 1995 0137 06       		.uleb128 0x6
 1996 0138 00       		.byte	0
 1997 0139 00       		.byte	0
 1998 013a 17       		.uleb128 0x17
 1999 013b 1D       		.uleb128 0x1d
 2000 013c 01       		.byte	0x1
 2001 013d 31       		.uleb128 0x31
 2002 013e 13       		.uleb128 0x13
 2003 013f 52       		.uleb128 0x52
 2004 0140 01       		.uleb128 0x1
 2005 0141 55       		.uleb128 0x55
 2006 0142 06       		.uleb128 0x6
 2007 0143 58       		.uleb128 0x58
 2008 0144 0B       		.uleb128 0xb
 2009 0145 59       		.uleb128 0x59
 2010 0146 0B       		.uleb128 0xb
 2011 0147 01       		.uleb128 0x1
 2012 0148 13       		.uleb128 0x13
 2013 0149 00       		.byte	0
 2014 014a 00       		.byte	0
 2015 014b 18       		.uleb128 0x18
 2016 014c 05       		.uleb128 0x5
 2017 014d 00       		.byte	0
 2018 014e 31       		.uleb128 0x31
 2019 014f 13       		.uleb128 0x13
 2020 0150 02       		.uleb128 0x2
 2021 0151 06       		.uleb128 0x6
 2022 0152 00       		.byte	0
 2023 0153 00       		.byte	0
 2024 0154 19       		.uleb128 0x19
 2025 0155 0B       		.uleb128 0xb
 2026 0156 01       		.byte	0x1
 2027 0157 55       		.uleb128 0x55
 2028 0158 06       		.uleb128 0x6
 2029 0159 00       		.byte	0
 2030 015a 00       		.byte	0
 2031 015b 1A       		.uleb128 0x1a
 2032 015c 34       		.uleb128 0x34
 2033 015d 00       		.byte	0
 2034 015e 31       		.uleb128 0x31
 2035 015f 13       		.uleb128 0x13
 2036 0160 02       		.uleb128 0x2
 2037 0161 06       		.uleb128 0x6
 2038 0162 00       		.byte	0
 2039 0163 00       		.byte	0
 2040 0164 1B       		.uleb128 0x1b
 2041 0165 898201   		.uleb128 0x4109
 2042 0168 01       		.byte	0x1
 2043 0169 11       		.uleb128 0x11
 2044 016a 01       		.uleb128 0x1
ARM GAS  C:\Users\3130\AppData\Local\Temp\ccB4W5HA.s 			page 37


 2045 016b 31       		.uleb128 0x31
 2046 016c 13       		.uleb128 0x13
 2047 016d 00       		.byte	0
 2048 016e 00       		.byte	0
 2049 016f 1C       		.uleb128 0x1c
 2050 0170 8A8201   		.uleb128 0x410a
 2051 0173 00       		.byte	0
 2052 0174 02       		.uleb128 0x2
 2053 0175 0A       		.uleb128 0xa
 2054 0176 9142     		.uleb128 0x2111
 2055 0178 0A       		.uleb128 0xa
 2056 0179 00       		.byte	0
 2057 017a 00       		.byte	0
 2058 017b 1D       		.uleb128 0x1d
 2059 017c 1D       		.uleb128 0x1d
 2060 017d 01       		.byte	0x1
 2061 017e 31       		.uleb128 0x31
 2062 017f 13       		.uleb128 0x13
 2063 0180 11       		.uleb128 0x11
 2064 0181 01       		.uleb128 0x1
 2065 0182 12       		.uleb128 0x12
 2066 0183 01       		.uleb128 0x1
 2067 0184 58       		.uleb128 0x58
 2068 0185 0B       		.uleb128 0xb
 2069 0186 59       		.uleb128 0x59
 2070 0187 0B       		.uleb128 0xb
 2071 0188 01       		.uleb128 0x1
 2072 0189 13       		.uleb128 0x13
 2073 018a 00       		.byte	0
 2074 018b 00       		.byte	0
 2075 018c 1E       		.uleb128 0x1e
 2076 018d 0B       		.uleb128 0xb
 2077 018e 01       		.byte	0x1
 2078 018f 11       		.uleb128 0x11
 2079 0190 01       		.uleb128 0x1
 2080 0191 12       		.uleb128 0x12
 2081 0192 01       		.uleb128 0x1
 2082 0193 00       		.byte	0
 2083 0194 00       		.byte	0
 2084 0195 1F       		.uleb128 0x1f
 2085 0196 898201   		.uleb128 0x4109
 2086 0199 00       		.byte	0
 2087 019a 11       		.uleb128 0x11
 2088 019b 01       		.uleb128 0x1
 2089 019c 31       		.uleb128 0x31
 2090 019d 13       		.uleb128 0x13
 2091 019e 00       		.byte	0
 2092 019f 00       		.byte	0
 2093 01a0 20       		.uleb128 0x20
 2094 01a1 898201   		.uleb128 0x4109
 2095 01a4 01       		.byte	0x1
 2096 01a5 11       		.uleb128 0x11
 2097 01a6 01       		.uleb128 0x1
 2098 01a7 31       		.uleb128 0x31
 2099 01a8 13       		.uleb128 0x13
 2100 01a9 01       		.uleb128 0x1
 2101 01aa 13       		.uleb128 0x13
ARM GAS  C:\Users\3130\AppData\Local\Temp\ccB4W5HA.s 			page 38


 2102 01ab 00       		.byte	0
 2103 01ac 00       		.byte	0
 2104 01ad 21       		.uleb128 0x21
 2105 01ae 2E       		.uleb128 0x2e
 2106 01af 01       		.byte	0x1
 2107 01b0 3F       		.uleb128 0x3f
 2108 01b1 0C       		.uleb128 0xc
 2109 01b2 03       		.uleb128 0x3
 2110 01b3 0E       		.uleb128 0xe
 2111 01b4 3A       		.uleb128 0x3a
 2112 01b5 0B       		.uleb128 0xb
 2113 01b6 3B       		.uleb128 0x3b
 2114 01b7 0B       		.uleb128 0xb
 2115 01b8 27       		.uleb128 0x27
 2116 01b9 0C       		.uleb128 0xc
 2117 01ba 49       		.uleb128 0x49
 2118 01bb 13       		.uleb128 0x13
 2119 01bc 11       		.uleb128 0x11
 2120 01bd 01       		.uleb128 0x1
 2121 01be 12       		.uleb128 0x12
 2122 01bf 01       		.uleb128 0x1
 2123 01c0 40       		.uleb128 0x40
 2124 01c1 06       		.uleb128 0x6
 2125 01c2 9742     		.uleb128 0x2117
 2126 01c4 0C       		.uleb128 0xc
 2127 01c5 01       		.uleb128 0x1
 2128 01c6 13       		.uleb128 0x13
 2129 01c7 00       		.byte	0
 2130 01c8 00       		.byte	0
 2131 01c9 22       		.uleb128 0x22
 2132 01ca 34       		.uleb128 0x34
 2133 01cb 00       		.byte	0
 2134 01cc 03       		.uleb128 0x3
 2135 01cd 08       		.uleb128 0x8
 2136 01ce 3A       		.uleb128 0x3a
 2137 01cf 0B       		.uleb128 0xb
 2138 01d0 3B       		.uleb128 0x3b
 2139 01d1 0B       		.uleb128 0xb
 2140 01d2 49       		.uleb128 0x49
 2141 01d3 13       		.uleb128 0x13
 2142 01d4 02       		.uleb128 0x2
 2143 01d5 06       		.uleb128 0x6
 2144 01d6 00       		.byte	0
 2145 01d7 00       		.byte	0
 2146 01d8 23       		.uleb128 0x23
 2147 01d9 34       		.uleb128 0x34
 2148 01da 00       		.byte	0
 2149 01db 03       		.uleb128 0x3
 2150 01dc 08       		.uleb128 0x8
 2151 01dd 3A       		.uleb128 0x3a
 2152 01de 0B       		.uleb128 0xb
 2153 01df 3B       		.uleb128 0x3b
 2154 01e0 0B       		.uleb128 0xb
 2155 01e1 49       		.uleb128 0x49
 2156 01e2 13       		.uleb128 0x13
 2157 01e3 02       		.uleb128 0x2
 2158 01e4 0A       		.uleb128 0xa
ARM GAS  C:\Users\3130\AppData\Local\Temp\ccB4W5HA.s 			page 39


 2159 01e5 00       		.byte	0
 2160 01e6 00       		.byte	0
 2161 01e7 24       		.uleb128 0x24
 2162 01e8 2E       		.uleb128 0x2e
 2163 01e9 01       		.byte	0x1
 2164 01ea 3F       		.uleb128 0x3f
 2165 01eb 0C       		.uleb128 0xc
 2166 01ec 03       		.uleb128 0x3
 2167 01ed 0E       		.uleb128 0xe
 2168 01ee 3A       		.uleb128 0x3a
 2169 01ef 0B       		.uleb128 0xb
 2170 01f0 3B       		.uleb128 0x3b
 2171 01f1 05       		.uleb128 0x5
 2172 01f2 27       		.uleb128 0x27
 2173 01f3 0C       		.uleb128 0xc
 2174 01f4 49       		.uleb128 0x49
 2175 01f5 13       		.uleb128 0x13
 2176 01f6 11       		.uleb128 0x11
 2177 01f7 01       		.uleb128 0x1
 2178 01f8 12       		.uleb128 0x12
 2179 01f9 01       		.uleb128 0x1
 2180 01fa 40       		.uleb128 0x40
 2181 01fb 06       		.uleb128 0x6
 2182 01fc 9742     		.uleb128 0x2117
 2183 01fe 0C       		.uleb128 0xc
 2184 01ff 01       		.uleb128 0x1
 2185 0200 13       		.uleb128 0x13
 2186 0201 00       		.byte	0
 2187 0202 00       		.byte	0
 2188 0203 25       		.uleb128 0x25
 2189 0204 05       		.uleb128 0x5
 2190 0205 00       		.byte	0
 2191 0206 03       		.uleb128 0x3
 2192 0207 08       		.uleb128 0x8
 2193 0208 3A       		.uleb128 0x3a
 2194 0209 0B       		.uleb128 0xb
 2195 020a 3B       		.uleb128 0x3b
 2196 020b 05       		.uleb128 0x5
 2197 020c 49       		.uleb128 0x49
 2198 020d 13       		.uleb128 0x13
 2199 020e 02       		.uleb128 0x2
 2200 020f 06       		.uleb128 0x6
 2201 0210 00       		.byte	0
 2202 0211 00       		.byte	0
 2203 0212 26       		.uleb128 0x26
 2204 0213 05       		.uleb128 0x5
 2205 0214 00       		.byte	0
 2206 0215 03       		.uleb128 0x3
 2207 0216 0E       		.uleb128 0xe
 2208 0217 3A       		.uleb128 0x3a
 2209 0218 0B       		.uleb128 0xb
 2210 0219 3B       		.uleb128 0x3b
 2211 021a 05       		.uleb128 0x5
 2212 021b 49       		.uleb128 0x49
 2213 021c 13       		.uleb128 0x13
 2214 021d 02       		.uleb128 0x2
 2215 021e 06       		.uleb128 0x6
ARM GAS  C:\Users\3130\AppData\Local\Temp\ccB4W5HA.s 			page 40


 2216 021f 00       		.byte	0
 2217 0220 00       		.byte	0
 2218 0221 27       		.uleb128 0x27
 2219 0222 34       		.uleb128 0x34
 2220 0223 00       		.byte	0
 2221 0224 03       		.uleb128 0x3
 2222 0225 08       		.uleb128 0x8
 2223 0226 3A       		.uleb128 0x3a
 2224 0227 0B       		.uleb128 0xb
 2225 0228 3B       		.uleb128 0x3b
 2226 0229 05       		.uleb128 0x5
 2227 022a 49       		.uleb128 0x49
 2228 022b 13       		.uleb128 0x13
 2229 022c 02       		.uleb128 0x2
 2230 022d 06       		.uleb128 0x6
 2231 022e 00       		.byte	0
 2232 022f 00       		.byte	0
 2233 0230 28       		.uleb128 0x28
 2234 0231 1D       		.uleb128 0x1d
 2235 0232 01       		.byte	0x1
 2236 0233 31       		.uleb128 0x31
 2237 0234 13       		.uleb128 0x13
 2238 0235 52       		.uleb128 0x52
 2239 0236 01       		.uleb128 0x1
 2240 0237 55       		.uleb128 0x55
 2241 0238 06       		.uleb128 0x6
 2242 0239 58       		.uleb128 0x58
 2243 023a 0B       		.uleb128 0xb
 2244 023b 59       		.uleb128 0x59
 2245 023c 05       		.uleb128 0x5
 2246 023d 01       		.uleb128 0x1
 2247 023e 13       		.uleb128 0x13
 2248 023f 00       		.byte	0
 2249 0240 00       		.byte	0
 2250 0241 29       		.uleb128 0x29
 2251 0242 05       		.uleb128 0x5
 2252 0243 00       		.byte	0
 2253 0244 03       		.uleb128 0x3
 2254 0245 0E       		.uleb128 0xe
 2255 0246 3A       		.uleb128 0x3a
 2256 0247 0B       		.uleb128 0xb
 2257 0248 3B       		.uleb128 0x3b
 2258 0249 0B       		.uleb128 0xb
 2259 024a 49       		.uleb128 0x49
 2260 024b 13       		.uleb128 0x13
 2261 024c 02       		.uleb128 0x2
 2262 024d 06       		.uleb128 0x6
 2263 024e 00       		.byte	0
 2264 024f 00       		.byte	0
 2265 0250 2A       		.uleb128 0x2a
 2266 0251 34       		.uleb128 0x34
 2267 0252 00       		.byte	0
 2268 0253 03       		.uleb128 0x3
 2269 0254 0E       		.uleb128 0xe
 2270 0255 3A       		.uleb128 0x3a
 2271 0256 0B       		.uleb128 0xb
 2272 0257 3B       		.uleb128 0x3b
ARM GAS  C:\Users\3130\AppData\Local\Temp\ccB4W5HA.s 			page 41


 2273 0258 0B       		.uleb128 0xb
 2274 0259 49       		.uleb128 0x49
 2275 025a 13       		.uleb128 0x13
 2276 025b 3F       		.uleb128 0x3f
 2277 025c 0C       		.uleb128 0xc
 2278 025d 3C       		.uleb128 0x3c
 2279 025e 0C       		.uleb128 0xc
 2280 025f 00       		.byte	0
 2281 0260 00       		.byte	0
 2282 0261 2B       		.uleb128 0x2b
 2283 0262 2E       		.uleb128 0x2e
 2284 0263 01       		.byte	0x1
 2285 0264 3F       		.uleb128 0x3f
 2286 0265 0C       		.uleb128 0xc
 2287 0266 03       		.uleb128 0x3
 2288 0267 0E       		.uleb128 0xe
 2289 0268 3A       		.uleb128 0x3a
 2290 0269 0B       		.uleb128 0xb
 2291 026a 3B       		.uleb128 0x3b
 2292 026b 0B       		.uleb128 0xb
 2293 026c 27       		.uleb128 0x27
 2294 026d 0C       		.uleb128 0xc
 2295 026e 3C       		.uleb128 0x3c
 2296 026f 0C       		.uleb128 0xc
 2297 0270 01       		.uleb128 0x1
 2298 0271 13       		.uleb128 0x13
 2299 0272 00       		.byte	0
 2300 0273 00       		.byte	0
 2301 0274 2C       		.uleb128 0x2c
 2302 0275 05       		.uleb128 0x5
 2303 0276 00       		.byte	0
 2304 0277 49       		.uleb128 0x49
 2305 0278 13       		.uleb128 0x13
 2306 0279 00       		.byte	0
 2307 027a 00       		.byte	0
 2308 027b 2D       		.uleb128 0x2d
 2309 027c 2E       		.uleb128 0x2e
 2310 027d 01       		.byte	0x1
 2311 027e 3F       		.uleb128 0x3f
 2312 027f 0C       		.uleb128 0xc
 2313 0280 03       		.uleb128 0x3
 2314 0281 0E       		.uleb128 0xe
 2315 0282 3A       		.uleb128 0x3a
 2316 0283 0B       		.uleb128 0xb
 2317 0284 3B       		.uleb128 0x3b
 2318 0285 0B       		.uleb128 0xb
 2319 0286 27       		.uleb128 0x27
 2320 0287 0C       		.uleb128 0xc
 2321 0288 49       		.uleb128 0x49
 2322 0289 13       		.uleb128 0x13
 2323 028a 3C       		.uleb128 0x3c
 2324 028b 0C       		.uleb128 0xc
 2325 028c 01       		.uleb128 0x1
 2326 028d 13       		.uleb128 0x13
 2327 028e 00       		.byte	0
 2328 028f 00       		.byte	0
 2329 0290 2E       		.uleb128 0x2e
ARM GAS  C:\Users\3130\AppData\Local\Temp\ccB4W5HA.s 			page 42


 2330 0291 2E       		.uleb128 0x2e
 2331 0292 00       		.byte	0
 2332 0293 3F       		.uleb128 0x3f
 2333 0294 0C       		.uleb128 0xc
 2334 0295 03       		.uleb128 0x3
 2335 0296 0E       		.uleb128 0xe
 2336 0297 3A       		.uleb128 0x3a
 2337 0298 0B       		.uleb128 0xb
 2338 0299 3B       		.uleb128 0x3b
 2339 029a 0B       		.uleb128 0xb
 2340 029b 27       		.uleb128 0x27
 2341 029c 0C       		.uleb128 0xc
 2342 029d 3C       		.uleb128 0x3c
 2343 029e 0C       		.uleb128 0xc
 2344 029f 00       		.byte	0
 2345 02a0 00       		.byte	0
 2346 02a1 2F       		.uleb128 0x2f
 2347 02a2 2E       		.uleb128 0x2e
 2348 02a3 00       		.byte	0
 2349 02a4 3F       		.uleb128 0x3f
 2350 02a5 0C       		.uleb128 0xc
 2351 02a6 03       		.uleb128 0x3
 2352 02a7 0E       		.uleb128 0xe
 2353 02a8 3A       		.uleb128 0x3a
 2354 02a9 0B       		.uleb128 0xb
 2355 02aa 3B       		.uleb128 0x3b
 2356 02ab 0B       		.uleb128 0xb
 2357 02ac 27       		.uleb128 0x27
 2358 02ad 0C       		.uleb128 0xc
 2359 02ae 49       		.uleb128 0x49
 2360 02af 13       		.uleb128 0x13
 2361 02b0 3C       		.uleb128 0x3c
 2362 02b1 0C       		.uleb128 0xc
 2363 02b2 00       		.byte	0
 2364 02b3 00       		.byte	0
 2365 02b4 30       		.uleb128 0x30
 2366 02b5 2E       		.uleb128 0x2e
 2367 02b6 01       		.byte	0x1
 2368 02b7 3F       		.uleb128 0x3f
 2369 02b8 0C       		.uleb128 0xc
 2370 02b9 03       		.uleb128 0x3
 2371 02ba 0E       		.uleb128 0xe
 2372 02bb 3A       		.uleb128 0x3a
 2373 02bc 0B       		.uleb128 0xb
 2374 02bd 3B       		.uleb128 0x3b
 2375 02be 0B       		.uleb128 0xb
 2376 02bf 27       		.uleb128 0x27
 2377 02c0 0C       		.uleb128 0xc
 2378 02c1 49       		.uleb128 0x49
 2379 02c2 13       		.uleb128 0x13
 2380 02c3 3C       		.uleb128 0x3c
 2381 02c4 0C       		.uleb128 0xc
 2382 02c5 00       		.byte	0
 2383 02c6 00       		.byte	0
 2384 02c7 00       		.byte	0
 2385              		.section	.debug_loc,"",%progbits
 2386              	.Ldebug_loc0:
ARM GAS  C:\Users\3130\AppData\Local\Temp\ccB4W5HA.s 			page 43


 2387              	.LLST0:
 2388 0000 00000000 		.4byte	.LFB8
 2389 0004 02000000 		.4byte	.LCFI0
 2390 0008 0200     		.2byte	0x2
 2391 000a 7D       		.byte	0x7d
 2392 000b 00       		.sleb128 0
 2393 000c 02000000 		.4byte	.LCFI0
 2394 0010 1C000000 		.4byte	.LFE8
 2395 0014 0200     		.2byte	0x2
 2396 0016 7D       		.byte	0x7d
 2397 0017 08       		.sleb128 8
 2398 0018 00000000 		.4byte	0
 2399 001c 00000000 		.4byte	0
 2400              	.LLST1:
 2401 0020 00000000 		.4byte	.LVL1
 2402 0024 14000000 		.4byte	.LVL3
 2403 0028 0100     		.2byte	0x1
 2404 002a 50       		.byte	0x50
 2405 002b 14000000 		.4byte	.LVL3
 2406 002f 17000000 		.4byte	.LVL4-1
 2407 0033 0200     		.2byte	0x2
 2408 0035 72       		.byte	0x72
 2409 0036 04       		.sleb128 4
 2410 0037 17000000 		.4byte	.LVL4-1
 2411 003b 1C000000 		.4byte	.LFE8
 2412 003f 0400     		.2byte	0x4
 2413 0041 F3       		.byte	0xf3
 2414 0042 01       		.uleb128 0x1
 2415 0043 50       		.byte	0x50
 2416 0044 9F       		.byte	0x9f
 2417 0045 00000000 		.4byte	0
 2418 0049 00000000 		.4byte	0
 2419              	.LLST2:
 2420 004d 0A000000 		.4byte	.LVL2
 2421 0051 14000000 		.4byte	.LVL3
 2422 0055 0100     		.2byte	0x1
 2423 0057 50       		.byte	0x50
 2424 0058 14000000 		.4byte	.LVL3
 2425 005c 17000000 		.4byte	.LVL4-1
 2426 0060 0200     		.2byte	0x2
 2427 0062 72       		.byte	0x72
 2428 0063 04       		.sleb128 4
 2429 0064 17000000 		.4byte	.LVL4-1
 2430 0068 18000000 		.4byte	.LVL4
 2431 006c 0400     		.2byte	0x4
 2432 006e F3       		.byte	0xf3
 2433 006f 01       		.uleb128 0x1
 2434 0070 50       		.byte	0x50
 2435 0071 9F       		.byte	0x9f
 2436 0072 00000000 		.4byte	0
 2437 0076 00000000 		.4byte	0
 2438              	.LLST3:
 2439 007a 0A000000 		.4byte	.LVL2
 2440 007e 17000000 		.4byte	.LVL4-1
 2441 0082 0100     		.2byte	0x1
 2442 0084 53       		.byte	0x53
 2443 0085 00000000 		.4byte	0
ARM GAS  C:\Users\3130\AppData\Local\Temp\ccB4W5HA.s 			page 44


 2444 0089 00000000 		.4byte	0
 2445              	.LLST4:
 2446 008d 00000000 		.4byte	.LFB9
 2447 0091 02000000 		.4byte	.LCFI1
 2448 0095 0200     		.2byte	0x2
 2449 0097 7D       		.byte	0x7d
 2450 0098 00       		.sleb128 0
 2451 0099 02000000 		.4byte	.LCFI1
 2452 009d 1A000000 		.4byte	.LFE9
 2453 00a1 0200     		.2byte	0x2
 2454 00a3 7D       		.byte	0x7d
 2455 00a4 08       		.sleb128 8
 2456 00a5 00000000 		.4byte	0
 2457 00a9 00000000 		.4byte	0
 2458              	.LLST5:
 2459 00ad 00000000 		.4byte	.LVL5
 2460 00b1 10000000 		.4byte	.LVL7
 2461 00b5 0100     		.2byte	0x1
 2462 00b7 50       		.byte	0x50
 2463 00b8 10000000 		.4byte	.LVL7
 2464 00bc 13000000 		.4byte	.LVL8-1
 2465 00c0 0200     		.2byte	0x2
 2466 00c2 72       		.byte	0x72
 2467 00c3 04       		.sleb128 4
 2468 00c4 13000000 		.4byte	.LVL8-1
 2469 00c8 1A000000 		.4byte	.LFE9
 2470 00cc 0400     		.2byte	0x4
 2471 00ce F3       		.byte	0xf3
 2472 00cf 01       		.uleb128 0x1
 2473 00d0 50       		.byte	0x50
 2474 00d1 9F       		.byte	0x9f
 2475 00d2 00000000 		.4byte	0
 2476 00d6 00000000 		.4byte	0
 2477              	.LLST6:
 2478 00da 08000000 		.4byte	.LVL6
 2479 00de 10000000 		.4byte	.LVL7
 2480 00e2 0100     		.2byte	0x1
 2481 00e4 50       		.byte	0x50
 2482 00e5 10000000 		.4byte	.LVL7
 2483 00e9 13000000 		.4byte	.LVL8-1
 2484 00ed 0200     		.2byte	0x2
 2485 00ef 72       		.byte	0x72
 2486 00f0 04       		.sleb128 4
 2487 00f1 13000000 		.4byte	.LVL8-1
 2488 00f5 18000000 		.4byte	.LVL9
 2489 00f9 0400     		.2byte	0x4
 2490 00fb F3       		.byte	0xf3
 2491 00fc 01       		.uleb128 0x1
 2492 00fd 50       		.byte	0x50
 2493 00fe 9F       		.byte	0x9f
 2494 00ff 00000000 		.4byte	0
 2495 0103 00000000 		.4byte	0
 2496              	.LLST7:
 2497 0107 08000000 		.4byte	.LVL6
 2498 010b 13000000 		.4byte	.LVL8-1
 2499 010f 0100     		.2byte	0x1
 2500 0111 53       		.byte	0x53
ARM GAS  C:\Users\3130\AppData\Local\Temp\ccB4W5HA.s 			page 45


 2501 0112 00000000 		.4byte	0
 2502 0116 00000000 		.4byte	0
 2503              	.LLST8:
 2504 011a 00000000 		.4byte	.LFB11
 2505 011e 02000000 		.4byte	.LCFI2
 2506 0122 0200     		.2byte	0x2
 2507 0124 7D       		.byte	0x7d
 2508 0125 00       		.sleb128 0
 2509 0126 02000000 		.4byte	.LCFI2
 2510 012a 22000000 		.4byte	.LFE11
 2511 012e 0200     		.2byte	0x2
 2512 0130 7D       		.byte	0x7d
 2513 0131 10       		.sleb128 16
 2514 0132 00000000 		.4byte	0
 2515 0136 00000000 		.4byte	0
 2516              	.LLST9:
 2517 013a 00000000 		.4byte	.LVL10
 2518 013e 06000000 		.4byte	.LVL11
 2519 0142 0100     		.2byte	0x1
 2520 0144 50       		.byte	0x50
 2521 0145 06000000 		.4byte	.LVL11
 2522 0149 20000000 		.4byte	.LVL15
 2523 014d 0100     		.2byte	0x1
 2524 014f 54       		.byte	0x54
 2525 0150 20000000 		.4byte	.LVL15
 2526 0154 22000000 		.4byte	.LFE11
 2527 0158 0400     		.2byte	0x4
 2528 015a F3       		.byte	0xf3
 2529 015b 01       		.uleb128 0x1
 2530 015c 50       		.byte	0x50
 2531 015d 9F       		.byte	0x9f
 2532 015e 00000000 		.4byte	0
 2533 0162 00000000 		.4byte	0
 2534              	.LLST10:
 2535 0166 0E000000 		.4byte	.LVL12
 2536 016a 20000000 		.4byte	.LVL14
 2537 016e 0100     		.2byte	0x1
 2538 0170 54       		.byte	0x54
 2539 0171 00000000 		.4byte	0
 2540 0175 00000000 		.4byte	0
 2541              	.LLST11:
 2542 0179 0E000000 		.4byte	.LVL12
 2543 017d 17000000 		.4byte	.LVL13-1
 2544 0181 0100     		.2byte	0x1
 2545 0183 50       		.byte	0x50
 2546 0184 00000000 		.4byte	0
 2547 0188 00000000 		.4byte	0
 2548              	.LLST12:
 2549 018c 00000000 		.4byte	.LFB10
 2550 0190 02000000 		.4byte	.LCFI3
 2551 0194 0200     		.2byte	0x2
 2552 0196 7D       		.byte	0x7d
 2553 0197 00       		.sleb128 0
 2554 0198 02000000 		.4byte	.LCFI3
 2555 019c 10000000 		.4byte	.LFE10
 2556 01a0 0200     		.2byte	0x2
 2557 01a2 7D       		.byte	0x7d
ARM GAS  C:\Users\3130\AppData\Local\Temp\ccB4W5HA.s 			page 46


 2558 01a3 08       		.sleb128 8
 2559 01a4 00000000 		.4byte	0
 2560 01a8 00000000 		.4byte	0
 2561              	.LLST13:
 2562 01ac 00000000 		.4byte	.LVL16
 2563 01b0 07000000 		.4byte	.LVL17-1
 2564 01b4 0100     		.2byte	0x1
 2565 01b6 50       		.byte	0x50
 2566 01b7 07000000 		.4byte	.LVL17-1
 2567 01bb 10000000 		.4byte	.LFE10
 2568 01bf 0400     		.2byte	0x4
 2569 01c1 F3       		.byte	0xf3
 2570 01c2 01       		.uleb128 0x1
 2571 01c3 50       		.byte	0x50
 2572 01c4 9F       		.byte	0x9f
 2573 01c5 00000000 		.4byte	0
 2574 01c9 00000000 		.4byte	0
 2575              	.LLST14:
 2576 01cd 00000000 		.4byte	.LFB13
 2577 01d1 04000000 		.4byte	.LCFI4
 2578 01d5 0200     		.2byte	0x2
 2579 01d7 7D       		.byte	0x7d
 2580 01d8 00       		.sleb128 0
 2581 01d9 04000000 		.4byte	.LCFI4
 2582 01dd 48000000 		.4byte	.LFE13
 2583 01e1 0200     		.2byte	0x2
 2584 01e3 7D       		.byte	0x7d
 2585 01e4 10       		.sleb128 16
 2586 01e5 00000000 		.4byte	0
 2587 01e9 00000000 		.4byte	0
 2588              	.LLST15:
 2589 01ed 00000000 		.4byte	.LVL19
 2590 01f1 0B000000 		.4byte	.LVL21-1
 2591 01f5 0100     		.2byte	0x1
 2592 01f7 50       		.byte	0x50
 2593 01f8 0B000000 		.4byte	.LVL21-1
 2594 01fc 16000000 		.4byte	.LVL24
 2595 0200 0100     		.2byte	0x1
 2596 0202 55       		.byte	0x55
 2597 0203 16000000 		.4byte	.LVL24
 2598 0207 24000000 		.4byte	.LVL26
 2599 020b 0100     		.2byte	0x1
 2600 020d 52       		.byte	0x52
 2601 020e 24000000 		.4byte	.LVL26
 2602 0212 26000000 		.4byte	.LVL27
 2603 0216 0100     		.2byte	0x1
 2604 0218 55       		.byte	0x55
 2605 0219 26000000 		.4byte	.LVL27
 2606 021d 33000000 		.4byte	.LVL28-1
 2607 0221 0200     		.2byte	0x2
 2608 0223 74       		.byte	0x74
 2609 0224 24       		.sleb128 36
 2610 0225 33000000 		.4byte	.LVL28-1
 2611 0229 40000000 		.4byte	.LVL33
 2612 022d 0400     		.2byte	0x4
 2613 022f F3       		.byte	0xf3
 2614 0230 01       		.uleb128 0x1
ARM GAS  C:\Users\3130\AppData\Local\Temp\ccB4W5HA.s 			page 47


 2615 0231 50       		.byte	0x50
 2616 0232 9F       		.byte	0x9f
 2617 0233 40000000 		.4byte	.LVL33
 2618 0237 42000000 		.4byte	.LVL34
 2619 023b 0100     		.2byte	0x1
 2620 023d 52       		.byte	0x52
 2621 023e 42000000 		.4byte	.LVL34
 2622 0242 48000000 		.4byte	.LFE13
 2623 0246 0100     		.2byte	0x1
 2624 0248 55       		.byte	0x55
 2625 0249 00000000 		.4byte	0
 2626 024d 00000000 		.4byte	0
 2627              	.LLST16:
 2628 0251 08000000 		.4byte	.LVL20
 2629 0255 36000000 		.4byte	.LVL29
 2630 0259 0100     		.2byte	0x1
 2631 025b 54       		.byte	0x54
 2632 025c 40000000 		.4byte	.LVL33
 2633 0260 48000000 		.4byte	.LFE13
 2634 0264 0100     		.2byte	0x1
 2635 0266 54       		.byte	0x54
 2636 0267 00000000 		.4byte	0
 2637 026b 00000000 		.4byte	0
 2638              	.LLST17:
 2639 026f 10000000 		.4byte	.LVL22
 2640 0273 16000000 		.4byte	.LVL24
 2641 0277 0100     		.2byte	0x1
 2642 0279 50       		.byte	0x50
 2643 027a 16000000 		.4byte	.LVL24
 2644 027e 3E000000 		.4byte	.LVL32
 2645 0282 0100     		.2byte	0x1
 2646 0284 56       		.byte	0x56
 2647 0285 40000000 		.4byte	.LVL33
 2648 0289 48000000 		.4byte	.LFE13
 2649 028d 0100     		.2byte	0x1
 2650 028f 56       		.byte	0x56
 2651 0290 00000000 		.4byte	0
 2652 0294 00000000 		.4byte	0
 2653              	.LLST18:
 2654 0298 36000000 		.4byte	.LVL29
 2655 029c 3E000000 		.4byte	.LVL31
 2656 02a0 0100     		.2byte	0x1
 2657 02a2 54       		.byte	0x54
 2658 02a3 3E000000 		.4byte	.LVL31
 2659 02a7 40000000 		.4byte	.LVL33
 2660 02ab 0100     		.2byte	0x1
 2661 02ad 50       		.byte	0x50
 2662 02ae 00000000 		.4byte	0
 2663 02b2 00000000 		.4byte	0
 2664              	.LLST19:
 2665 02b6 12000000 		.4byte	.LVL23
 2666 02ba 16000000 		.4byte	.LVL24
 2667 02be 0100     		.2byte	0x1
 2668 02c0 55       		.byte	0x55
 2669 02c1 16000000 		.4byte	.LVL24
 2670 02c5 24000000 		.4byte	.LVL26
 2671 02c9 0100     		.2byte	0x1
ARM GAS  C:\Users\3130\AppData\Local\Temp\ccB4W5HA.s 			page 48


 2672 02cb 52       		.byte	0x52
 2673 02cc 24000000 		.4byte	.LVL26
 2674 02d0 26000000 		.4byte	.LVL27
 2675 02d4 0100     		.2byte	0x1
 2676 02d6 55       		.byte	0x55
 2677 02d7 26000000 		.4byte	.LVL27
 2678 02db 33000000 		.4byte	.LVL28-1
 2679 02df 0200     		.2byte	0x2
 2680 02e1 74       		.byte	0x74
 2681 02e2 24       		.sleb128 36
 2682 02e3 33000000 		.4byte	.LVL28-1
 2683 02e7 40000000 		.4byte	.LVL33
 2684 02eb 0400     		.2byte	0x4
 2685 02ed F3       		.byte	0xf3
 2686 02ee 01       		.uleb128 0x1
 2687 02ef 50       		.byte	0x50
 2688 02f0 9F       		.byte	0x9f
 2689 02f1 40000000 		.4byte	.LVL33
 2690 02f5 42000000 		.4byte	.LVL34
 2691 02f9 0100     		.2byte	0x1
 2692 02fb 52       		.byte	0x52
 2693 02fc 42000000 		.4byte	.LVL34
 2694 0300 48000000 		.4byte	.LFE13
 2695 0304 0100     		.2byte	0x1
 2696 0306 55       		.byte	0x55
 2697 0307 00000000 		.4byte	0
 2698 030b 00000000 		.4byte	0
 2699              	.LLST20:
 2700 030f 12000000 		.4byte	.LVL23
 2701 0313 36000000 		.4byte	.LVL29
 2702 0317 0100     		.2byte	0x1
 2703 0319 54       		.byte	0x54
 2704 031a 40000000 		.4byte	.LVL33
 2705 031e 48000000 		.4byte	.LFE13
 2706 0322 0100     		.2byte	0x1
 2707 0324 54       		.byte	0x54
 2708 0325 00000000 		.4byte	0
 2709 0329 00000000 		.4byte	0
 2710              	.LLST21:
 2711 032d 12000000 		.4byte	.LVL23
 2712 0331 16000000 		.4byte	.LVL24
 2713 0335 0100     		.2byte	0x1
 2714 0337 55       		.byte	0x55
 2715 0338 16000000 		.4byte	.LVL24
 2716 033c 33000000 		.4byte	.LVL28-1
 2717 0340 0100     		.2byte	0x1
 2718 0342 53       		.byte	0x53
 2719 0343 40000000 		.4byte	.LVL33
 2720 0347 48000000 		.4byte	.LFE13
 2721 034b 0100     		.2byte	0x1
 2722 034d 53       		.byte	0x53
 2723 034e 00000000 		.4byte	0
 2724 0352 00000000 		.4byte	0
 2725              	.LLST22:
 2726 0356 00000000 		.4byte	.LFB12
 2727 035a 02000000 		.4byte	.LCFI5
 2728 035e 0200     		.2byte	0x2
ARM GAS  C:\Users\3130\AppData\Local\Temp\ccB4W5HA.s 			page 49


 2729 0360 7D       		.byte	0x7d
 2730 0361 00       		.sleb128 0
 2731 0362 02000000 		.4byte	.LCFI5
 2732 0366 0C000000 		.4byte	.LFE12
 2733 036a 0200     		.2byte	0x2
 2734 036c 7D       		.byte	0x7d
 2735 036d 08       		.sleb128 8
 2736 036e 00000000 		.4byte	0
 2737 0372 00000000 		.4byte	0
 2738              	.LLST23:
 2739 0376 00000000 		.4byte	.LVL35
 2740 037a 07000000 		.4byte	.LVL36-1
 2741 037e 0100     		.2byte	0x1
 2742 0380 50       		.byte	0x50
 2743 0381 07000000 		.4byte	.LVL36-1
 2744 0385 0C000000 		.4byte	.LFE12
 2745 0389 0400     		.2byte	0x4
 2746 038b F3       		.byte	0xf3
 2747 038c 01       		.uleb128 0x1
 2748 038d 50       		.byte	0x50
 2749 038e 9F       		.byte	0x9f
 2750 038f 00000000 		.4byte	0
 2751 0393 00000000 		.4byte	0
 2752              	.LLST24:
 2753 0397 00000000 		.4byte	.LFB15
 2754 039b 02000000 		.4byte	.LCFI6
 2755 039f 0200     		.2byte	0x2
 2756 03a1 7D       		.byte	0x7d
 2757 03a2 00       		.sleb128 0
 2758 03a3 02000000 		.4byte	.LCFI6
 2759 03a7 48000000 		.4byte	.LFE15
 2760 03ab 0200     		.2byte	0x2
 2761 03ad 7D       		.byte	0x7d
 2762 03ae 10       		.sleb128 16
 2763 03af 00000000 		.4byte	0
 2764 03b3 00000000 		.4byte	0
 2765              	.LLST25:
 2766 03b7 00000000 		.4byte	.LVL37
 2767 03bb 09000000 		.4byte	.LVL38-1
 2768 03bf 0100     		.2byte	0x1
 2769 03c1 50       		.byte	0x50
 2770 03c2 09000000 		.4byte	.LVL38-1
 2771 03c6 24000000 		.4byte	.LVL42
 2772 03ca 0100     		.2byte	0x1
 2773 03cc 54       		.byte	0x54
 2774 03cd 24000000 		.4byte	.LVL42
 2775 03d1 33000000 		.4byte	.LVL43-1
 2776 03d5 0200     		.2byte	0x2
 2777 03d7 72       		.byte	0x72
 2778 03d8 24       		.sleb128 36
 2779 03d9 33000000 		.4byte	.LVL43-1
 2780 03dd 48000000 		.4byte	.LFE15
 2781 03e1 0400     		.2byte	0x4
 2782 03e3 F3       		.byte	0xf3
 2783 03e4 01       		.uleb128 0x1
 2784 03e5 50       		.byte	0x50
 2785 03e6 9F       		.byte	0x9f
ARM GAS  C:\Users\3130\AppData\Local\Temp\ccB4W5HA.s 			page 50


 2786 03e7 00000000 		.4byte	0
 2787 03eb 00000000 		.4byte	0
 2788              	.LLST26:
 2789 03ef 00000000 		.4byte	.LVL37
 2790 03f3 09000000 		.4byte	.LVL38-1
 2791 03f7 0100     		.2byte	0x1
 2792 03f9 51       		.byte	0x51
 2793 03fa 09000000 		.4byte	.LVL38-1
 2794 03fe 36000000 		.4byte	.LVL44
 2795 0402 0100     		.2byte	0x1
 2796 0404 55       		.byte	0x55
 2797 0405 36000000 		.4byte	.LVL44
 2798 0409 48000000 		.4byte	.LFE15
 2799 040d 0400     		.2byte	0x4
 2800 040f F3       		.byte	0xf3
 2801 0410 01       		.uleb128 0x1
 2802 0411 51       		.byte	0x51
 2803 0412 9F       		.byte	0x9f
 2804 0413 00000000 		.4byte	0
 2805 0417 00000000 		.4byte	0
 2806              	.LLST27:
 2807 041b 0E000000 		.4byte	.LVL39
 2808 041f 14000000 		.4byte	.LVL40
 2809 0423 0100     		.2byte	0x1
 2810 0425 50       		.byte	0x50
 2811 0426 14000000 		.4byte	.LVL40
 2812 042a 42000000 		.4byte	.LVL48
 2813 042e 0100     		.2byte	0x1
 2814 0430 56       		.byte	0x56
 2815 0431 00000000 		.4byte	0
 2816 0435 00000000 		.4byte	0
 2817              	.LLST28:
 2818 0439 36000000 		.4byte	.LVL44
 2819 043d 3A000000 		.4byte	.LVL45
 2820 0441 0100     		.2byte	0x1
 2821 0443 50       		.byte	0x50
 2822 0444 3A000000 		.4byte	.LVL45
 2823 0448 42000000 		.4byte	.LVL47
 2824 044c 0100     		.2byte	0x1
 2825 044e 55       		.byte	0x55
 2826 044f 42000000 		.4byte	.LVL47
 2827 0453 48000000 		.4byte	.LFE15
 2828 0457 0100     		.2byte	0x1
 2829 0459 50       		.byte	0x50
 2830 045a 00000000 		.4byte	0
 2831 045e 00000000 		.4byte	0
 2832              	.LLST29:
 2833 0462 14000000 		.4byte	.LVL40
 2834 0466 24000000 		.4byte	.LVL42
 2835 046a 0100     		.2byte	0x1
 2836 046c 54       		.byte	0x54
 2837 046d 24000000 		.4byte	.LVL42
 2838 0471 33000000 		.4byte	.LVL43-1
 2839 0475 0200     		.2byte	0x2
 2840 0477 72       		.byte	0x72
 2841 0478 24       		.sleb128 36
 2842 0479 33000000 		.4byte	.LVL43-1
ARM GAS  C:\Users\3130\AppData\Local\Temp\ccB4W5HA.s 			page 51


 2843 047d 48000000 		.4byte	.LFE15
 2844 0481 0400     		.2byte	0x4
 2845 0483 F3       		.byte	0xf3
 2846 0484 01       		.uleb128 0x1
 2847 0485 50       		.byte	0x50
 2848 0486 9F       		.byte	0x9f
 2849 0487 00000000 		.4byte	0
 2850 048b 00000000 		.4byte	0
 2851              	.LLST30:
 2852 048f 14000000 		.4byte	.LVL40
 2853 0493 33000000 		.4byte	.LVL43-1
 2854 0497 0100     		.2byte	0x1
 2855 0499 52       		.byte	0x52
 2856 049a 00000000 		.4byte	0
 2857 049e 00000000 		.4byte	0
 2858              	.LLST31:
 2859 04a2 14000000 		.4byte	.LVL40
 2860 04a6 33000000 		.4byte	.LVL43-1
 2861 04aa 0100     		.2byte	0x1
 2862 04ac 53       		.byte	0x53
 2863 04ad 00000000 		.4byte	0
 2864 04b1 00000000 		.4byte	0
 2865              	.LLST32:
 2866 04b5 00000000 		.4byte	.LFB14
 2867 04b9 02000000 		.4byte	.LCFI7
 2868 04bd 0200     		.2byte	0x2
 2869 04bf 7D       		.byte	0x7d
 2870 04c0 00       		.sleb128 0
 2871 04c1 02000000 		.4byte	.LCFI7
 2872 04c5 0C000000 		.4byte	.LFE14
 2873 04c9 0200     		.2byte	0x2
 2874 04cb 7D       		.byte	0x7d
 2875 04cc 08       		.sleb128 8
 2876 04cd 00000000 		.4byte	0
 2877 04d1 00000000 		.4byte	0
 2878              	.LLST33:
 2879 04d5 00000000 		.4byte	.LVL49
 2880 04d9 07000000 		.4byte	.LVL50-1
 2881 04dd 0100     		.2byte	0x1
 2882 04df 50       		.byte	0x50
 2883 04e0 07000000 		.4byte	.LVL50-1
 2884 04e4 0C000000 		.4byte	.LFE14
 2885 04e8 0400     		.2byte	0x4
 2886 04ea F3       		.byte	0xf3
 2887 04eb 01       		.uleb128 0x1
 2888 04ec 50       		.byte	0x50
 2889 04ed 9F       		.byte	0x9f
 2890 04ee 00000000 		.4byte	0
 2891 04f2 00000000 		.4byte	0
 2892              	.LLST34:
 2893 04f6 00000000 		.4byte	.LVL49
 2894 04fa 07000000 		.4byte	.LVL50-1
 2895 04fe 0100     		.2byte	0x1
 2896 0500 51       		.byte	0x51
 2897 0501 07000000 		.4byte	.LVL50-1
 2898 0505 0C000000 		.4byte	.LFE14
 2899 0509 0400     		.2byte	0x4
ARM GAS  C:\Users\3130\AppData\Local\Temp\ccB4W5HA.s 			page 52


 2900 050b F3       		.byte	0xf3
 2901 050c 01       		.uleb128 0x1
 2902 050d 51       		.byte	0x51
 2903 050e 9F       		.byte	0x9f
 2904 050f 00000000 		.4byte	0
 2905 0513 00000000 		.4byte	0
 2906              		.section	.debug_aranges,"",%progbits
 2907 0000 5C000000 		.4byte	0x5c
 2908 0004 0200     		.2byte	0x2
 2909 0006 00000000 		.4byte	.Ldebug_info0
 2910 000a 04       		.byte	0x4
 2911 000b 00       		.byte	0
 2912 000c 0000     		.2byte	0
 2913 000e 0000     		.2byte	0
 2914 0010 00000000 		.4byte	.LFB7
 2915 0014 06000000 		.4byte	.LFE7-.LFB7
 2916 0018 00000000 		.4byte	.LFB8
 2917 001c 1C000000 		.4byte	.LFE8-.LFB8
 2918 0020 00000000 		.4byte	.LFB9
 2919 0024 1A000000 		.4byte	.LFE9-.LFB9
 2920 0028 00000000 		.4byte	.LFB11
 2921 002c 22000000 		.4byte	.LFE11-.LFB11
 2922 0030 00000000 		.4byte	.LFB10
 2923 0034 10000000 		.4byte	.LFE10-.LFB10
 2924 0038 00000000 		.4byte	.LFB13
 2925 003c 48000000 		.4byte	.LFE13-.LFB13
 2926 0040 00000000 		.4byte	.LFB12
 2927 0044 0C000000 		.4byte	.LFE12-.LFB12
 2928 0048 00000000 		.4byte	.LFB15
 2929 004c 48000000 		.4byte	.LFE15-.LFB15
 2930 0050 00000000 		.4byte	.LFB14
 2931 0054 0C000000 		.4byte	.LFE14-.LFB14
 2932 0058 00000000 		.4byte	0
 2933 005c 00000000 		.4byte	0
 2934              		.section	.debug_ranges,"",%progbits
 2935              	.Ldebug_ranges0:
 2936 0000 0A000000 		.4byte	.LBB12
 2937 0004 0C000000 		.4byte	.LBE12
 2938 0008 0E000000 		.4byte	.LBB15
 2939 000c 12000000 		.4byte	.LBE15
 2940 0010 00000000 		.4byte	0
 2941 0014 00000000 		.4byte	0
 2942 0018 0A000000 		.4byte	.LBB13
 2943 001c 0C000000 		.4byte	.LBE13
 2944 0020 0E000000 		.4byte	.LBB14
 2945 0024 12000000 		.4byte	.LBE14
 2946 0028 00000000 		.4byte	0
 2947 002c 00000000 		.4byte	0
 2948 0030 16000000 		.4byte	.LBB20
 2949 0034 2E000000 		.4byte	.LBE20
 2950 0038 40000000 		.4byte	.LBB23
 2951 003c 48000000 		.4byte	.LBE23
 2952 0040 00000000 		.4byte	0
 2953 0044 00000000 		.4byte	0
 2954 0048 16000000 		.4byte	.LBB21
 2955 004c 2E000000 		.4byte	.LBE21
 2956 0050 40000000 		.4byte	.LBB22
ARM GAS  C:\Users\3130\AppData\Local\Temp\ccB4W5HA.s 			page 53


 2957 0054 48000000 		.4byte	.LBE22
 2958 0058 00000000 		.4byte	0
 2959 005c 00000000 		.4byte	0
 2960 0060 14000000 		.4byte	.LBB24
 2961 0064 28000000 		.4byte	.LBE24
 2962 0068 2A000000 		.4byte	.LBB27
 2963 006c 2E000000 		.4byte	.LBE27
 2964 0070 00000000 		.4byte	0
 2965 0074 00000000 		.4byte	0
 2966 0078 14000000 		.4byte	.LBB25
 2967 007c 28000000 		.4byte	.LBE25
 2968 0080 2A000000 		.4byte	.LBB26
 2969 0084 2E000000 		.4byte	.LBE26
 2970 0088 00000000 		.4byte	0
 2971 008c 00000000 		.4byte	0
 2972 0090 00000000 		.4byte	.LFB7
 2973 0094 06000000 		.4byte	.LFE7
 2974 0098 00000000 		.4byte	.LFB8
 2975 009c 1C000000 		.4byte	.LFE8
 2976 00a0 00000000 		.4byte	.LFB9
 2977 00a4 1A000000 		.4byte	.LFE9
 2978 00a8 00000000 		.4byte	.LFB11
 2979 00ac 22000000 		.4byte	.LFE11
 2980 00b0 00000000 		.4byte	.LFB10
 2981 00b4 10000000 		.4byte	.LFE10
 2982 00b8 00000000 		.4byte	.LFB13
 2983 00bc 48000000 		.4byte	.LFE13
 2984 00c0 00000000 		.4byte	.LFB12
 2985 00c4 0C000000 		.4byte	.LFE12
 2986 00c8 00000000 		.4byte	.LFB15
 2987 00cc 48000000 		.4byte	.LFE15
 2988 00d0 00000000 		.4byte	.LFB14
 2989 00d4 0C000000 		.4byte	.LFE14
 2990 00d8 00000000 		.4byte	0
 2991 00dc 00000000 		.4byte	0
 2992              		.section	.debug_line,"",%progbits
 2993              	.Ldebug_line0:
 2994 0000 A8020000 		.section	.debug_str,"MS",%progbits,1
 2994      02007701 
 2994      00000201 
 2994      FB0E0D00 
 2994      01010101 
 2995              	.LASF80:
 2996 0000 2E2E2F2E 		.ascii	"../../ChibiOS_2.6.1/os/kernel/src/chcond.c\000"
 2996      2E2F4368 
 2996      6962694F 
 2996      535F322E 
 2996      362E312F 
 2997              	.LASF36:
 2998 002b 705F6D73 		.ascii	"p_msg\000"
 2998      6700
 2999              	.LASF65:
 3000 0031 6368436F 		.ascii	"chCondInit\000"
 3000      6E64496E 
 3000      697400
 3001              	.LASF60:
 3002 003c 7264796D 		.ascii	"rdymsg\000"
ARM GAS  C:\Users\3130\AppData\Local\Temp\ccB4W5HA.s 			page 54


 3002      736700
 3003              	.LASF11:
 3004 0043 6C6F6E67 		.ascii	"long long unsigned int\000"
 3004      206C6F6E 
 3004      6720756E 
 3004      7369676E 
 3004      65642069 
 3005              	.LASF61:
 3006 005a 65786974 		.ascii	"exitcode\000"
 3006      636F6465 
 3006      00
 3007              	.LASF68:
 3008 0063 6368436F 		.ascii	"chCondBroadcastI\000"
 3008      6E644272 
 3008      6F616463 
 3008      61737449 
 3008      00
 3009              	.LASF24:
 3010 0074 705F7072 		.ascii	"p_prio\000"
 3010      696F00
 3011              	.LASF10:
 3012 007b 6C6F6E67 		.ascii	"long long int\000"
 3012      206C6F6E 
 3012      6720696E 
 3012      7400
 3013              	.LASF1:
 3014 0089 7369676E 		.ascii	"signed char\000"
 3014      65642063 
 3014      68617200 
 3015              	.LASF40:
 3016 0095 705F6D70 		.ascii	"p_mpool\000"
 3016      6F6F6C00 
 3017              	.LASF55:
 3018 009d 6D5F7175 		.ascii	"m_queue\000"
 3018      65756500 
 3019              	.LASF16:
 3020 00a5 74736C69 		.ascii	"tslices_t\000"
 3020      6365735F 
 3020      7400
 3021              	.LASF58:
 3022 00af 436F6E64 		.ascii	"CondVar\000"
 3022      56617200 
 3023              	.LASF7:
 3024 00b7 6C6F6E67 		.ascii	"long int\000"
 3024      20696E74 
 3024      00
 3025              	.LASF14:
 3026 00c0 74737461 		.ascii	"tstate_t\000"
 3026      74655F74 
 3026      00
 3027              	.LASF77:
 3028 00c9 63684D74 		.ascii	"chMtxLockS\000"
 3028      784C6F63 
 3028      6B5300
 3029              	.LASF26:
 3030 00d4 705F6E65 		.ascii	"p_newer\000"
 3030      77657200 
ARM GAS  C:\Users\3130\AppData\Local\Temp\ccB4W5HA.s 			page 55


 3031              	.LASF86:
 3032 00dc 63685363 		.ascii	"chSchRescheduleS\000"
 3032      68526573 
 3032      63686564 
 3032      756C6553 
 3032      00
 3033              	.LASF50:
 3034 00ed 725F6E65 		.ascii	"r_newer\000"
 3034      77657200 
 3035              	.LASF43:
 3036 00f5 72656761 		.ascii	"regarm_t\000"
 3036      726D5F74 
 3036      00
 3037              	.LASF66:
 3038 00fe 6368436F 		.ascii	"chCondSignal\000"
 3038      6E645369 
 3038      676E616C 
 3038      00
 3039              	.LASF87:
 3040 010b 63684D74 		.ascii	"chMtxUnlockS\000"
 3040      78556E6C 
 3040      6F636B53 
 3040      00
 3041              	.LASF0:
 3042 0118 756E7369 		.ascii	"unsigned int\000"
 3042      676E6564 
 3042      20696E74 
 3042      00
 3043              	.LASF9:
 3044 0125 6C6F6E67 		.ascii	"long unsigned int\000"
 3044      20756E73 
 3044      69676E65 
 3044      6420696E 
 3044      7400
 3045              	.LASF45:
 3046 0137 636F6E74 		.ascii	"context\000"
 3046      65787400 
 3047              	.LASF4:
 3048 013f 73686F72 		.ascii	"short unsigned int\000"
 3048      7420756E 
 3048      7369676E 
 3048      65642069 
 3048      6E7400
 3049              	.LASF18:
 3050 0152 6D73675F 		.ascii	"msg_t\000"
 3050      7400
 3051              	.LASF83:
 3052 0158 7072696F 		.ascii	"prio_insert\000"
 3052      5F696E73 
 3052      65727400 
 3053              	.LASF13:
 3054 0164 746D6F64 		.ascii	"tmode_t\000"
 3054      655F7400 
 3055              	.LASF42:
 3056 016c 54687265 		.ascii	"ThreadsList\000"
 3056      6164734C 
 3056      69737400 
ARM GAS  C:\Users\3130\AppData\Local\Temp\ccB4W5HA.s 			page 56


 3057              	.LASF19:
 3058 0178 6576656E 		.ascii	"eventmask_t\000"
 3058      746D6173 
 3058      6B5F7400 
 3059              	.LASF54:
 3060 0184 4D757465 		.ascii	"Mutex\000"
 3060      7800
 3061              	.LASF46:
 3062 018a 73697A65 		.ascii	"sizetype\000"
 3062      74797065 
 3062      00
 3063              	.LASF72:
 3064 0193 6368436F 		.ascii	"chCondWaitTimeoutS\000"
 3064      6E645761 
 3064      69745469 
 3064      6D656F75 
 3064      745300
 3065              	.LASF27:
 3066 01a6 705F6F6C 		.ascii	"p_older\000"
 3066      64657200 
 3067              	.LASF49:
 3068 01ae 725F6374 		.ascii	"r_ctx\000"
 3068      7800
 3069              	.LASF41:
 3070 01b4 54687265 		.ascii	"ThreadsQueue\000"
 3070      61647351 
 3070      75657565 
 3070      00
 3071              	.LASF73:
 3072 01c1 74696D65 		.ascii	"time\000"
 3072      00
 3073              	.LASF52:
 3074 01c6 725F6375 		.ascii	"r_current\000"
 3074      7272656E 
 3074      7400
 3075              	.LASF51:
 3076 01d0 725F6F6C 		.ascii	"r_older\000"
 3076      64657200 
 3077              	.LASF69:
 3078 01d8 6368436F 		.ascii	"chCondBroadcast\000"
 3078      6E644272 
 3078      6F616463 
 3078      61737400 
 3079              	.LASF15:
 3080 01e8 74726566 		.ascii	"trefs_t\000"
 3080      735F7400 
 3081              	.LASF23:
 3082 01f0 705F7072 		.ascii	"p_prev\000"
 3082      657600
 3083              	.LASF17:
 3084 01f7 74707269 		.ascii	"tprio_t\000"
 3084      6F5F7400 
 3085              	.LASF67:
 3086 01ff 6368436F 		.ascii	"chCondSignalI\000"
 3086      6E645369 
 3086      676E616C 
 3086      4900
ARM GAS  C:\Users\3130\AppData\Local\Temp\ccB4W5HA.s 			page 57


 3087              	.LASF12:
 3088 020d 5F426F6F 		.ascii	"_Bool\000"
 3088      6C00
 3089              	.LASF6:
 3090 0213 696E7433 		.ascii	"int32_t\000"
 3090      325F7400 
 3091              	.LASF2:
 3092 021b 756E7369 		.ascii	"unsigned char\000"
 3092      676E6564 
 3092      20636861 
 3092      7200
 3093              	.LASF38:
 3094 0229 705F6D74 		.ascii	"p_mtxlist\000"
 3094      786C6973 
 3094      7400
 3095              	.LASF3:
 3096 0233 73686F72 		.ascii	"short int\000"
 3096      7420696E 
 3096      7400
 3097              	.LASF29:
 3098 023d 705F7374 		.ascii	"p_state\000"
 3098      61746500 
 3099              	.LASF32:
 3100 0245 705F7072 		.ascii	"p_preempt\000"
 3100      65656D70 
 3100      7400
 3101              	.LASF48:
 3102 024f 725F7072 		.ascii	"r_prio\000"
 3102      696F00
 3103              	.LASF63:
 3104 0256 65776D61 		.ascii	"ewmask\000"
 3104      736B00
 3105              	.LASF22:
 3106 025d 705F6E65 		.ascii	"p_next\000"
 3106      787400
 3107              	.LASF30:
 3108 0264 705F666C 		.ascii	"p_flags\000"
 3108      61677300 
 3109              	.LASF21:
 3110 026c 54687265 		.ascii	"Thread\000"
 3110      616400
 3111              	.LASF59:
 3112 0273 635F7175 		.ascii	"c_queue\000"
 3112      65756500 
 3113              	.LASF76:
 3114 027b 63685363 		.ascii	"chSchGoSleepS\000"
 3114      68476F53 
 3114      6C656570 
 3114      5300
 3115              	.LASF37:
 3116 0289 705F6570 		.ascii	"p_epending\000"
 3116      656E6469 
 3116      6E6700
 3117              	.LASF8:
 3118 0294 75696E74 		.ascii	"uint32_t\000"
 3118      33325F74 
 3118      00
ARM GAS  C:\Users\3130\AppData\Local\Temp\ccB4W5HA.s 			page 58


 3119              	.LASF47:
 3120 029d 725F7175 		.ascii	"r_queue\000"
 3120      65756500 
 3121              	.LASF85:
 3122 02a5 63685363 		.ascii	"chSchReadyI\000"
 3122      68526561 
 3122      64794900 
 3123              	.LASF64:
 3124 02b1 63686172 		.ascii	"char\000"
 3124      00
 3125              	.LASF82:
 3126 02b6 6669666F 		.ascii	"fifo_remove\000"
 3126      5F72656D 
 3126      6F766500 
 3127              	.LASF70:
 3128 02c2 6368436F 		.ascii	"chCondWaitS\000"
 3128      6E645761 
 3128      69745300 
 3129              	.LASF57:
 3130 02ce 6D5F6E65 		.ascii	"m_next\000"
 3130      787400
 3131              	.LASF20:
 3132 02d5 73797374 		.ascii	"systime_t\000"
 3132      696D655F 
 3132      7400
 3133              	.LASF39:
 3134 02df 705F7265 		.ascii	"p_realprio\000"
 3134      616C7072 
 3134      696F00
 3135              	.LASF71:
 3136 02ea 6368436F 		.ascii	"chCondWait\000"
 3136      6E645761 
 3136      697400
 3137              	.LASF33:
 3138 02f5 705F7469 		.ascii	"p_time\000"
 3138      6D6500
 3139              	.LASF81:
 3140 02fc 433A5C73 		.ascii	"C:\\stm32f0-Discovery_Tools\\Projects\\ChibiOS_Temp"
 3140      746D3332 
 3140      66302D44 
 3140      6973636F 
 3140      76657279 
 3141 032c 6C617465 		.ascii	"late\000"
 3141      00
 3142              	.LASF44:
 3143 0331 696E7463 		.ascii	"intctx\000"
 3143      747800
 3144              	.LASF35:
 3145 0338 705F6D73 		.ascii	"p_msgqueue\000"
 3145      67717565 
 3145      756500
 3146              	.LASF75:
 3147 0343 63685363 		.ascii	"chSchWakeupS\000"
 3147      6857616B 
 3147      65757053 
 3147      00
 3148              	.LASF31:
ARM GAS  C:\Users\3130\AppData\Local\Temp\ccB4W5HA.s 			page 59


 3149 0350 705F7265 		.ascii	"p_refs\000"
 3149      667300
 3150              	.LASF53:
 3151 0357 52656164 		.ascii	"ReadyList\000"
 3151      794C6973 
 3151      7400
 3152              	.LASF84:
 3153 0361 726C6973 		.ascii	"rlist\000"
 3153      7400
 3154              	.LASF5:
 3155 0367 75696E74 		.ascii	"uint8_t\000"
 3155      385F7400 
 3156              	.LASF79:
 3157 036f 474E5520 		.ascii	"GNU C 4.7.4 20130913 (prerelease)\000"
 3157      4320342E 
 3157      372E3420 
 3157      32303133 
 3157      30393133 
 3158              	.LASF62:
 3159 0391 77746F62 		.ascii	"wtobjp\000"
 3159      6A7000
 3160              	.LASF28:
 3161 0398 705F6E61 		.ascii	"p_name\000"
 3161      6D6500
 3162              	.LASF74:
 3163 039f 6368436F 		.ascii	"chCondWaitTimeout\000"
 3163      6E645761 
 3163      69745469 
 3163      6D656F75 
 3163      7400
 3164              	.LASF78:
 3165 03b1 63685363 		.ascii	"chSchGoSleepTimeoutS\000"
 3165      68476F53 
 3165      6C656570 
 3165      54696D65 
 3165      6F757453 
 3166              	.LASF56:
 3167 03c6 6D5F6F77 		.ascii	"m_owner\000"
 3167      6E657200 
 3168              	.LASF25:
 3169 03ce 705F6374 		.ascii	"p_ctx\000"
 3169      7800
 3170              	.LASF34:
 3171 03d4 705F7761 		.ascii	"p_waiting\000"
 3171      6974696E 
 3171      6700
 3172              		.ident	"GCC: (GNU Tools for ARM Embedded Processors / bleeding-edge-toolchain-131005) 4.7.4 201309
ARM GAS  C:\Users\3130\AppData\Local\Temp\ccB4W5HA.s 			page 60


DEFINED SYMBOLS
                            *ABS*:00000000 chcond.c
C:\Users\3130\AppData\Local\Temp\ccB4W5HA.s:18     .text.chCondInit:00000000 $t
C:\Users\3130\AppData\Local\Temp\ccB4W5HA.s:24     .text.chCondInit:00000000 chCondInit
C:\Users\3130\AppData\Local\Temp\ccB4W5HA.s:40     .text.chCondSignal:00000000 $t
C:\Users\3130\AppData\Local\Temp\ccB4W5HA.s:46     .text.chCondSignal:00000000 chCondSignal
C:\Users\3130\AppData\Local\Temp\ccB4W5HA.s:100    .text.chCondSignalI:00000000 $t
C:\Users\3130\AppData\Local\Temp\ccB4W5HA.s:106    .text.chCondSignalI:00000000 chCondSignalI
C:\Users\3130\AppData\Local\Temp\ccB4W5HA.s:145    .text.chCondBroadcastI:00000000 $t
C:\Users\3130\AppData\Local\Temp\ccB4W5HA.s:151    .text.chCondBroadcastI:00000000 chCondBroadcastI
C:\Users\3130\AppData\Local\Temp\ccB4W5HA.s:201    .text.chCondBroadcast:00000000 $t
C:\Users\3130\AppData\Local\Temp\ccB4W5HA.s:207    .text.chCondBroadcast:00000000 chCondBroadcast
C:\Users\3130\AppData\Local\Temp\ccB4W5HA.s:240    .text.chCondWaitS:00000000 $t
C:\Users\3130\AppData\Local\Temp\ccB4W5HA.s:246    .text.chCondWaitS:00000000 chCondWaitS
C:\Users\3130\AppData\Local\Temp\ccB4W5HA.s:338    .text.chCondWaitS:00000044 $d
C:\Users\3130\AppData\Local\Temp\ccB4W5HA.s:345    .text.chCondWait:00000000 $t
C:\Users\3130\AppData\Local\Temp\ccB4W5HA.s:351    .text.chCondWait:00000000 chCondWait
C:\Users\3130\AppData\Local\Temp\ccB4W5HA.s:381    .text.chCondWaitTimeoutS:00000000 $t
C:\Users\3130\AppData\Local\Temp\ccB4W5HA.s:387    .text.chCondWaitTimeoutS:00000000 chCondWaitTimeoutS
C:\Users\3130\AppData\Local\Temp\ccB4W5HA.s:473    .text.chCondWaitTimeoutS:00000044 $d
C:\Users\3130\AppData\Local\Temp\ccB4W5HA.s:478    .text.chCondWaitTimeout:00000000 $t
C:\Users\3130\AppData\Local\Temp\ccB4W5HA.s:484    .text.chCondWaitTimeout:00000000 chCondWaitTimeout
                     .debug_frame:00000010 $d
C:\Users\3130\AppData\Local\Temp\ccB4W5HA.s:344    .text.chCondWaitS:00000048 $t
C:\Users\3130\AppData\Local\Temp\ccB4W5HA.s:477    .text.chCondWaitTimeoutS:00000048 $t

UNDEFINED SYMBOLS
chSchWakeupS
chSchReadyI
chSchRescheduleS
chMtxUnlockS
chSchGoSleepS
chMtxLockS
rlist
chSchGoSleepTimeoutS
