ARM GAS  C:\Users\3130\AppData\Local\Temp\ccB4W5HA.s 			page 1


   1              		.cpu cortex-m0
   2              		.fpu softvfp
   3              		.eabi_attribute 20, 1
   4              		.eabi_attribute 21, 1
   5              		.eabi_attribute 23, 3
   6              		.eabi_attribute 24, 1
   7              		.eabi_attribute 25, 1
   8              		.eabi_attribute 26, 1
   9              		.eabi_attribute 30, 2
  10              		.eabi_attribute 34, 0
  11              		.eabi_attribute 18, 4
  12              		.code	16
  13              		.file	"chcond.c"
  14              		.text
  15              	.Ltext0:
  16              		.cfi_sections	.debug_frame
  17              		.section	.text.chCondInit,"ax",%progbits
  18              		.align	2
  19              		.p2align 4,,15
  20              		.global	chCondInit
  21              		.code	16
  22              		.thumb_func
  23              		.type	chCondInit, %function
  24              	chCondInit:
  25              	.LFB7:
  26              		.file 1 "../../ChibiOS_2.6.1/os/kernel/src/chcond.c"
  27              		.loc 1 59 0
  28              		.cfi_startproc
  29              	.LVL0:
  30              		.loc 1 63 0
  31 0000 4060     		str	r0, [r0, #4]
  32 0002 0060     		str	r0, [r0]
  33              		.loc 1 64 0
  34              		@ sp needed for prologue
  35 0004 7047     		bx	lr
  36              		.cfi_endproc
  37              	.LFE7:
  38              		.size	chCondInit, .-chCondInit
  39 0006 C046C046 		.section	.text.chCondSignal,"ax",%progbits
  39      C046C046 
  39      C046
  40              		.align	2
  41              		.p2align 4,,15
  42              		.global	chCondSignal
  43              		.code	16
  44              		.thumb_func
  45              		.type	chCondSignal, %function
  46              	chCondSignal:
  47              	.LFB8:
  48              		.loc 1 73 0
  49              		.cfi_startproc
  50              	.LVL1:
  51 0000 08B5     		push	{r3, lr}
  52              	.LCFI0:
  53              		.cfi_def_cfa_offset 8
  54              		.cfi_offset 3, -8
  55              		.cfi_offset 14, -4
ARM GAS  C:\Users\3130\AppData\Local\Temp\ccB4W5HA.s 			page 2


  56              		.loc 1 77 0
  57              	@ 77 "../../ChibiOS_2.6.1/os/kernel/src/chcond.c" 1
  58 0002 72B6     		cpsid   i
  59              	@ 0 "" 2
  60              		.loc 1 78 0
  61              		.code	16
  62 0004 0368     		ldr	r3, [r0]
  63 0006 8342     		cmp	r3, r0
  64 0008 06D0     		beq	.L3
  65              	.LVL2:
  66              	.LBB12:
  67              	.LBB13:
  68              		.file 2 "../../ChibiOS_2.6.1/os/kernel/include/chinline.h"
  69              		.loc 2 62 0
  70 000a 1A68     		ldr	r2, [r3]
  71              	.LBE13:
  72              	.LBE12:
  73              		.loc 1 79 0
  74 000c 0021     		mov	r1, #0
  75              	.LBB15:
  76              	.LBB14:
  77              		.loc 2 62 0
  78 000e 0260     		str	r2, [r0]
  79 0010 5060     		str	r0, [r2, #4]
  80              	.LBE14:
  81              	.LBE15:
  82              		.loc 1 79 0
  83 0012 181C     		mov	r0, r3
  84              	.LVL3:
  85 0014 FFF7FEFF 		bl	chSchWakeupS
  86              	.LVL4:
  87              	.L3:
  88              		.loc 1 80 0
  89              	@ 80 "../../ChibiOS_2.6.1/os/kernel/src/chcond.c" 1
  90 0018 62B6     		cpsie   i
  91              	@ 0 "" 2
  92              		.loc 1 81 0
  93              		.code	16
  94              		@ sp needed for prologue
  95 001a 08BD     		pop	{r3, pc}
  96              		.cfi_endproc
  97              	.LFE8:
  98              		.size	chCondSignal, .-chCondSignal
  99 001c C046C046 		.section	.text.chCondSignalI,"ax",%progbits
 100              		.align	2
 101              		.p2align 4,,15
 102              		.global	chCondSignalI
 103              		.code	16
 104              		.thumb_func
 105              		.type	chCondSignalI, %function
 106              	chCondSignalI:
 107              	.LFB9:
 108              		.loc 1 94 0
 109              		.cfi_startproc
 110              	.LVL5:
 111 0000 08B5     		push	{r3, lr}
 112              	.LCFI1:
ARM GAS  C:\Users\3130\AppData\Local\Temp\ccB4W5HA.s 			page 3


 113              		.cfi_def_cfa_offset 8
 114              		.cfi_offset 3, -8
 115              		.cfi_offset 14, -4
 116              		.loc 1 99 0
 117 0002 0368     		ldr	r3, [r0]
 118 0004 8342     		cmp	r3, r0
 119 0006 07D0     		beq	.L5
 120              	.LVL6:
 121              	.LBB16:
 122              	.LBB17:
 123              		.loc 2 62 0
 124 0008 1A68     		ldr	r2, [r3]
 125 000a 0260     		str	r2, [r0]
 126 000c 5060     		str	r0, [r2, #4]
 127              	.LBE17:
 128              	.LBE16:
 129              		.loc 1 100 0
 130 000e 181C     		mov	r0, r3
 131              	.LVL7:
 132 0010 FFF7FEFF 		bl	chSchReadyI
 133              	.LVL8:
 134 0014 0021     		mov	r1, #0
 135 0016 4162     		str	r1, [r0, #36]
 136              	.LVL9:
 137              	.L5:
 138              		.loc 1 101 0
 139              		@ sp needed for prologue
 140 0018 08BD     		pop	{r3, pc}
 141              		.cfi_endproc
 142              	.LFE9:
 143              		.size	chCondSignalI, .-chCondSignalI
 144 001a C046C046 		.section	.text.chCondBroadcastI,"ax",%progbits
 144      C046
 145              		.align	2
 146              		.p2align 4,,15
 147              		.global	chCondBroadcastI
 148              		.code	16
 149              		.thumb_func
 150              		.type	chCondBroadcastI, %function
 151              	chCondBroadcastI:
 152              	.LFB11:
 153              		.loc 1 129 0
 154              		.cfi_startproc
 155              	.LVL10:
 156 0000 38B5     		push	{r3, r4, r5, lr}
 157              	.LCFI2:
 158              		.cfi_def_cfa_offset 16
 159              		.cfi_offset 3, -16
 160              		.cfi_offset 4, -12
 161              		.cfi_offset 5, -8
 162              		.cfi_offset 14, -4
 163              		.loc 1 129 0
 164 0002 041C     		mov	r4, r0
 165              		.loc 1 137 0
 166 0004 0068     		ldr	r0, [r0]
 167              	.LVL11:
 168 0006 A042     		cmp	r0, r4
ARM GAS  C:\Users\3130\AppData\Local\Temp\ccB4W5HA.s 			page 4


 169 0008 0AD0     		beq	.L7
 170              		.loc 1 138 0
 171 000a 0225     		mov	r5, #2
 172 000c 6D42     		neg	r5, r5
 173              	.L11:
 174              	.LVL12:
 175              	.LBB18:
 176              	.LBB19:
 177              		.loc 2 62 0
 178 000e 0368     		ldr	r3, [r0]
 179 0010 2360     		str	r3, [r4]
 180 0012 5C60     		str	r4, [r3, #4]
 181              	.LBE19:
 182              	.LBE18:
 183              		.loc 1 138 0
 184 0014 FFF7FEFF 		bl	chSchReadyI
 185              	.LVL13:
 186 0018 4562     		str	r5, [r0, #36]
 187              		.loc 1 137 0
 188 001a 2068     		ldr	r0, [r4]
 189 001c A042     		cmp	r0, r4
 190 001e F6D1     		bne	.L11
 191              	.LVL14:
 192              	.L7:
 193              		.loc 1 139 0
 194              		@ sp needed for prologue
 195              	.LVL15:
 196 0020 38BD     		pop	{r3, r4, r5, pc}
 197              		.cfi_endproc
 198              	.LFE11:
 199              		.size	chCondBroadcastI, .-chCondBroadcastI
 200 0022 C046C046 		.section	.text.chCondBroadcast,"ax",%progbits
 200      C046C046 
 200      C046C046 
 200      C046
 201              		.align	2
 202              		.p2align 4,,15
 203              		.global	chCondBroadcast
 204              		.code	16
 205              		.thumb_func
 206              		.type	chCondBroadcast, %function
 207              	chCondBroadcast:
 208              	.LFB10:
 209              		.loc 1 110 0
 210              		.cfi_startproc
 211              	.LVL16:
 212 0000 08B5     		push	{r3, lr}
 213              	.LCFI3:
 214              		.cfi_def_cfa_offset 8
 215              		.cfi_offset 3, -8
 216              		.cfi_offset 14, -4
 217              		.loc 1 112 0
 218              	@ 112 "../../ChibiOS_2.6.1/os/kernel/src/chcond.c" 1
 219 0002 72B6     		cpsid   i
 220              	@ 0 "" 2
 221              		.loc 1 113 0
 222              		.code	16
ARM GAS  C:\Users\3130\AppData\Local\Temp\ccB4W5HA.s 			page 5


 223 0004 FFF7FEFF 		bl	chCondBroadcastI
 224              	.LVL17:
 225              		.loc 1 114 0
 226 0008 FFF7FEFF 		bl	chSchRescheduleS
 227              	.LVL18:
 228              		.loc 1 115 0
 229              	@ 115 "../../ChibiOS_2.6.1/os/kernel/src/chcond.c" 1
 230 000c 62B6     		cpsie   i
 231              	@ 0 "" 2
 232              		.loc 1 116 0
 233              		.code	16
 234              		@ sp needed for prologue
 235 000e 08BD     		pop	{r3, pc}
 236              		.cfi_endproc
 237              	.LFE10:
 238              		.size	chCondBroadcast, .-chCondBroadcast
 239              		.section	.text.chCondWaitS,"ax",%progbits
 240              		.align	2
 241              		.p2align 4,,15
 242              		.global	chCondWaitS
 243              		.code	16
 244              		.thumb_func
 245              		.type	chCondWaitS, %function
 246              	chCondWaitS:
 247              	.LFB13:
 248              		.loc 1 184 0
 249              		.cfi_startproc
 250              	.LVL19:
 251              		.loc 1 185 0
 252 0000 104B     		ldr	r3, .L22
 253              		.loc 1 184 0
 254 0002 70B5     		push	{r4, r5, r6, lr}
 255              	.LCFI4:
 256              		.cfi_def_cfa_offset 16
 257              		.cfi_offset 4, -16
 258              		.cfi_offset 5, -12
 259              		.cfi_offset 6, -8
 260              		.cfi_offset 14, -4
 261              		.loc 1 184 0
 262 0004 051C     		mov	r5, r0
 263              		.loc 1 185 0
 264 0006 9C69     		ldr	r4, [r3, #24]
 265              	.LVL20:
 266              		.loc 1 195 0
 267 0008 FFF7FEFF 		bl	chMtxUnlockS
 268              	.LVL21:
 269              		.loc 1 196 0
 270 000c 6562     		str	r5, [r4, #36]
 271              		.loc 1 195 0
 272 000e 061C     		mov	r6, r0
 273              	.LVL22:
 274              		.loc 1 197 0
 275 0010 2A1C     		mov	r2, r5
 276              	.LVL23:
 277              		.loc 2 43 0
 278 0012 2B1C     		mov	r3, r5
 279 0014 03E0     		b	.L16
ARM GAS  C:\Users\3130\AppData\Local\Temp\ccB4W5HA.s 			page 6


 280              	.LVL24:
 281              	.L21:
 282              	.LBB20:
 283              	.LBB21:
 284              		.loc 2 46 0
 285 0016 9868     		ldr	r0, [r3, #8]
 286 0018 A168     		ldr	r1, [r4, #8]
 287 001a 8842     		cmp	r0, r1
 288 001c 10D3     		bcc	.L20
 289              	.L16:
 290              		.loc 2 45 0
 291 001e 1B68     		ldr	r3, [r3]
 292              	.LVL25:
 293              		.loc 2 46 0
 294 0020 9D42     		cmp	r5, r3
 295 0022 F8D1     		bne	.L21
 296              	.LVL26:
 297              	.L17:
 298              		.loc 2 48 0
 299 0024 5568     		ldr	r5, [r2, #4]
 300              	.LVL27:
 301              		.loc 2 47 0
 302 0026 2260     		str	r2, [r4]
 303              		.loc 2 48 0
 304 0028 6560     		str	r5, [r4, #4]
 305              		.loc 2 49 0
 306 002a 2C60     		str	r4, [r5]
 307 002c 5460     		str	r4, [r2, #4]
 308              	.LBE21:
 309              	.LBE20:
 310              		.loc 1 198 0
 311 002e 0520     		mov	r0, #5
 312 0030 FFF7FEFF 		bl	chSchGoSleepS
 313              	.LVL28:
 314              		.loc 1 199 0
 315 0034 646A     		ldr	r4, [r4, #36]
 316              	.LVL29:
 317              		.loc 1 200 0
 318 0036 301C     		mov	r0, r6
 319 0038 FFF7FEFF 		bl	chMtxLockS
 320              	.LVL30:
 321              		.loc 1 202 0
 322              		@ sp needed for prologue
 323 003c 201C     		mov	r0, r4
 324              	.LVL31:
 325              	.LVL32:
 326 003e 70BD     		pop	{r4, r5, r6, pc}
 327              	.LVL33:
 328              	.L20:
 329              	.LBB23:
 330              	.LBB22:
 331              		.loc 2 46 0
 332 0040 1A1C     		mov	r2, r3
 333              	.LVL34:
 334 0042 EFE7     		b	.L17
 335              	.L23:
 336              		.align	2
ARM GAS  C:\Users\3130\AppData\Local\Temp\ccB4W5HA.s 			page 7


 337              	.L22:
 338 0044 00000000 		.word	rlist
 339              	.LBE22:
 340              	.LBE23:
 341              		.cfi_endproc
 342              	.LFE13:
 343              		.size	chCondWaitS, .-chCondWaitS
 344 0048 C046C046 		.section	.text.chCondWait,"ax",%progbits
 344      C046C046 
 345              		.align	2
 346              		.p2align 4,,15
 347              		.global	chCondWait
 348              		.code	16
 349              		.thumb_func
 350              		.type	chCondWait, %function
 351              	chCondWait:
 352              	.LFB12:
 353              		.loc 1 158 0
 354              		.cfi_startproc
 355              	.LVL35:
 356 0000 08B5     		push	{r3, lr}
 357              	.LCFI5:
 358              		.cfi_def_cfa_offset 8
 359              		.cfi_offset 3, -8
 360              		.cfi_offset 14, -4
 361              		.loc 1 161 0
 362              	@ 161 "../../ChibiOS_2.6.1/os/kernel/src/chcond.c" 1
 363 0002 72B6     		cpsid   i
 364              	@ 0 "" 2
 365              		.loc 1 162 0
 366              		.code	16
 367 0004 FFF7FEFF 		bl	chCondWaitS
 368              	.LVL36:
 369              		.loc 1 163 0
 370              	@ 163 "../../ChibiOS_2.6.1/os/kernel/src/chcond.c" 1
 371 0008 62B6     		cpsie   i
 372              	@ 0 "" 2
 373              		.loc 1 165 0
 374              		.code	16
 375              		@ sp needed for prologue
 376 000a 08BD     		pop	{r3, pc}
 377              		.cfi_endproc
 378              	.LFE12:
 379              		.size	chCondWait, .-chCondWait
 380 000c C046C046 		.section	.text.chCondWaitTimeoutS,"ax",%progbits
 381              		.align	2
 382              		.p2align 4,,15
 383              		.global	chCondWaitTimeoutS
 384              		.code	16
 385              		.thumb_func
 386              		.type	chCondWaitTimeoutS, %function
 387              	chCondWaitTimeoutS:
 388              	.LFB15:
 389              		.loc 1 270 0
 390              		.cfi_startproc
 391              	.LVL37:
 392 0000 70B5     		push	{r4, r5, r6, lr}
ARM GAS  C:\Users\3130\AppData\Local\Temp\ccB4W5HA.s 			page 8


 393              	.LCFI6:
 394              		.cfi_def_cfa_offset 16
 395              		.cfi_offset 4, -16
 396              		.cfi_offset 5, -12
 397              		.cfi_offset 6, -8
 398              		.cfi_offset 14, -4
 399              		.loc 1 270 0
 400 0002 041C     		mov	r4, r0
 401 0004 0D1C     		mov	r5, r1
 402              		.loc 1 280 0
 403 0006 FFF7FEFF 		bl	chMtxUnlockS
 404              	.LVL38:
 405              		.loc 1 281 0
 406 000a 0E4B     		ldr	r3, .L32
 407              		.loc 1 280 0
 408 000c 061C     		mov	r6, r0
 409              	.LVL39:
 410              		.loc 1 281 0
 411 000e 9A69     		ldr	r2, [r3, #24]
 412              		.loc 2 43 0
 413 0010 231C     		mov	r3, r4
 414              		.loc 1 281 0
 415 0012 5462     		str	r4, [r2, #36]
 416              	.LVL40:
 417              	.L29:
 418              	.LBB24:
 419              	.LBB25:
 420              		.loc 2 45 0
 421 0014 1B68     		ldr	r3, [r3]
 422              	.LVL41:
 423              		.loc 2 46 0
 424 0016 9C42     		cmp	r4, r3
 425 0018 03D0     		beq	.L30
 426 001a 9968     		ldr	r1, [r3, #8]
 427 001c 9068     		ldr	r0, [r2, #8]
 428 001e 8142     		cmp	r1, r0
 429 0020 F8D2     		bcs	.L29
 430              	.L30:
 431              		.loc 2 48 0
 432 0022 5C68     		ldr	r4, [r3, #4]
 433              	.LVL42:
 434              		.loc 2 47 0
 435 0024 1360     		str	r3, [r2]
 436              		.loc 2 48 0
 437 0026 5460     		str	r4, [r2, #4]
 438              	.LBE25:
 439              	.LBE24:
 440              		.loc 1 283 0
 441 0028 291C     		mov	r1, r5
 442              	.LBB27:
 443              	.LBB26:
 444              		.loc 2 49 0
 445 002a 5A60     		str	r2, [r3, #4]
 446 002c 2260     		str	r2, [r4]
 447              	.LBE26:
 448              	.LBE27:
 449              		.loc 1 283 0
ARM GAS  C:\Users\3130\AppData\Local\Temp\ccB4W5HA.s 			page 9


 450 002e 0520     		mov	r0, #5
 451 0030 FFF7FEFF 		bl	chSchGoSleepTimeoutS
 452              	.LVL43:
 453 0034 051C     		mov	r5, r0
 454              	.LVL44:
 455              		.loc 1 284 0
 456 0036 681C     		add	r0, r5, #1
 457 0038 02D0     		beq	.L28
 458              	.LVL45:
 459              		.loc 1 285 0
 460 003a 301C     		mov	r0, r6
 461 003c FFF7FEFF 		bl	chMtxLockS
 462              	.LVL46:
 463              	.L28:
 464              		.loc 1 287 0
 465 0040 281C     		mov	r0, r5
 466              		@ sp needed for prologue
 467              	.LVL47:
 468              	.LVL48:
 469 0042 70BD     		pop	{r4, r5, r6, pc}
 470              	.L33:
 471              		.align	2
 472              	.L32:
 473 0044 00000000 		.word	rlist
 474              		.cfi_endproc
 475              	.LFE15:
 476              		.size	chCondWaitTimeoutS, .-chCondWaitTimeoutS
 477 0048 C046C046 		.section	.text.chCondWaitTimeout,"ax",%progbits
 477      C046C046 
 478              		.align	2
 479              		.p2align 4,,15
 480              		.global	chCondWaitTimeout
 481              		.code	16
 482              		.thumb_func
 483              		.type	chCondWaitTimeout, %function
 484              	chCondWaitTimeout:
 485              	.LFB14:
 486              		.loc 1 233 0
 487              		.cfi_startproc
 488              	.LVL49:
 489 0000 08B5     		push	{r3, lr}
 490              	.LCFI7:
 491              		.cfi_def_cfa_offset 8
 492              		.cfi_offset 3, -8
 493              		.cfi_offset 14, -4
 494              		.loc 1 236 0
 495              	@ 236 "../../ChibiOS_2.6.1/os/kernel/src/chcond.c" 1
 496 0002 72B6     		cpsid   i
 497              	@ 0 "" 2
 498              		.loc 1 237 0
 499              		.code	16
 500 0004 FFF7FEFF 		bl	chCondWaitTimeoutS
 501              	.LVL50:
 502              		.loc 1 238 0
 503              	@ 238 "../../ChibiOS_2.6.1/os/kernel/src/chcond.c" 1
 504 0008 62B6     		cpsie   i
 505              	@ 0 "" 2
ARM GAS  C:\Users\3130\AppData\Local\Temp\ccB4W5HA.s 			page 10


 506              		.loc 1 240 0
 507              		.code	16
 508              		@ sp needed for prologue
 509 000a 08BD     		pop	{r3, pc}
 510              		.cfi_endproc
 511              	.LFE14:
 512              		.size	chCondWaitTimeout, .-chCondWaitTimeout
 513 000c C046C046 		.text
 514              	.Letext0:
 515              		.file 3 "c:\\stm32f0-discovery_tools\\gcc-arm-none-eabi\\bin\\../lib/gcc/arm-none-eabi/4.7.4/../..
 516              		.file 4 "../../ChibiOS_2.6.1/os/ports/GCC/ARMCMx/chtypes.h"
 517              		.file 5 "../../ChibiOS_2.6.1/os/kernel/include/chlists.h"
 518              		.file 6 "../../ChibiOS_2.6.1/os/kernel/include/chthreads.h"
 519              		.file 7 "../../ChibiOS_2.6.1/os/ports/GCC/ARMCMx/chcore_v6m.h"
 520              		.file 8 "../../ChibiOS_2.6.1/os/kernel/include/chschd.h"
 521              		.file 9 "../../ChibiOS_2.6.1/os/kernel/include/chmtx.h"
 522              		.file 10 "../../ChibiOS_2.6.1/os/kernel/include/chcond.h"