ARM GAS  C:\Users\3130\AppData\Local\Temp\cc0g04Ck.s 			page 1


   1              		.cpu cortex-m0
   2              		.fpu softvfp
   3              		.eabi_attribute 20, 1
   4              		.eabi_attribute 21, 1
   5              		.eabi_attribute 23, 3
   6              		.eabi_attribute 24, 1
   7              		.eabi_attribute 25, 1
   8              		.eabi_attribute 26, 1
   9              		.eabi_attribute 30, 2
  10              		.eabi_attribute 34, 0
  11              		.eabi_attribute 18, 4
  12              		.code	16
  13              		.file	"chheap.c"
  14              		.text
  15              	.Ltext0:
  16              		.cfi_sections	.debug_frame
  17              		.section	.text._heap_init,"ax",%progbits
  18              		.align	2
  19              		.p2align 4,,15
  20              		.global	_heap_init
  21              		.code	16
  22              		.thumb_func
  23              		.type	_heap_init, %function
  24              	_heap_init:
  25              	.LFB7:
  26              		.file 1 "../../ChibiOS_2.6.1/os/kernel/src/chheap.c"
  27              		.loc 1 75 0
  28              		.cfi_startproc
  29 0000 08B5     		push	{r3, lr}
  30              	.LCFI0:
  31              		.cfi_def_cfa_offset 8
  32              		.cfi_offset 3, -8
  33              		.cfi_offset 14, -4
  34              		.loc 1 76 0
  35 0002 0548     		ldr	r0, .L2
  36 0004 054B     		ldr	r3, .L2+4
  37              		.loc 1 77 0
  38 0006 0021     		mov	r1, #0
  39              		.loc 1 76 0
  40 0008 0360     		str	r3, [r0]
  41              		.loc 1 77 0
  42 000a 8160     		str	r1, [r0, #8]
  43              		.loc 1 78 0
  44 000c C160     		str	r1, [r0, #12]
  45              		.loc 1 80 0
  46 000e 1030     		add	r0, r0, #16
  47 0010 FFF7FEFF 		bl	chMtxInit
  48              	.LVL0:
  49              		.loc 1 84 0
  50              		@ sp needed for prologue
  51 0014 08BD     		pop	{r3, pc}
  52              	.L3:
  53 0016 C046     		.align	2
  54              	.L2:
  55 0018 00000000 		.word	.LANCHOR0
  56 001c 00000000 		.word	chCoreAlloc
  57              		.cfi_endproc
ARM GAS  C:\Users\3130\AppData\Local\Temp\cc0g04Ck.s 			page 2


  58              	.LFE7:
  59              		.size	_heap_init, .-_heap_init
  60              		.section	.text.chHeapInit,"ax",%progbits
  61              		.align	2
  62              		.p2align 4,,15
  63              		.global	chHeapInit
  64              		.code	16
  65              		.thumb_func
  66              		.type	chHeapInit, %function
  67              	chHeapInit:
  68              	.LFB8:
  69              		.loc 1 99 0
  70              		.cfi_startproc
  71              	.LVL1:
  72 0000 08B5     		push	{r3, lr}
  73              	.LCFI1:
  74              		.cfi_def_cfa_offset 8
  75              		.cfi_offset 3, -8
  76              		.cfi_offset 14, -4
  77              		.loc 1 108 0
  78 0002 083A     		sub	r2, r2, #8
  79              	.LVL2:
  80              		.loc 1 104 0
  81 0004 0023     		mov	r3, #0
  82 0006 0360     		str	r3, [r0]
  83              	.LVL3:
  84              		.loc 1 105 0
  85 0008 8160     		str	r1, [r0, #8]
  86              		.loc 1 106 0
  87 000a C360     		str	r3, [r0, #12]
  88              		.loc 1 107 0
  89 000c 0B60     		str	r3, [r1]
  90              		.loc 1 108 0
  91 000e 4A60     		str	r2, [r1, #4]
  92              		.loc 1 110 0
  93 0010 1030     		add	r0, r0, #16
  94              	.LVL4:
  95 0012 FFF7FEFF 		bl	chMtxInit
  96              	.LVL5:
  97              		.loc 1 114 0
  98              		@ sp needed for prologue
  99 0016 08BD     		pop	{r3, pc}
 100              		.cfi_endproc
 101              	.LFE8:
 102              		.size	chHeapInit, .-chHeapInit
 103 0018 C046C046 		.section	.text.chHeapAlloc,"ax",%progbits
 103      C046C046 
 104              		.align	2
 105              		.p2align 4,,15
 106              		.global	chHeapAlloc
 107              		.code	16
 108              		.thumb_func
 109              		.type	chHeapAlloc, %function
 110              	chHeapAlloc:
 111              	.LFB9:
 112              		.loc 1 132 0
 113              		.cfi_startproc
ARM GAS  C:\Users\3130\AppData\Local\Temp\cc0g04Ck.s 			page 3


 114              	.LVL6:
 115 0000 F8B5     		push	{r3, r4, r5, r6, r7, lr}
 116              	.LCFI2:
 117              		.cfi_def_cfa_offset 24
 118              		.cfi_offset 3, -24
 119              		.cfi_offset 4, -20
 120              		.cfi_offset 5, -16
 121              		.cfi_offset 6, -12
 122              		.cfi_offset 7, -8
 123              		.cfi_offset 14, -4
 124              		.loc 1 132 0
 125 0002 071E     		sub	r7, r0, #0
 126              		.loc 1 135 0
 127 0004 33D0     		beq	.L20
 128              	.L6:
 129              	.LVL7:
 130              		.loc 1 140 0
 131 0006 381C     		mov	r0, r7
 132              		.loc 1 138 0
 133 0008 CE1D     		add	r6, r1, #7
 134 000a 0723     		mov	r3, #7
 135              		.loc 1 139 0
 136 000c 3D1C     		mov	r5, r7
 137              		.loc 1 140 0
 138 000e 1030     		add	r0, r0, #16
 139              		.loc 1 138 0
 140 0010 9E43     		bic	r6, r3
 141              	.LVL8:
 142              		.loc 1 139 0
 143 0012 0835     		add	r5, r5, #8
 144              	.LVL9:
 145              		.loc 1 140 0
 146 0014 FFF7FEFF 		bl	chMtxLock
 147              	.LVL10:
 148              		.loc 1 142 0
 149 0018 00E0     		b	.L7
 150              	.LVL11:
 151              	.L15:
 152              		.loc 1 144 0
 153 001a 251C     		mov	r5, r4
 154              	.LVL12:
 155              	.L7:
 156              		.loc 1 142 0 discriminator 1
 157 001c 2C68     		ldr	r4, [r5]
 158 001e 002C     		cmp	r4, #0
 159 0020 17D0     		beq	.L21
 160              	.LVL13:
 161              		.loc 1 144 0
 162 0022 6068     		ldr	r0, [r4, #4]
 163 0024 8642     		cmp	r6, r0
 164 0026 F8D8     		bhi	.L15
 165              		.loc 1 145 0
 166 0028 321C     		mov	r2, r6
 167 002a 0832     		add	r2, r2, #8
 168 002c 8242     		cmp	r2, r0
 169 002e 0DD8     		bhi	.L22
 170              		.loc 1 154 0
ARM GAS  C:\Users\3130\AppData\Local\Temp\cc0g04Ck.s 			page 4


 171 0030 2368     		ldr	r3, [r4]
 172              		.loc 1 155 0
 173 0032 811B     		sub	r1, r0, r6
 174              		.loc 1 153 0
 175 0034 A218     		add	r2, r4, r2
 176              	.LVL14:
 177              		.loc 1 155 0
 178 0036 0839     		sub	r1, r1, #8
 179              		.loc 1 154 0
 180 0038 1360     		str	r3, [r2]
 181              		.loc 1 155 0
 182 003a 5160     		str	r1, [r2, #4]
 183              		.loc 1 156 0
 184 003c 2A60     		str	r2, [r5]
 185              		.loc 1 157 0
 186 003e 6660     		str	r6, [r4, #4]
 187              	.LVL15:
 188              	.L9:
 189              		.loc 1 159 0
 190 0040 2760     		str	r7, [r4]
 191              		.loc 1 161 0
 192 0042 FFF7FEFF 		bl	chMtxUnlock
 193              	.LVL16:
 194              		.loc 1 162 0
 195 0046 201C     		mov	r0, r4
 196 0048 0830     		add	r0, r0, #8
 197              	.LVL17:
 198              	.L10:
 199              		.loc 1 181 0
 200              		@ sp needed for prologue
 201              	.LVL18:
 202              	.LVL19:
 203 004a F8BD     		pop	{r3, r4, r5, r6, r7, pc}
 204              	.LVL20:
 205              	.L22:
 206              		.loc 1 149 0
 207 004c 2668     		ldr	r6, [r4]
 208              	.LVL21:
 209 004e 2E60     		str	r6, [r5]
 210 0050 F6E7     		b	.L9
 211              	.LVL22:
 212              	.L21:
 213              		.loc 1 167 0
 214 0052 FFF7FEFF 		bl	chMtxUnlock
 215              	.LVL23:
 216              		.loc 1 171 0
 217 0056 3968     		ldr	r1, [r7]
 218 0058 0029     		cmp	r1, #0
 219 005a 0AD0     		beq	.L13
 220              		.loc 1 172 0
 221 005c 301C     		mov	r0, r6
 222 005e 0830     		add	r0, r0, #8
 223 0060 8847     		blx	r1
 224              	.LVL24:
 225              		.loc 1 173 0
 226 0062 0028     		cmp	r0, #0
 227 0064 05D0     		beq	.L13
ARM GAS  C:\Users\3130\AppData\Local\Temp\cc0g04Ck.s 			page 5


 228              		.loc 1 174 0
 229 0066 0760     		str	r7, [r0]
 230              		.loc 1 175 0
 231 0068 4660     		str	r6, [r0, #4]
 232              	.LVL25:
 233              		.loc 1 177 0
 234 006a 0830     		add	r0, r0, #8
 235              	.LVL26:
 236 006c EDE7     		b	.L10
 237              	.LVL27:
 238              	.L20:
 239              		.loc 1 136 0
 240 006e 024F     		ldr	r7, .L23
 241 0070 C9E7     		b	.L6
 242              	.LVL28:
 243              	.L13:
 244              		.loc 1 180 0
 245 0072 0020     		mov	r0, #0
 246 0074 E9E7     		b	.L10
 247              	.L24:
 248 0076 C046     		.align	2
 249              	.L23:
 250 0078 00000000 		.word	.LANCHOR0
 251              		.cfi_endproc
 252              	.LFE9:
 253              		.size	chHeapAlloc, .-chHeapAlloc
 254 007c C046C046 		.section	.text.chHeapFree,"ax",%progbits
 255              		.align	2
 256              		.p2align 4,,15
 257              		.global	chHeapFree
 258              		.code	16
 259              		.thumb_func
 260              		.type	chHeapFree, %function
 261              	chHeapFree:
 262              	.LFB10:
 263              		.loc 1 194 0
 264              		.cfi_startproc
 265              	.LVL29:
 266 0000 38B5     		push	{r3, r4, r5, lr}
 267              	.LCFI3:
 268              		.cfi_def_cfa_offset 16
 269              		.cfi_offset 3, -16
 270              		.cfi_offset 4, -12
 271              		.cfi_offset 5, -8
 272              		.cfi_offset 14, -4
 273              		.loc 1 200 0
 274 0002 041C     		mov	r4, r0
 275 0004 083C     		sub	r4, r4, #8
 276              	.LVL30:
 277              		.loc 1 201 0
 278 0006 2068     		ldr	r0, [r4]
 279              	.LVL31:
 280              		.loc 1 202 0
 281 0008 051C     		mov	r5, r0
 282 000a 0835     		add	r5, r5, #8
 283              	.LVL32:
 284              		.loc 1 203 0
ARM GAS  C:\Users\3130\AppData\Local\Temp\cc0g04Ck.s 			page 6


 285 000c 1030     		add	r0, r0, #16
 286              	.LVL33:
 287 000e FFF7FEFF 		bl	chMtxLock
 288              	.LVL34:
 289              		.loc 1 202 0
 290 0012 2B1C     		mov	r3, r5
 291              	.LVL35:
 292              	.L32:
 293              		.loc 1 211 0
 294 0014 1A68     		ldr	r2, [r3]
 295              		.loc 1 210 0
 296 0016 AB42     		cmp	r3, r5
 297 0018 01D0     		beq	.L26
 298              		.loc 1 210 0 is_stmt 0 discriminator 2
 299 001a A342     		cmp	r3, r4
 300 001c 03D2     		bcs	.L29
 301              	.L26:
 302              		.loc 1 210 0 discriminator 1
 303 001e 002A     		cmp	r2, #0
 304 0020 03D0     		beq	.L28
 305              		.loc 1 211 0 is_stmt 1
 306 0022 9442     		cmp	r4, r2
 307 0024 01D3     		bcc	.L28
 308              	.L29:
 309              	.LVL36:
 310              		.loc 1 228 0
 311 0026 131C     		mov	r3, r2
 312              		.loc 1 229 0
 313 0028 F4E7     		b	.L32
 314              	.LVL37:
 315              	.L28:
 316              		.loc 1 216 0
 317 002a 6168     		ldr	r1, [r4, #4]
 318              		.loc 1 213 0
 319 002c 2260     		str	r2, [r4]
 320              		.loc 1 216 0
 321 002e 081C     		mov	r0, r1
 322              		.loc 1 214 0
 323 0030 1C60     		str	r4, [r3]
 324              		.loc 1 216 0
 325 0032 0830     		add	r0, r0, #8
 326 0034 2268     		ldr	r2, [r4]
 327 0036 2518     		add	r5, r4, r0
 328              	.LVL38:
 329 0038 9542     		cmp	r5, r2
 330 003a 08D0     		beq	.L36
 331              		.loc 1 221 0
 332 003c 5A68     		ldr	r2, [r3, #4]
 333 003e 101C     		mov	r0, r2
 334 0040 0830     		add	r0, r0, #8
 335 0042 1918     		add	r1, r3, r0
 336 0044 8C42     		cmp	r4, r1
 337 0046 0ED0     		beq	.L37
 338              	.LVL39:
 339              	.L31:
 340              		.loc 1 231 0
 341 0048 FFF7FEFF 		bl	chMtxUnlock
ARM GAS  C:\Users\3130\AppData\Local\Temp\cc0g04Ck.s 			page 7


 342              	.LVL40:
 343              		.loc 1 233 0
 344              		@ sp needed for prologue
 345 004c 38BD     		pop	{r3, r4, r5, pc}
 346              	.LVL41:
 347              	.L36:
 348              		.loc 1 218 0
 349 004e 6868     		ldr	r0, [r5, #4]
 350              		.loc 1 219 0
 351 0050 2D68     		ldr	r5, [r5]
 352              		.loc 1 218 0
 353 0052 0918     		add	r1, r1, r0
 354 0054 0831     		add	r1, r1, #8
 355 0056 6160     		str	r1, [r4, #4]
 356              		.loc 1 221 0
 357 0058 5A68     		ldr	r2, [r3, #4]
 358              		.loc 1 219 0
 359 005a 2560     		str	r5, [r4]
 360              		.loc 1 221 0
 361 005c 101C     		mov	r0, r2
 362 005e 0830     		add	r0, r0, #8
 363 0060 1918     		add	r1, r3, r0
 364 0062 8C42     		cmp	r4, r1
 365 0064 F0D1     		bne	.L31
 366              	.L37:
 367              		.loc 1 223 0
 368 0066 6568     		ldr	r5, [r4, #4]
 369              		.loc 1 224 0
 370 0068 2468     		ldr	r4, [r4]
 371              	.LVL42:
 372              		.loc 1 223 0
 373 006a 5219     		add	r2, r2, r5
 374 006c 0832     		add	r2, r2, #8
 375 006e 5A60     		str	r2, [r3, #4]
 376              		.loc 1 224 0
 377 0070 1C60     		str	r4, [r3]
 378 0072 E9E7     		b	.L31
 379              		.cfi_endproc
 380              	.LFE10:
 381              		.size	chHeapFree, .-chHeapFree
 382 0074 C046C046 		.section	.text.chHeapStatus,"ax",%progbits
 382      C046C046 
 382      C046C046 
 383              		.align	2
 384              		.p2align 4,,15
 385              		.global	chHeapStatus
 386              		.code	16
 387              		.thumb_func
 388              		.type	chHeapStatus, %function
 389              	chHeapStatus:
 390              	.LFB11:
 391              		.loc 1 250 0
 392              		.cfi_startproc
 393              	.LVL43:
 394 0000 38B5     		push	{r3, r4, r5, lr}
 395              	.LCFI4:
 396              		.cfi_def_cfa_offset 16
ARM GAS  C:\Users\3130\AppData\Local\Temp\cc0g04Ck.s 			page 8


 397              		.cfi_offset 3, -16
 398              		.cfi_offset 4, -12
 399              		.cfi_offset 5, -8
 400              		.cfi_offset 14, -4
 401              		.loc 1 250 0
 402 0002 041C     		mov	r4, r0
 403 0004 0D1C     		mov	r5, r1
 404              		.loc 1 254 0
 405 0006 0028     		cmp	r0, #0
 406 0008 15D0     		beq	.L49
 407              	.L39:
 408              	.LVL44:
 409              		.loc 1 257 0
 410 000a 201C     		mov	r0, r4
 411 000c 1030     		add	r0, r0, #16
 412 000e FFF7FEFF 		bl	chMtxLock
 413              	.LVL45:
 414              		.loc 1 260 0
 415 0012 A368     		ldr	r3, [r4, #8]
 416 0014 0022     		mov	r2, #0
 417 0016 0024     		mov	r4, #0
 418              	.LVL46:
 419 0018 002B     		cmp	r3, #0
 420 001a 05D0     		beq	.L40
 421              	.LVL47:
 422              	.L41:
 423              		.loc 1 261 0 discriminator 2
 424 001c 5968     		ldr	r1, [r3, #4]
 425              		.loc 1 260 0 discriminator 2
 426 001e 1B68     		ldr	r3, [r3]
 427              		.loc 1 261 0 discriminator 2
 428 0020 5218     		add	r2, r2, r1
 429              	.LVL48:
 430              		.loc 1 260 0 discriminator 2
 431 0022 0134     		add	r4, r4, #1
 432              	.LVL49:
 433 0024 002B     		cmp	r3, #0
 434 0026 F9D1     		bne	.L41
 435              	.LVL50:
 436              	.L40:
 437              		.loc 1 262 0
 438 0028 002D     		cmp	r5, #0
 439 002a 00D0     		beq	.L42
 440              		.loc 1 263 0
 441 002c 2A60     		str	r2, [r5]
 442              	.L42:
 443              		.loc 1 265 0
 444 002e FFF7FEFF 		bl	chMtxUnlock
 445              	.LVL51:
 446              		.loc 1 267 0
 447              		@ sp needed for prologue
 448 0032 201C     		mov	r0, r4
 449              	.LVL52:
 450 0034 38BD     		pop	{r3, r4, r5, pc}
 451              	.LVL53:
 452              	.L49:
 453              		.loc 1 255 0
ARM GAS  C:\Users\3130\AppData\Local\Temp\cc0g04Ck.s 			page 9


 454 0036 014C     		ldr	r4, .L50
 455 0038 E7E7     		b	.L39
 456              	.L51:
 457 003a C046     		.align	2
 458              	.L50:
 459 003c 00000000 		.word	.LANCHOR0
 460              		.cfi_endproc
 461              	.LFE11:
 462              		.size	chHeapStatus, .-chHeapStatus
 463              		.section	.bss.default_heap,"aw",%nobits
 464              		.align	3
 465              		.set	.LANCHOR0,. + 0
 466              		.type	default_heap, %object
 467              		.size	default_heap, 32
 468              	default_heap:
 469 0000 00000000 		.space	32
 469      00000000 
 469      00000000 
 469      00000000 
 469      00000000 
 470              		.text
 471              	.Letext0:
 472              		.file 2 "c:\\stm32f0-discovery_tools\\gcc-arm-none-eabi\\bin\\../lib/gcc/arm-none-eabi/4.7.4/inclu
 473              		.file 3 "c:\\stm32f0-discovery_tools\\gcc-arm-none-eabi\\bin\\../lib/gcc/arm-none-eabi/4.7.4/../..
 474              		.file 4 "../../ChibiOS_2.6.1/os/ports/GCC/ARMCMx/chtypes.h"
 475              		.file 5 "../../ChibiOS_2.6.1/os/kernel/include/chlists.h"
 476              		.file 6 "../../ChibiOS_2.6.1/os/kernel/include/chthreads.h"
 477              		.file 7 "../../ChibiOS_2.6.1/os/ports/GCC/ARMCMx/chcore_v6m.h"
 478              		.file 8 "../../ChibiOS_2.6.1/os/kernel/include/chmtx.h"
 479              		.file 9 "../../ChibiOS_2.6.1/os/kernel/include/chmemcore.h"
 480              		.file 10 "../../ChibiOS_2.6.1/os/kernel/include/chheap.h"