ARM GAS  C:\Users\3130\AppData\Local\Temp\ccfnl2bd.s 			page 1


   1              		.cpu cortex-m0
   2              		.fpu softvfp
   3              		.eabi_attribute 20, 1
   4              		.eabi_attribute 21, 1
   5              		.eabi_attribute 23, 3
   6              		.eabi_attribute 24, 1
   7              		.eabi_attribute 25, 1
   8              		.eabi_attribute 26, 1
   9              		.eabi_attribute 30, 2
  10              		.eabi_attribute 34, 0
  11              		.eabi_attribute 18, 4
  12              		.code	16
  13              		.file	"chmboxes.c"
  14              		.text
  15              	.Ltext0:
  16              		.cfi_sections	.debug_frame
  17              		.section	.text.chMBInit,"ax",%progbits
  18              		.align	2
  19              		.p2align 4,,15
  20              		.global	chMBInit
  21              		.code	16
  22              		.thumb_func
  23              		.type	chMBInit, %function
  24              	chMBInit:
  25              	.LFB7:
  26              		.file 1 "../../ChibiOS_2.6.1/os/kernel/src/chmboxes.c"
  27              		.loc 1 72 0
  28              		.cfi_startproc
  29              	.LVL0:
  30 0000 10B5     		push	{r4, lr}
  31              	.LCFI0:
  32              		.cfi_def_cfa_offset 8
  33              		.cfi_offset 4, -8
  34              		.cfi_offset 14, -4
  35              		.loc 1 72 0
  36 0002 041C     		mov	r4, r0
  37              		.loc 1 76 0
  38 0004 E160     		str	r1, [r4, #12]
  39 0006 A160     		str	r1, [r4, #8]
  40 0008 2160     		str	r1, [r4]
  41              		.loc 1 72 0
  42 000a 0B1C     		mov	r3, r1
  43              		.loc 1 77 0
  44 000c 9100     		lsl	r1, r2, #2
  45              	.LVL1:
  46 000e 5B18     		add	r3, r3, r1
  47              	.LVL2:
  48 0010 4360     		str	r3, [r0, #4]
  49              		.loc 1 78 0
  50 0012 111C     		mov	r1, r2
  51 0014 1C30     		add	r0, r0, #28
  52              	.LVL3:
  53 0016 FFF7FEFF 		bl	chSemInit
  54              	.LVL4:
  55              		.loc 1 79 0
  56 001a 201C     		mov	r0, r4
  57 001c 1030     		add	r0, r0, #16
ARM GAS  C:\Users\3130\AppData\Local\Temp\ccfnl2bd.s 			page 2


  58 001e 0021     		mov	r1, #0
  59 0020 FFF7FEFF 		bl	chSemInit
  60              	.LVL5:
  61              		.loc 1 80 0
  62              		@ sp needed for prologue
  63              	.LVL6:
  64 0024 10BD     		pop	{r4, pc}
  65              		.cfi_endproc
  66              	.LFE7:
  67              		.size	chMBInit, .-chMBInit
  68 0026 C046C046 		.section	.text.chMBReset,"ax",%progbits
  68      C046C046 
  68      C046
  69              		.align	2
  70              		.p2align 4,,15
  71              		.global	chMBReset
  72              		.code	16
  73              		.thumb_func
  74              		.type	chMBReset, %function
  75              	chMBReset:
  76              	.LFB8:
  77              		.loc 1 91 0
  78              		.cfi_startproc
  79              	.LVL7:
  80 0000 10B5     		push	{r4, lr}
  81              	.LCFI1:
  82              		.cfi_def_cfa_offset 8
  83              		.cfi_offset 4, -8
  84              		.cfi_offset 14, -4
  85              		.loc 1 91 0
  86 0002 041C     		mov	r4, r0
  87              		.loc 1 95 0
  88              	@ 95 "../../ChibiOS_2.6.1/os/kernel/src/chmboxes.c" 1
  89 0004 72B6     		cpsid   i
  90              	@ 0 "" 2
  91              		.loc 1 96 0
  92              		.code	16
  93 0006 0168     		ldr	r1, [r0]
  94              		.loc 1 97 0
  95 0008 6368     		ldr	r3, [r4, #4]
  96              		.loc 1 96 0
  97 000a C160     		str	r1, [r0, #12]
  98              		.loc 1 97 0
  99 000c 5A1A     		sub	r2, r3, r1
 100              		.loc 1 96 0
 101 000e 8160     		str	r1, [r0, #8]
 102              		.loc 1 97 0
 103 0010 9110     		asr	r1, r2, #2
 104 0012 1C30     		add	r0, r0, #28
 105              	.LVL8:
 106 0014 FFF7FEFF 		bl	chSemResetI
 107              	.LVL9:
 108              		.loc 1 98 0
 109 0018 201C     		mov	r0, r4
 110 001a 1030     		add	r0, r0, #16
 111 001c 0021     		mov	r1, #0
 112 001e FFF7FEFF 		bl	chSemResetI
ARM GAS  C:\Users\3130\AppData\Local\Temp\ccfnl2bd.s 			page 3


 113              	.LVL10:
 114              		.loc 1 99 0
 115 0022 FFF7FEFF 		bl	chSchRescheduleS
 116              	.LVL11:
 117              		.loc 1 100 0
 118              	@ 100 "../../ChibiOS_2.6.1/os/kernel/src/chmboxes.c" 1
 119 0026 62B6     		cpsie   i
 120              	@ 0 "" 2
 121              		.loc 1 101 0
 122              		.code	16
 123              		@ sp needed for prologue
 124              	.LVL12:
 125 0028 10BD     		pop	{r4, pc}
 126              		.cfi_endproc
 127              	.LFE8:
 128              		.size	chMBReset, .-chMBReset
 129 002a C046C046 		.section	.text.chMBPostS,"ax",%progbits
 129      C046
 130              		.align	2
 131              		.p2align 4,,15
 132              		.global	chMBPostS
 133              		.code	16
 134              		.thumb_func
 135              		.type	chMBPostS, %function
 136              	chMBPostS:
 137              	.LFB10:
 138              		.loc 1 150 0
 139              		.cfi_startproc
 140              	.LVL13:
 141 0000 70B5     		push	{r4, r5, r6, lr}
 142              	.LCFI2:
 143              		.cfi_def_cfa_offset 16
 144              		.cfi_offset 4, -16
 145              		.cfi_offset 5, -12
 146              		.cfi_offset 6, -8
 147              		.cfi_offset 14, -4
 148              		.loc 1 150 0
 149 0002 041C     		mov	r4, r0
 150 0004 0E1C     		mov	r6, r1
 151              		.loc 1 156 0
 152 0006 1C30     		add	r0, r0, #28
 153              	.LVL14:
 154 0008 111C     		mov	r1, r2
 155              	.LVL15:
 156 000a FFF7FEFF 		bl	chSemWaitTimeoutS
 157              	.LVL16:
 158 000e 051E     		sub	r5, r0, #0
 159              	.LVL17:
 160              		.loc 1 157 0
 161 0010 0BD1     		bne	.L4
 162              		.loc 1 158 0
 163 0012 A368     		ldr	r3, [r4, #8]
 164              		.loc 1 159 0
 165 0014 6268     		ldr	r2, [r4, #4]
 166              		.loc 1 158 0
 167 0016 40C3     		stmia	r3!, {r6}
 168 0018 A360     		str	r3, [r4, #8]
ARM GAS  C:\Users\3130\AppData\Local\Temp\ccfnl2bd.s 			page 4


 169              		.loc 1 159 0
 170 001a 9342     		cmp	r3, r2
 171 001c 07D2     		bcs	.L7
 172              	.LVL18:
 173              	.L5:
 174              		.loc 1 161 0
 175 001e 201C     		mov	r0, r4
 176 0020 1030     		add	r0, r0, #16
 177 0022 FFF7FEFF 		bl	chSemSignalI
 178              	.LVL19:
 179              		.loc 1 162 0
 180 0026 FFF7FEFF 		bl	chSchRescheduleS
 181              	.LVL20:
 182              	.L4:
 183              		.loc 1 165 0
 184 002a 281C     		mov	r0, r5
 185              		@ sp needed for prologue
 186              	.LVL21:
 187              	.LVL22:
 188              	.LVL23:
 189 002c 70BD     		pop	{r4, r5, r6, pc}
 190              	.LVL24:
 191              	.L7:
 192              		.loc 1 160 0
 193 002e 2068     		ldr	r0, [r4]
 194              	.LVL25:
 195 0030 A060     		str	r0, [r4, #8]
 196 0032 F4E7     		b	.L5
 197              		.cfi_endproc
 198              	.LFE10:
 199              		.size	chMBPostS, .-chMBPostS
 200 0034 C046C046 		.section	.text.chMBPost,"ax",%progbits
 200      C046C046 
 200      C046C046 
 201              		.align	2
 202              		.p2align 4,,15
 203              		.global	chMBPost
 204              		.code	16
 205              		.thumb_func
 206              		.type	chMBPost, %function
 207              	chMBPost:
 208              	.LFB9:
 209              		.loc 1 122 0
 210              		.cfi_startproc
 211              	.LVL26:
 212 0000 08B5     		push	{r3, lr}
 213              	.LCFI3:
 214              		.cfi_def_cfa_offset 8
 215              		.cfi_offset 3, -8
 216              		.cfi_offset 14, -4
 217              		.loc 1 125 0
 218              	@ 125 "../../ChibiOS_2.6.1/os/kernel/src/chmboxes.c" 1
 219 0002 72B6     		cpsid   i
 220              	@ 0 "" 2
 221              		.loc 1 126 0
 222              		.code	16
 223 0004 FFF7FEFF 		bl	chMBPostS
ARM GAS  C:\Users\3130\AppData\Local\Temp\ccfnl2bd.s 			page 5


 224              	.LVL27:
 225              		.loc 1 127 0
 226              	@ 127 "../../ChibiOS_2.6.1/os/kernel/src/chmboxes.c" 1
 227 0008 62B6     		cpsie   i
 228              	@ 0 "" 2
 229              		.loc 1 129 0
 230              		.code	16
 231              		@ sp needed for prologue
 232 000a 08BD     		pop	{r3, pc}
 233              		.cfi_endproc
 234              	.LFE9:
 235              		.size	chMBPost, .-chMBPost
 236 000c C046C046 		.section	.text.chMBPostI,"ax",%progbits
 237              		.align	2
 238              		.p2align 4,,15
 239              		.global	chMBPostI
 240              		.code	16
 241              		.thumb_func
 242              		.type	chMBPostI, %function
 243              	chMBPostI:
 244              	.LFB11:
 245              		.loc 1 181 0
 246              		.cfi_startproc
 247              	.LVL28:
 248 0000 08B5     		push	{r3, lr}
 249              	.LCFI4:
 250              		.cfi_def_cfa_offset 8
 251              		.cfi_offset 3, -8
 252              		.cfi_offset 14, -4
 253              		.loc 1 186 0
 254 0002 436A     		ldr	r3, [r0, #36]
 255 0004 002B     		cmp	r3, #0
 256 0006 0FDD     		ble	.L12
 257              		.loc 1 188 0
 258 0008 013B     		sub	r3, r3, #1
 259 000a 4362     		str	r3, [r0, #36]
 260              		.loc 1 189 0
 261 000c 8368     		ldr	r3, [r0, #8]
 262              		.loc 1 190 0
 263 000e 4268     		ldr	r2, [r0, #4]
 264              		.loc 1 189 0
 265 0010 02C3     		stmia	r3!, {r1}
 266 0012 8360     		str	r3, [r0, #8]
 267              		.loc 1 190 0
 268 0014 9342     		cmp	r3, r2
 269 0016 04D2     		bcs	.L13
 270              	.LVL29:
 271              	.L11:
 272              		.loc 1 192 0
 273 0018 1030     		add	r0, r0, #16
 274              	.LVL30:
 275 001a FFF7FEFF 		bl	chSemSignalI
 276              	.LVL31:
 277              		.loc 1 193 0
 278 001e 0020     		mov	r0, #0
 279              	.L10:
 280              		.loc 1 194 0
ARM GAS  C:\Users\3130\AppData\Local\Temp\ccfnl2bd.s 			page 6


 281              		@ sp needed for prologue
 282 0020 08BD     		pop	{r3, pc}
 283              	.LVL32:
 284              	.L13:
 285              		.loc 1 191 0
 286 0022 0168     		ldr	r1, [r0]
 287              	.LVL33:
 288 0024 8160     		str	r1, [r0, #8]
 289 0026 F7E7     		b	.L11
 290              	.LVL34:
 291              	.L12:
 292              		.loc 1 187 0
 293 0028 0120     		mov	r0, #1
 294              	.LVL35:
 295 002a 4042     		neg	r0, r0
 296 002c F8E7     		b	.L10
 297              		.cfi_endproc
 298              	.LFE11:
 299              		.size	chMBPostI, .-chMBPostI
 300 002e C046     		.section	.text.chMBPostAheadS,"ax",%progbits
 301              		.align	2
 302              		.p2align 4,,15
 303              		.global	chMBPostAheadS
 304              		.code	16
 305              		.thumb_func
 306              		.type	chMBPostAheadS, %function
 307              	chMBPostAheadS:
 308              	.LFB13:
 309              		.loc 1 243 0
 310              		.cfi_startproc
 311              	.LVL36:
 312 0000 70B5     		push	{r4, r5, r6, lr}
 313              	.LCFI5:
 314              		.cfi_def_cfa_offset 16
 315              		.cfi_offset 4, -16
 316              		.cfi_offset 5, -12
 317              		.cfi_offset 6, -8
 318              		.cfi_offset 14, -4
 319              		.loc 1 243 0
 320 0002 041C     		mov	r4, r0
 321 0004 0E1C     		mov	r6, r1
 322              		.loc 1 249 0
 323 0006 1C30     		add	r0, r0, #28
 324              	.LVL37:
 325 0008 111C     		mov	r1, r2
 326              	.LVL38:
 327 000a FFF7FEFF 		bl	chSemWaitTimeoutS
 328              	.LVL39:
 329 000e 051E     		sub	r5, r0, #0
 330              	.LVL40:
 331              		.loc 1 250 0
 332 0010 0CD1     		bne	.L15
 333              		.loc 1 251 0
 334 0012 E368     		ldr	r3, [r4, #12]
 335 0014 2268     		ldr	r2, [r4]
 336 0016 043B     		sub	r3, r3, #4
 337 0018 E360     		str	r3, [r4, #12]
ARM GAS  C:\Users\3130\AppData\Local\Temp\ccfnl2bd.s 			page 7


 338 001a 9342     		cmp	r3, r2
 339 001c 08D3     		bcc	.L17
 340              	.L16:
 341              		.loc 1 254 0
 342 001e 201C     		mov	r0, r4
 343              	.LVL41:
 344              		.loc 1 253 0
 345 0020 1E60     		str	r6, [r3]
 346              		.loc 1 254 0
 347 0022 1030     		add	r0, r0, #16
 348 0024 FFF7FEFF 		bl	chSemSignalI
 349              	.LVL42:
 350              		.loc 1 255 0
 351 0028 FFF7FEFF 		bl	chSchRescheduleS
 352              	.LVL43:
 353              	.L15:
 354              		.loc 1 258 0
 355 002c 281C     		mov	r0, r5
 356              		@ sp needed for prologue
 357              	.LVL44:
 358              	.LVL45:
 359              	.LVL46:
 360 002e 70BD     		pop	{r4, r5, r6, pc}
 361              	.LVL47:
 362              	.L17:
 363              		.loc 1 252 0
 364 0030 6368     		ldr	r3, [r4, #4]
 365 0032 043B     		sub	r3, r3, #4
 366 0034 E360     		str	r3, [r4, #12]
 367 0036 F2E7     		b	.L16
 368              		.cfi_endproc
 369              	.LFE13:
 370              		.size	chMBPostAheadS, .-chMBPostAheadS
 371 0038 C046C046 		.section	.text.chMBPostAhead,"ax",%progbits
 371      C046C046 
 372              		.align	2
 373              		.p2align 4,,15
 374              		.global	chMBPostAhead
 375              		.code	16
 376              		.thumb_func
 377              		.type	chMBPostAhead, %function
 378              	chMBPostAhead:
 379              	.LFB12:
 380              		.loc 1 215 0
 381              		.cfi_startproc
 382              	.LVL48:
 383 0000 08B5     		push	{r3, lr}
 384              	.LCFI6:
 385              		.cfi_def_cfa_offset 8
 386              		.cfi_offset 3, -8
 387              		.cfi_offset 14, -4
 388              		.loc 1 218 0
 389              	@ 218 "../../ChibiOS_2.6.1/os/kernel/src/chmboxes.c" 1
 390 0002 72B6     		cpsid   i
 391              	@ 0 "" 2
 392              		.loc 1 219 0
 393              		.code	16
ARM GAS  C:\Users\3130\AppData\Local\Temp\ccfnl2bd.s 			page 8


 394 0004 FFF7FEFF 		bl	chMBPostAheadS
 395              	.LVL49:
 396              		.loc 1 220 0
 397              	@ 220 "../../ChibiOS_2.6.1/os/kernel/src/chmboxes.c" 1
 398 0008 62B6     		cpsie   i
 399              	@ 0 "" 2
 400              		.loc 1 222 0
 401              		.code	16
 402              		@ sp needed for prologue
 403 000a 08BD     		pop	{r3, pc}
 404              		.cfi_endproc
 405              	.LFE12:
 406              		.size	chMBPostAhead, .-chMBPostAhead
 407 000c C046C046 		.section	.text.chMBPostAheadI,"ax",%progbits
 408              		.align	2
 409              		.p2align 4,,15
 410              		.global	chMBPostAheadI
 411              		.code	16
 412              		.thumb_func
 413              		.type	chMBPostAheadI, %function
 414              	chMBPostAheadI:
 415              	.LFB14:
 416              		.loc 1 274 0
 417              		.cfi_startproc
 418              	.LVL50:
 419 0000 08B5     		push	{r3, lr}
 420              	.LCFI7:
 421              		.cfi_def_cfa_offset 8
 422              		.cfi_offset 3, -8
 423              		.cfi_offset 14, -4
 424              		.loc 1 279 0
 425 0002 436A     		ldr	r3, [r0, #36]
 426 0004 002B     		cmp	r3, #0
 427 0006 11DD     		ble	.L22
 428              		.loc 1 281 0
 429 0008 013B     		sub	r3, r3, #1
 430 000a 4362     		str	r3, [r0, #36]
 431              		.loc 1 282 0
 432 000c C368     		ldr	r3, [r0, #12]
 433 000e 0268     		ldr	r2, [r0]
 434 0010 043B     		sub	r3, r3, #4
 435 0012 C360     		str	r3, [r0, #12]
 436 0014 9342     		cmp	r3, r2
 437 0016 05D3     		bcc	.L23
 438              	.L21:
 439              		.loc 1 285 0
 440 0018 1030     		add	r0, r0, #16
 441              	.LVL51:
 442              		.loc 1 284 0
 443 001a 1960     		str	r1, [r3]
 444              		.loc 1 285 0
 445 001c FFF7FEFF 		bl	chSemSignalI
 446              	.LVL52:
 447              		.loc 1 286 0
 448 0020 0020     		mov	r0, #0
 449              	.L20:
 450              		.loc 1 287 0
ARM GAS  C:\Users\3130\AppData\Local\Temp\ccfnl2bd.s 			page 9


 451              		@ sp needed for prologue
 452 0022 08BD     		pop	{r3, pc}
 453              	.LVL53:
 454              	.L23:
 455              		.loc 1 283 0
 456 0024 4368     		ldr	r3, [r0, #4]
 457 0026 043B     		sub	r3, r3, #4
 458 0028 C360     		str	r3, [r0, #12]
 459 002a F5E7     		b	.L21
 460              	.L22:
 461              		.loc 1 280 0
 462 002c 0120     		mov	r0, #1
 463              	.LVL54:
 464 002e 4042     		neg	r0, r0
 465 0030 F7E7     		b	.L20
 466              		.cfi_endproc
 467              	.LFE14:
 468              		.size	chMBPostAheadI, .-chMBPostAheadI
 469 0032 C046C046 		.section	.text.chMBFetchS,"ax",%progbits
 469      C046C046 
 469      C046C046 
 469      C046
 470              		.align	2
 471              		.p2align 4,,15
 472              		.global	chMBFetchS
 473              		.code	16
 474              		.thumb_func
 475              		.type	chMBFetchS, %function
 476              	chMBFetchS:
 477              	.LFB16:
 478              		.loc 1 336 0
 479              		.cfi_startproc
 480              	.LVL55:
 481 0000 70B5     		push	{r4, r5, r6, lr}
 482              	.LCFI8:
 483              		.cfi_def_cfa_offset 16
 484              		.cfi_offset 4, -16
 485              		.cfi_offset 5, -12
 486              		.cfi_offset 6, -8
 487              		.cfi_offset 14, -4
 488              		.loc 1 336 0
 489 0002 041C     		mov	r4, r0
 490 0004 0E1C     		mov	r6, r1
 491              		.loc 1 342 0
 492 0006 1030     		add	r0, r0, #16
 493              	.LVL56:
 494 0008 111C     		mov	r1, r2
 495              	.LVL57:
 496 000a FFF7FEFF 		bl	chSemWaitTimeoutS
 497              	.LVL58:
 498 000e 051E     		sub	r5, r0, #0
 499              	.LVL59:
 500              		.loc 1 343 0
 501 0010 0CD1     		bne	.L25
 502              		.loc 1 344 0
 503 0012 E368     		ldr	r3, [r4, #12]
 504              		.loc 1 345 0
ARM GAS  C:\Users\3130\AppData\Local\Temp\ccfnl2bd.s 			page 10


 505 0014 6068     		ldr	r0, [r4, #4]
 506              	.LVL60:
 507              		.loc 1 344 0
 508 0016 04CB     		ldmia	r3!, {r2}
 509 0018 3260     		str	r2, [r6]
 510 001a E360     		str	r3, [r4, #12]
 511              		.loc 1 345 0
 512 001c 8342     		cmp	r3, r0
 513 001e 07D2     		bcs	.L27
 514              	.L26:
 515              		.loc 1 347 0
 516 0020 201C     		mov	r0, r4
 517 0022 1C30     		add	r0, r0, #28
 518 0024 FFF7FEFF 		bl	chSemSignalI
 519              	.LVL61:
 520              		.loc 1 348 0
 521 0028 FFF7FEFF 		bl	chSchRescheduleS
 522              	.LVL62:
 523              	.L25:
 524              		.loc 1 351 0
 525 002c 281C     		mov	r0, r5
 526              		@ sp needed for prologue
 527              	.LVL63:
 528              	.LVL64:
 529              	.LVL65:
 530 002e 70BD     		pop	{r4, r5, r6, pc}
 531              	.LVL66:
 532              	.L27:
 533              		.loc 1 346 0
 534 0030 2168     		ldr	r1, [r4]
 535 0032 E160     		str	r1, [r4, #12]
 536 0034 F4E7     		b	.L26
 537              		.cfi_endproc
 538              	.LFE16:
 539              		.size	chMBFetchS, .-chMBFetchS
 540 0036 C046C046 		.section	.text.chMBFetch,"ax",%progbits
 540      C046C046 
 540      C046
 541              		.align	2
 542              		.p2align 4,,15
 543              		.global	chMBFetch
 544              		.code	16
 545              		.thumb_func
 546              		.type	chMBFetch, %function
 547              	chMBFetch:
 548              	.LFB15:
 549              		.loc 1 308 0
 550              		.cfi_startproc
 551              	.LVL67:
 552 0000 08B5     		push	{r3, lr}
 553              	.LCFI9:
 554              		.cfi_def_cfa_offset 8
 555              		.cfi_offset 3, -8
 556              		.cfi_offset 14, -4
 557              		.loc 1 311 0
 558              	@ 311 "../../ChibiOS_2.6.1/os/kernel/src/chmboxes.c" 1
 559 0002 72B6     		cpsid   i
ARM GAS  C:\Users\3130\AppData\Local\Temp\ccfnl2bd.s 			page 11


 560              	@ 0 "" 2
 561              		.loc 1 312 0
 562              		.code	16
 563 0004 FFF7FEFF 		bl	chMBFetchS
 564              	.LVL68:
 565              		.loc 1 313 0
 566              	@ 313 "../../ChibiOS_2.6.1/os/kernel/src/chmboxes.c" 1
 567 0008 62B6     		cpsie   i
 568              	@ 0 "" 2
 569              		.loc 1 315 0
 570              		.code	16
 571              		@ sp needed for prologue
 572 000a 08BD     		pop	{r3, pc}
 573              		.cfi_endproc
 574              	.LFE15:
 575              		.size	chMBFetch, .-chMBFetch
 576 000c C046C046 		.section	.text.chMBFetchI,"ax",%progbits
 577              		.align	2
 578              		.p2align 4,,15
 579              		.global	chMBFetchI
 580              		.code	16
 581              		.thumb_func
 582              		.type	chMBFetchI, %function
 583              	chMBFetchI:
 584              	.LFB17:
 585              		.loc 1 367 0
 586              		.cfi_startproc
 587              	.LVL69:
 588 0000 08B5     		push	{r3, lr}
 589              	.LCFI10:
 590              		.cfi_def_cfa_offset 8
 591              		.cfi_offset 3, -8
 592              		.cfi_offset 14, -4
 593              		.loc 1 372 0
 594 0002 8369     		ldr	r3, [r0, #24]
 595 0004 002B     		cmp	r3, #0
 596 0006 10DD     		ble	.L32
 597              		.loc 1 374 0
 598 0008 013B     		sub	r3, r3, #1
 599 000a 8361     		str	r3, [r0, #24]
 600              		.loc 1 375 0
 601 000c C368     		ldr	r3, [r0, #12]
 602 000e 04CB     		ldmia	r3!, {r2}
 603 0010 0A60     		str	r2, [r1]
 604              		.loc 1 376 0
 605 0012 4168     		ldr	r1, [r0, #4]
 606              	.LVL70:
 607              		.loc 1 375 0
 608 0014 C360     		str	r3, [r0, #12]
 609              		.loc 1 376 0
 610 0016 8B42     		cmp	r3, r1
 611 0018 04D2     		bcs	.L33
 612              	.L31:
 613              		.loc 1 378 0
 614 001a 1C30     		add	r0, r0, #28
 615              	.LVL71:
 616 001c FFF7FEFF 		bl	chSemSignalI
ARM GAS  C:\Users\3130\AppData\Local\Temp\ccfnl2bd.s 			page 12


 617              	.LVL72:
 618              		.loc 1 379 0
 619 0020 0020     		mov	r0, #0
 620              	.L30:
 621              		.loc 1 380 0
 622              		@ sp needed for prologue
 623 0022 08BD     		pop	{r3, pc}
 624              	.LVL73:
 625              	.L33:
 626              		.loc 1 377 0
 627 0024 0368     		ldr	r3, [r0]
 628 0026 C360     		str	r3, [r0, #12]
 629 0028 F7E7     		b	.L31
 630              	.LVL74:
 631              	.L32:
 632              		.loc 1 373 0
 633 002a 0120     		mov	r0, #1
 634              	.LVL75:
 635 002c 4042     		neg	r0, r0
 636 002e F8E7     		b	.L30
 637              		.cfi_endproc
 638              	.LFE17:
 639              		.size	chMBFetchI, .-chMBFetchI
 640              		.text
 641              	.Letext0:
 642              		.file 2 "c:\\stm32f0-discovery_tools\\gcc-arm-none-eabi\\bin\\../lib/gcc/arm-none-eabi/4.7.4/../..
 643              		.file 3 "../../ChibiOS_2.6.1/os/ports/GCC/ARMCMx/chtypes.h"
 644              		.file 4 "../../ChibiOS_2.6.1/os/kernel/include/chlists.h"
 645              		.file 5 "../../ChibiOS_2.6.1/os/kernel/include/chthreads.h"
 646              		.file 6 "../../ChibiOS_2.6.1/os/ports/GCC/ARMCMx/chcore_v6m.h"
 647              		.file 7 "../../ChibiOS_2.6.1/os/kernel/include/chsem.h"
 648              		.file 8 "../../ChibiOS_2.6.1/os/kernel/include/chmtx.h"
 649              		.file 9 "../../ChibiOS_2.6.1/os/kernel/include/chmboxes.h"
 650              		.file 10 "../../ChibiOS_2.6.1/os/kernel/include/chschd.h"
 651              		.section	.debug_info,"",%progbits
 652              	.Ldebug_info0:
 653 0000 E0090000 		.4byte	0x9e0
 654 0004 0200     		.2byte	0x2
 655 0006 00000000 		.4byte	.Ldebug_abbrev0
 656 000a 04       		.byte	0x4
 657 000b 01       		.uleb128 0x1
 658 000c 66030000 		.4byte	.LASF82
 659 0010 01       		.byte	0x1
 660 0011 9E000000 		.4byte	.LASF83
 661 0015 E5020000 		.4byte	.LASF84
 662 0019 00000000 		.4byte	.Ldebug_ranges0+0
 663 001d 00000000 		.4byte	0
 664 0021 00000000 		.4byte	0
 665 0025 00000000 		.4byte	.Ldebug_line0
 666 0029 02       		.uleb128 0x2
 667 002a 04       		.byte	0x4
 668 002b 05       		.byte	0x5
 669 002c 696E7400 		.ascii	"int\000"
 670 0030 03       		.uleb128 0x3
 671 0031 04       		.byte	0x4
 672 0032 07       		.byte	0x7
 673 0033 35010000 		.4byte	.LASF0
ARM GAS  C:\Users\3130\AppData\Local\Temp\ccfnl2bd.s 			page 13


 674 0037 03       		.uleb128 0x3
 675 0038 01       		.byte	0x1
 676 0039 06       		.byte	0x6
 677 003a 1A000000 		.4byte	.LASF1
 678 003e 04       		.uleb128 0x4
 679 003f 5E030000 		.4byte	.LASF5
 680 0043 02       		.byte	0x2
 681 0044 2A       		.byte	0x2a
 682 0045 49000000 		.4byte	0x49
 683 0049 03       		.uleb128 0x3
 684 004a 01       		.byte	0x1
 685 004b 08       		.byte	0x8
 686 004c 36020000 		.4byte	.LASF2
 687 0050 03       		.uleb128 0x3
 688 0051 02       		.byte	0x2
 689 0052 05       		.byte	0x5
 690 0053 55020000 		.4byte	.LASF3
 691 0057 03       		.uleb128 0x3
 692 0058 02       		.byte	0x2
 693 0059 07       		.byte	0x7
 694 005a 77010000 		.4byte	.LASF4
 695 005e 04       		.uleb128 0x4
 696 005f 2E020000 		.4byte	.LASF6
 697 0063 02       		.byte	0x2
 698 0064 4F       		.byte	0x4f
 699 0065 69000000 		.4byte	0x69
 700 0069 03       		.uleb128 0x3
 701 006a 04       		.byte	0x4
 702 006b 05       		.byte	0x5
 703 006c E5000000 		.4byte	.LASF7
 704 0070 04       		.uleb128 0x4
 705 0071 A2020000 		.4byte	.LASF8
 706 0075 02       		.byte	0x2
 707 0076 50       		.byte	0x50
 708 0077 7B000000 		.4byte	0x7b
 709 007b 03       		.uleb128 0x3
 710 007c 04       		.byte	0x4
 711 007d 07       		.byte	0x7
 712 007e 4B010000 		.4byte	.LASF9
 713 0082 03       		.uleb128 0x3
 714 0083 08       		.byte	0x8
 715 0084 05       		.byte	0x5
 716 0085 90000000 		.4byte	.LASF10
 717 0089 03       		.uleb128 0x3
 718 008a 08       		.byte	0x8
 719 008b 07       		.byte	0x7
 720 008c 51000000 		.4byte	.LASF11
 721 0090 03       		.uleb128 0x3
 722 0091 01       		.byte	0x1
 723 0092 02       		.byte	0x2
 724 0093 28020000 		.4byte	.LASF12
 725 0097 04       		.uleb128 0x4
 726 0098 A6010000 		.4byte	.LASF13
 727 009c 03       		.byte	0x3
 728 009d 2C       		.byte	0x2c
 729 009e 3E000000 		.4byte	0x3e
 730 00a2 04       		.uleb128 0x4
ARM GAS  C:\Users\3130\AppData\Local\Temp\ccfnl2bd.s 			page 14


 731 00a3 EE000000 		.4byte	.LASF14
 732 00a7 03       		.byte	0x3
 733 00a8 2D       		.byte	0x2d
 734 00a9 3E000000 		.4byte	0x3e
 735 00ad 04       		.uleb128 0x4
 736 00ae 11020000 		.4byte	.LASF15
 737 00b2 03       		.byte	0x3
 738 00b3 2E       		.byte	0x2e
 739 00b4 3E000000 		.4byte	0x3e
 740 00b8 04       		.uleb128 0x4
 741 00b9 DB000000 		.4byte	.LASF16
 742 00bd 03       		.byte	0x3
 743 00be 2F       		.byte	0x2f
 744 00bf 3E000000 		.4byte	0x3e
 745 00c3 04       		.uleb128 0x4
 746 00c4 20020000 		.4byte	.LASF17
 747 00c8 03       		.byte	0x3
 748 00c9 30       		.byte	0x30
 749 00ca 70000000 		.4byte	0x70
 750 00ce 04       		.uleb128 0x4
 751 00cf 95010000 		.4byte	.LASF18
 752 00d3 03       		.byte	0x3
 753 00d4 31       		.byte	0x31
 754 00d5 5E000000 		.4byte	0x5e
 755 00d9 04       		.uleb128 0x4
 756 00da BA010000 		.4byte	.LASF19
 757 00de 03       		.byte	0x3
 758 00df 33       		.byte	0x33
 759 00e0 70000000 		.4byte	0x70
 760 00e4 04       		.uleb128 0x4
 761 00e5 C9020000 		.4byte	.LASF20
 762 00e9 03       		.byte	0x3
 763 00ea 35       		.byte	0x35
 764 00eb 70000000 		.4byte	0x70
 765 00ef 04       		.uleb128 0x4
 766 00f0 2F010000 		.4byte	.LASF21
 767 00f4 03       		.byte	0x3
 768 00f5 36       		.byte	0x36
 769 00f6 5E000000 		.4byte	0x5e
 770 00fa 04       		.uleb128 0x4
 771 00fb 90020000 		.4byte	.LASF22
 772 00ff 04       		.byte	0x4
 773 0100 2A       		.byte	0x2a
 774 0101 05010000 		.4byte	0x105
 775 0105 05       		.uleb128 0x5
 776 0106 90020000 		.4byte	.LASF22
 777 010a 48       		.byte	0x48
 778 010b 05       		.byte	0x5
 779 010c 5E       		.byte	0x5e
 780 010d 2A020000 		.4byte	0x22a
 781 0111 06       		.uleb128 0x6
 782 0112 78020000 		.4byte	.LASF23
 783 0116 05       		.byte	0x5
 784 0117 5F       		.byte	0x5f
 785 0118 4F020000 		.4byte	0x24f
 786 011c 02       		.byte	0x2
 787 011d 23       		.byte	0x23
ARM GAS  C:\Users\3130\AppData\Local\Temp\ccfnl2bd.s 			page 15


 788 011e 00       		.uleb128 0
 789 011f 06       		.uleb128 0x6
 790 0120 19020000 		.4byte	.LASF24
 791 0124 05       		.byte	0x5
 792 0125 61       		.byte	0x61
 793 0126 4F020000 		.4byte	0x24f
 794 012a 02       		.byte	0x2
 795 012b 23       		.byte	0x23
 796 012c 04       		.uleb128 0x4
 797 012d 06       		.uleb128 0x6
 798 012e 89000000 		.4byte	.LASF25
 799 0132 05       		.byte	0x5
 800 0133 63       		.byte	0x63
 801 0134 C3000000 		.4byte	0xc3
 802 0138 02       		.byte	0x2
 803 0139 23       		.byte	0x23
 804 013a 08       		.uleb128 0x8
 805 013b 06       		.uleb128 0x6
 806 013c 9E030000 		.4byte	.LASF26
 807 0140 05       		.byte	0x5
 808 0141 64       		.byte	0x64
 809 0142 13030000 		.4byte	0x313
 810 0146 02       		.byte	0x2
 811 0147 23       		.byte	0x23
 812 0148 0C       		.uleb128 0xc
 813 0149 06       		.uleb128 0x6
 814 014a F7000000 		.4byte	.LASF27
 815 014e 05       		.byte	0x5
 816 014f 66       		.byte	0x66
 817 0150 4F020000 		.4byte	0x24f
 818 0154 02       		.byte	0x2
 819 0155 23       		.byte	0x23
 820 0156 10       		.uleb128 0x10
 821 0157 06       		.uleb128 0x6
 822 0158 ED010000 		.4byte	.LASF28
 823 015c 05       		.byte	0x5
 824 015d 67       		.byte	0x67
 825 015e 4F020000 		.4byte	0x24f
 826 0162 02       		.byte	0x2
 827 0163 23       		.byte	0x23
 828 0164 14       		.uleb128 0x14
 829 0165 06       		.uleb128 0x6
 830 0166 8F030000 		.4byte	.LASF29
 831 016a 05       		.byte	0x5
 832 016b 6E       		.byte	0x6e
 833 016c 5F040000 		.4byte	0x45f
 834 0170 02       		.byte	0x2
 835 0171 23       		.byte	0x23
 836 0172 18       		.uleb128 0x18
 837 0173 06       		.uleb128 0x6
 838 0174 5F020000 		.4byte	.LASF30
 839 0178 05       		.byte	0x5
 840 0179 79       		.byte	0x79
 841 017a A2000000 		.4byte	0xa2
 842 017e 02       		.byte	0x2
 843 017f 23       		.byte	0x23
 844 0180 1C       		.uleb128 0x1c
ARM GAS  C:\Users\3130\AppData\Local\Temp\ccfnl2bd.s 			page 16


 845 0181 06       		.uleb128 0x6
 846 0182 7F020000 		.4byte	.LASF31
 847 0186 05       		.byte	0x5
 848 0187 7D       		.byte	0x7d
 849 0188 97000000 		.4byte	0x97
 850 018c 02       		.byte	0x2
 851 018d 23       		.byte	0x23
 852 018e 1D       		.uleb128 0x1d
 853 018f 06       		.uleb128 0x6
 854 0190 4B030000 		.4byte	.LASF32
 855 0194 05       		.byte	0x5
 856 0195 82       		.byte	0x82
 857 0196 AD000000 		.4byte	0xad
 858 019a 02       		.byte	0x2
 859 019b 23       		.byte	0x23
 860 019c 1E       		.uleb128 0x1e
 861 019d 06       		.uleb128 0x6
 862 019e 67020000 		.4byte	.LASF33
 863 01a2 05       		.byte	0x5
 864 01a3 88       		.byte	0x88
 865 01a4 B8000000 		.4byte	0xb8
 866 01a8 02       		.byte	0x2
 867 01a9 23       		.byte	0x23
 868 01aa 1F       		.uleb128 0x1f
 869 01ab 06       		.uleb128 0x6
 870 01ac DE020000 		.4byte	.LASF34
 871 01b0 05       		.byte	0x5
 872 01b1 8F       		.byte	0x8f
 873 01b2 3B030000 		.4byte	0x33b
 874 01b6 02       		.byte	0x2
 875 01b7 23       		.byte	0x23
 876 01b8 20       		.uleb128 0x20
 877 01b9 07       		.uleb128 0x7
 878 01ba 705F7500 		.ascii	"p_u\000"
 879 01be 05       		.byte	0x5
 880 01bf B4       		.byte	0xb4
 881 01c0 2A040000 		.4byte	0x42a
 882 01c4 02       		.byte	0x2
 883 01c5 23       		.byte	0x23
 884 01c6 24       		.uleb128 0x24
 885 01c7 06       		.uleb128 0x6
 886 01c8 A4030000 		.4byte	.LASF35
 887 01cc 05       		.byte	0x5
 888 01cd B9       		.byte	0xb9
 889 01ce 77020000 		.4byte	0x277
 890 01d2 02       		.byte	0x2
 891 01d3 23       		.byte	0x23
 892 01d4 28       		.uleb128 0x28
 893 01d5 06       		.uleb128 0x6
 894 01d6 21030000 		.4byte	.LASF36
 895 01da 05       		.byte	0x5
 896 01db BF       		.byte	0xbf
 897 01dc 55020000 		.4byte	0x255
 898 01e0 02       		.byte	0x2
 899 01e1 23       		.byte	0x23
 900 01e2 2C       		.uleb128 0x2c
 901 01e3 06       		.uleb128 0x6
ARM GAS  C:\Users\3130\AppData\Local\Temp\ccfnl2bd.s 			page 17


 902 01e4 00000000 		.4byte	.LASF37
 903 01e8 05       		.byte	0x5
 904 01e9 C3       		.byte	0xc3
 905 01ea CE000000 		.4byte	0xce
 906 01ee 02       		.byte	0x2
 907 01ef 23       		.byte	0x23
 908 01f0 34       		.uleb128 0x34
 909 01f1 06       		.uleb128 0x6
 910 01f2 97020000 		.4byte	.LASF38
 911 01f6 05       		.byte	0x5
 912 01f7 C9       		.byte	0xc9
 913 01f8 D9000000 		.4byte	0xd9
 914 01fc 02       		.byte	0x2
 915 01fd 23       		.byte	0x23
 916 01fe 38       		.uleb128 0x38
 917 01ff 06       		.uleb128 0x6
 918 0200 4B020000 		.4byte	.LASF39
 919 0204 05       		.byte	0x5
 920 0205 D0       		.byte	0xd0
 921 0206 71040000 		.4byte	0x471
 922 020a 02       		.byte	0x2
 923 020b 23       		.byte	0x23
 924 020c 3C       		.uleb128 0x3c
 925 020d 06       		.uleb128 0x6
 926 020e D3020000 		.4byte	.LASF40
 927 0212 05       		.byte	0x5
 928 0213 D4       		.byte	0xd4
 929 0214 C3000000 		.4byte	0xc3
 930 0218 02       		.byte	0x2
 931 0219 23       		.byte	0x23
 932 021a 40       		.uleb128 0x40
 933 021b 06       		.uleb128 0x6
 934 021c CB000000 		.4byte	.LASF41
 935 0220 05       		.byte	0x5
 936 0221 DA       		.byte	0xda
 937 0222 8D020000 		.4byte	0x28d
 938 0226 02       		.byte	0x2
 939 0227 23       		.byte	0x23
 940 0228 44       		.uleb128 0x44
 941 0229 00       		.byte	0
 942 022a 08       		.uleb128 0x8
 943 022b 08       		.byte	0x8
 944 022c 04       		.byte	0x4
 945 022d 61       		.byte	0x61
 946 022e 4F020000 		.4byte	0x24f
 947 0232 06       		.uleb128 0x6
 948 0233 78020000 		.4byte	.LASF23
 949 0237 04       		.byte	0x4
 950 0238 62       		.byte	0x62
 951 0239 4F020000 		.4byte	0x24f
 952 023d 02       		.byte	0x2
 953 023e 23       		.byte	0x23
 954 023f 00       		.uleb128 0
 955 0240 06       		.uleb128 0x6
 956 0241 19020000 		.4byte	.LASF24
 957 0245 04       		.byte	0x4
 958 0246 64       		.byte	0x64
ARM GAS  C:\Users\3130\AppData\Local\Temp\ccfnl2bd.s 			page 18


 959 0247 4F020000 		.4byte	0x24f
 960 024b 02       		.byte	0x2
 961 024c 23       		.byte	0x23
 962 024d 04       		.uleb128 0x4
 963 024e 00       		.byte	0
 964 024f 09       		.uleb128 0x9
 965 0250 04       		.byte	0x4
 966 0251 FA000000 		.4byte	0xfa
 967 0255 04       		.uleb128 0x4
 968 0256 F5010000 		.4byte	.LASF42
 969 025a 04       		.byte	0x4
 970 025b 66       		.byte	0x66
 971 025c 2A020000 		.4byte	0x22a
 972 0260 08       		.uleb128 0x8
 973 0261 04       		.byte	0x4
 974 0262 04       		.byte	0x4
 975 0263 6B       		.byte	0x6b
 976 0264 77020000 		.4byte	0x277
 977 0268 06       		.uleb128 0x6
 978 0269 78020000 		.4byte	.LASF23
 979 026d 04       		.byte	0x4
 980 026e 6D       		.byte	0x6d
 981 026f 4F020000 		.4byte	0x24f
 982 0273 02       		.byte	0x2
 983 0274 23       		.byte	0x23
 984 0275 00       		.uleb128 0
 985 0276 00       		.byte	0
 986 0277 04       		.uleb128 0x4
 987 0278 AE010000 		.4byte	.LASF43
 988 027c 04       		.byte	0x4
 989 027d 70       		.byte	0x70
 990 027e 60020000 		.4byte	0x260
 991 0282 04       		.uleb128 0x4
 992 0283 18010000 		.4byte	.LASF44
 993 0287 06       		.byte	0x6
 994 0288 A7       		.byte	0xa7
 995 0289 8D020000 		.4byte	0x28d
 996 028d 0A       		.uleb128 0xa
 997 028e 04       		.byte	0x4
 998 028f 05       		.uleb128 0x5
 999 0290 1A030000 		.4byte	.LASF45
 1000 0294 24       		.byte	0x24
 1001 0295 06       		.byte	0x6
 1002 0296 BA       		.byte	0xba
 1003 0297 13030000 		.4byte	0x313
 1004 029b 07       		.uleb128 0x7
 1005 029c 723800   		.ascii	"r8\000"
 1006 029f 06       		.byte	0x6
 1007 02a0 BB       		.byte	0xbb
 1008 02a1 82020000 		.4byte	0x282
 1009 02a5 02       		.byte	0x2
 1010 02a6 23       		.byte	0x23
 1011 02a7 00       		.uleb128 0
 1012 02a8 07       		.uleb128 0x7
 1013 02a9 723900   		.ascii	"r9\000"
 1014 02ac 06       		.byte	0x6
 1015 02ad BC       		.byte	0xbc
ARM GAS  C:\Users\3130\AppData\Local\Temp\ccfnl2bd.s 			page 19


 1016 02ae 82020000 		.4byte	0x282
 1017 02b2 02       		.byte	0x2
 1018 02b3 23       		.byte	0x23
 1019 02b4 04       		.uleb128 0x4
 1020 02b5 07       		.uleb128 0x7
 1021 02b6 72313000 		.ascii	"r10\000"
 1022 02ba 06       		.byte	0x6
 1023 02bb BD       		.byte	0xbd
 1024 02bc 82020000 		.4byte	0x282
 1025 02c0 02       		.byte	0x2
 1026 02c1 23       		.byte	0x23
 1027 02c2 08       		.uleb128 0x8
 1028 02c3 07       		.uleb128 0x7
 1029 02c4 72313100 		.ascii	"r11\000"
 1030 02c8 06       		.byte	0x6
 1031 02c9 BE       		.byte	0xbe
 1032 02ca 82020000 		.4byte	0x282
 1033 02ce 02       		.byte	0x2
 1034 02cf 23       		.byte	0x23
 1035 02d0 0C       		.uleb128 0xc
 1036 02d1 07       		.uleb128 0x7
 1037 02d2 723400   		.ascii	"r4\000"
 1038 02d5 06       		.byte	0x6
 1039 02d6 BF       		.byte	0xbf
 1040 02d7 82020000 		.4byte	0x282
 1041 02db 02       		.byte	0x2
 1042 02dc 23       		.byte	0x23
 1043 02dd 10       		.uleb128 0x10
 1044 02de 07       		.uleb128 0x7
 1045 02df 723500   		.ascii	"r5\000"
 1046 02e2 06       		.byte	0x6
 1047 02e3 C0       		.byte	0xc0
 1048 02e4 82020000 		.4byte	0x282
 1049 02e8 02       		.byte	0x2
 1050 02e9 23       		.byte	0x23
 1051 02ea 14       		.uleb128 0x14
 1052 02eb 07       		.uleb128 0x7
 1053 02ec 723600   		.ascii	"r6\000"
 1054 02ef 06       		.byte	0x6
 1055 02f0 C1       		.byte	0xc1
 1056 02f1 82020000 		.4byte	0x282
 1057 02f5 02       		.byte	0x2
 1058 02f6 23       		.byte	0x23
 1059 02f7 18       		.uleb128 0x18
 1060 02f8 07       		.uleb128 0x7
 1061 02f9 723700   		.ascii	"r7\000"
 1062 02fc 06       		.byte	0x6
 1063 02fd C2       		.byte	0xc2
 1064 02fe 82020000 		.4byte	0x282
 1065 0302 02       		.byte	0x2
 1066 0303 23       		.byte	0x23
 1067 0304 1C       		.uleb128 0x1c
 1068 0305 07       		.uleb128 0x7
 1069 0306 6C7200   		.ascii	"lr\000"
 1070 0309 06       		.byte	0x6
 1071 030a C3       		.byte	0xc3
 1072 030b 82020000 		.4byte	0x282
ARM GAS  C:\Users\3130\AppData\Local\Temp\ccfnl2bd.s 			page 20


 1073 030f 02       		.byte	0x2
 1074 0310 23       		.byte	0x23
 1075 0311 20       		.uleb128 0x20
 1076 0312 00       		.byte	0
 1077 0313 05       		.uleb128 0x5
 1078 0314 6F010000 		.4byte	.LASF46
 1079 0318 04       		.byte	0x4
 1080 0319 06       		.byte	0x6
 1081 031a CD       		.byte	0xcd
 1082 031b 2E030000 		.4byte	0x32e
 1083 031f 07       		.uleb128 0x7
 1084 0320 72313300 		.ascii	"r13\000"
 1085 0324 06       		.byte	0x6
 1086 0325 CE       		.byte	0xce
 1087 0326 2E030000 		.4byte	0x32e
 1088 032a 02       		.byte	0x2
 1089 032b 23       		.byte	0x23
 1090 032c 00       		.uleb128 0
 1091 032d 00       		.byte	0
 1092 032e 09       		.uleb128 0x9
 1093 032f 04       		.byte	0x4
 1094 0330 8F020000 		.4byte	0x28f
 1095 0334 03       		.uleb128 0x3
 1096 0335 04       		.byte	0x4
 1097 0336 07       		.byte	0x7
 1098 0337 D1010000 		.4byte	.LASF47
 1099 033b 0B       		.uleb128 0xb
 1100 033c E4000000 		.4byte	0xe4
 1101 0340 05       		.uleb128 0x5
 1102 0341 36030000 		.4byte	.LASF48
 1103 0345 0C       		.byte	0xc
 1104 0346 07       		.byte	0x7
 1105 0347 2C       		.byte	0x2c
 1106 0348 69030000 		.4byte	0x369
 1107 034c 06       		.uleb128 0x6
 1108 034d FF000000 		.4byte	.LASF49
 1109 0351 07       		.byte	0x7
 1110 0352 2D       		.byte	0x2d
 1111 0353 55020000 		.4byte	0x255
 1112 0357 02       		.byte	0x2
 1113 0358 23       		.byte	0x23
 1114 0359 00       		.uleb128 0
 1115 035a 06       		.uleb128 0x6
 1116 035b 69010000 		.4byte	.LASF50
 1117 035f 07       		.byte	0x7
 1118 0360 2F       		.byte	0x2f
 1119 0361 EF000000 		.4byte	0xef
 1120 0365 02       		.byte	0x2
 1121 0366 23       		.byte	0x23
 1122 0367 08       		.uleb128 0x8
 1123 0368 00       		.byte	0
 1124 0369 04       		.uleb128 0x4
 1125 036a 36030000 		.4byte	.LASF48
 1126 036e 07       		.byte	0x7
 1127 036f 30       		.byte	0x30
 1128 0370 40030000 		.4byte	0x340
 1129 0374 05       		.uleb128 0x5
ARM GAS  C:\Users\3130\AppData\Local\Temp\ccfnl2bd.s 			page 21


 1130 0375 C6010000 		.4byte	.LASF51
 1131 0379 10       		.byte	0x10
 1132 037a 08       		.byte	0x8
 1133 037b 2C       		.byte	0x2c
 1134 037c AB030000 		.4byte	0x3ab
 1135 0380 06       		.uleb128 0x6
 1136 0381 D3000000 		.4byte	.LASF52
 1137 0385 08       		.byte	0x8
 1138 0386 2D       		.byte	0x2d
 1139 0387 55020000 		.4byte	0x255
 1140 038b 02       		.byte	0x2
 1141 038c 23       		.byte	0x23
 1142 038d 00       		.uleb128 0
 1143 038e 06       		.uleb128 0x6
 1144 038f 96030000 		.4byte	.LASF53
 1145 0393 08       		.byte	0x8
 1146 0394 2F       		.byte	0x2f
 1147 0395 4F020000 		.4byte	0x24f
 1148 0399 02       		.byte	0x2
 1149 039a 23       		.byte	0x23
 1150 039b 08       		.uleb128 0x8
 1151 039c 06       		.uleb128 0x6
 1152 039d C2020000 		.4byte	.LASF54
 1153 03a1 08       		.byte	0x8
 1154 03a2 31       		.byte	0x31
 1155 03a3 AB030000 		.4byte	0x3ab
 1156 03a7 02       		.byte	0x2
 1157 03a8 23       		.byte	0x23
 1158 03a9 0C       		.uleb128 0xc
 1159 03aa 00       		.byte	0
 1160 03ab 09       		.uleb128 0x9
 1161 03ac 04       		.byte	0x4
 1162 03ad 74030000 		.4byte	0x374
 1163 03b1 04       		.uleb128 0x4
 1164 03b2 C6010000 		.4byte	.LASF51
 1165 03b6 08       		.byte	0x8
 1166 03b7 33       		.byte	0x33
 1167 03b8 74030000 		.4byte	0x374
 1168 03bc 08       		.uleb128 0x8
 1169 03bd 28       		.byte	0x28
 1170 03be 09       		.byte	0x9
 1171 03bf 33       		.byte	0x33
 1172 03c0 19040000 		.4byte	0x419
 1173 03c4 06       		.uleb128 0x6
 1174 03c5 02020000 		.4byte	.LASF55
 1175 03c9 09       		.byte	0x9
 1176 03ca 34       		.byte	0x34
 1177 03cb 19040000 		.4byte	0x419
 1178 03cf 02       		.byte	0x2
 1179 03d0 23       		.byte	0x23
 1180 03d1 00       		.uleb128 0
 1181 03d2 06       		.uleb128 0x6
 1182 03d3 44020000 		.4byte	.LASF56
 1183 03d7 09       		.byte	0x9
 1184 03d8 36       		.byte	0x36
 1185 03d9 19040000 		.4byte	0x419
 1186 03dd 02       		.byte	0x2
ARM GAS  C:\Users\3130\AppData\Local\Temp\ccfnl2bd.s 			page 22


 1187 03de 23       		.byte	0x23
 1188 03df 04       		.uleb128 0x4
 1189 03e0 06       		.uleb128 0x6
 1190 03e1 80000000 		.4byte	.LASF57
 1191 03e5 09       		.byte	0x9
 1192 03e6 38       		.byte	0x38
 1193 03e7 19040000 		.4byte	0x419
 1194 03eb 02       		.byte	0x2
 1195 03ec 23       		.byte	0x23
 1196 03ed 08       		.uleb128 0x8
 1197 03ee 06       		.uleb128 0x6
 1198 03ef DA010000 		.4byte	.LASF58
 1199 03f3 09       		.byte	0x9
 1200 03f4 39       		.byte	0x39
 1201 03f5 19040000 		.4byte	0x419
 1202 03f9 02       		.byte	0x2
 1203 03fa 23       		.byte	0x23
 1204 03fb 0C       		.uleb128 0xc
 1205 03fc 06       		.uleb128 0x6
 1206 03fd 40030000 		.4byte	.LASF59
 1207 0401 09       		.byte	0x9
 1208 0402 3A       		.byte	0x3a
 1209 0403 69030000 		.4byte	0x369
 1210 0407 02       		.byte	0x2
 1211 0408 23       		.byte	0x23
 1212 0409 10       		.uleb128 0x10
 1213 040a 06       		.uleb128 0x6
 1214 040b 5D010000 		.4byte	.LASF60
 1215 040f 09       		.byte	0x9
 1216 0410 3C       		.byte	0x3c
 1217 0411 69030000 		.4byte	0x369
 1218 0415 02       		.byte	0x2
 1219 0416 23       		.byte	0x23
 1220 0417 1C       		.uleb128 0x1c
 1221 0418 00       		.byte	0
 1222 0419 09       		.uleb128 0x9
 1223 041a 04       		.byte	0x4
 1224 041b CE000000 		.4byte	0xce
 1225 041f 04       		.uleb128 0x4
 1226 0420 3A000000 		.4byte	.LASF61
 1227 0424 09       		.byte	0x9
 1228 0425 3E       		.byte	0x3e
 1229 0426 BC030000 		.4byte	0x3bc
 1230 042a 0C       		.uleb128 0xc
 1231 042b 04       		.byte	0x4
 1232 042c 05       		.byte	0x5
 1233 042d 96       		.byte	0x96
 1234 042e 5F040000 		.4byte	0x45f
 1235 0432 0D       		.uleb128 0xd
 1236 0433 13000000 		.4byte	.LASF62
 1237 0437 05       		.byte	0x5
 1238 0438 9D       		.byte	0x9d
 1239 0439 CE000000 		.4byte	0xce
 1240 043d 0D       		.uleb128 0xd
 1241 043e 68000000 		.4byte	.LASF63
 1242 0442 05       		.byte	0x5
 1243 0443 A4       		.byte	0xa4
ARM GAS  C:\Users\3130\AppData\Local\Temp\ccfnl2bd.s 			page 23


 1244 0444 CE000000 		.4byte	0xce
 1245 0448 0D       		.uleb128 0xd
 1246 0449 88030000 		.4byte	.LASF64
 1247 044d 05       		.byte	0x5
 1248 044e AB       		.byte	0xab
 1249 044f 8D020000 		.4byte	0x28d
 1250 0453 0D       		.uleb128 0xd
 1251 0454 71020000 		.4byte	.LASF65
 1252 0458 05       		.byte	0x5
 1253 0459 B2       		.byte	0xb2
 1254 045a D9000000 		.4byte	0xd9
 1255 045e 00       		.byte	0
 1256 045f 09       		.uleb128 0x9
 1257 0460 04       		.byte	0x4
 1258 0461 65040000 		.4byte	0x465
 1259 0465 0E       		.uleb128 0xe
 1260 0466 6A040000 		.4byte	0x46a
 1261 046a 03       		.uleb128 0x3
 1262 046b 01       		.byte	0x1
 1263 046c 08       		.byte	0x8
 1264 046d AB020000 		.4byte	.LASF66
 1265 0471 09       		.uleb128 0x9
 1266 0472 04       		.byte	0x4
 1267 0473 B1030000 		.4byte	0x3b1
 1268 0477 0F       		.uleb128 0xf
 1269 0478 01       		.byte	0x1
 1270 0479 42010000 		.4byte	.LASF67
 1271 047d 01       		.byte	0x1
 1272 047e 48       		.byte	0x48
 1273 047f 01       		.byte	0x1
 1274 0480 00000000 		.4byte	.LFB7
 1275 0484 26000000 		.4byte	.LFE7
 1276 0488 00000000 		.4byte	.LLST0
 1277 048c 01       		.byte	0x1
 1278 048d ED040000 		.4byte	0x4ed
 1279 0491 10       		.uleb128 0x10
 1280 0492 6D627000 		.ascii	"mbp\000"
 1281 0496 01       		.byte	0x1
 1282 0497 48       		.byte	0x48
 1283 0498 ED040000 		.4byte	0x4ed
 1284 049c 20000000 		.4byte	.LLST1
 1285 04a0 10       		.uleb128 0x10
 1286 04a1 62756600 		.ascii	"buf\000"
 1287 04a5 01       		.byte	0x1
 1288 04a6 48       		.byte	0x48
 1289 04a7 19040000 		.4byte	0x419
 1290 04ab 4C000000 		.4byte	.LLST2
 1291 04af 10       		.uleb128 0x10
 1292 04b0 6E00     		.ascii	"n\000"
 1293 04b2 01       		.byte	0x1
 1294 04b3 48       		.byte	0x48
 1295 04b4 EF000000 		.4byte	0xef
 1296 04b8 90000000 		.4byte	.LLST3
 1297 04bc 11       		.uleb128 0x11
 1298 04bd 1A000000 		.4byte	.LVL4
 1299 04c1 74090000 		.4byte	0x974
 1300 04c5 D7040000 		.4byte	0x4d7
ARM GAS  C:\Users\3130\AppData\Local\Temp\ccfnl2bd.s 			page 24


 1301 04c9 12       		.uleb128 0x12
 1302 04ca 01       		.byte	0x1
 1303 04cb 51       		.byte	0x51
 1304 04cc 03       		.byte	0x3
 1305 04cd F3       		.byte	0xf3
 1306 04ce 01       		.uleb128 0x1
 1307 04cf 52       		.byte	0x52
 1308 04d0 12       		.uleb128 0x12
 1309 04d1 01       		.byte	0x1
 1310 04d2 50       		.byte	0x50
 1311 04d3 02       		.byte	0x2
 1312 04d4 74       		.byte	0x74
 1313 04d5 1C       		.sleb128 28
 1314 04d6 00       		.byte	0
 1315 04d7 13       		.uleb128 0x13
 1316 04d8 24000000 		.4byte	.LVL5
 1317 04dc 74090000 		.4byte	0x974
 1318 04e0 12       		.uleb128 0x12
 1319 04e1 01       		.byte	0x1
 1320 04e2 51       		.byte	0x51
 1321 04e3 01       		.byte	0x1
 1322 04e4 30       		.byte	0x30
 1323 04e5 12       		.uleb128 0x12
 1324 04e6 01       		.byte	0x1
 1325 04e7 50       		.byte	0x50
 1326 04e8 02       		.byte	0x2
 1327 04e9 74       		.byte	0x74
 1328 04ea 10       		.sleb128 16
 1329 04eb 00       		.byte	0
 1330 04ec 00       		.byte	0
 1331 04ed 09       		.uleb128 0x9
 1332 04ee 04       		.byte	0x4
 1333 04ef 1F040000 		.4byte	0x41f
 1334 04f3 0F       		.uleb128 0xf
 1335 04f4 01       		.byte	0x1
 1336 04f5 E3010000 		.4byte	.LASF68
 1337 04f9 01       		.byte	0x1
 1338 04fa 5B       		.byte	0x5b
 1339 04fb 01       		.byte	0x1
 1340 04fc 00000000 		.4byte	.LFB8
 1341 0500 2A000000 		.4byte	.LFE8
 1342 0504 B1000000 		.4byte	.LLST4
 1343 0508 01       		.byte	0x1
 1344 0509 53050000 		.4byte	0x553
 1345 050d 10       		.uleb128 0x10
 1346 050e 6D627000 		.ascii	"mbp\000"
 1347 0512 01       		.byte	0x1
 1348 0513 5B       		.byte	0x5b
 1349 0514 ED040000 		.4byte	0x4ed
 1350 0518 D1000000 		.4byte	.LLST5
 1351 051c 11       		.uleb128 0x11
 1352 051d 18000000 		.4byte	.LVL9
 1353 0521 93090000 		.4byte	0x993
 1354 0525 30050000 		.4byte	0x530
 1355 0529 12       		.uleb128 0x12
 1356 052a 01       		.byte	0x1
 1357 052b 50       		.byte	0x50
ARM GAS  C:\Users\3130\AppData\Local\Temp\ccfnl2bd.s 			page 25


 1358 052c 02       		.byte	0x2
 1359 052d 74       		.byte	0x74
 1360 052e 1C       		.sleb128 28
 1361 052f 00       		.byte	0
 1362 0530 11       		.uleb128 0x11
 1363 0531 22000000 		.4byte	.LVL10
 1364 0535 93090000 		.4byte	0x993
 1365 0539 49050000 		.4byte	0x549
 1366 053d 12       		.uleb128 0x12
 1367 053e 01       		.byte	0x1
 1368 053f 51       		.byte	0x51
 1369 0540 01       		.byte	0x1
 1370 0541 30       		.byte	0x30
 1371 0542 12       		.uleb128 0x12
 1372 0543 01       		.byte	0x1
 1373 0544 50       		.byte	0x50
 1374 0545 02       		.byte	0x2
 1375 0546 74       		.byte	0x74
 1376 0547 10       		.sleb128 16
 1377 0548 00       		.byte	0
 1378 0549 14       		.uleb128 0x14
 1379 054a 26000000 		.4byte	.LVL11
 1380 054e AC090000 		.4byte	0x9ac
 1381 0552 00       		.byte	0
 1382 0553 15       		.uleb128 0x15
 1383 0554 01       		.byte	0x1
 1384 0555 30000000 		.4byte	.LASF70
 1385 0559 01       		.byte	0x1
 1386 055a 96       		.byte	0x96
 1387 055b 01       		.byte	0x1
 1388 055c CE000000 		.4byte	0xce
 1389 0560 00000000 		.4byte	.LFB10
 1390 0564 34000000 		.4byte	.LFE10
 1391 0568 FD000000 		.4byte	.LLST6
 1392 056c 01       		.byte	0x1
 1393 056d E6050000 		.4byte	0x5e6
 1394 0571 10       		.uleb128 0x10
 1395 0572 6D627000 		.ascii	"mbp\000"
 1396 0576 01       		.byte	0x1
 1397 0577 96       		.byte	0x96
 1398 0578 ED040000 		.4byte	0x4ed
 1399 057c 1D010000 		.4byte	.LLST7
 1400 0580 10       		.uleb128 0x10
 1401 0581 6D736700 		.ascii	"msg\000"
 1402 0585 01       		.byte	0x1
 1403 0586 96       		.byte	0x96
 1404 0587 CE000000 		.4byte	0xce
 1405 058b 54010000 		.4byte	.LLST8
 1406 058f 16       		.uleb128 0x16
 1407 0590 0C020000 		.4byte	.LASF69
 1408 0594 01       		.byte	0x1
 1409 0595 96       		.byte	0x96
 1410 0596 E4000000 		.4byte	0xe4
 1411 059a 8B010000 		.4byte	.LLST9
 1412 059e 17       		.uleb128 0x17
 1413 059f 13000000 		.4byte	.LASF62
 1414 05a3 01       		.byte	0x1
ARM GAS  C:\Users\3130\AppData\Local\Temp\ccfnl2bd.s 			page 26


 1415 05a4 97       		.byte	0x97
 1416 05a5 CE000000 		.4byte	0xce
 1417 05a9 AC010000 		.4byte	.LLST10
 1418 05ad 11       		.uleb128 0x11
 1419 05ae 0E000000 		.4byte	.LVL16
 1420 05b2 B6090000 		.4byte	0x9b6
 1421 05b6 C8050000 		.4byte	0x5c8
 1422 05ba 12       		.uleb128 0x12
 1423 05bb 01       		.byte	0x1
 1424 05bc 51       		.byte	0x51
 1425 05bd 03       		.byte	0x3
 1426 05be F3       		.byte	0xf3
 1427 05bf 01       		.uleb128 0x1
 1428 05c0 52       		.byte	0x52
 1429 05c1 12       		.uleb128 0x12
 1430 05c2 01       		.byte	0x1
 1431 05c3 50       		.byte	0x50
 1432 05c4 02       		.byte	0x2
 1433 05c5 74       		.byte	0x74
 1434 05c6 1C       		.sleb128 28
 1435 05c7 00       		.byte	0
 1436 05c8 11       		.uleb128 0x11
 1437 05c9 26000000 		.4byte	.LVL19
 1438 05cd D3090000 		.4byte	0x9d3
 1439 05d1 DC050000 		.4byte	0x5dc
 1440 05d5 12       		.uleb128 0x12
 1441 05d6 01       		.byte	0x1
 1442 05d7 50       		.byte	0x50
 1443 05d8 02       		.byte	0x2
 1444 05d9 74       		.byte	0x74
 1445 05da 10       		.sleb128 16
 1446 05db 00       		.byte	0
 1447 05dc 14       		.uleb128 0x14
 1448 05dd 2A000000 		.4byte	.LVL20
 1449 05e1 AC090000 		.4byte	0x9ac
 1450 05e5 00       		.byte	0
 1451 05e6 15       		.uleb128 0x15
 1452 05e7 01       		.byte	0x1
 1453 05e8 87020000 		.4byte	.LASF71
 1454 05ec 01       		.byte	0x1
 1455 05ed 7A       		.byte	0x7a
 1456 05ee 01       		.byte	0x1
 1457 05ef CE000000 		.4byte	0xce
 1458 05f3 00000000 		.4byte	.LFB9
 1459 05f7 0C000000 		.4byte	.LFE9
 1460 05fb E0010000 		.4byte	.LLST11
 1461 05ff 01       		.byte	0x1
 1462 0600 5E060000 		.4byte	0x65e
 1463 0604 10       		.uleb128 0x10
 1464 0605 6D627000 		.ascii	"mbp\000"
 1465 0609 01       		.byte	0x1
 1466 060a 7A       		.byte	0x7a
 1467 060b ED040000 		.4byte	0x4ed
 1468 060f 00020000 		.4byte	.LLST12
 1469 0613 10       		.uleb128 0x10
 1470 0614 6D736700 		.ascii	"msg\000"
 1471 0618 01       		.byte	0x1
ARM GAS  C:\Users\3130\AppData\Local\Temp\ccfnl2bd.s 			page 27


 1472 0619 7A       		.byte	0x7a
 1473 061a CE000000 		.4byte	0xce
 1474 061e 21020000 		.4byte	.LLST13
 1475 0622 16       		.uleb128 0x16
 1476 0623 0C020000 		.4byte	.LASF69
 1477 0627 01       		.byte	0x1
 1478 0628 7A       		.byte	0x7a
 1479 0629 E4000000 		.4byte	0xe4
 1480 062d 42020000 		.4byte	.LLST14
 1481 0631 18       		.uleb128 0x18
 1482 0632 13000000 		.4byte	.LASF62
 1483 0636 01       		.byte	0x1
 1484 0637 7B       		.byte	0x7b
 1485 0638 CE000000 		.4byte	0xce
 1486 063c 01       		.byte	0x1
 1487 063d 50       		.byte	0x50
 1488 063e 13       		.uleb128 0x13
 1489 063f 08000000 		.4byte	.LVL27
 1490 0643 53050000 		.4byte	0x553
 1491 0647 12       		.uleb128 0x12
 1492 0648 01       		.byte	0x1
 1493 0649 52       		.byte	0x52
 1494 064a 03       		.byte	0x3
 1495 064b F3       		.byte	0xf3
 1496 064c 01       		.uleb128 0x1
 1497 064d 52       		.byte	0x52
 1498 064e 12       		.uleb128 0x12
 1499 064f 01       		.byte	0x1
 1500 0650 51       		.byte	0x51
 1501 0651 03       		.byte	0x3
 1502 0652 F3       		.byte	0xf3
 1503 0653 01       		.uleb128 0x1
 1504 0654 51       		.byte	0x51
 1505 0655 12       		.uleb128 0x12
 1506 0656 01       		.byte	0x1
 1507 0657 50       		.byte	0x50
 1508 0658 03       		.byte	0x3
 1509 0659 F3       		.byte	0xf3
 1510 065a 01       		.uleb128 0x1
 1511 065b 50       		.byte	0x50
 1512 065c 00       		.byte	0
 1513 065d 00       		.byte	0
 1514 065e 15       		.uleb128 0x15
 1515 065f 01       		.byte	0x1
 1516 0660 26000000 		.4byte	.LASF72
 1517 0664 01       		.byte	0x1
 1518 0665 B5       		.byte	0xb5
 1519 0666 01       		.byte	0x1
 1520 0667 CE000000 		.4byte	0xce
 1521 066b 00000000 		.4byte	.LFB11
 1522 066f 2E000000 		.4byte	.LFE11
 1523 0673 63020000 		.4byte	.LLST15
 1524 0677 01       		.byte	0x1
 1525 0678 AE060000 		.4byte	0x6ae
 1526 067c 10       		.uleb128 0x10
 1527 067d 6D627000 		.ascii	"mbp\000"
 1528 0681 01       		.byte	0x1
ARM GAS  C:\Users\3130\AppData\Local\Temp\ccfnl2bd.s 			page 28


 1529 0682 B5       		.byte	0xb5
 1530 0683 ED040000 		.4byte	0x4ed
 1531 0687 83020000 		.4byte	.LLST16
 1532 068b 10       		.uleb128 0x10
 1533 068c 6D736700 		.ascii	"msg\000"
 1534 0690 01       		.byte	0x1
 1535 0691 B5       		.byte	0xb5
 1536 0692 CE000000 		.4byte	0xce
 1537 0696 CA020000 		.4byte	.LLST17
 1538 069a 13       		.uleb128 0x13
 1539 069b 1E000000 		.4byte	.LVL31
 1540 069f D3090000 		.4byte	0x9d3
 1541 06a3 12       		.uleb128 0x12
 1542 06a4 01       		.byte	0x1
 1543 06a5 50       		.byte	0x50
 1544 06a6 05       		.byte	0x5
 1545 06a7 F3       		.byte	0xf3
 1546 06a8 01       		.uleb128 0x1
 1547 06a9 50       		.byte	0x50
 1548 06aa 23       		.byte	0x23
 1549 06ab 10       		.uleb128 0x10
 1550 06ac 00       		.byte	0
 1551 06ad 00       		.byte	0
 1552 06ae 15       		.uleb128 0x15
 1553 06af 01       		.byte	0x1
 1554 06b0 71000000 		.4byte	.LASF73
 1555 06b4 01       		.byte	0x1
 1556 06b5 F3       		.byte	0xf3
 1557 06b6 01       		.byte	0x1
 1558 06b7 CE000000 		.4byte	0xce
 1559 06bb 00000000 		.4byte	.LFB13
 1560 06bf 38000000 		.4byte	.LFE13
 1561 06c3 28030000 		.4byte	.LLST18
 1562 06c7 01       		.byte	0x1
 1563 06c8 41070000 		.4byte	0x741
 1564 06cc 10       		.uleb128 0x10
 1565 06cd 6D627000 		.ascii	"mbp\000"
 1566 06d1 01       		.byte	0x1
 1567 06d2 F3       		.byte	0xf3
 1568 06d3 ED040000 		.4byte	0x4ed
 1569 06d7 48030000 		.4byte	.LLST19
 1570 06db 10       		.uleb128 0x10
 1571 06dc 6D736700 		.ascii	"msg\000"
 1572 06e0 01       		.byte	0x1
 1573 06e1 F3       		.byte	0xf3
 1574 06e2 CE000000 		.4byte	0xce
 1575 06e6 7F030000 		.4byte	.LLST20
 1576 06ea 16       		.uleb128 0x16
 1577 06eb 0C020000 		.4byte	.LASF69
 1578 06ef 01       		.byte	0x1
 1579 06f0 F3       		.byte	0xf3
 1580 06f1 E4000000 		.4byte	0xe4
 1581 06f5 B6030000 		.4byte	.LLST21
 1582 06f9 17       		.uleb128 0x17
 1583 06fa 13000000 		.4byte	.LASF62
 1584 06fe 01       		.byte	0x1
 1585 06ff F4       		.byte	0xf4
ARM GAS  C:\Users\3130\AppData\Local\Temp\ccfnl2bd.s 			page 29


 1586 0700 CE000000 		.4byte	0xce
 1587 0704 D7030000 		.4byte	.LLST22
 1588 0708 11       		.uleb128 0x11
 1589 0709 0E000000 		.4byte	.LVL39
 1590 070d B6090000 		.4byte	0x9b6
 1591 0711 23070000 		.4byte	0x723
 1592 0715 12       		.uleb128 0x12
 1593 0716 01       		.byte	0x1
 1594 0717 51       		.byte	0x51
 1595 0718 03       		.byte	0x3
 1596 0719 F3       		.byte	0xf3
 1597 071a 01       		.uleb128 0x1
 1598 071b 52       		.byte	0x52
 1599 071c 12       		.uleb128 0x12
 1600 071d 01       		.byte	0x1
 1601 071e 50       		.byte	0x50
 1602 071f 02       		.byte	0x2
 1603 0720 74       		.byte	0x74
 1604 0721 1C       		.sleb128 28
 1605 0722 00       		.byte	0
 1606 0723 11       		.uleb128 0x11
 1607 0724 28000000 		.4byte	.LVL42
 1608 0728 D3090000 		.4byte	0x9d3
 1609 072c 37070000 		.4byte	0x737
 1610 0730 12       		.uleb128 0x12
 1611 0731 01       		.byte	0x1
 1612 0732 50       		.byte	0x50
 1613 0733 02       		.byte	0x2
 1614 0734 74       		.byte	0x74
 1615 0735 10       		.sleb128 16
 1616 0736 00       		.byte	0
 1617 0737 14       		.uleb128 0x14
 1618 0738 2C000000 		.4byte	.LVL43
 1619 073c AC090000 		.4byte	0x9ac
 1620 0740 00       		.byte	0
 1621 0741 15       		.uleb128 0x15
 1622 0742 01       		.byte	0x1
 1623 0743 21010000 		.4byte	.LASF74
 1624 0747 01       		.byte	0x1
 1625 0748 D7       		.byte	0xd7
 1626 0749 01       		.byte	0x1
 1627 074a CE000000 		.4byte	0xce
 1628 074e 00000000 		.4byte	.LFB12
 1629 0752 0C000000 		.4byte	.LFE12
 1630 0756 00040000 		.4byte	.LLST23
 1631 075a 01       		.byte	0x1
 1632 075b B9070000 		.4byte	0x7b9
 1633 075f 10       		.uleb128 0x10
 1634 0760 6D627000 		.ascii	"mbp\000"
 1635 0764 01       		.byte	0x1
 1636 0765 D7       		.byte	0xd7
 1637 0766 ED040000 		.4byte	0x4ed
 1638 076a 20040000 		.4byte	.LLST24
 1639 076e 10       		.uleb128 0x10
 1640 076f 6D736700 		.ascii	"msg\000"
 1641 0773 01       		.byte	0x1
 1642 0774 D7       		.byte	0xd7
ARM GAS  C:\Users\3130\AppData\Local\Temp\ccfnl2bd.s 			page 30


 1643 0775 CE000000 		.4byte	0xce
 1644 0779 41040000 		.4byte	.LLST25
 1645 077d 16       		.uleb128 0x16
 1646 077e 0C020000 		.4byte	.LASF69
 1647 0782 01       		.byte	0x1
 1648 0783 D7       		.byte	0xd7
 1649 0784 E4000000 		.4byte	0xe4
 1650 0788 62040000 		.4byte	.LLST26
 1651 078c 18       		.uleb128 0x18
 1652 078d 13000000 		.4byte	.LASF62
 1653 0791 01       		.byte	0x1
 1654 0792 D8       		.byte	0xd8
 1655 0793 CE000000 		.4byte	0xce
 1656 0797 01       		.byte	0x1
 1657 0798 50       		.byte	0x50
 1658 0799 13       		.uleb128 0x13
 1659 079a 08000000 		.4byte	.LVL49
 1660 079e AE060000 		.4byte	0x6ae
 1661 07a2 12       		.uleb128 0x12
 1662 07a3 01       		.byte	0x1
 1663 07a4 52       		.byte	0x52
 1664 07a5 03       		.byte	0x3
 1665 07a6 F3       		.byte	0xf3
 1666 07a7 01       		.uleb128 0x1
 1667 07a8 52       		.byte	0x52
 1668 07a9 12       		.uleb128 0x12
 1669 07aa 01       		.byte	0x1
 1670 07ab 51       		.byte	0x51
 1671 07ac 03       		.byte	0x3
 1672 07ad F3       		.byte	0xf3
 1673 07ae 01       		.uleb128 0x1
 1674 07af 51       		.byte	0x51
 1675 07b0 12       		.uleb128 0x12
 1676 07b1 01       		.byte	0x1
 1677 07b2 50       		.byte	0x50
 1678 07b3 03       		.byte	0x3
 1679 07b4 F3       		.byte	0xf3
 1680 07b5 01       		.uleb128 0x1
 1681 07b6 50       		.byte	0x50
 1682 07b7 00       		.byte	0
 1683 07b8 00       		.byte	0
 1684 07b9 19       		.uleb128 0x19
 1685 07ba 01       		.byte	0x1
 1686 07bb 42000000 		.4byte	.LASF75
 1687 07bf 01       		.byte	0x1
 1688 07c0 1201     		.2byte	0x112
 1689 07c2 01       		.byte	0x1
 1690 07c3 CE000000 		.4byte	0xce
 1691 07c7 00000000 		.4byte	.LFB14
 1692 07cb 32000000 		.4byte	.LFE14
 1693 07cf 83040000 		.4byte	.LLST27
 1694 07d3 01       		.byte	0x1
 1695 07d4 0C080000 		.4byte	0x80c
 1696 07d8 1A       		.uleb128 0x1a
 1697 07d9 6D627000 		.ascii	"mbp\000"
 1698 07dd 01       		.byte	0x1
 1699 07de 1201     		.2byte	0x112
ARM GAS  C:\Users\3130\AppData\Local\Temp\ccfnl2bd.s 			page 31


 1700 07e0 ED040000 		.4byte	0x4ed
 1701 07e4 A3040000 		.4byte	.LLST28
 1702 07e8 1A       		.uleb128 0x1a
 1703 07e9 6D736700 		.ascii	"msg\000"
 1704 07ed 01       		.byte	0x1
 1705 07ee 1201     		.2byte	0x112
 1706 07f0 CE000000 		.4byte	0xce
 1707 07f4 EA040000 		.4byte	.LLST29
 1708 07f8 13       		.uleb128 0x13
 1709 07f9 20000000 		.4byte	.LVL52
 1710 07fd D3090000 		.4byte	0x9d3
 1711 0801 12       		.uleb128 0x12
 1712 0802 01       		.byte	0x1
 1713 0803 50       		.byte	0x50
 1714 0804 05       		.byte	0x5
 1715 0805 F3       		.byte	0xf3
 1716 0806 01       		.uleb128 0x1
 1717 0807 50       		.byte	0x50
 1718 0808 23       		.byte	0x23
 1719 0809 10       		.uleb128 0x10
 1720 080a 00       		.byte	0
 1721 080b 00       		.byte	0
 1722 080c 19       		.uleb128 0x19
 1723 080d 01       		.byte	0x1
 1724 080e 9B010000 		.4byte	.LASF76
 1725 0812 01       		.byte	0x1
 1726 0813 5001     		.2byte	0x150
 1727 0815 01       		.byte	0x1
 1728 0816 CE000000 		.4byte	0xce
 1729 081a 00000000 		.4byte	.LFB16
 1730 081e 36000000 		.4byte	.LFE16
 1731 0822 16050000 		.4byte	.LLST30
 1732 0826 01       		.byte	0x1
 1733 0827 A4080000 		.4byte	0x8a4
 1734 082b 1A       		.uleb128 0x1a
 1735 082c 6D627000 		.ascii	"mbp\000"
 1736 0830 01       		.byte	0x1
 1737 0831 5001     		.2byte	0x150
 1738 0833 ED040000 		.4byte	0x4ed
 1739 0837 36050000 		.4byte	.LLST31
 1740 083b 1B       		.uleb128 0x1b
 1741 083c CC010000 		.4byte	.LASF77
 1742 0840 01       		.byte	0x1
 1743 0841 5001     		.2byte	0x150
 1744 0843 19040000 		.4byte	0x419
 1745 0847 6D050000 		.4byte	.LLST32
 1746 084b 1B       		.uleb128 0x1b
 1747 084c 0C020000 		.4byte	.LASF69
 1748 0850 01       		.byte	0x1
 1749 0851 5001     		.2byte	0x150
 1750 0853 E4000000 		.4byte	0xe4
 1751 0857 A4050000 		.4byte	.LLST33
 1752 085b 1C       		.uleb128 0x1c
 1753 085c 13000000 		.4byte	.LASF62
 1754 0860 01       		.byte	0x1
 1755 0861 5101     		.2byte	0x151
 1756 0863 CE000000 		.4byte	0xce
ARM GAS  C:\Users\3130\AppData\Local\Temp\ccfnl2bd.s 			page 32


 1757 0867 C5050000 		.4byte	.LLST34
 1758 086b 11       		.uleb128 0x11
 1759 086c 0E000000 		.4byte	.LVL58
 1760 0870 B6090000 		.4byte	0x9b6
 1761 0874 86080000 		.4byte	0x886
 1762 0878 12       		.uleb128 0x12
 1763 0879 01       		.byte	0x1
 1764 087a 51       		.byte	0x51
 1765 087b 03       		.byte	0x3
 1766 087c F3       		.byte	0xf3
 1767 087d 01       		.uleb128 0x1
 1768 087e 52       		.byte	0x52
 1769 087f 12       		.uleb128 0x12
 1770 0880 01       		.byte	0x1
 1771 0881 50       		.byte	0x50
 1772 0882 02       		.byte	0x2
 1773 0883 74       		.byte	0x74
 1774 0884 10       		.sleb128 16
 1775 0885 00       		.byte	0
 1776 0886 11       		.uleb128 0x11
 1777 0887 28000000 		.4byte	.LVL61
 1778 088b D3090000 		.4byte	0x9d3
 1779 088f 9A080000 		.4byte	0x89a
 1780 0893 12       		.uleb128 0x12
 1781 0894 01       		.byte	0x1
 1782 0895 50       		.byte	0x50
 1783 0896 02       		.byte	0x2
 1784 0897 74       		.byte	0x74
 1785 0898 1C       		.sleb128 28
 1786 0899 00       		.byte	0
 1787 089a 14       		.uleb128 0x14
 1788 089b 2C000000 		.4byte	.LVL62
 1789 089f AC090000 		.4byte	0x9ac
 1790 08a3 00       		.byte	0
 1791 08a4 19       		.uleb128 0x19
 1792 08a5 01       		.byte	0x1
 1793 08a6 2C030000 		.4byte	.LASF78
 1794 08aa 01       		.byte	0x1
 1795 08ab 3401     		.2byte	0x134
 1796 08ad 01       		.byte	0x1
 1797 08ae CE000000 		.4byte	0xce
 1798 08b2 00000000 		.4byte	.LFB15
 1799 08b6 0C000000 		.4byte	.LFE15
 1800 08ba F9050000 		.4byte	.LLST35
 1801 08be 01       		.byte	0x1
 1802 08bf 21090000 		.4byte	0x921
 1803 08c3 1A       		.uleb128 0x1a
 1804 08c4 6D627000 		.ascii	"mbp\000"
 1805 08c8 01       		.byte	0x1
 1806 08c9 3401     		.2byte	0x134
 1807 08cb ED040000 		.4byte	0x4ed
 1808 08cf 19060000 		.4byte	.LLST36
 1809 08d3 1B       		.uleb128 0x1b
 1810 08d4 CC010000 		.4byte	.LASF77
 1811 08d8 01       		.byte	0x1
 1812 08d9 3401     		.2byte	0x134
 1813 08db 19040000 		.4byte	0x419
ARM GAS  C:\Users\3130\AppData\Local\Temp\ccfnl2bd.s 			page 33


 1814 08df 3A060000 		.4byte	.LLST37
 1815 08e3 1B       		.uleb128 0x1b
 1816 08e4 0C020000 		.4byte	.LASF69
 1817 08e8 01       		.byte	0x1
 1818 08e9 3401     		.2byte	0x134
 1819 08eb E4000000 		.4byte	0xe4
 1820 08ef 5B060000 		.4byte	.LLST38
 1821 08f3 1D       		.uleb128 0x1d
 1822 08f4 13000000 		.4byte	.LASF62
 1823 08f8 01       		.byte	0x1
 1824 08f9 3501     		.2byte	0x135
 1825 08fb CE000000 		.4byte	0xce
 1826 08ff 01       		.byte	0x1
 1827 0900 50       		.byte	0x50
 1828 0901 13       		.uleb128 0x13
 1829 0902 08000000 		.4byte	.LVL68
 1830 0906 0C080000 		.4byte	0x80c
 1831 090a 12       		.uleb128 0x12
 1832 090b 01       		.byte	0x1
 1833 090c 52       		.byte	0x52
 1834 090d 03       		.byte	0x3
 1835 090e F3       		.byte	0xf3
 1836 090f 01       		.uleb128 0x1
 1837 0910 52       		.byte	0x52
 1838 0911 12       		.uleb128 0x12
 1839 0912 01       		.byte	0x1
 1840 0913 51       		.byte	0x51
 1841 0914 03       		.byte	0x3
 1842 0915 F3       		.byte	0xf3
 1843 0916 01       		.uleb128 0x1
 1844 0917 51       		.byte	0x51
 1845 0918 12       		.uleb128 0x12
 1846 0919 01       		.byte	0x1
 1847 091a 50       		.byte	0x50
 1848 091b 03       		.byte	0x3
 1849 091c F3       		.byte	0xf3
 1850 091d 01       		.uleb128 0x1
 1851 091e 50       		.byte	0x50
 1852 091f 00       		.byte	0
 1853 0920 00       		.byte	0
 1854 0921 19       		.uleb128 0x19
 1855 0922 01       		.byte	0x1
 1856 0923 8A010000 		.4byte	.LASF79
 1857 0927 01       		.byte	0x1
 1858 0928 6F01     		.2byte	0x16f
 1859 092a 01       		.byte	0x1
 1860 092b CE000000 		.4byte	0xce
 1861 092f 00000000 		.4byte	.LFB17
 1862 0933 30000000 		.4byte	.LFE17
 1863 0937 7C060000 		.4byte	.LLST39
 1864 093b 01       		.byte	0x1
 1865 093c 74090000 		.4byte	0x974
 1866 0940 1A       		.uleb128 0x1a
 1867 0941 6D627000 		.ascii	"mbp\000"
 1868 0945 01       		.byte	0x1
 1869 0946 6F01     		.2byte	0x16f
 1870 0948 ED040000 		.4byte	0x4ed
ARM GAS  C:\Users\3130\AppData\Local\Temp\ccfnl2bd.s 			page 34


 1871 094c 9C060000 		.4byte	.LLST40
 1872 0950 1B       		.uleb128 0x1b
 1873 0951 CC010000 		.4byte	.LASF77
 1874 0955 01       		.byte	0x1
 1875 0956 6F01     		.2byte	0x16f
 1876 0958 19040000 		.4byte	0x419
 1877 095c E3060000 		.4byte	.LLST41
 1878 0960 13       		.uleb128 0x13
 1879 0961 20000000 		.4byte	.LVL72
 1880 0965 D3090000 		.4byte	0x9d3
 1881 0969 12       		.uleb128 0x12
 1882 096a 01       		.byte	0x1
 1883 096b 50       		.byte	0x50
 1884 096c 05       		.byte	0x5
 1885 096d F3       		.byte	0xf3
 1886 096e 01       		.uleb128 0x1
 1887 096f 50       		.byte	0x50
 1888 0970 23       		.byte	0x23
 1889 0971 1C       		.uleb128 0x1c
 1890 0972 00       		.byte	0
 1891 0973 00       		.byte	0
 1892 0974 1E       		.uleb128 0x1e
 1893 0975 01       		.byte	0x1
 1894 0976 AE030000 		.4byte	.LASF80
 1895 097a 07       		.byte	0x7
 1896 097b 35       		.byte	0x35
 1897 097c 01       		.byte	0x1
 1898 097d 01       		.byte	0x1
 1899 097e 8D090000 		.4byte	0x98d
 1900 0982 1F       		.uleb128 0x1f
 1901 0983 8D090000 		.4byte	0x98d
 1902 0987 1F       		.uleb128 0x1f
 1903 0988 EF000000 		.4byte	0xef
 1904 098c 00       		.byte	0
 1905 098d 09       		.uleb128 0x9
 1906 098e 04       		.byte	0x4
 1907 098f 69030000 		.4byte	0x369
 1908 0993 1E       		.uleb128 0x1e
 1909 0994 01       		.byte	0x1
 1910 0995 52030000 		.4byte	.LASF81
 1911 0999 07       		.byte	0x7
 1912 099a 37       		.byte	0x37
 1913 099b 01       		.byte	0x1
 1914 099c 01       		.byte	0x1
 1915 099d AC090000 		.4byte	0x9ac
 1916 09a1 1F       		.uleb128 0x1f
 1917 09a2 8D090000 		.4byte	0x98d
 1918 09a6 1F       		.uleb128 0x1f
 1919 09a7 EF000000 		.4byte	0xef
 1920 09ab 00       		.byte	0
 1921 09ac 20       		.uleb128 0x20
 1922 09ad 01       		.byte	0x1
 1923 09ae 07010000 		.4byte	.LASF85
 1924 09b2 0A       		.byte	0xa
 1925 09b3 9C       		.byte	0x9c
 1926 09b4 01       		.byte	0x1
 1927 09b5 01       		.byte	0x1
ARM GAS  C:\Users\3130\AppData\Local\Temp\ccfnl2bd.s 			page 35


 1928 09b6 21       		.uleb128 0x21
 1929 09b7 01       		.byte	0x1
 1930 09b8 B0020000 		.4byte	.LASF86
 1931 09bc 07       		.byte	0x7
 1932 09bd 3B       		.byte	0x3b
 1933 09be 01       		.byte	0x1
 1934 09bf CE000000 		.4byte	0xce
 1935 09c3 01       		.byte	0x1
 1936 09c4 D3090000 		.4byte	0x9d3
 1937 09c8 1F       		.uleb128 0x1f
 1938 09c9 8D090000 		.4byte	0x98d
 1939 09cd 1F       		.uleb128 0x1f
 1940 09ce E4000000 		.4byte	0xe4
 1941 09d2 00       		.byte	0
 1942 09d3 22       		.uleb128 0x22
 1943 09d4 01       		.byte	0x1
 1944 09d5 06000000 		.4byte	.LASF87
 1945 09d9 07       		.byte	0x7
 1946 09da 3D       		.byte	0x3d
 1947 09db 01       		.byte	0x1
 1948 09dc 01       		.byte	0x1
 1949 09dd 1F       		.uleb128 0x1f
 1950 09de 8D090000 		.4byte	0x98d
 1951 09e2 00       		.byte	0
 1952 09e3 00       		.byte	0
 1953              		.section	.debug_abbrev,"",%progbits
 1954              	.Ldebug_abbrev0:
 1955 0000 01       		.uleb128 0x1
 1956 0001 11       		.uleb128 0x11
 1957 0002 01       		.byte	0x1
 1958 0003 25       		.uleb128 0x25
 1959 0004 0E       		.uleb128 0xe
 1960 0005 13       		.uleb128 0x13
 1961 0006 0B       		.uleb128 0xb
 1962 0007 03       		.uleb128 0x3
 1963 0008 0E       		.uleb128 0xe
 1964 0009 1B       		.uleb128 0x1b
 1965 000a 0E       		.uleb128 0xe
 1966 000b 55       		.uleb128 0x55
 1967 000c 06       		.uleb128 0x6
 1968 000d 11       		.uleb128 0x11
 1969 000e 01       		.uleb128 0x1
 1970 000f 52       		.uleb128 0x52
 1971 0010 01       		.uleb128 0x1
 1972 0011 10       		.uleb128 0x10
 1973 0012 06       		.uleb128 0x6
 1974 0013 00       		.byte	0
 1975 0014 00       		.byte	0
 1976 0015 02       		.uleb128 0x2
 1977 0016 24       		.uleb128 0x24
 1978 0017 00       		.byte	0
 1979 0018 0B       		.uleb128 0xb
 1980 0019 0B       		.uleb128 0xb
 1981 001a 3E       		.uleb128 0x3e
 1982 001b 0B       		.uleb128 0xb
 1983 001c 03       		.uleb128 0x3
 1984 001d 08       		.uleb128 0x8
ARM GAS  C:\Users\3130\AppData\Local\Temp\ccfnl2bd.s 			page 36


 1985 001e 00       		.byte	0
 1986 001f 00       		.byte	0
 1987 0020 03       		.uleb128 0x3
 1988 0021 24       		.uleb128 0x24
 1989 0022 00       		.byte	0
 1990 0023 0B       		.uleb128 0xb
 1991 0024 0B       		.uleb128 0xb
 1992 0025 3E       		.uleb128 0x3e
 1993 0026 0B       		.uleb128 0xb
 1994 0027 03       		.uleb128 0x3
 1995 0028 0E       		.uleb128 0xe
 1996 0029 00       		.byte	0
 1997 002a 00       		.byte	0
 1998 002b 04       		.uleb128 0x4
 1999 002c 16       		.uleb128 0x16
 2000 002d 00       		.byte	0
 2001 002e 03       		.uleb128 0x3
 2002 002f 0E       		.uleb128 0xe
 2003 0030 3A       		.uleb128 0x3a
 2004 0031 0B       		.uleb128 0xb
 2005 0032 3B       		.uleb128 0x3b
 2006 0033 0B       		.uleb128 0xb
 2007 0034 49       		.uleb128 0x49
 2008 0035 13       		.uleb128 0x13
 2009 0036 00       		.byte	0
 2010 0037 00       		.byte	0
 2011 0038 05       		.uleb128 0x5
 2012 0039 13       		.uleb128 0x13
 2013 003a 01       		.byte	0x1
 2014 003b 03       		.uleb128 0x3
 2015 003c 0E       		.uleb128 0xe
 2016 003d 0B       		.uleb128 0xb
 2017 003e 0B       		.uleb128 0xb
 2018 003f 3A       		.uleb128 0x3a
 2019 0040 0B       		.uleb128 0xb
 2020 0041 3B       		.uleb128 0x3b
 2021 0042 0B       		.uleb128 0xb
 2022 0043 01       		.uleb128 0x1
 2023 0044 13       		.uleb128 0x13
 2024 0045 00       		.byte	0
 2025 0046 00       		.byte	0
 2026 0047 06       		.uleb128 0x6
 2027 0048 0D       		.uleb128 0xd
 2028 0049 00       		.byte	0
 2029 004a 03       		.uleb128 0x3
 2030 004b 0E       		.uleb128 0xe
 2031 004c 3A       		.uleb128 0x3a
 2032 004d 0B       		.uleb128 0xb
 2033 004e 3B       		.uleb128 0x3b
 2034 004f 0B       		.uleb128 0xb
 2035 0050 49       		.uleb128 0x49
 2036 0051 13       		.uleb128 0x13
 2037 0052 38       		.uleb128 0x38
 2038 0053 0A       		.uleb128 0xa
 2039 0054 00       		.byte	0
 2040 0055 00       		.byte	0
 2041 0056 07       		.uleb128 0x7
ARM GAS  C:\Users\3130\AppData\Local\Temp\ccfnl2bd.s 			page 37


 2042 0057 0D       		.uleb128 0xd
 2043 0058 00       		.byte	0
 2044 0059 03       		.uleb128 0x3
 2045 005a 08       		.uleb128 0x8
 2046 005b 3A       		.uleb128 0x3a
 2047 005c 0B       		.uleb128 0xb
 2048 005d 3B       		.uleb128 0x3b
 2049 005e 0B       		.uleb128 0xb
 2050 005f 49       		.uleb128 0x49
 2051 0060 13       		.uleb128 0x13
 2052 0061 38       		.uleb128 0x38
 2053 0062 0A       		.uleb128 0xa
 2054 0063 00       		.byte	0
 2055 0064 00       		.byte	0
 2056 0065 08       		.uleb128 0x8
 2057 0066 13       		.uleb128 0x13
 2058 0067 01       		.byte	0x1
 2059 0068 0B       		.uleb128 0xb
 2060 0069 0B       		.uleb128 0xb
 2061 006a 3A       		.uleb128 0x3a
 2062 006b 0B       		.uleb128 0xb
 2063 006c 3B       		.uleb128 0x3b
 2064 006d 0B       		.uleb128 0xb
 2065 006e 01       		.uleb128 0x1
 2066 006f 13       		.uleb128 0x13
 2067 0070 00       		.byte	0
 2068 0071 00       		.byte	0
 2069 0072 09       		.uleb128 0x9
 2070 0073 0F       		.uleb128 0xf
 2071 0074 00       		.byte	0
 2072 0075 0B       		.uleb128 0xb
 2073 0076 0B       		.uleb128 0xb
 2074 0077 49       		.uleb128 0x49
 2075 0078 13       		.uleb128 0x13
 2076 0079 00       		.byte	0
 2077 007a 00       		.byte	0
 2078 007b 0A       		.uleb128 0xa
 2079 007c 0F       		.uleb128 0xf
 2080 007d 00       		.byte	0
 2081 007e 0B       		.uleb128 0xb
 2082 007f 0B       		.uleb128 0xb
 2083 0080 00       		.byte	0
 2084 0081 00       		.byte	0
 2085 0082 0B       		.uleb128 0xb
 2086 0083 35       		.uleb128 0x35
 2087 0084 00       		.byte	0
 2088 0085 49       		.uleb128 0x49
 2089 0086 13       		.uleb128 0x13
 2090 0087 00       		.byte	0
 2091 0088 00       		.byte	0
 2092 0089 0C       		.uleb128 0xc
 2093 008a 17       		.uleb128 0x17
 2094 008b 01       		.byte	0x1
 2095 008c 0B       		.uleb128 0xb
 2096 008d 0B       		.uleb128 0xb
 2097 008e 3A       		.uleb128 0x3a
 2098 008f 0B       		.uleb128 0xb
ARM GAS  C:\Users\3130\AppData\Local\Temp\ccfnl2bd.s 			page 38


 2099 0090 3B       		.uleb128 0x3b
 2100 0091 0B       		.uleb128 0xb
 2101 0092 01       		.uleb128 0x1
 2102 0093 13       		.uleb128 0x13
 2103 0094 00       		.byte	0
 2104 0095 00       		.byte	0
 2105 0096 0D       		.uleb128 0xd
 2106 0097 0D       		.uleb128 0xd
 2107 0098 00       		.byte	0
 2108 0099 03       		.uleb128 0x3
 2109 009a 0E       		.uleb128 0xe
 2110 009b 3A       		.uleb128 0x3a
 2111 009c 0B       		.uleb128 0xb
 2112 009d 3B       		.uleb128 0x3b
 2113 009e 0B       		.uleb128 0xb
 2114 009f 49       		.uleb128 0x49
 2115 00a0 13       		.uleb128 0x13
 2116 00a1 00       		.byte	0
 2117 00a2 00       		.byte	0
 2118 00a3 0E       		.uleb128 0xe
 2119 00a4 26       		.uleb128 0x26
 2120 00a5 00       		.byte	0
 2121 00a6 49       		.uleb128 0x49
 2122 00a7 13       		.uleb128 0x13
 2123 00a8 00       		.byte	0
 2124 00a9 00       		.byte	0
 2125 00aa 0F       		.uleb128 0xf
 2126 00ab 2E       		.uleb128 0x2e
 2127 00ac 01       		.byte	0x1
 2128 00ad 3F       		.uleb128 0x3f
 2129 00ae 0C       		.uleb128 0xc
 2130 00af 03       		.uleb128 0x3
 2131 00b0 0E       		.uleb128 0xe
 2132 00b1 3A       		.uleb128 0x3a
 2133 00b2 0B       		.uleb128 0xb
 2134 00b3 3B       		.uleb128 0x3b
 2135 00b4 0B       		.uleb128 0xb
 2136 00b5 27       		.uleb128 0x27
 2137 00b6 0C       		.uleb128 0xc
 2138 00b7 11       		.uleb128 0x11
 2139 00b8 01       		.uleb128 0x1
 2140 00b9 12       		.uleb128 0x12
 2141 00ba 01       		.uleb128 0x1
 2142 00bb 40       		.uleb128 0x40
 2143 00bc 06       		.uleb128 0x6
 2144 00bd 9742     		.uleb128 0x2117
 2145 00bf 0C       		.uleb128 0xc
 2146 00c0 01       		.uleb128 0x1
 2147 00c1 13       		.uleb128 0x13
 2148 00c2 00       		.byte	0
 2149 00c3 00       		.byte	0
 2150 00c4 10       		.uleb128 0x10
 2151 00c5 05       		.uleb128 0x5
 2152 00c6 00       		.byte	0
 2153 00c7 03       		.uleb128 0x3
 2154 00c8 08       		.uleb128 0x8
 2155 00c9 3A       		.uleb128 0x3a
ARM GAS  C:\Users\3130\AppData\Local\Temp\ccfnl2bd.s 			page 39


 2156 00ca 0B       		.uleb128 0xb
 2157 00cb 3B       		.uleb128 0x3b
 2158 00cc 0B       		.uleb128 0xb
 2159 00cd 49       		.uleb128 0x49
 2160 00ce 13       		.uleb128 0x13
 2161 00cf 02       		.uleb128 0x2
 2162 00d0 06       		.uleb128 0x6
 2163 00d1 00       		.byte	0
 2164 00d2 00       		.byte	0
 2165 00d3 11       		.uleb128 0x11
 2166 00d4 898201   		.uleb128 0x4109
 2167 00d7 01       		.byte	0x1
 2168 00d8 11       		.uleb128 0x11
 2169 00d9 01       		.uleb128 0x1
 2170 00da 31       		.uleb128 0x31
 2171 00db 13       		.uleb128 0x13
 2172 00dc 01       		.uleb128 0x1
 2173 00dd 13       		.uleb128 0x13
 2174 00de 00       		.byte	0
 2175 00df 00       		.byte	0
 2176 00e0 12       		.uleb128 0x12
 2177 00e1 8A8201   		.uleb128 0x410a
 2178 00e4 00       		.byte	0
 2179 00e5 02       		.uleb128 0x2
 2180 00e6 0A       		.uleb128 0xa
 2181 00e7 9142     		.uleb128 0x2111
 2182 00e9 0A       		.uleb128 0xa
 2183 00ea 00       		.byte	0
 2184 00eb 00       		.byte	0
 2185 00ec 13       		.uleb128 0x13
 2186 00ed 898201   		.uleb128 0x4109
 2187 00f0 01       		.byte	0x1
 2188 00f1 11       		.uleb128 0x11
 2189 00f2 01       		.uleb128 0x1
 2190 00f3 31       		.uleb128 0x31
 2191 00f4 13       		.uleb128 0x13
 2192 00f5 00       		.byte	0
 2193 00f6 00       		.byte	0
 2194 00f7 14       		.uleb128 0x14
 2195 00f8 898201   		.uleb128 0x4109
 2196 00fb 00       		.byte	0
 2197 00fc 11       		.uleb128 0x11
 2198 00fd 01       		.uleb128 0x1
 2199 00fe 31       		.uleb128 0x31
 2200 00ff 13       		.uleb128 0x13
 2201 0100 00       		.byte	0
 2202 0101 00       		.byte	0
 2203 0102 15       		.uleb128 0x15
 2204 0103 2E       		.uleb128 0x2e
 2205 0104 01       		.byte	0x1
 2206 0105 3F       		.uleb128 0x3f
 2207 0106 0C       		.uleb128 0xc
 2208 0107 03       		.uleb128 0x3
 2209 0108 0E       		.uleb128 0xe
 2210 0109 3A       		.uleb128 0x3a
 2211 010a 0B       		.uleb128 0xb
 2212 010b 3B       		.uleb128 0x3b
ARM GAS  C:\Users\3130\AppData\Local\Temp\ccfnl2bd.s 			page 40


 2213 010c 0B       		.uleb128 0xb
 2214 010d 27       		.uleb128 0x27
 2215 010e 0C       		.uleb128 0xc
 2216 010f 49       		.uleb128 0x49
 2217 0110 13       		.uleb128 0x13
 2218 0111 11       		.uleb128 0x11
 2219 0112 01       		.uleb128 0x1
 2220 0113 12       		.uleb128 0x12
 2221 0114 01       		.uleb128 0x1
 2222 0115 40       		.uleb128 0x40
 2223 0116 06       		.uleb128 0x6
 2224 0117 9742     		.uleb128 0x2117
 2225 0119 0C       		.uleb128 0xc
 2226 011a 01       		.uleb128 0x1
 2227 011b 13       		.uleb128 0x13
 2228 011c 00       		.byte	0
 2229 011d 00       		.byte	0
 2230 011e 16       		.uleb128 0x16
 2231 011f 05       		.uleb128 0x5
 2232 0120 00       		.byte	0
 2233 0121 03       		.uleb128 0x3
 2234 0122 0E       		.uleb128 0xe
 2235 0123 3A       		.uleb128 0x3a
 2236 0124 0B       		.uleb128 0xb
 2237 0125 3B       		.uleb128 0x3b
 2238 0126 0B       		.uleb128 0xb
 2239 0127 49       		.uleb128 0x49
 2240 0128 13       		.uleb128 0x13
 2241 0129 02       		.uleb128 0x2
 2242 012a 06       		.uleb128 0x6
 2243 012b 00       		.byte	0
 2244 012c 00       		.byte	0
 2245 012d 17       		.uleb128 0x17
 2246 012e 34       		.uleb128 0x34
 2247 012f 00       		.byte	0
 2248 0130 03       		.uleb128 0x3
 2249 0131 0E       		.uleb128 0xe
 2250 0132 3A       		.uleb128 0x3a
 2251 0133 0B       		.uleb128 0xb
 2252 0134 3B       		.uleb128 0x3b
 2253 0135 0B       		.uleb128 0xb
 2254 0136 49       		.uleb128 0x49
 2255 0137 13       		.uleb128 0x13
 2256 0138 02       		.uleb128 0x2
 2257 0139 06       		.uleb128 0x6
 2258 013a 00       		.byte	0
 2259 013b 00       		.byte	0
 2260 013c 18       		.uleb128 0x18
 2261 013d 34       		.uleb128 0x34
 2262 013e 00       		.byte	0
 2263 013f 03       		.uleb128 0x3
 2264 0140 0E       		.uleb128 0xe
 2265 0141 3A       		.uleb128 0x3a
 2266 0142 0B       		.uleb128 0xb
 2267 0143 3B       		.uleb128 0x3b
 2268 0144 0B       		.uleb128 0xb
 2269 0145 49       		.uleb128 0x49
ARM GAS  C:\Users\3130\AppData\Local\Temp\ccfnl2bd.s 			page 41


 2270 0146 13       		.uleb128 0x13
 2271 0147 02       		.uleb128 0x2
 2272 0148 0A       		.uleb128 0xa
 2273 0149 00       		.byte	0
 2274 014a 00       		.byte	0
 2275 014b 19       		.uleb128 0x19
 2276 014c 2E       		.uleb128 0x2e
 2277 014d 01       		.byte	0x1
 2278 014e 3F       		.uleb128 0x3f
 2279 014f 0C       		.uleb128 0xc
 2280 0150 03       		.uleb128 0x3
 2281 0151 0E       		.uleb128 0xe
 2282 0152 3A       		.uleb128 0x3a
 2283 0153 0B       		.uleb128 0xb
 2284 0154 3B       		.uleb128 0x3b
 2285 0155 05       		.uleb128 0x5
 2286 0156 27       		.uleb128 0x27
 2287 0157 0C       		.uleb128 0xc
 2288 0158 49       		.uleb128 0x49
 2289 0159 13       		.uleb128 0x13
 2290 015a 11       		.uleb128 0x11
 2291 015b 01       		.uleb128 0x1
 2292 015c 12       		.uleb128 0x12
 2293 015d 01       		.uleb128 0x1
 2294 015e 40       		.uleb128 0x40
 2295 015f 06       		.uleb128 0x6
 2296 0160 9742     		.uleb128 0x2117
 2297 0162 0C       		.uleb128 0xc
 2298 0163 01       		.uleb128 0x1
 2299 0164 13       		.uleb128 0x13
 2300 0165 00       		.byte	0
 2301 0166 00       		.byte	0
 2302 0167 1A       		.uleb128 0x1a
 2303 0168 05       		.uleb128 0x5
 2304 0169 00       		.byte	0
 2305 016a 03       		.uleb128 0x3
 2306 016b 08       		.uleb128 0x8
 2307 016c 3A       		.uleb128 0x3a
 2308 016d 0B       		.uleb128 0xb
 2309 016e 3B       		.uleb128 0x3b
 2310 016f 05       		.uleb128 0x5
 2311 0170 49       		.uleb128 0x49
 2312 0171 13       		.uleb128 0x13
 2313 0172 02       		.uleb128 0x2
 2314 0173 06       		.uleb128 0x6
 2315 0174 00       		.byte	0
 2316 0175 00       		.byte	0
 2317 0176 1B       		.uleb128 0x1b
 2318 0177 05       		.uleb128 0x5
 2319 0178 00       		.byte	0
 2320 0179 03       		.uleb128 0x3
 2321 017a 0E       		.uleb128 0xe
 2322 017b 3A       		.uleb128 0x3a
 2323 017c 0B       		.uleb128 0xb
 2324 017d 3B       		.uleb128 0x3b
 2325 017e 05       		.uleb128 0x5
 2326 017f 49       		.uleb128 0x49
ARM GAS  C:\Users\3130\AppData\Local\Temp\ccfnl2bd.s 			page 42


 2327 0180 13       		.uleb128 0x13
 2328 0181 02       		.uleb128 0x2
 2329 0182 06       		.uleb128 0x6
 2330 0183 00       		.byte	0
 2331 0184 00       		.byte	0
 2332 0185 1C       		.uleb128 0x1c
 2333 0186 34       		.uleb128 0x34
 2334 0187 00       		.byte	0
 2335 0188 03       		.uleb128 0x3
 2336 0189 0E       		.uleb128 0xe
 2337 018a 3A       		.uleb128 0x3a
 2338 018b 0B       		.uleb128 0xb
 2339 018c 3B       		.uleb128 0x3b
 2340 018d 05       		.uleb128 0x5
 2341 018e 49       		.uleb128 0x49
 2342 018f 13       		.uleb128 0x13
 2343 0190 02       		.uleb128 0x2
 2344 0191 06       		.uleb128 0x6
 2345 0192 00       		.byte	0
 2346 0193 00       		.byte	0
 2347 0194 1D       		.uleb128 0x1d
 2348 0195 34       		.uleb128 0x34
 2349 0196 00       		.byte	0
 2350 0197 03       		.uleb128 0x3
 2351 0198 0E       		.uleb128 0xe
 2352 0199 3A       		.uleb128 0x3a
 2353 019a 0B       		.uleb128 0xb
 2354 019b 3B       		.uleb128 0x3b
 2355 019c 05       		.uleb128 0x5
 2356 019d 49       		.uleb128 0x49
 2357 019e 13       		.uleb128 0x13
 2358 019f 02       		.uleb128 0x2
 2359 01a0 0A       		.uleb128 0xa
 2360 01a1 00       		.byte	0
 2361 01a2 00       		.byte	0
 2362 01a3 1E       		.uleb128 0x1e
 2363 01a4 2E       		.uleb128 0x2e
 2364 01a5 01       		.byte	0x1
 2365 01a6 3F       		.uleb128 0x3f
 2366 01a7 0C       		.uleb128 0xc
 2367 01a8 03       		.uleb128 0x3
 2368 01a9 0E       		.uleb128 0xe
 2369 01aa 3A       		.uleb128 0x3a
 2370 01ab 0B       		.uleb128 0xb
 2371 01ac 3B       		.uleb128 0x3b
 2372 01ad 0B       		.uleb128 0xb
 2373 01ae 27       		.uleb128 0x27
 2374 01af 0C       		.uleb128 0xc
 2375 01b0 3C       		.uleb128 0x3c
 2376 01b1 0C       		.uleb128 0xc
 2377 01b2 01       		.uleb128 0x1
 2378 01b3 13       		.uleb128 0x13
 2379 01b4 00       		.byte	0
 2380 01b5 00       		.byte	0
 2381 01b6 1F       		.uleb128 0x1f
 2382 01b7 05       		.uleb128 0x5
 2383 01b8 00       		.byte	0
ARM GAS  C:\Users\3130\AppData\Local\Temp\ccfnl2bd.s 			page 43


 2384 01b9 49       		.uleb128 0x49
 2385 01ba 13       		.uleb128 0x13
 2386 01bb 00       		.byte	0
 2387 01bc 00       		.byte	0
 2388 01bd 20       		.uleb128 0x20
 2389 01be 2E       		.uleb128 0x2e
 2390 01bf 00       		.byte	0
 2391 01c0 3F       		.uleb128 0x3f
 2392 01c1 0C       		.uleb128 0xc
 2393 01c2 03       		.uleb128 0x3
 2394 01c3 0E       		.uleb128 0xe
 2395 01c4 3A       		.uleb128 0x3a
 2396 01c5 0B       		.uleb128 0xb
 2397 01c6 3B       		.uleb128 0x3b
 2398 01c7 0B       		.uleb128 0xb
 2399 01c8 27       		.uleb128 0x27
 2400 01c9 0C       		.uleb128 0xc
 2401 01ca 3C       		.uleb128 0x3c
 2402 01cb 0C       		.uleb128 0xc
 2403 01cc 00       		.byte	0
 2404 01cd 00       		.byte	0
 2405 01ce 21       		.uleb128 0x21
 2406 01cf 2E       		.uleb128 0x2e
 2407 01d0 01       		.byte	0x1
 2408 01d1 3F       		.uleb128 0x3f
 2409 01d2 0C       		.uleb128 0xc
 2410 01d3 03       		.uleb128 0x3
 2411 01d4 0E       		.uleb128 0xe
 2412 01d5 3A       		.uleb128 0x3a
 2413 01d6 0B       		.uleb128 0xb
 2414 01d7 3B       		.uleb128 0x3b
 2415 01d8 0B       		.uleb128 0xb
 2416 01d9 27       		.uleb128 0x27
 2417 01da 0C       		.uleb128 0xc
 2418 01db 49       		.uleb128 0x49
 2419 01dc 13       		.uleb128 0x13
 2420 01dd 3C       		.uleb128 0x3c
 2421 01de 0C       		.uleb128 0xc
 2422 01df 01       		.uleb128 0x1
 2423 01e0 13       		.uleb128 0x13
 2424 01e1 00       		.byte	0
 2425 01e2 00       		.byte	0
 2426 01e3 22       		.uleb128 0x22
 2427 01e4 2E       		.uleb128 0x2e
 2428 01e5 01       		.byte	0x1
 2429 01e6 3F       		.uleb128 0x3f
 2430 01e7 0C       		.uleb128 0xc
 2431 01e8 03       		.uleb128 0x3
 2432 01e9 0E       		.uleb128 0xe
 2433 01ea 3A       		.uleb128 0x3a
 2434 01eb 0B       		.uleb128 0xb
 2435 01ec 3B       		.uleb128 0x3b
 2436 01ed 0B       		.uleb128 0xb
 2437 01ee 27       		.uleb128 0x27
 2438 01ef 0C       		.uleb128 0xc
 2439 01f0 3C       		.uleb128 0x3c
 2440 01f1 0C       		.uleb128 0xc
ARM GAS  C:\Users\3130\AppData\Local\Temp\ccfnl2bd.s 			page 44


 2441 01f2 00       		.byte	0
 2442 01f3 00       		.byte	0
 2443 01f4 00       		.byte	0
 2444              		.section	.debug_loc,"",%progbits
 2445              	.Ldebug_loc0:
 2446              	.LLST0:
 2447 0000 00000000 		.4byte	.LFB7
 2448 0004 02000000 		.4byte	.LCFI0
 2449 0008 0200     		.2byte	0x2
 2450 000a 7D       		.byte	0x7d
 2451 000b 00       		.sleb128 0
 2452 000c 02000000 		.4byte	.LCFI0
 2453 0010 26000000 		.4byte	.LFE7
 2454 0014 0200     		.2byte	0x2
 2455 0016 7D       		.byte	0x7d
 2456 0017 08       		.sleb128 8
 2457 0018 00000000 		.4byte	0
 2458 001c 00000000 		.4byte	0
 2459              	.LLST1:
 2460 0020 00000000 		.4byte	.LVL0
 2461 0024 16000000 		.4byte	.LVL3
 2462 0028 0100     		.2byte	0x1
 2463 002a 50       		.byte	0x50
 2464 002b 16000000 		.4byte	.LVL3
 2465 002f 24000000 		.4byte	.LVL6
 2466 0033 0100     		.2byte	0x1
 2467 0035 54       		.byte	0x54
 2468 0036 24000000 		.4byte	.LVL6
 2469 003a 26000000 		.4byte	.LFE7
 2470 003e 0400     		.2byte	0x4
 2471 0040 F3       		.byte	0xf3
 2472 0041 01       		.uleb128 0x1
 2473 0042 50       		.byte	0x50
 2474 0043 9F       		.byte	0x9f
 2475 0044 00000000 		.4byte	0
 2476 0048 00000000 		.4byte	0
 2477              	.LLST2:
 2478 004c 00000000 		.4byte	.LVL0
 2479 0050 0E000000 		.4byte	.LVL1
 2480 0054 0100     		.2byte	0x1
 2481 0056 51       		.byte	0x51
 2482 0057 0E000000 		.4byte	.LVL1
 2483 005b 10000000 		.4byte	.LVL2
 2484 005f 0100     		.2byte	0x1
 2485 0061 53       		.byte	0x53
 2486 0062 10000000 		.4byte	.LVL2
 2487 0066 16000000 		.4byte	.LVL3
 2488 006a 0200     		.2byte	0x2
 2489 006c 70       		.byte	0x70
 2490 006d 00       		.sleb128 0
 2491 006e 16000000 		.4byte	.LVL3
 2492 0072 19000000 		.4byte	.LVL4-1
 2493 0076 0200     		.2byte	0x2
 2494 0078 74       		.byte	0x74
 2495 0079 00       		.sleb128 0
 2496 007a 19000000 		.4byte	.LVL4-1
 2497 007e 26000000 		.4byte	.LFE7
ARM GAS  C:\Users\3130\AppData\Local\Temp\ccfnl2bd.s 			page 45


 2498 0082 0400     		.2byte	0x4
 2499 0084 F3       		.byte	0xf3
 2500 0085 01       		.uleb128 0x1
 2501 0086 51       		.byte	0x51
 2502 0087 9F       		.byte	0x9f
 2503 0088 00000000 		.4byte	0
 2504 008c 00000000 		.4byte	0
 2505              	.LLST3:
 2506 0090 00000000 		.4byte	.LVL0
 2507 0094 19000000 		.4byte	.LVL4-1
 2508 0098 0100     		.2byte	0x1
 2509 009a 52       		.byte	0x52
 2510 009b 19000000 		.4byte	.LVL4-1
 2511 009f 26000000 		.4byte	.LFE7
 2512 00a3 0400     		.2byte	0x4
 2513 00a5 F3       		.byte	0xf3
 2514 00a6 01       		.uleb128 0x1
 2515 00a7 52       		.byte	0x52
 2516 00a8 9F       		.byte	0x9f
 2517 00a9 00000000 		.4byte	0
 2518 00ad 00000000 		.4byte	0
 2519              	.LLST4:
 2520 00b1 00000000 		.4byte	.LFB8
 2521 00b5 02000000 		.4byte	.LCFI1
 2522 00b9 0200     		.2byte	0x2
 2523 00bb 7D       		.byte	0x7d
 2524 00bc 00       		.sleb128 0
 2525 00bd 02000000 		.4byte	.LCFI1
 2526 00c1 2A000000 		.4byte	.LFE8
 2527 00c5 0200     		.2byte	0x2
 2528 00c7 7D       		.byte	0x7d
 2529 00c8 08       		.sleb128 8
 2530 00c9 00000000 		.4byte	0
 2531 00cd 00000000 		.4byte	0
 2532              	.LLST5:
 2533 00d1 00000000 		.4byte	.LVL7
 2534 00d5 14000000 		.4byte	.LVL8
 2535 00d9 0100     		.2byte	0x1
 2536 00db 50       		.byte	0x50
 2537 00dc 14000000 		.4byte	.LVL8
 2538 00e0 28000000 		.4byte	.LVL12
 2539 00e4 0100     		.2byte	0x1
 2540 00e6 54       		.byte	0x54
 2541 00e7 28000000 		.4byte	.LVL12
 2542 00eb 2A000000 		.4byte	.LFE8
 2543 00ef 0400     		.2byte	0x4
 2544 00f1 F3       		.byte	0xf3
 2545 00f2 01       		.uleb128 0x1
 2546 00f3 50       		.byte	0x50
 2547 00f4 9F       		.byte	0x9f
 2548 00f5 00000000 		.4byte	0
 2549 00f9 00000000 		.4byte	0
 2550              	.LLST6:
 2551 00fd 00000000 		.4byte	.LFB10
 2552 0101 02000000 		.4byte	.LCFI2
 2553 0105 0200     		.2byte	0x2
 2554 0107 7D       		.byte	0x7d
ARM GAS  C:\Users\3130\AppData\Local\Temp\ccfnl2bd.s 			page 46


 2555 0108 00       		.sleb128 0
 2556 0109 02000000 		.4byte	.LCFI2
 2557 010d 34000000 		.4byte	.LFE10
 2558 0111 0200     		.2byte	0x2
 2559 0113 7D       		.byte	0x7d
 2560 0114 10       		.sleb128 16
 2561 0115 00000000 		.4byte	0
 2562 0119 00000000 		.4byte	0
 2563              	.LLST7:
 2564 011d 00000000 		.4byte	.LVL13
 2565 0121 08000000 		.4byte	.LVL14
 2566 0125 0100     		.2byte	0x1
 2567 0127 50       		.byte	0x50
 2568 0128 08000000 		.4byte	.LVL14
 2569 012c 2C000000 		.4byte	.LVL21
 2570 0130 0100     		.2byte	0x1
 2571 0132 54       		.byte	0x54
 2572 0133 2C000000 		.4byte	.LVL21
 2573 0137 2E000000 		.4byte	.LVL24
 2574 013b 0400     		.2byte	0x4
 2575 013d F3       		.byte	0xf3
 2576 013e 01       		.uleb128 0x1
 2577 013f 50       		.byte	0x50
 2578 0140 9F       		.byte	0x9f
 2579 0141 2E000000 		.4byte	.LVL24
 2580 0145 34000000 		.4byte	.LFE10
 2581 0149 0100     		.2byte	0x1
 2582 014b 54       		.byte	0x54
 2583 014c 00000000 		.4byte	0
 2584 0150 00000000 		.4byte	0
 2585              	.LLST8:
 2586 0154 00000000 		.4byte	.LVL13
 2587 0158 0A000000 		.4byte	.LVL15
 2588 015c 0100     		.2byte	0x1
 2589 015e 51       		.byte	0x51
 2590 015f 0A000000 		.4byte	.LVL15
 2591 0163 2C000000 		.4byte	.LVL23
 2592 0167 0100     		.2byte	0x1
 2593 0169 56       		.byte	0x56
 2594 016a 2C000000 		.4byte	.LVL23
 2595 016e 2E000000 		.4byte	.LVL24
 2596 0172 0400     		.2byte	0x4
 2597 0174 F3       		.byte	0xf3
 2598 0175 01       		.uleb128 0x1
 2599 0176 51       		.byte	0x51
 2600 0177 9F       		.byte	0x9f
 2601 0178 2E000000 		.4byte	.LVL24
 2602 017c 34000000 		.4byte	.LFE10
 2603 0180 0100     		.2byte	0x1
 2604 0182 56       		.byte	0x56
 2605 0183 00000000 		.4byte	0
 2606 0187 00000000 		.4byte	0
 2607              	.LLST9:
 2608 018b 00000000 		.4byte	.LVL13
 2609 018f 0D000000 		.4byte	.LVL16-1
 2610 0193 0100     		.2byte	0x1
 2611 0195 52       		.byte	0x52
ARM GAS  C:\Users\3130\AppData\Local\Temp\ccfnl2bd.s 			page 47


 2612 0196 0D000000 		.4byte	.LVL16-1
 2613 019a 34000000 		.4byte	.LFE10
 2614 019e 0400     		.2byte	0x4
 2615 01a0 F3       		.byte	0xf3
 2616 01a1 01       		.uleb128 0x1
 2617 01a2 52       		.byte	0x52
 2618 01a3 9F       		.byte	0x9f
 2619 01a4 00000000 		.4byte	0
 2620 01a8 00000000 		.4byte	0
 2621              	.LLST10:
 2622 01ac 10000000 		.4byte	.LVL17
 2623 01b0 1E000000 		.4byte	.LVL18
 2624 01b4 0100     		.2byte	0x1
 2625 01b6 50       		.byte	0x50
 2626 01b7 1E000000 		.4byte	.LVL18
 2627 01bb 2C000000 		.4byte	.LVL22
 2628 01bf 0100     		.2byte	0x1
 2629 01c1 55       		.byte	0x55
 2630 01c2 2C000000 		.4byte	.LVL22
 2631 01c6 30000000 		.4byte	.LVL25
 2632 01ca 0100     		.2byte	0x1
 2633 01cc 50       		.byte	0x50
 2634 01cd 30000000 		.4byte	.LVL25
 2635 01d1 34000000 		.4byte	.LFE10
 2636 01d5 0100     		.2byte	0x1
 2637 01d7 55       		.byte	0x55
 2638 01d8 00000000 		.4byte	0
 2639 01dc 00000000 		.4byte	0
 2640              	.LLST11:
 2641 01e0 00000000 		.4byte	.LFB9
 2642 01e4 02000000 		.4byte	.LCFI3
 2643 01e8 0200     		.2byte	0x2
 2644 01ea 7D       		.byte	0x7d
 2645 01eb 00       		.sleb128 0
 2646 01ec 02000000 		.4byte	.LCFI3
 2647 01f0 0C000000 		.4byte	.LFE9
 2648 01f4 0200     		.2byte	0x2
 2649 01f6 7D       		.byte	0x7d
 2650 01f7 08       		.sleb128 8
 2651 01f8 00000000 		.4byte	0
 2652 01fc 00000000 		.4byte	0
 2653              	.LLST12:
 2654 0200 00000000 		.4byte	.LVL26
 2655 0204 07000000 		.4byte	.LVL27-1
 2656 0208 0100     		.2byte	0x1
 2657 020a 50       		.byte	0x50
 2658 020b 07000000 		.4byte	.LVL27-1
 2659 020f 0C000000 		.4byte	.LFE9
 2660 0213 0400     		.2byte	0x4
 2661 0215 F3       		.byte	0xf3
 2662 0216 01       		.uleb128 0x1
 2663 0217 50       		.byte	0x50
 2664 0218 9F       		.byte	0x9f
 2665 0219 00000000 		.4byte	0
 2666 021d 00000000 		.4byte	0
 2667              	.LLST13:
 2668 0221 00000000 		.4byte	.LVL26
ARM GAS  C:\Users\3130\AppData\Local\Temp\ccfnl2bd.s 			page 48


 2669 0225 07000000 		.4byte	.LVL27-1
 2670 0229 0100     		.2byte	0x1
 2671 022b 51       		.byte	0x51
 2672 022c 07000000 		.4byte	.LVL27-1
 2673 0230 0C000000 		.4byte	.LFE9
 2674 0234 0400     		.2byte	0x4
 2675 0236 F3       		.byte	0xf3
 2676 0237 01       		.uleb128 0x1
 2677 0238 51       		.byte	0x51
 2678 0239 9F       		.byte	0x9f
 2679 023a 00000000 		.4byte	0
 2680 023e 00000000 		.4byte	0
 2681              	.LLST14:
 2682 0242 00000000 		.4byte	.LVL26
 2683 0246 07000000 		.4byte	.LVL27-1
 2684 024a 0100     		.2byte	0x1
 2685 024c 52       		.byte	0x52
 2686 024d 07000000 		.4byte	.LVL27-1
 2687 0251 0C000000 		.4byte	.LFE9
 2688 0255 0400     		.2byte	0x4
 2689 0257 F3       		.byte	0xf3
 2690 0258 01       		.uleb128 0x1
 2691 0259 52       		.byte	0x52
 2692 025a 9F       		.byte	0x9f
 2693 025b 00000000 		.4byte	0
 2694 025f 00000000 		.4byte	0
 2695              	.LLST15:
 2696 0263 00000000 		.4byte	.LFB11
 2697 0267 02000000 		.4byte	.LCFI4
 2698 026b 0200     		.2byte	0x2
 2699 026d 7D       		.byte	0x7d
 2700 026e 00       		.sleb128 0
 2701 026f 02000000 		.4byte	.LCFI4
 2702 0273 2E000000 		.4byte	.LFE11
 2703 0277 0200     		.2byte	0x2
 2704 0279 7D       		.byte	0x7d
 2705 027a 08       		.sleb128 8
 2706 027b 00000000 		.4byte	0
 2707 027f 00000000 		.4byte	0
 2708              	.LLST16:
 2709 0283 00000000 		.4byte	.LVL28
 2710 0287 1A000000 		.4byte	.LVL30
 2711 028b 0100     		.2byte	0x1
 2712 028d 50       		.byte	0x50
 2713 028e 1A000000 		.4byte	.LVL30
 2714 0292 1D000000 		.4byte	.LVL31-1
 2715 0296 0300     		.2byte	0x3
 2716 0298 70       		.byte	0x70
 2717 0299 70       		.sleb128 -16
 2718 029a 9F       		.byte	0x9f
 2719 029b 1D000000 		.4byte	.LVL31-1
 2720 029f 22000000 		.4byte	.LVL32
 2721 02a3 0400     		.2byte	0x4
 2722 02a5 F3       		.byte	0xf3
 2723 02a6 01       		.uleb128 0x1
 2724 02a7 50       		.byte	0x50
 2725 02a8 9F       		.byte	0x9f
ARM GAS  C:\Users\3130\AppData\Local\Temp\ccfnl2bd.s 			page 49


 2726 02a9 22000000 		.4byte	.LVL32
 2727 02ad 2A000000 		.4byte	.LVL35
 2728 02b1 0100     		.2byte	0x1
 2729 02b3 50       		.byte	0x50
 2730 02b4 2A000000 		.4byte	.LVL35
 2731 02b8 2E000000 		.4byte	.LFE11
 2732 02bc 0400     		.2byte	0x4
 2733 02be F3       		.byte	0xf3
 2734 02bf 01       		.uleb128 0x1
 2735 02c0 50       		.byte	0x50
 2736 02c1 9F       		.byte	0x9f
 2737 02c2 00000000 		.4byte	0
 2738 02c6 00000000 		.4byte	0
 2739              	.LLST17:
 2740 02ca 00000000 		.4byte	.LVL28
 2741 02ce 18000000 		.4byte	.LVL29
 2742 02d2 0100     		.2byte	0x1
 2743 02d4 51       		.byte	0x51
 2744 02d5 18000000 		.4byte	.LVL29
 2745 02d9 1A000000 		.4byte	.LVL30
 2746 02dd 0300     		.2byte	0x3
 2747 02df 70       		.byte	0x70
 2748 02e0 08       		.sleb128 8
 2749 02e1 06       		.byte	0x6
 2750 02e2 1A000000 		.4byte	.LVL30
 2751 02e6 1D000000 		.4byte	.LVL31-1
 2752 02ea 0300     		.2byte	0x3
 2753 02ec 70       		.byte	0x70
 2754 02ed 78       		.sleb128 -8
 2755 02ee 06       		.byte	0x6
 2756 02ef 1D000000 		.4byte	.LVL31-1
 2757 02f3 22000000 		.4byte	.LVL32
 2758 02f7 0400     		.2byte	0x4
 2759 02f9 F3       		.byte	0xf3
 2760 02fa 01       		.uleb128 0x1
 2761 02fb 51       		.byte	0x51
 2762 02fc 9F       		.byte	0x9f
 2763 02fd 22000000 		.4byte	.LVL32
 2764 0301 24000000 		.4byte	.LVL33
 2765 0305 0100     		.2byte	0x1
 2766 0307 51       		.byte	0x51
 2767 0308 24000000 		.4byte	.LVL33
 2768 030c 28000000 		.4byte	.LVL34
 2769 0310 0300     		.2byte	0x3
 2770 0312 70       		.byte	0x70
 2771 0313 08       		.sleb128 8
 2772 0314 06       		.byte	0x6
 2773 0315 28000000 		.4byte	.LVL34
 2774 0319 2E000000 		.4byte	.LFE11
 2775 031d 0100     		.2byte	0x1
 2776 031f 51       		.byte	0x51
 2777 0320 00000000 		.4byte	0
 2778 0324 00000000 		.4byte	0
 2779              	.LLST18:
 2780 0328 00000000 		.4byte	.LFB13
 2781 032c 02000000 		.4byte	.LCFI5
 2782 0330 0200     		.2byte	0x2
ARM GAS  C:\Users\3130\AppData\Local\Temp\ccfnl2bd.s 			page 50


 2783 0332 7D       		.byte	0x7d
 2784 0333 00       		.sleb128 0
 2785 0334 02000000 		.4byte	.LCFI5
 2786 0338 38000000 		.4byte	.LFE13
 2787 033c 0200     		.2byte	0x2
 2788 033e 7D       		.byte	0x7d
 2789 033f 10       		.sleb128 16
 2790 0340 00000000 		.4byte	0
 2791 0344 00000000 		.4byte	0
 2792              	.LLST19:
 2793 0348 00000000 		.4byte	.LVL36
 2794 034c 08000000 		.4byte	.LVL37
 2795 0350 0100     		.2byte	0x1
 2796 0352 50       		.byte	0x50
 2797 0353 08000000 		.4byte	.LVL37
 2798 0357 2E000000 		.4byte	.LVL44
 2799 035b 0100     		.2byte	0x1
 2800 035d 54       		.byte	0x54
 2801 035e 2E000000 		.4byte	.LVL44
 2802 0362 30000000 		.4byte	.LVL47
 2803 0366 0400     		.2byte	0x4
 2804 0368 F3       		.byte	0xf3
 2805 0369 01       		.uleb128 0x1
 2806 036a 50       		.byte	0x50
 2807 036b 9F       		.byte	0x9f
 2808 036c 30000000 		.4byte	.LVL47
 2809 0370 38000000 		.4byte	.LFE13
 2810 0374 0100     		.2byte	0x1
 2811 0376 54       		.byte	0x54
 2812 0377 00000000 		.4byte	0
 2813 037b 00000000 		.4byte	0
 2814              	.LLST20:
 2815 037f 00000000 		.4byte	.LVL36
 2816 0383 0A000000 		.4byte	.LVL38
 2817 0387 0100     		.2byte	0x1
 2818 0389 51       		.byte	0x51
 2819 038a 0A000000 		.4byte	.LVL38
 2820 038e 2E000000 		.4byte	.LVL46
 2821 0392 0100     		.2byte	0x1
 2822 0394 56       		.byte	0x56
 2823 0395 2E000000 		.4byte	.LVL46
 2824 0399 30000000 		.4byte	.LVL47
 2825 039d 0400     		.2byte	0x4
 2826 039f F3       		.byte	0xf3
 2827 03a0 01       		.uleb128 0x1
 2828 03a1 51       		.byte	0x51
 2829 03a2 9F       		.byte	0x9f
 2830 03a3 30000000 		.4byte	.LVL47
 2831 03a7 38000000 		.4byte	.LFE13
 2832 03ab 0100     		.2byte	0x1
 2833 03ad 56       		.byte	0x56
 2834 03ae 00000000 		.4byte	0
 2835 03b2 00000000 		.4byte	0
 2836              	.LLST21:
 2837 03b6 00000000 		.4byte	.LVL36
 2838 03ba 0D000000 		.4byte	.LVL39-1
 2839 03be 0100     		.2byte	0x1
ARM GAS  C:\Users\3130\AppData\Local\Temp\ccfnl2bd.s 			page 51


 2840 03c0 52       		.byte	0x52
 2841 03c1 0D000000 		.4byte	.LVL39-1
 2842 03c5 38000000 		.4byte	.LFE13
 2843 03c9 0400     		.2byte	0x4
 2844 03cb F3       		.byte	0xf3
 2845 03cc 01       		.uleb128 0x1
 2846 03cd 52       		.byte	0x52
 2847 03ce 9F       		.byte	0x9f
 2848 03cf 00000000 		.4byte	0
 2849 03d3 00000000 		.4byte	0
 2850              	.LLST22:
 2851 03d7 10000000 		.4byte	.LVL40
 2852 03db 20000000 		.4byte	.LVL41
 2853 03df 0100     		.2byte	0x1
 2854 03e1 50       		.byte	0x50
 2855 03e2 20000000 		.4byte	.LVL41
 2856 03e6 2E000000 		.4byte	.LVL45
 2857 03ea 0100     		.2byte	0x1
 2858 03ec 55       		.byte	0x55
 2859 03ed 2E000000 		.4byte	.LVL45
 2860 03f1 38000000 		.4byte	.LFE13
 2861 03f5 0100     		.2byte	0x1
 2862 03f7 50       		.byte	0x50
 2863 03f8 00000000 		.4byte	0
 2864 03fc 00000000 		.4byte	0
 2865              	.LLST23:
 2866 0400 00000000 		.4byte	.LFB12
 2867 0404 02000000 		.4byte	.LCFI6
 2868 0408 0200     		.2byte	0x2
 2869 040a 7D       		.byte	0x7d
 2870 040b 00       		.sleb128 0
 2871 040c 02000000 		.4byte	.LCFI6
 2872 0410 0C000000 		.4byte	.LFE12
 2873 0414 0200     		.2byte	0x2
 2874 0416 7D       		.byte	0x7d
 2875 0417 08       		.sleb128 8
 2876 0418 00000000 		.4byte	0
 2877 041c 00000000 		.4byte	0
 2878              	.LLST24:
 2879 0420 00000000 		.4byte	.LVL48
 2880 0424 07000000 		.4byte	.LVL49-1
 2881 0428 0100     		.2byte	0x1
 2882 042a 50       		.byte	0x50
 2883 042b 07000000 		.4byte	.LVL49-1
 2884 042f 0C000000 		.4byte	.LFE12
 2885 0433 0400     		.2byte	0x4
 2886 0435 F3       		.byte	0xf3
 2887 0436 01       		.uleb128 0x1
 2888 0437 50       		.byte	0x50
 2889 0438 9F       		.byte	0x9f
 2890 0439 00000000 		.4byte	0
 2891 043d 00000000 		.4byte	0
 2892              	.LLST25:
 2893 0441 00000000 		.4byte	.LVL48
 2894 0445 07000000 		.4byte	.LVL49-1
 2895 0449 0100     		.2byte	0x1
 2896 044b 51       		.byte	0x51
ARM GAS  C:\Users\3130\AppData\Local\Temp\ccfnl2bd.s 			page 52


 2897 044c 07000000 		.4byte	.LVL49-1
 2898 0450 0C000000 		.4byte	.LFE12
 2899 0454 0400     		.2byte	0x4
 2900 0456 F3       		.byte	0xf3
 2901 0457 01       		.uleb128 0x1
 2902 0458 51       		.byte	0x51
 2903 0459 9F       		.byte	0x9f
 2904 045a 00000000 		.4byte	0
 2905 045e 00000000 		.4byte	0
 2906              	.LLST26:
 2907 0462 00000000 		.4byte	.LVL48
 2908 0466 07000000 		.4byte	.LVL49-1
 2909 046a 0100     		.2byte	0x1
 2910 046c 52       		.byte	0x52
 2911 046d 07000000 		.4byte	.LVL49-1
 2912 0471 0C000000 		.4byte	.LFE12
 2913 0475 0400     		.2byte	0x4
 2914 0477 F3       		.byte	0xf3
 2915 0478 01       		.uleb128 0x1
 2916 0479 52       		.byte	0x52
 2917 047a 9F       		.byte	0x9f
 2918 047b 00000000 		.4byte	0
 2919 047f 00000000 		.4byte	0
 2920              	.LLST27:
 2921 0483 00000000 		.4byte	.LFB14
 2922 0487 02000000 		.4byte	.LCFI7
 2923 048b 0200     		.2byte	0x2
 2924 048d 7D       		.byte	0x7d
 2925 048e 00       		.sleb128 0
 2926 048f 02000000 		.4byte	.LCFI7
 2927 0493 32000000 		.4byte	.LFE14
 2928 0497 0200     		.2byte	0x2
 2929 0499 7D       		.byte	0x7d
 2930 049a 08       		.sleb128 8
 2931 049b 00000000 		.4byte	0
 2932 049f 00000000 		.4byte	0
 2933              	.LLST28:
 2934 04a3 00000000 		.4byte	.LVL50
 2935 04a7 1A000000 		.4byte	.LVL51
 2936 04ab 0100     		.2byte	0x1
 2937 04ad 50       		.byte	0x50
 2938 04ae 1A000000 		.4byte	.LVL51
 2939 04b2 1F000000 		.4byte	.LVL52-1
 2940 04b6 0300     		.2byte	0x3
 2941 04b8 70       		.byte	0x70
 2942 04b9 70       		.sleb128 -16
 2943 04ba 9F       		.byte	0x9f
 2944 04bb 1F000000 		.4byte	.LVL52-1
 2945 04bf 24000000 		.4byte	.LVL53
 2946 04c3 0400     		.2byte	0x4
 2947 04c5 F3       		.byte	0xf3
 2948 04c6 01       		.uleb128 0x1
 2949 04c7 50       		.byte	0x50
 2950 04c8 9F       		.byte	0x9f
 2951 04c9 24000000 		.4byte	.LVL53
 2952 04cd 2E000000 		.4byte	.LVL54
 2953 04d1 0100     		.2byte	0x1
ARM GAS  C:\Users\3130\AppData\Local\Temp\ccfnl2bd.s 			page 53


 2954 04d3 50       		.byte	0x50
 2955 04d4 2E000000 		.4byte	.LVL54
 2956 04d8 32000000 		.4byte	.LFE14
 2957 04dc 0400     		.2byte	0x4
 2958 04de F3       		.byte	0xf3
 2959 04df 01       		.uleb128 0x1
 2960 04e0 50       		.byte	0x50
 2961 04e1 9F       		.byte	0x9f
 2962 04e2 00000000 		.4byte	0
 2963 04e6 00000000 		.4byte	0
 2964              	.LLST29:
 2965 04ea 00000000 		.4byte	.LVL50
 2966 04ee 1F000000 		.4byte	.LVL52-1
 2967 04f2 0100     		.2byte	0x1
 2968 04f4 51       		.byte	0x51
 2969 04f5 1F000000 		.4byte	.LVL52-1
 2970 04f9 24000000 		.4byte	.LVL53
 2971 04fd 0400     		.2byte	0x4
 2972 04ff F3       		.byte	0xf3
 2973 0500 01       		.uleb128 0x1
 2974 0501 51       		.byte	0x51
 2975 0502 9F       		.byte	0x9f
 2976 0503 24000000 		.4byte	.LVL53
 2977 0507 32000000 		.4byte	.LFE14
 2978 050b 0100     		.2byte	0x1
 2979 050d 51       		.byte	0x51
 2980 050e 00000000 		.4byte	0
 2981 0512 00000000 		.4byte	0
 2982              	.LLST30:
 2983 0516 00000000 		.4byte	.LFB16
 2984 051a 02000000 		.4byte	.LCFI8
 2985 051e 0200     		.2byte	0x2
 2986 0520 7D       		.byte	0x7d
 2987 0521 00       		.sleb128 0
 2988 0522 02000000 		.4byte	.LCFI8
 2989 0526 36000000 		.4byte	.LFE16
 2990 052a 0200     		.2byte	0x2
 2991 052c 7D       		.byte	0x7d
 2992 052d 10       		.sleb128 16
 2993 052e 00000000 		.4byte	0
 2994 0532 00000000 		.4byte	0
 2995              	.LLST31:
 2996 0536 00000000 		.4byte	.LVL55
 2997 053a 08000000 		.4byte	.LVL56
 2998 053e 0100     		.2byte	0x1
 2999 0540 50       		.byte	0x50
 3000 0541 08000000 		.4byte	.LVL56
 3001 0545 2E000000 		.4byte	.LVL63
 3002 0549 0100     		.2byte	0x1
 3003 054b 54       		.byte	0x54
 3004 054c 2E000000 		.4byte	.LVL63
 3005 0550 30000000 		.4byte	.LVL66
 3006 0554 0400     		.2byte	0x4
 3007 0556 F3       		.byte	0xf3
 3008 0557 01       		.uleb128 0x1
 3009 0558 50       		.byte	0x50
 3010 0559 9F       		.byte	0x9f
ARM GAS  C:\Users\3130\AppData\Local\Temp\ccfnl2bd.s 			page 54


 3011 055a 30000000 		.4byte	.LVL66
 3012 055e 36000000 		.4byte	.LFE16
 3013 0562 0100     		.2byte	0x1
 3014 0564 54       		.byte	0x54
 3015 0565 00000000 		.4byte	0
 3016 0569 00000000 		.4byte	0
 3017              	.LLST32:
 3018 056d 00000000 		.4byte	.LVL55
 3019 0571 0A000000 		.4byte	.LVL57
 3020 0575 0100     		.2byte	0x1
 3021 0577 51       		.byte	0x51
 3022 0578 0A000000 		.4byte	.LVL57
 3023 057c 2E000000 		.4byte	.LVL65
 3024 0580 0100     		.2byte	0x1
 3025 0582 56       		.byte	0x56
 3026 0583 2E000000 		.4byte	.LVL65
 3027 0587 30000000 		.4byte	.LVL66
 3028 058b 0400     		.2byte	0x4
 3029 058d F3       		.byte	0xf3
 3030 058e 01       		.uleb128 0x1
 3031 058f 51       		.byte	0x51
 3032 0590 9F       		.byte	0x9f
 3033 0591 30000000 		.4byte	.LVL66
 3034 0595 36000000 		.4byte	.LFE16
 3035 0599 0100     		.2byte	0x1
 3036 059b 56       		.byte	0x56
 3037 059c 00000000 		.4byte	0
 3038 05a0 00000000 		.4byte	0
 3039              	.LLST33:
 3040 05a4 00000000 		.4byte	.LVL55
 3041 05a8 0D000000 		.4byte	.LVL58-1
 3042 05ac 0100     		.2byte	0x1
 3043 05ae 52       		.byte	0x52
 3044 05af 0D000000 		.4byte	.LVL58-1
 3045 05b3 36000000 		.4byte	.LFE16
 3046 05b7 0400     		.2byte	0x4
 3047 05b9 F3       		.byte	0xf3
 3048 05ba 01       		.uleb128 0x1
 3049 05bb 52       		.byte	0x52
 3050 05bc 9F       		.byte	0x9f
 3051 05bd 00000000 		.4byte	0
 3052 05c1 00000000 		.4byte	0
 3053              	.LLST34:
 3054 05c5 10000000 		.4byte	.LVL59
 3055 05c9 16000000 		.4byte	.LVL60
 3056 05cd 0100     		.2byte	0x1
 3057 05cf 50       		.byte	0x50
 3058 05d0 16000000 		.4byte	.LVL60
 3059 05d4 2E000000 		.4byte	.LVL64
 3060 05d8 0100     		.2byte	0x1
 3061 05da 55       		.byte	0x55
 3062 05db 2E000000 		.4byte	.LVL64
 3063 05df 30000000 		.4byte	.LVL66
 3064 05e3 0100     		.2byte	0x1
 3065 05e5 50       		.byte	0x50
 3066 05e6 30000000 		.4byte	.LVL66
 3067 05ea 36000000 		.4byte	.LFE16
ARM GAS  C:\Users\3130\AppData\Local\Temp\ccfnl2bd.s 			page 55


 3068 05ee 0100     		.2byte	0x1
 3069 05f0 55       		.byte	0x55
 3070 05f1 00000000 		.4byte	0
 3071 05f5 00000000 		.4byte	0
 3072              	.LLST35:
 3073 05f9 00000000 		.4byte	.LFB15
 3074 05fd 02000000 		.4byte	.LCFI9
 3075 0601 0200     		.2byte	0x2
 3076 0603 7D       		.byte	0x7d
 3077 0604 00       		.sleb128 0
 3078 0605 02000000 		.4byte	.LCFI9
 3079 0609 0C000000 		.4byte	.LFE15
 3080 060d 0200     		.2byte	0x2
 3081 060f 7D       		.byte	0x7d
 3082 0610 08       		.sleb128 8
 3083 0611 00000000 		.4byte	0
 3084 0615 00000000 		.4byte	0
 3085              	.LLST36:
 3086 0619 00000000 		.4byte	.LVL67
 3087 061d 07000000 		.4byte	.LVL68-1
 3088 0621 0100     		.2byte	0x1
 3089 0623 50       		.byte	0x50
 3090 0624 07000000 		.4byte	.LVL68-1
 3091 0628 0C000000 		.4byte	.LFE15
 3092 062c 0400     		.2byte	0x4
 3093 062e F3       		.byte	0xf3
 3094 062f 01       		.uleb128 0x1
 3095 0630 50       		.byte	0x50
 3096 0631 9F       		.byte	0x9f
 3097 0632 00000000 		.4byte	0
 3098 0636 00000000 		.4byte	0
 3099              	.LLST37:
 3100 063a 00000000 		.4byte	.LVL67
 3101 063e 07000000 		.4byte	.LVL68-1
 3102 0642 0100     		.2byte	0x1
 3103 0644 51       		.byte	0x51
 3104 0645 07000000 		.4byte	.LVL68-1
 3105 0649 0C000000 		.4byte	.LFE15
 3106 064d 0400     		.2byte	0x4
 3107 064f F3       		.byte	0xf3
 3108 0650 01       		.uleb128 0x1
 3109 0651 51       		.byte	0x51
 3110 0652 9F       		.byte	0x9f
 3111 0653 00000000 		.4byte	0
 3112 0657 00000000 		.4byte	0
 3113              	.LLST38:
 3114 065b 00000000 		.4byte	.LVL67
 3115 065f 07000000 		.4byte	.LVL68-1
 3116 0663 0100     		.2byte	0x1
 3117 0665 52       		.byte	0x52
 3118 0666 07000000 		.4byte	.LVL68-1
 3119 066a 0C000000 		.4byte	.LFE15
 3120 066e 0400     		.2byte	0x4
 3121 0670 F3       		.byte	0xf3
 3122 0671 01       		.uleb128 0x1
 3123 0672 52       		.byte	0x52
 3124 0673 9F       		.byte	0x9f
ARM GAS  C:\Users\3130\AppData\Local\Temp\ccfnl2bd.s 			page 56


 3125 0674 00000000 		.4byte	0
 3126 0678 00000000 		.4byte	0
 3127              	.LLST39:
 3128 067c 00000000 		.4byte	.LFB17
 3129 0680 02000000 		.4byte	.LCFI10
 3130 0684 0200     		.2byte	0x2
 3131 0686 7D       		.byte	0x7d
 3132 0687 00       		.sleb128 0
 3133 0688 02000000 		.4byte	.LCFI10
 3134 068c 30000000 		.4byte	.LFE17
 3135 0690 0200     		.2byte	0x2
 3136 0692 7D       		.byte	0x7d
 3137 0693 08       		.sleb128 8
 3138 0694 00000000 		.4byte	0
 3139 0698 00000000 		.4byte	0
 3140              	.LLST40:
 3141 069c 00000000 		.4byte	.LVL69
 3142 06a0 1C000000 		.4byte	.LVL71
 3143 06a4 0100     		.2byte	0x1
 3144 06a6 50       		.byte	0x50
 3145 06a7 1C000000 		.4byte	.LVL71
 3146 06ab 1F000000 		.4byte	.LVL72-1
 3147 06af 0300     		.2byte	0x3
 3148 06b1 70       		.byte	0x70
 3149 06b2 64       		.sleb128 -28
 3150 06b3 9F       		.byte	0x9f
 3151 06b4 1F000000 		.4byte	.LVL72-1
 3152 06b8 24000000 		.4byte	.LVL73
 3153 06bc 0400     		.2byte	0x4
 3154 06be F3       		.byte	0xf3
 3155 06bf 01       		.uleb128 0x1
 3156 06c0 50       		.byte	0x50
 3157 06c1 9F       		.byte	0x9f
 3158 06c2 24000000 		.4byte	.LVL73
 3159 06c6 2C000000 		.4byte	.LVL75
 3160 06ca 0100     		.2byte	0x1
 3161 06cc 50       		.byte	0x50
 3162 06cd 2C000000 		.4byte	.LVL75
 3163 06d1 30000000 		.4byte	.LFE17
 3164 06d5 0400     		.2byte	0x4
 3165 06d7 F3       		.byte	0xf3
 3166 06d8 01       		.uleb128 0x1
 3167 06d9 50       		.byte	0x50
 3168 06da 9F       		.byte	0x9f
 3169 06db 00000000 		.4byte	0
 3170 06df 00000000 		.4byte	0
 3171              	.LLST41:
 3172 06e3 00000000 		.4byte	.LVL69
 3173 06e7 14000000 		.4byte	.LVL70
 3174 06eb 0100     		.2byte	0x1
 3175 06ed 51       		.byte	0x51
 3176 06ee 14000000 		.4byte	.LVL70
 3177 06f2 2A000000 		.4byte	.LVL74
 3178 06f6 0400     		.2byte	0x4
 3179 06f8 F3       		.byte	0xf3
 3180 06f9 01       		.uleb128 0x1
 3181 06fa 51       		.byte	0x51
ARM GAS  C:\Users\3130\AppData\Local\Temp\ccfnl2bd.s 			page 57


 3182 06fb 9F       		.byte	0x9f
 3183 06fc 2A000000 		.4byte	.LVL74
 3184 0700 30000000 		.4byte	.LFE17
 3185 0704 0100     		.2byte	0x1
 3186 0706 51       		.byte	0x51
 3187 0707 00000000 		.4byte	0
 3188 070b 00000000 		.4byte	0
 3189              		.section	.debug_aranges,"",%progbits
 3190 0000 6C000000 		.4byte	0x6c
 3191 0004 0200     		.2byte	0x2
 3192 0006 00000000 		.4byte	.Ldebug_info0
 3193 000a 04       		.byte	0x4
 3194 000b 00       		.byte	0
 3195 000c 0000     		.2byte	0
 3196 000e 0000     		.2byte	0
 3197 0010 00000000 		.4byte	.LFB7
 3198 0014 26000000 		.4byte	.LFE7-.LFB7
 3199 0018 00000000 		.4byte	.LFB8
 3200 001c 2A000000 		.4byte	.LFE8-.LFB8
 3201 0020 00000000 		.4byte	.LFB10
 3202 0024 34000000 		.4byte	.LFE10-.LFB10
 3203 0028 00000000 		.4byte	.LFB9
 3204 002c 0C000000 		.4byte	.LFE9-.LFB9
 3205 0030 00000000 		.4byte	.LFB11
 3206 0034 2E000000 		.4byte	.LFE11-.LFB11
 3207 0038 00000000 		.4byte	.LFB13
 3208 003c 38000000 		.4byte	.LFE13-.LFB13
 3209 0040 00000000 		.4byte	.LFB12
 3210 0044 0C000000 		.4byte	.LFE12-.LFB12
 3211 0048 00000000 		.4byte	.LFB14
 3212 004c 32000000 		.4byte	.LFE14-.LFB14
 3213 0050 00000000 		.4byte	.LFB16
 3214 0054 36000000 		.4byte	.LFE16-.LFB16
 3215 0058 00000000 		.4byte	.LFB15
 3216 005c 0C000000 		.4byte	.LFE15-.LFB15
 3217 0060 00000000 		.4byte	.LFB17
 3218 0064 30000000 		.4byte	.LFE17-.LFB17
 3219 0068 00000000 		.4byte	0
 3220 006c 00000000 		.4byte	0
 3221              		.section	.debug_ranges,"",%progbits
 3222              	.Ldebug_ranges0:
 3223 0000 00000000 		.4byte	.LFB7
 3224 0004 26000000 		.4byte	.LFE7
 3225 0008 00000000 		.4byte	.LFB8
 3226 000c 2A000000 		.4byte	.LFE8
 3227 0010 00000000 		.4byte	.LFB10
 3228 0014 34000000 		.4byte	.LFE10
 3229 0018 00000000 		.4byte	.LFB9
 3230 001c 0C000000 		.4byte	.LFE9
 3231 0020 00000000 		.4byte	.LFB11
 3232 0024 2E000000 		.4byte	.LFE11
 3233 0028 00000000 		.4byte	.LFB13
 3234 002c 38000000 		.4byte	.LFE13
 3235 0030 00000000 		.4byte	.LFB12
 3236 0034 0C000000 		.4byte	.LFE12
 3237 0038 00000000 		.4byte	.LFB14
 3238 003c 32000000 		.4byte	.LFE14
ARM GAS  C:\Users\3130\AppData\Local\Temp\ccfnl2bd.s 			page 58


 3239 0040 00000000 		.4byte	.LFB16
 3240 0044 36000000 		.4byte	.LFE16
 3241 0048 00000000 		.4byte	.LFB15
 3242 004c 0C000000 		.4byte	.LFE15
 3243 0050 00000000 		.4byte	.LFB17
 3244 0054 30000000 		.4byte	.LFE17
 3245 0058 00000000 		.4byte	0
 3246 005c 00000000 		.4byte	0
 3247              		.section	.debug_line,"",%progbits
 3248              	.Ldebug_line0:
 3249 0000 8F020000 		.section	.debug_str,"MS",%progbits,1
 3249      02007801 
 3249      00000201 
 3249      FB0E0D00 
 3249      01010101 
 3250              	.LASF37:
 3251 0000 705F6D73 		.ascii	"p_msg\000"
 3251      6700
 3252              	.LASF87:
 3253 0006 63685365 		.ascii	"chSemSignalI\000"
 3253      6D536967 
 3253      6E616C49 
 3253      00
 3254              	.LASF62:
 3255 0013 7264796D 		.ascii	"rdymsg\000"
 3255      736700
 3256              	.LASF1:
 3257 001a 7369676E 		.ascii	"signed char\000"
 3257      65642063 
 3257      68617200 
 3258              	.LASF72:
 3259 0026 63684D42 		.ascii	"chMBPostI\000"
 3259      506F7374 
 3259      4900
 3260              	.LASF70:
 3261 0030 63684D42 		.ascii	"chMBPostS\000"
 3261      506F7374 
 3261      5300
 3262              	.LASF61:
 3263 003a 4D61696C 		.ascii	"Mailbox\000"
 3263      626F7800 
 3264              	.LASF75:
 3265 0042 63684D42 		.ascii	"chMBPostAheadI\000"
 3265      506F7374 
 3265      41686561 
 3265      644900
 3266              	.LASF11:
 3267 0051 6C6F6E67 		.ascii	"long long unsigned int\000"
 3267      206C6F6E 
 3267      6720756E 
 3267      7369676E 
 3267      65642069 
 3268              	.LASF63:
 3269 0068 65786974 		.ascii	"exitcode\000"
 3269      636F6465 
 3269      00
 3270              	.LASF73:
ARM GAS  C:\Users\3130\AppData\Local\Temp\ccfnl2bd.s 			page 59


 3271 0071 63684D42 		.ascii	"chMBPostAheadS\000"
 3271      506F7374 
 3271      41686561 
 3271      645300
 3272              	.LASF57:
 3273 0080 6D625F77 		.ascii	"mb_wrptr\000"
 3273      72707472 
 3273      00
 3274              	.LASF25:
 3275 0089 705F7072 		.ascii	"p_prio\000"
 3275      696F00
 3276              	.LASF10:
 3277 0090 6C6F6E67 		.ascii	"long long int\000"
 3277      206C6F6E 
 3277      6720696E 
 3277      7400
 3278              	.LASF83:
 3279 009e 2E2E2F2E 		.ascii	"../../ChibiOS_2.6.1/os/kernel/src/chmboxes.c\000"
 3279      2E2F4368 
 3279      6962694F 
 3279      535F322E 
 3279      362E312F 
 3280              	.LASF41:
 3281 00cb 705F6D70 		.ascii	"p_mpool\000"
 3281      6F6F6C00 
 3282              	.LASF52:
 3283 00d3 6D5F7175 		.ascii	"m_queue\000"
 3283      65756500 
 3284              	.LASF16:
 3285 00db 74736C69 		.ascii	"tslices_t\000"
 3285      6365735F 
 3285      7400
 3286              	.LASF7:
 3287 00e5 6C6F6E67 		.ascii	"long int\000"
 3287      20696E74 
 3287      00
 3288              	.LASF14:
 3289 00ee 74737461 		.ascii	"tstate_t\000"
 3289      74655F74 
 3289      00
 3290              	.LASF27:
 3291 00f7 705F6E65 		.ascii	"p_newer\000"
 3291      77657200 
 3292              	.LASF49:
 3293 00ff 735F7175 		.ascii	"s_queue\000"
 3293      65756500 
 3294              	.LASF85:
 3295 0107 63685363 		.ascii	"chSchRescheduleS\000"
 3295      68526573 
 3295      63686564 
 3295      756C6553 
 3295      00
 3296              	.LASF44:
 3297 0118 72656761 		.ascii	"regarm_t\000"
 3297      726D5F74 
 3297      00
 3298              	.LASF74:
ARM GAS  C:\Users\3130\AppData\Local\Temp\ccfnl2bd.s 			page 60


 3299 0121 63684D42 		.ascii	"chMBPostAhead\000"
 3299      506F7374 
 3299      41686561 
 3299      6400
 3300              	.LASF21:
 3301 012f 636E745F 		.ascii	"cnt_t\000"
 3301      7400
 3302              	.LASF0:
 3303 0135 756E7369 		.ascii	"unsigned int\000"
 3303      676E6564 
 3303      20696E74 
 3303      00
 3304              	.LASF67:
 3305 0142 63684D42 		.ascii	"chMBInit\000"
 3305      496E6974 
 3305      00
 3306              	.LASF9:
 3307 014b 6C6F6E67 		.ascii	"long unsigned int\000"
 3307      20756E73 
 3307      69676E65 
 3307      6420696E 
 3307      7400
 3308              	.LASF60:
 3309 015d 6D625F65 		.ascii	"mb_emptysem\000"
 3309      6D707479 
 3309      73656D00 
 3310              	.LASF50:
 3311 0169 735F636E 		.ascii	"s_cnt\000"
 3311      7400
 3312              	.LASF46:
 3313 016f 636F6E74 		.ascii	"context\000"
 3313      65787400 
 3314              	.LASF4:
 3315 0177 73686F72 		.ascii	"short unsigned int\000"
 3315      7420756E 
 3315      7369676E 
 3315      65642069 
 3315      6E7400
 3316              	.LASF79:
 3317 018a 63684D42 		.ascii	"chMBFetchI\000"
 3317      46657463 
 3317      684900
 3318              	.LASF18:
 3319 0195 6D73675F 		.ascii	"msg_t\000"
 3319      7400
 3320              	.LASF76:
 3321 019b 63684D42 		.ascii	"chMBFetchS\000"
 3321      46657463 
 3321      685300
 3322              	.LASF13:
 3323 01a6 746D6F64 		.ascii	"tmode_t\000"
 3323      655F7400 
 3324              	.LASF43:
 3325 01ae 54687265 		.ascii	"ThreadsList\000"
 3325      6164734C 
 3325      69737400 
 3326              	.LASF19:
ARM GAS  C:\Users\3130\AppData\Local\Temp\ccfnl2bd.s 			page 61


 3327 01ba 6576656E 		.ascii	"eventmask_t\000"
 3327      746D6173 
 3327      6B5F7400 
 3328              	.LASF51:
 3329 01c6 4D757465 		.ascii	"Mutex\000"
 3329      7800
 3330              	.LASF77:
 3331 01cc 6D736770 		.ascii	"msgp\000"
 3331      00
 3332              	.LASF47:
 3333 01d1 73697A65 		.ascii	"sizetype\000"
 3333      74797065 
 3333      00
 3334              	.LASF58:
 3335 01da 6D625F72 		.ascii	"mb_rdptr\000"
 3335      64707472 
 3335      00
 3336              	.LASF68:
 3337 01e3 63684D42 		.ascii	"chMBReset\000"
 3337      52657365 
 3337      7400
 3338              	.LASF28:
 3339 01ed 705F6F6C 		.ascii	"p_older\000"
 3339      64657200 
 3340              	.LASF42:
 3341 01f5 54687265 		.ascii	"ThreadsQueue\000"
 3341      61647351 
 3341      75657565 
 3341      00
 3342              	.LASF55:
 3343 0202 6D625F62 		.ascii	"mb_buffer\000"
 3343      75666665 
 3343      7200
 3344              	.LASF69:
 3345 020c 74696D65 		.ascii	"time\000"
 3345      00
 3346              	.LASF15:
 3347 0211 74726566 		.ascii	"trefs_t\000"
 3347      735F7400 
 3348              	.LASF24:
 3349 0219 705F7072 		.ascii	"p_prev\000"
 3349      657600
 3350              	.LASF17:
 3351 0220 74707269 		.ascii	"tprio_t\000"
 3351      6F5F7400 
 3352              	.LASF12:
 3353 0228 5F426F6F 		.ascii	"_Bool\000"
 3353      6C00
 3354              	.LASF6:
 3355 022e 696E7433 		.ascii	"int32_t\000"
 3355      325F7400 
 3356              	.LASF2:
 3357 0236 756E7369 		.ascii	"unsigned char\000"
 3357      676E6564 
 3357      20636861 
 3357      7200
 3358              	.LASF56:
ARM GAS  C:\Users\3130\AppData\Local\Temp\ccfnl2bd.s 			page 62


 3359 0244 6D625F74 		.ascii	"mb_top\000"
 3359      6F7000
 3360              	.LASF39:
 3361 024b 705F6D74 		.ascii	"p_mtxlist\000"
 3361      786C6973 
 3361      7400
 3362              	.LASF3:
 3363 0255 73686F72 		.ascii	"short int\000"
 3363      7420696E 
 3363      7400
 3364              	.LASF30:
 3365 025f 705F7374 		.ascii	"p_state\000"
 3365      61746500 
 3366              	.LASF33:
 3367 0267 705F7072 		.ascii	"p_preempt\000"
 3367      65656D70 
 3367      7400
 3368              	.LASF65:
 3369 0271 65776D61 		.ascii	"ewmask\000"
 3369      736B00
 3370              	.LASF23:
 3371 0278 705F6E65 		.ascii	"p_next\000"
 3371      787400
 3372              	.LASF31:
 3373 027f 705F666C 		.ascii	"p_flags\000"
 3373      61677300 
 3374              	.LASF71:
 3375 0287 63684D42 		.ascii	"chMBPost\000"
 3375      506F7374 
 3375      00
 3376              	.LASF22:
 3377 0290 54687265 		.ascii	"Thread\000"
 3377      616400
 3378              	.LASF38:
 3379 0297 705F6570 		.ascii	"p_epending\000"
 3379      656E6469 
 3379      6E6700
 3380              	.LASF8:
 3381 02a2 75696E74 		.ascii	"uint32_t\000"
 3381      33325F74 
 3381      00
 3382              	.LASF66:
 3383 02ab 63686172 		.ascii	"char\000"
 3383      00
 3384              	.LASF86:
 3385 02b0 63685365 		.ascii	"chSemWaitTimeoutS\000"
 3385      6D576169 
 3385      7454696D 
 3385      656F7574 
 3385      5300
 3386              	.LASF54:
 3387 02c2 6D5F6E65 		.ascii	"m_next\000"
 3387      787400
 3388              	.LASF20:
 3389 02c9 73797374 		.ascii	"systime_t\000"
 3389      696D655F 
 3389      7400
ARM GAS  C:\Users\3130\AppData\Local\Temp\ccfnl2bd.s 			page 63


 3390              	.LASF40:
 3391 02d3 705F7265 		.ascii	"p_realprio\000"
 3391      616C7072 
 3391      696F00
 3392              	.LASF34:
 3393 02de 705F7469 		.ascii	"p_time\000"
 3393      6D6500
 3394              	.LASF84:
 3395 02e5 433A5C73 		.ascii	"C:\\stm32f0-Discovery_Tools\\Projects\\ChibiOS_Temp"
 3395      746D3332 
 3395      66302D44 
 3395      6973636F 
 3395      76657279 
 3396 0315 6C617465 		.ascii	"late\000"
 3396      00
 3397              	.LASF45:
 3398 031a 696E7463 		.ascii	"intctx\000"
 3398      747800
 3399              	.LASF36:
 3400 0321 705F6D73 		.ascii	"p_msgqueue\000"
 3400      67717565 
 3400      756500
 3401              	.LASF78:
 3402 032c 63684D42 		.ascii	"chMBFetch\000"
 3402      46657463 
 3402      6800
 3403              	.LASF48:
 3404 0336 53656D61 		.ascii	"Semaphore\000"
 3404      70686F72 
 3404      6500
 3405              	.LASF59:
 3406 0340 6D625F66 		.ascii	"mb_fullsem\000"
 3406      756C6C73 
 3406      656D00
 3407              	.LASF32:
 3408 034b 705F7265 		.ascii	"p_refs\000"
 3408      667300
 3409              	.LASF81:
 3410 0352 63685365 		.ascii	"chSemResetI\000"
 3410      6D526573 
 3410      65744900 
 3411              	.LASF5:
 3412 035e 75696E74 		.ascii	"uint8_t\000"
 3412      385F7400 
 3413              	.LASF82:
 3414 0366 474E5520 		.ascii	"GNU C 4.7.4 20130913 (prerelease)\000"
 3414      4320342E 
 3414      372E3420 
 3414      32303133 
 3414      30393133 
 3415              	.LASF64:
 3416 0388 77746F62 		.ascii	"wtobjp\000"
 3416      6A7000
 3417              	.LASF29:
 3418 038f 705F6E61 		.ascii	"p_name\000"
 3418      6D6500
 3419              	.LASF53:
ARM GAS  C:\Users\3130\AppData\Local\Temp\ccfnl2bd.s 			page 64


 3420 0396 6D5F6F77 		.ascii	"m_owner\000"
 3420      6E657200 
 3421              	.LASF26:
 3422 039e 705F6374 		.ascii	"p_ctx\000"
 3422      7800
 3423              	.LASF35:
 3424 03a4 705F7761 		.ascii	"p_waiting\000"
 3424      6974696E 
 3424      6700
 3425              	.LASF80:
 3426 03ae 63685365 		.ascii	"chSemInit\000"
 3426      6D496E69 
 3426      7400
 3427              		.ident	"GCC: (GNU Tools for ARM Embedded Processors / bleeding-edge-toolchain-131005) 4.7.4 201309
ARM GAS  C:\Users\3130\AppData\Local\Temp\ccfnl2bd.s 			page 65


DEFINED SYMBOLS
                            *ABS*:00000000 chmboxes.c
C:\Users\3130\AppData\Local\Temp\ccfnl2bd.s:18     .text.chMBInit:00000000 $t
C:\Users\3130\AppData\Local\Temp\ccfnl2bd.s:24     .text.chMBInit:00000000 chMBInit
C:\Users\3130\AppData\Local\Temp\ccfnl2bd.s:69     .text.chMBReset:00000000 $t
C:\Users\3130\AppData\Local\Temp\ccfnl2bd.s:75     .text.chMBReset:00000000 chMBReset
C:\Users\3130\AppData\Local\Temp\ccfnl2bd.s:130    .text.chMBPostS:00000000 $t
C:\Users\3130\AppData\Local\Temp\ccfnl2bd.s:136    .text.chMBPostS:00000000 chMBPostS
C:\Users\3130\AppData\Local\Temp\ccfnl2bd.s:201    .text.chMBPost:00000000 $t
C:\Users\3130\AppData\Local\Temp\ccfnl2bd.s:207    .text.chMBPost:00000000 chMBPost
C:\Users\3130\AppData\Local\Temp\ccfnl2bd.s:237    .text.chMBPostI:00000000 $t
C:\Users\3130\AppData\Local\Temp\ccfnl2bd.s:243    .text.chMBPostI:00000000 chMBPostI
C:\Users\3130\AppData\Local\Temp\ccfnl2bd.s:301    .text.chMBPostAheadS:00000000 $t
C:\Users\3130\AppData\Local\Temp\ccfnl2bd.s:307    .text.chMBPostAheadS:00000000 chMBPostAheadS
C:\Users\3130\AppData\Local\Temp\ccfnl2bd.s:372    .text.chMBPostAhead:00000000 $t
C:\Users\3130\AppData\Local\Temp\ccfnl2bd.s:378    .text.chMBPostAhead:00000000 chMBPostAhead
C:\Users\3130\AppData\Local\Temp\ccfnl2bd.s:408    .text.chMBPostAheadI:00000000 $t
C:\Users\3130\AppData\Local\Temp\ccfnl2bd.s:414    .text.chMBPostAheadI:00000000 chMBPostAheadI
C:\Users\3130\AppData\Local\Temp\ccfnl2bd.s:470    .text.chMBFetchS:00000000 $t
C:\Users\3130\AppData\Local\Temp\ccfnl2bd.s:476    .text.chMBFetchS:00000000 chMBFetchS
C:\Users\3130\AppData\Local\Temp\ccfnl2bd.s:541    .text.chMBFetch:00000000 $t
C:\Users\3130\AppData\Local\Temp\ccfnl2bd.s:547    .text.chMBFetch:00000000 chMBFetch
C:\Users\3130\AppData\Local\Temp\ccfnl2bd.s:577    .text.chMBFetchI:00000000 $t
C:\Users\3130\AppData\Local\Temp\ccfnl2bd.s:583    .text.chMBFetchI:00000000 chMBFetchI
                     .debug_frame:00000010 $d

UNDEFINED SYMBOLS
chSemInit
chSemResetI
chSchRescheduleS
chSemWaitTimeoutS
chSemSignalI
