ARM GAS  C:\Users\3130\AppData\Local\Temp\ccfnl2bd.s 			page 1


   1              		.cpu cortex-m0
   2              		.fpu softvfp
   3              		.eabi_attribute 20, 1
   4              		.eabi_attribute 21, 1
   5              		.eabi_attribute 23, 3
   6              		.eabi_attribute 24, 1
   7              		.eabi_attribute 25, 1
   8              		.eabi_attribute 26, 1
   9              		.eabi_attribute 30, 2
  10              		.eabi_attribute 34, 0
  11              		.eabi_attribute 18, 4
  12              		.code	16
  13              		.file	"chmboxes.c"
  14              		.text
  15              	.Ltext0:
  16              		.cfi_sections	.debug_frame
  17              		.section	.text.chMBInit,"ax",%progbits
  18              		.align	2
  19              		.p2align 4,,15
  20              		.global	chMBInit
  21              		.code	16
  22              		.thumb_func
  23              		.type	chMBInit, %function
  24              	chMBInit:
  25              	.LFB7:
  26              		.file 1 "../../ChibiOS_2.6.1/os/kernel/src/chmboxes.c"
  27              		.loc 1 72 0
  28              		.cfi_startproc
  29              	.LVL0:
  30 0000 10B5     		push	{r4, lr}
  31              	.LCFI0:
  32              		.cfi_def_cfa_offset 8
  33              		.cfi_offset 4, -8
  34              		.cfi_offset 14, -4
  35              		.loc 1 72 0
  36 0002 041C     		mov	r4, r0
  37              		.loc 1 76 0
  38 0004 E160     		str	r1, [r4, #12]
  39 0006 A160     		str	r1, [r4, #8]
  40 0008 2160     		str	r1, [r4]
  41              		.loc 1 72 0
  42 000a 0B1C     		mov	r3, r1
  43              		.loc 1 77 0
  44 000c 9100     		lsl	r1, r2, #2
  45              	.LVL1:
  46 000e 5B18     		add	r3, r3, r1
  47              	.LVL2:
  48 0010 4360     		str	r3, [r0, #4]
  49              		.loc 1 78 0
  50 0012 111C     		mov	r1, r2
  51 0014 1C30     		add	r0, r0, #28
  52              	.LVL3:
  53 0016 FFF7FEFF 		bl	chSemInit
  54              	.LVL4:
  55              		.loc 1 79 0
  56 001a 201C     		mov	r0, r4
  57 001c 1030     		add	r0, r0, #16
ARM GAS  C:\Users\3130\AppData\Local\Temp\ccfnl2bd.s 			page 2


  58 001e 0021     		mov	r1, #0
  59 0020 FFF7FEFF 		bl	chSemInit
  60              	.LVL5:
  61              		.loc 1 80 0
  62              		@ sp needed for prologue
  63              	.LVL6:
  64 0024 10BD     		pop	{r4, pc}
  65              		.cfi_endproc
  66              	.LFE7:
  67              		.size	chMBInit, .-chMBInit
  68 0026 C046C046 		.section	.text.chMBReset,"ax",%progbits
  68      C046C046 
  68      C046
  69              		.align	2
  70              		.p2align 4,,15
  71              		.global	chMBReset
  72              		.code	16
  73              		.thumb_func
  74              		.type	chMBReset, %function
  75              	chMBReset:
  76              	.LFB8:
  77              		.loc 1 91 0
  78              		.cfi_startproc
  79              	.LVL7:
  80 0000 10B5     		push	{r4, lr}
  81              	.LCFI1:
  82              		.cfi_def_cfa_offset 8
  83              		.cfi_offset 4, -8
  84              		.cfi_offset 14, -4
  85              		.loc 1 91 0
  86 0002 041C     		mov	r4, r0
  87              		.loc 1 95 0
  88              	@ 95 "../../ChibiOS_2.6.1/os/kernel/src/chmboxes.c" 1
  89 0004 72B6     		cpsid   i
  90              	@ 0 "" 2
  91              		.loc 1 96 0
  92              		.code	16
  93 0006 0168     		ldr	r1, [r0]
  94              		.loc 1 97 0
  95 0008 6368     		ldr	r3, [r4, #4]
  96              		.loc 1 96 0
  97 000a C160     		str	r1, [r0, #12]
  98              		.loc 1 97 0
  99 000c 5A1A     		sub	r2, r3, r1
 100              		.loc 1 96 0
 101 000e 8160     		str	r1, [r0, #8]
 102              		.loc 1 97 0
 103 0010 9110     		asr	r1, r2, #2
 104 0012 1C30     		add	r0, r0, #28
 105              	.LVL8:
 106 0014 FFF7FEFF 		bl	chSemResetI
 107              	.LVL9:
 108              		.loc 1 98 0
 109 0018 201C     		mov	r0, r4
 110 001a 1030     		add	r0, r0, #16
 111 001c 0021     		mov	r1, #0
 112 001e FFF7FEFF 		bl	chSemResetI
ARM GAS  C:\Users\3130\AppData\Local\Temp\ccfnl2bd.s 			page 3


 113              	.LVL10:
 114              		.loc 1 99 0
 115 0022 FFF7FEFF 		bl	chSchRescheduleS
 116              	.LVL11:
 117              		.loc 1 100 0
 118              	@ 100 "../../ChibiOS_2.6.1/os/kernel/src/chmboxes.c" 1
 119 0026 62B6     		cpsie   i
 120              	@ 0 "" 2
 121              		.loc 1 101 0
 122              		.code	16
 123              		@ sp needed for prologue
 124              	.LVL12:
 125 0028 10BD     		pop	{r4, pc}
 126              		.cfi_endproc
 127              	.LFE8:
 128              		.size	chMBReset, .-chMBReset
 129 002a C046C046 		.section	.text.chMBPostS,"ax",%progbits
 129      C046
 130              		.align	2
 131              		.p2align 4,,15
 132              		.global	chMBPostS
 133              		.code	16
 134              		.thumb_func
 135              		.type	chMBPostS, %function
 136              	chMBPostS:
 137              	.LFB10:
 138              		.loc 1 150 0
 139              		.cfi_startproc
 140              	.LVL13:
 141 0000 70B5     		push	{r4, r5, r6, lr}
 142              	.LCFI2:
 143              		.cfi_def_cfa_offset 16
 144              		.cfi_offset 4, -16
 145              		.cfi_offset 5, -12
 146              		.cfi_offset 6, -8
 147              		.cfi_offset 14, -4
 148              		.loc 1 150 0
 149 0002 041C     		mov	r4, r0
 150 0004 0E1C     		mov	r6, r1
 151              		.loc 1 156 0
 152 0006 1C30     		add	r0, r0, #28
 153              	.LVL14:
 154 0008 111C     		mov	r1, r2
 155              	.LVL15:
 156 000a FFF7FEFF 		bl	chSemWaitTimeoutS
 157              	.LVL16:
 158 000e 051E     		sub	r5, r0, #0
 159              	.LVL17:
 160              		.loc 1 157 0
 161 0010 0BD1     		bne	.L4
 162              		.loc 1 158 0
 163 0012 A368     		ldr	r3, [r4, #8]
 164              		.loc 1 159 0
 165 0014 6268     		ldr	r2, [r4, #4]
 166              		.loc 1 158 0
 167 0016 40C3     		stmia	r3!, {r6}
 168 0018 A360     		str	r3, [r4, #8]
ARM GAS  C:\Users\3130\AppData\Local\Temp\ccfnl2bd.s 			page 4


 169              		.loc 1 159 0
 170 001a 9342     		cmp	r3, r2
 171 001c 07D2     		bcs	.L7
 172              	.LVL18:
 173              	.L5:
 174              		.loc 1 161 0
 175 001e 201C     		mov	r0, r4
 176 0020 1030     		add	r0, r0, #16
 177 0022 FFF7FEFF 		bl	chSemSignalI
 178              	.LVL19:
 179              		.loc 1 162 0
 180 0026 FFF7FEFF 		bl	chSchRescheduleS
 181              	.LVL20:
 182              	.L4:
 183              		.loc 1 165 0
 184 002a 281C     		mov	r0, r5
 185              		@ sp needed for prologue
 186              	.LVL21:
 187              	.LVL22:
 188              	.LVL23:
 189 002c 70BD     		pop	{r4, r5, r6, pc}
 190              	.LVL24:
 191              	.L7:
 192              		.loc 1 160 0
 193 002e 2068     		ldr	r0, [r4]
 194              	.LVL25:
 195 0030 A060     		str	r0, [r4, #8]
 196 0032 F4E7     		b	.L5
 197              		.cfi_endproc
 198              	.LFE10:
 199              		.size	chMBPostS, .-chMBPostS
 200 0034 C046C046 		.section	.text.chMBPost,"ax",%progbits
 200      C046C046 
 200      C046C046 
 201              		.align	2
 202              		.p2align 4,,15
 203              		.global	chMBPost
 204              		.code	16
 205              		.thumb_func
 206              		.type	chMBPost, %function
 207              	chMBPost:
 208              	.LFB9:
 209              		.loc 1 122 0
 210              		.cfi_startproc
 211              	.LVL26:
 212 0000 08B5     		push	{r3, lr}
 213              	.LCFI3:
 214              		.cfi_def_cfa_offset 8
 215              		.cfi_offset 3, -8
 216              		.cfi_offset 14, -4
 217              		.loc 1 125 0
 218              	@ 125 "../../ChibiOS_2.6.1/os/kernel/src/chmboxes.c" 1
 219 0002 72B6     		cpsid   i
 220              	@ 0 "" 2
 221              		.loc 1 126 0
 222              		.code	16
 223 0004 FFF7FEFF 		bl	chMBPostS
ARM GAS  C:\Users\3130\AppData\Local\Temp\ccfnl2bd.s 			page 5


 224              	.LVL27:
 225              		.loc 1 127 0
 226              	@ 127 "../../ChibiOS_2.6.1/os/kernel/src/chmboxes.c" 1
 227 0008 62B6     		cpsie   i
 228              	@ 0 "" 2
 229              		.loc 1 129 0
 230              		.code	16
 231              		@ sp needed for prologue
 232 000a 08BD     		pop	{r3, pc}
 233              		.cfi_endproc
 234              	.LFE9:
 235              		.size	chMBPost, .-chMBPost
 236 000c C046C046 		.section	.text.chMBPostI,"ax",%progbits
 237              		.align	2
 238              		.p2align 4,,15
 239              		.global	chMBPostI
 240              		.code	16
 241              		.thumb_func
 242              		.type	chMBPostI, %function
 243              	chMBPostI:
 244              	.LFB11:
 245              		.loc 1 181 0
 246              		.cfi_startproc
 247              	.LVL28:
 248 0000 08B5     		push	{r3, lr}
 249              	.LCFI4:
 250              		.cfi_def_cfa_offset 8
 251              		.cfi_offset 3, -8
 252              		.cfi_offset 14, -4
 253              		.loc 1 186 0
 254 0002 436A     		ldr	r3, [r0, #36]
 255 0004 002B     		cmp	r3, #0
 256 0006 0FDD     		ble	.L12
 257              		.loc 1 188 0
 258 0008 013B     		sub	r3, r3, #1
 259 000a 4362     		str	r3, [r0, #36]
 260              		.loc 1 189 0
 261 000c 8368     		ldr	r3, [r0, #8]
 262              		.loc 1 190 0
 263 000e 4268     		ldr	r2, [r0, #4]
 264              		.loc 1 189 0
 265 0010 02C3     		stmia	r3!, {r1}
 266 0012 8360     		str	r3, [r0, #8]
 267              		.loc 1 190 0
 268 0014 9342     		cmp	r3, r2
 269 0016 04D2     		bcs	.L13
 270              	.LVL29:
 271              	.L11:
 272              		.loc 1 192 0
 273 0018 1030     		add	r0, r0, #16
 274              	.LVL30:
 275 001a FFF7FEFF 		bl	chSemSignalI
 276              	.LVL31:
 277              		.loc 1 193 0
 278 001e 0020     		mov	r0, #0
 279              	.L10:
 280              		.loc 1 194 0
ARM GAS  C:\Users\3130\AppData\Local\Temp\ccfnl2bd.s 			page 6


 281              		@ sp needed for prologue
 282 0020 08BD     		pop	{r3, pc}
 283              	.LVL32:
 284              	.L13:
 285              		.loc 1 191 0
 286 0022 0168     		ldr	r1, [r0]
 287              	.LVL33:
 288 0024 8160     		str	r1, [r0, #8]
 289 0026 F7E7     		b	.L11
 290              	.LVL34:
 291              	.L12:
 292              		.loc 1 187 0
 293 0028 0120     		mov	r0, #1
 294              	.LVL35:
 295 002a 4042     		neg	r0, r0
 296 002c F8E7     		b	.L10
 297              		.cfi_endproc
 298              	.LFE11:
 299              		.size	chMBPostI, .-chMBPostI
 300 002e C046     		.section	.text.chMBPostAheadS,"ax",%progbits
 301              		.align	2
 302              		.p2align 4,,15
 303              		.global	chMBPostAheadS
 304              		.code	16
 305              		.thumb_func
 306              		.type	chMBPostAheadS, %function
 307              	chMBPostAheadS:
 308              	.LFB13:
 309              		.loc 1 243 0
 310              		.cfi_startproc
 311              	.LVL36:
 312 0000 70B5     		push	{r4, r5, r6, lr}
 313              	.LCFI5:
 314              		.cfi_def_cfa_offset 16
 315              		.cfi_offset 4, -16
 316              		.cfi_offset 5, -12
 317              		.cfi_offset 6, -8
 318              		.cfi_offset 14, -4
 319              		.loc 1 243 0
 320 0002 041C     		mov	r4, r0
 321 0004 0E1C     		mov	r6, r1
 322              		.loc 1 249 0
 323 0006 1C30     		add	r0, r0, #28
 324              	.LVL37:
 325 0008 111C     		mov	r1, r2
 326              	.LVL38:
 327 000a FFF7FEFF 		bl	chSemWaitTimeoutS
 328              	.LVL39:
 329 000e 051E     		sub	r5, r0, #0
 330              	.LVL40:
 331              		.loc 1 250 0
 332 0010 0CD1     		bne	.L15
 333              		.loc 1 251 0
 334 0012 E368     		ldr	r3, [r4, #12]
 335 0014 2268     		ldr	r2, [r4]
 336 0016 043B     		sub	r3, r3, #4
 337 0018 E360     		str	r3, [r4, #12]
ARM GAS  C:\Users\3130\AppData\Local\Temp\ccfnl2bd.s 			page 7


 338 001a 9342     		cmp	r3, r2
 339 001c 08D3     		bcc	.L17
 340              	.L16:
 341              		.loc 1 254 0
 342 001e 201C     		mov	r0, r4
 343              	.LVL41:
 344              		.loc 1 253 0
 345 0020 1E60     		str	r6, [r3]
 346              		.loc 1 254 0
 347 0022 1030     		add	r0, r0, #16
 348 0024 FFF7FEFF 		bl	chSemSignalI
 349              	.LVL42:
 350              		.loc 1 255 0
 351 0028 FFF7FEFF 		bl	chSchRescheduleS
 352              	.LVL43:
 353              	.L15:
 354              		.loc 1 258 0
 355 002c 281C     		mov	r0, r5
 356              		@ sp needed for prologue
 357              	.LVL44:
 358              	.LVL45:
 359              	.LVL46:
 360 002e 70BD     		pop	{r4, r5, r6, pc}
 361              	.LVL47:
 362              	.L17:
 363              		.loc 1 252 0
 364 0030 6368     		ldr	r3, [r4, #4]
 365 0032 043B     		sub	r3, r3, #4
 366 0034 E360     		str	r3, [r4, #12]
 367 0036 F2E7     		b	.L16
 368              		.cfi_endproc
 369              	.LFE13:
 370              		.size	chMBPostAheadS, .-chMBPostAheadS
 371 0038 C046C046 		.section	.text.chMBPostAhead,"ax",%progbits
 371      C046C046 
 372              		.align	2
 373              		.p2align 4,,15
 374              		.global	chMBPostAhead
 375              		.code	16
 376              		.thumb_func
 377              		.type	chMBPostAhead, %function
 378              	chMBPostAhead:
 379              	.LFB12:
 380              		.loc 1 215 0
 381              		.cfi_startproc
 382              	.LVL48:
 383 0000 08B5     		push	{r3, lr}
 384              	.LCFI6:
 385              		.cfi_def_cfa_offset 8
 386              		.cfi_offset 3, -8
 387              		.cfi_offset 14, -4
 388              		.loc 1 218 0
 389              	@ 218 "../../ChibiOS_2.6.1/os/kernel/src/chmboxes.c" 1
 390 0002 72B6     		cpsid   i
 391              	@ 0 "" 2
 392              		.loc 1 219 0
 393              		.code	16
ARM GAS  C:\Users\3130\AppData\Local\Temp\ccfnl2bd.s 			page 8


 394 0004 FFF7FEFF 		bl	chMBPostAheadS
 395              	.LVL49:
 396              		.loc 1 220 0
 397              	@ 220 "../../ChibiOS_2.6.1/os/kernel/src/chmboxes.c" 1
 398 0008 62B6     		cpsie   i
 399              	@ 0 "" 2
 400              		.loc 1 222 0
 401              		.code	16
 402              		@ sp needed for prologue
 403 000a 08BD     		pop	{r3, pc}
 404              		.cfi_endproc
 405              	.LFE12:
 406              		.size	chMBPostAhead, .-chMBPostAhead
 407 000c C046C046 		.section	.text.chMBPostAheadI,"ax",%progbits
 408              		.align	2
 409              		.p2align 4,,15
 410              		.global	chMBPostAheadI
 411              		.code	16
 412              		.thumb_func
 413              		.type	chMBPostAheadI, %function
 414              	chMBPostAheadI:
 415              	.LFB14:
 416              		.loc 1 274 0
 417              		.cfi_startproc
 418              	.LVL50:
 419 0000 08B5     		push	{r3, lr}
 420              	.LCFI7:
 421              		.cfi_def_cfa_offset 8
 422              		.cfi_offset 3, -8
 423              		.cfi_offset 14, -4
 424              		.loc 1 279 0
 425 0002 436A     		ldr	r3, [r0, #36]
 426 0004 002B     		cmp	r3, #0
 427 0006 11DD     		ble	.L22
 428              		.loc 1 281 0
 429 0008 013B     		sub	r3, r3, #1
 430 000a 4362     		str	r3, [r0, #36]
 431              		.loc 1 282 0
 432 000c C368     		ldr	r3, [r0, #12]
 433 000e 0268     		ldr	r2, [r0]
 434 0010 043B     		sub	r3, r3, #4
 435 0012 C360     		str	r3, [r0, #12]
 436 0014 9342     		cmp	r3, r2
 437 0016 05D3     		bcc	.L23
 438              	.L21:
 439              		.loc 1 285 0
 440 0018 1030     		add	r0, r0, #16
 441              	.LVL51:
 442              		.loc 1 284 0
 443 001a 1960     		str	r1, [r3]
 444              		.loc 1 285 0
 445 001c FFF7FEFF 		bl	chSemSignalI
 446              	.LVL52:
 447              		.loc 1 286 0
 448 0020 0020     		mov	r0, #0
 449              	.L20:
 450              		.loc 1 287 0
ARM GAS  C:\Users\3130\AppData\Local\Temp\ccfnl2bd.s 			page 9


 451              		@ sp needed for prologue
 452 0022 08BD     		pop	{r3, pc}
 453              	.LVL53:
 454              	.L23:
 455              		.loc 1 283 0
 456 0024 4368     		ldr	r3, [r0, #4]
 457 0026 043B     		sub	r3, r3, #4
 458 0028 C360     		str	r3, [r0, #12]
 459 002a F5E7     		b	.L21
 460              	.L22:
 461              		.loc 1 280 0
 462 002c 0120     		mov	r0, #1
 463              	.LVL54:
 464 002e 4042     		neg	r0, r0
 465 0030 F7E7     		b	.L20
 466              		.cfi_endproc
 467              	.LFE14:
 468              		.size	chMBPostAheadI, .-chMBPostAheadI
 469 0032 C046C046 		.section	.text.chMBFetchS,"ax",%progbits
 469      C046C046 
 469      C046C046 
 469      C046
 470              		.align	2
 471              		.p2align 4,,15
 472              		.global	chMBFetchS
 473              		.code	16
 474              		.thumb_func
 475              		.type	chMBFetchS, %function
 476              	chMBFetchS:
 477              	.LFB16:
 478              		.loc 1 336 0
 479              		.cfi_startproc
 480              	.LVL55:
 481 0000 70B5     		push	{r4, r5, r6, lr}
 482              	.LCFI8:
 483              		.cfi_def_cfa_offset 16
 484              		.cfi_offset 4, -16
 485              		.cfi_offset 5, -12
 486              		.cfi_offset 6, -8
 487              		.cfi_offset 14, -4
 488              		.loc 1 336 0
 489 0002 041C     		mov	r4, r0
 490 0004 0E1C     		mov	r6, r1
 491              		.loc 1 342 0
 492 0006 1030     		add	r0, r0, #16
 493              	.LVL56:
 494 0008 111C     		mov	r1, r2
 495              	.LVL57:
 496 000a FFF7FEFF 		bl	chSemWaitTimeoutS
 497              	.LVL58:
 498 000e 051E     		sub	r5, r0, #0
 499              	.LVL59:
 500              		.loc 1 343 0
 501 0010 0CD1     		bne	.L25
 502              		.loc 1 344 0
 503 0012 E368     		ldr	r3, [r4, #12]
 504              		.loc 1 345 0
ARM GAS  C:\Users\3130\AppData\Local\Temp\ccfnl2bd.s 			page 10


 505 0014 6068     		ldr	r0, [r4, #4]
 506              	.LVL60:
 507              		.loc 1 344 0
 508 0016 04CB     		ldmia	r3!, {r2}
 509 0018 3260     		str	r2, [r6]
 510 001a E360     		str	r3, [r4, #12]
 511              		.loc 1 345 0
 512 001c 8342     		cmp	r3, r0
 513 001e 07D2     		bcs	.L27
 514              	.L26:
 515              		.loc 1 347 0
 516 0020 201C     		mov	r0, r4
 517 0022 1C30     		add	r0, r0, #28
 518 0024 FFF7FEFF 		bl	chSemSignalI
 519              	.LVL61:
 520              		.loc 1 348 0
 521 0028 FFF7FEFF 		bl	chSchRescheduleS
 522              	.LVL62:
 523              	.L25:
 524              		.loc 1 351 0
 525 002c 281C     		mov	r0, r5
 526              		@ sp needed for prologue
 527              	.LVL63:
 528              	.LVL64:
 529              	.LVL65:
 530 002e 70BD     		pop	{r4, r5, r6, pc}
 531              	.LVL66:
 532              	.L27:
 533              		.loc 1 346 0
 534 0030 2168     		ldr	r1, [r4]
 535 0032 E160     		str	r1, [r4, #12]
 536 0034 F4E7     		b	.L26
 537              		.cfi_endproc
 538              	.LFE16:
 539              		.size	chMBFetchS, .-chMBFetchS
 540 0036 C046C046 		.section	.text.chMBFetch,"ax",%progbits
 540      C046C046 
 540      C046
 541              		.align	2
 542              		.p2align 4,,15
 543              		.global	chMBFetch
 544              		.code	16
 545              		.thumb_func
 546              		.type	chMBFetch, %function
 547              	chMBFetch:
 548              	.LFB15:
 549              		.loc 1 308 0
 550              		.cfi_startproc
 551              	.LVL67:
 552 0000 08B5     		push	{r3, lr}
 553              	.LCFI9:
 554              		.cfi_def_cfa_offset 8
 555              		.cfi_offset 3, -8
 556              		.cfi_offset 14, -4
 557              		.loc 1 311 0
 558              	@ 311 "../../ChibiOS_2.6.1/os/kernel/src/chmboxes.c" 1
 559 0002 72B6     		cpsid   i
ARM GAS  C:\Users\3130\AppData\Local\Temp\ccfnl2bd.s 			page 11


 560              	@ 0 "" 2
 561              		.loc 1 312 0
 562              		.code	16
 563 0004 FFF7FEFF 		bl	chMBFetchS
 564              	.LVL68:
 565              		.loc 1 313 0
 566              	@ 313 "../../ChibiOS_2.6.1/os/kernel/src/chmboxes.c" 1
 567 0008 62B6     		cpsie   i
 568              	@ 0 "" 2
 569              		.loc 1 315 0
 570              		.code	16
 571              		@ sp needed for prologue
 572 000a 08BD     		pop	{r3, pc}
 573              		.cfi_endproc
 574              	.LFE15:
 575              		.size	chMBFetch, .-chMBFetch
 576 000c C046C046 		.section	.text.chMBFetchI,"ax",%progbits
 577              		.align	2
 578              		.p2align 4,,15
 579              		.global	chMBFetchI
 580              		.code	16
 581              		.thumb_func
 582              		.type	chMBFetchI, %function
 583              	chMBFetchI:
 584              	.LFB17:
 585              		.loc 1 367 0
 586              		.cfi_startproc
 587              	.LVL69:
 588 0000 08B5     		push	{r3, lr}
 589              	.LCFI10:
 590              		.cfi_def_cfa_offset 8
 591              		.cfi_offset 3, -8
 592              		.cfi_offset 14, -4
 593              		.loc 1 372 0
 594 0002 8369     		ldr	r3, [r0, #24]
 595 0004 002B     		cmp	r3, #0
 596 0006 10DD     		ble	.L32
 597              		.loc 1 374 0
 598 0008 013B     		sub	r3, r3, #1
 599 000a 8361     		str	r3, [r0, #24]
 600              		.loc 1 375 0
 601 000c C368     		ldr	r3, [r0, #12]
 602 000e 04CB     		ldmia	r3!, {r2}
 603 0010 0A60     		str	r2, [r1]
 604              		.loc 1 376 0
 605 0012 4168     		ldr	r1, [r0, #4]
 606              	.LVL70:
 607              		.loc 1 375 0
 608 0014 C360     		str	r3, [r0, #12]
 609              		.loc 1 376 0
 610 0016 8B42     		cmp	r3, r1
 611 0018 04D2     		bcs	.L33
 612              	.L31:
 613              		.loc 1 378 0
 614 001a 1C30     		add	r0, r0, #28
 615              	.LVL71:
 616 001c FFF7FEFF 		bl	chSemSignalI
ARM GAS  C:\Users\3130\AppData\Local\Temp\ccfnl2bd.s 			page 12


 617              	.LVL72:
 618              		.loc 1 379 0
 619 0020 0020     		mov	r0, #0
 620              	.L30:
 621              		.loc 1 380 0
 622              		@ sp needed for prologue
 623 0022 08BD     		pop	{r3, pc}
 624              	.LVL73:
 625              	.L33:
 626              		.loc 1 377 0
 627 0024 0368     		ldr	r3, [r0]
 628 0026 C360     		str	r3, [r0, #12]
 629 0028 F7E7     		b	.L31
 630              	.LVL74:
 631              	.L32:
 632              		.loc 1 373 0
 633 002a 0120     		mov	r0, #1
 634              	.LVL75:
 635 002c 4042     		neg	r0, r0
 636 002e F8E7     		b	.L30
 637              		.cfi_endproc
 638              	.LFE17:
 639              		.size	chMBFetchI, .-chMBFetchI
 640              		.text
 641              	.Letext0:
 642              		.file 2 "c:\\stm32f0-discovery_tools\\gcc-arm-none-eabi\\bin\\../lib/gcc/arm-none-eabi/4.7.4/../..
 643              		.file 3 "../../ChibiOS_2.6.1/os/ports/GCC/ARMCMx/chtypes.h"
 644              		.file 4 "../../ChibiOS_2.6.1/os/kernel/include/chlists.h"
 645              		.file 5 "../../ChibiOS_2.6.1/os/kernel/include/chthreads.h"
 646              		.file 6 "../../ChibiOS_2.6.1/os/ports/GCC/ARMCMx/chcore_v6m.h"
 647              		.file 7 "../../ChibiOS_2.6.1/os/kernel/include/chsem.h"
 648              		.file 8 "../../ChibiOS_2.6.1/os/kernel/include/chmtx.h"
 649              		.file 9 "../../ChibiOS_2.6.1/os/kernel/include/chmboxes.h"
 650              		.file 10 "../../ChibiOS_2.6.1/os/kernel/include/chschd.h"