ARM GAS  C:\Users\3130\AppData\Local\Temp\ccMVqeEA.s 			page 1


   1              		.cpu cortex-m0
   2              		.fpu softvfp
   3              		.eabi_attribute 20, 1
   4              		.eabi_attribute 21, 1
   5              		.eabi_attribute 23, 3
   6              		.eabi_attribute 24, 1
   7              		.eabi_attribute 25, 1
   8              		.eabi_attribute 26, 1
   9              		.eabi_attribute 30, 2
  10              		.eabi_attribute 34, 0
  11              		.eabi_attribute 18, 4
  12              		.code	16
  13              		.file	"chmempools.c"
  14              		.text
  15              	.Ltext0:
  16              		.cfi_sections	.debug_frame
  17              		.section	.text.chPoolInit,"ax",%progbits
  18              		.align	2
  19              		.p2align 4,,15
  20              		.global	chPoolInit
  21              		.code	16
  22              		.thumb_func
  23              		.type	chPoolInit, %function
  24              	chPoolInit:
  25              	.LFB7:
  26              		.file 1 "../../ChibiOS_2.6.1/os/kernel/src/chmempools.c"
  27              		.loc 1 62 0
  28              		.cfi_startproc
  29              	.LVL0:
  30              		.loc 1 66 0
  31 0000 0023     		mov	r3, #0
  32 0002 0360     		str	r3, [r0]
  33              		.loc 1 67 0
  34 0004 4160     		str	r1, [r0, #4]
  35              		.loc 1 68 0
  36 0006 8260     		str	r2, [r0, #8]
  37              		.loc 1 69 0
  38              		@ sp needed for prologue
  39 0008 7047     		bx	lr
  40              		.cfi_endproc
  41              	.LFE7:
  42              		.size	chPoolInit, .-chPoolInit
  43 000a C046C046 		.section	.text.chPoolLoadArray,"ax",%progbits
  43      C046
  44              		.align	2
  45              		.p2align 4,,15
  46              		.global	chPoolLoadArray
  47              		.code	16
  48              		.thumb_func
  49              		.type	chPoolLoadArray, %function
  50              	chPoolLoadArray:
  51              	.LFB8:
  52              		.loc 1 84 0
  53              		.cfi_startproc
  54              	.LVL1:
  55 0000 30B5     		push	{r4, r5, lr}
  56              	.LCFI0:
ARM GAS  C:\Users\3130\AppData\Local\Temp\ccMVqeEA.s 			page 2


  57              		.cfi_def_cfa_offset 12
  58              		.cfi_offset 4, -12
  59              		.cfi_offset 5, -8
  60              		.cfi_offset 14, -4
  61              		.loc 1 88 0
  62 0002 002A     		cmp	r2, #0
  63 0004 28D0     		beq	.L2
  64 0006 531E     		sub	r3, r2, #1
  65 0008 0124     		mov	r4, #1
  66 000a 1C40     		and	r4, r3
  67              	.LVL2:
  68              	.LBB10:
  69              	.LBB11:
  70              		.loc 1 173 0
  71              	@ 173 "../../ChibiOS_2.6.1/os/kernel/src/chmempools.c" 1
  72 000c 72B6     		cpsid   i
  73              	@ 0 "" 2
  74              	.LVL3:
  75              		.code	16
  76              	.LBB12:
  77              	.LBB13:
  78              		.loc 1 155 0
  79 000e 0568     		ldr	r5, [r0]
  80 0010 0D60     		str	r5, [r1]
  81              		.loc 1 156 0
  82 0012 0160     		str	r1, [r0]
  83              	.LBE13:
  84              	.LBE12:
  85              		.loc 1 175 0
  86              	@ 175 "../../ChibiOS_2.6.1/os/kernel/src/chmempools.c" 1
  87 0014 62B6     		cpsie   i
  88              	@ 0 "" 2
  89              		.code	16
  90              	.LBE11:
  91              	.LBE10:
  92              		.loc 1 90 0
  93 0016 4568     		ldr	r5, [r0, #4]
  94 0018 4919     		add	r1, r1, r5
  95              	.LVL4:
  96              		.loc 1 88 0
  97 001a 002B     		cmp	r3, #0
  98 001c 1CD0     		beq	.L2
  99 001e 002C     		cmp	r4, #0
 100 0020 09D0     		beq	.L6
 101              	.LVL5:
 102              	.LBB23:
 103              	.LBB20:
 104              		.loc 1 173 0
 105              	@ 173 "../../ChibiOS_2.6.1/os/kernel/src/chmempools.c" 1
 106 0022 72B6     		cpsid   i
 107              	@ 0 "" 2
 108              	.LVL6:
 109              		.code	16
 110              	.LBB17:
 111              	.LBB14:
 112              		.loc 1 155 0
 113 0024 0368     		ldr	r3, [r0]
ARM GAS  C:\Users\3130\AppData\Local\Temp\ccMVqeEA.s 			page 3


 114 0026 0B60     		str	r3, [r1]
 115              		.loc 1 156 0
 116 0028 0160     		str	r1, [r0]
 117              	.LBE14:
 118              	.LBE17:
 119              		.loc 1 175 0
 120              	@ 175 "../../ChibiOS_2.6.1/os/kernel/src/chmempools.c" 1
 121 002a 62B6     		cpsie   i
 122              	@ 0 "" 2
 123              		.code	16
 124              	.LBE20:
 125              	.LBE23:
 126              		.loc 1 90 0
 127 002c 4468     		ldr	r4, [r0, #4]
 128              		.loc 1 91 0
 129 002e 931E     		sub	r3, r2, #2
 130              		.loc 1 90 0
 131 0030 0919     		add	r1, r1, r4
 132              	.LVL7:
 133              		.loc 1 88 0
 134 0032 002B     		cmp	r3, #0
 135 0034 10D0     		beq	.L2
 136              	.LVL8:
 137              	.L6:
 138              	.LBB24:
 139              	.LBB21:
 140              		.loc 1 173 0
 141              	@ 173 "../../ChibiOS_2.6.1/os/kernel/src/chmempools.c" 1
 142 0036 72B6     		cpsid   i
 143              	@ 0 "" 2
 144              		.code	16
 145              	.LBB18:
 146              	.LBB15:
 147              		.loc 1 155 0
 148 0038 0268     		ldr	r2, [r0]
 149 003a 0A60     		str	r2, [r1]
 150              		.loc 1 156 0
 151 003c 0160     		str	r1, [r0]
 152              	.LBE15:
 153              	.LBE18:
 154              		.loc 1 175 0
 155              	@ 175 "../../ChibiOS_2.6.1/os/kernel/src/chmempools.c" 1
 156 003e 62B6     		cpsie   i
 157              	@ 0 "" 2
 158              		.code	16
 159              	.LBE21:
 160              	.LBE24:
 161              		.loc 1 90 0
 162 0040 4568     		ldr	r5, [r0, #4]
 163 0042 4C19     		add	r4, r1, r5
 164              	.LBB25:
 165              	.LBB22:
 166              		.loc 1 173 0
 167              	@ 173 "../../ChibiOS_2.6.1/os/kernel/src/chmempools.c" 1
 168 0044 72B6     		cpsid   i
 169              	@ 0 "" 2
 170              		.code	16
ARM GAS  C:\Users\3130\AppData\Local\Temp\ccMVqeEA.s 			page 4


 171              	.LBB19:
 172              	.LBB16:
 173              		.loc 1 155 0
 174 0046 0168     		ldr	r1, [r0]
 175 0048 2160     		str	r1, [r4]
 176              		.loc 1 156 0
 177 004a 0460     		str	r4, [r0]
 178              	.LBE16:
 179              	.LBE19:
 180              		.loc 1 175 0
 181              	@ 175 "../../ChibiOS_2.6.1/os/kernel/src/chmempools.c" 1
 182 004c 62B6     		cpsie   i
 183              	@ 0 "" 2
 184              		.code	16
 185              	.LBE22:
 186              	.LBE25:
 187              		.loc 1 90 0
 188 004e 4268     		ldr	r2, [r0, #4]
 189              		.loc 1 91 0
 190 0050 023B     		sub	r3, r3, #2
 191              		.loc 1 90 0
 192 0052 A118     		add	r1, r4, r2
 193              		.loc 1 88 0
 194 0054 002B     		cmp	r3, #0
 195 0056 EED1     		bne	.L6
 196              	.LVL9:
 197              	.L2:
 198              		.loc 1 93 0
 199              		@ sp needed for prologue
 200 0058 30BD     		pop	{r4, r5, pc}
 201              		.cfi_endproc
 202              	.LFE8:
 203              		.size	chPoolLoadArray, .-chPoolLoadArray
 204 005a C046C046 		.section	.text.chPoolAllocI,"ax",%progbits
 204      C046
 205              		.align	2
 206              		.p2align 4,,15
 207              		.global	chPoolAllocI
 208              		.code	16
 209              		.thumb_func
 210              		.type	chPoolAllocI, %function
 211              	chPoolAllocI:
 212              	.LFB9:
 213              		.loc 1 105 0
 214              		.cfi_startproc
 215              	.LVL10:
 216 0000 08B5     		push	{r3, lr}
 217              	.LCFI1:
 218              		.cfi_def_cfa_offset 8
 219              		.cfi_offset 3, -8
 220              		.cfi_offset 14, -4
 221              		.loc 1 105 0
 222 0002 031C     		mov	r3, r0
 223              		.loc 1 111 0
 224 0004 0068     		ldr	r0, [r0]
 225              	.LVL11:
 226 0006 0028     		cmp	r0, #0
ARM GAS  C:\Users\3130\AppData\Local\Temp\ccMVqeEA.s 			page 5


 227 0008 02D0     		beq	.L17
 228              		.loc 1 112 0
 229 000a 0168     		ldr	r1, [r0]
 230 000c 1960     		str	r1, [r3]
 231              	.LVL12:
 232              	.L18:
 233              		.loc 1 116 0
 234              		@ sp needed for prologue
 235 000e 08BD     		pop	{r3, pc}
 236              	.LVL13:
 237              	.L17:
 238              		.loc 1 113 0
 239 0010 9A68     		ldr	r2, [r3, #8]
 240 0012 002A     		cmp	r2, #0
 241 0014 FBD0     		beq	.L18
 242              		.loc 1 114 0
 243 0016 5868     		ldr	r0, [r3, #4]
 244              	.LVL14:
 245 0018 9047     		blx	r2
 246              	.LVL15:
 247 001a F8E7     		b	.L18
 248              		.cfi_endproc
 249              	.LFE9:
 250              		.size	chPoolAllocI, .-chPoolAllocI
 251 001c C046C046 		.section	.text.chPoolAlloc,"ax",%progbits
 252              		.align	2
 253              		.p2align 4,,15
 254              		.global	chPoolAlloc
 255              		.code	16
 256              		.thumb_func
 257              		.type	chPoolAlloc, %function
 258              	chPoolAlloc:
 259              	.LFB10:
 260              		.loc 1 128 0
 261              		.cfi_startproc
 262              	.LVL16:
 263 0000 08B5     		push	{r3, lr}
 264              	.LCFI2:
 265              		.cfi_def_cfa_offset 8
 266              		.cfi_offset 3, -8
 267              		.cfi_offset 14, -4
 268              		.loc 1 128 0
 269 0002 031C     		mov	r3, r0
 270              		.loc 1 131 0
 271              	@ 131 "../../ChibiOS_2.6.1/os/kernel/src/chmempools.c" 1
 272 0004 72B6     		cpsid   i
 273              	@ 0 "" 2
 274              	.LVL17:
 275              		.code	16
 276              	.LBB26:
 277              	.LBB27:
 278              		.loc 1 111 0
 279 0006 0068     		ldr	r0, [r0]
 280              	.LVL18:
 281 0008 0028     		cmp	r0, #0
 282 000a 03D0     		beq	.L23
 283              		.loc 1 112 0
ARM GAS  C:\Users\3130\AppData\Local\Temp\ccMVqeEA.s 			page 6


 284 000c 0168     		ldr	r1, [r0]
 285 000e 1960     		str	r1, [r3]
 286              	.LVL19:
 287              	.L24:
 288              	.LBE27:
 289              	.LBE26:
 290              		.loc 1 133 0
 291              	@ 133 "../../ChibiOS_2.6.1/os/kernel/src/chmempools.c" 1
 292 0010 62B6     		cpsie   i
 293              	@ 0 "" 2
 294              		.loc 1 135 0
 295              		.code	16
 296              		@ sp needed for prologue
 297 0012 08BD     		pop	{r3, pc}
 298              	.LVL20:
 299              	.L23:
 300              	.LBB29:
 301              	.LBB28:
 302              		.loc 1 113 0
 303 0014 9A68     		ldr	r2, [r3, #8]
 304 0016 002A     		cmp	r2, #0
 305 0018 FAD0     		beq	.L24
 306              		.loc 1 114 0
 307 001a 5868     		ldr	r0, [r3, #4]
 308              	.LVL21:
 309 001c 9047     		blx	r2
 310              	.LVL22:
 311 001e F7E7     		b	.L24
 312              	.LBE28:
 313              	.LBE29:
 314              		.cfi_endproc
 315              	.LFE10:
 316              		.size	chPoolAlloc, .-chPoolAlloc
 317              		.section	.text.chPoolFreeI,"ax",%progbits
 318              		.align	2
 319              		.p2align 4,,15
 320              		.global	chPoolFreeI
 321              		.code	16
 322              		.thumb_func
 323              		.type	chPoolFreeI, %function
 324              	chPoolFreeI:
 325              	.LFB11:
 326              		.loc 1 149 0
 327              		.cfi_startproc
 328              	.LVL23:
 329              		.loc 1 155 0
 330 0000 0368     		ldr	r3, [r0]
 331              		.loc 1 157 0
 332              		@ sp needed for prologue
 333              		.loc 1 155 0
 334 0002 0B60     		str	r3, [r1]
 335              		.loc 1 156 0
 336 0004 0160     		str	r1, [r0]
 337              		.loc 1 157 0
 338 0006 7047     		bx	lr
 339              		.cfi_endproc
 340              	.LFE11:
ARM GAS  C:\Users\3130\AppData\Local\Temp\ccMVqeEA.s 			page 7


 341              		.size	chPoolFreeI, .-chPoolFreeI
 342 0008 C046C046 		.section	.text.chPoolFree,"ax",%progbits
 342      C046C046 
 343              		.align	2
 344              		.p2align 4,,15
 345              		.global	chPoolFree
 346              		.code	16
 347              		.thumb_func
 348              		.type	chPoolFree, %function
 349              	chPoolFree:
 350              	.LFB12:
 351              		.loc 1 171 0
 352              		.cfi_startproc
 353              	.LVL24:
 354              		.loc 1 173 0
 355              	@ 173 "../../ChibiOS_2.6.1/os/kernel/src/chmempools.c" 1
 356 0000 72B6     		cpsid   i
 357              	@ 0 "" 2
 358              	.LVL25:
 359              		.code	16
 360              	.LBB30:
 361              	.LBB31:
 362              		.loc 1 155 0
 363 0002 0368     		ldr	r3, [r0]
 364 0004 0B60     		str	r3, [r1]
 365              		.loc 1 156 0
 366 0006 0160     		str	r1, [r0]
 367              	.LBE31:
 368              	.LBE30:
 369              		.loc 1 175 0
 370              	@ 175 "../../ChibiOS_2.6.1/os/kernel/src/chmempools.c" 1
 371 0008 62B6     		cpsie   i
 372              	@ 0 "" 2
 373              		.loc 1 176 0
 374              		.code	16
 375              		@ sp needed for prologue
 376 000a 7047     		bx	lr
 377              		.cfi_endproc
 378              	.LFE12:
 379              		.size	chPoolFree, .-chPoolFree
 380 000c C046C046 		.text
 381              	.Letext0:
 382              		.file 2 "c:\\stm32f0-discovery_tools\\gcc-arm-none-eabi\\bin\\../lib/gcc/arm-none-eabi/4.7.4/inclu
 383              		.file 3 "c:\\stm32f0-discovery_tools\\gcc-arm-none-eabi\\bin\\../lib/gcc/arm-none-eabi/4.7.4/../..
 384              		.file 4 "../../ChibiOS_2.6.1/os/kernel/include/chmemcore.h"
 385              		.file 5 "../../ChibiOS_2.6.1/os/kernel/include/chmempools.h"