ARM GAS  C:\Users\3130\AppData\Local\Temp\ccQ6IKEH.s 			page 1


   1              		.cpu cortex-m0
   2              		.fpu softvfp
   3              		.eabi_attribute 20, 1
   4              		.eabi_attribute 21, 1
   5              		.eabi_attribute 23, 3
   6              		.eabi_attribute 24, 1
   7              		.eabi_attribute 25, 1
   8              		.eabi_attribute 26, 1
   9              		.eabi_attribute 30, 2
  10              		.eabi_attribute 34, 0
  11              		.eabi_attribute 18, 4
  12              		.code	16
  13              		.file	"chsys.c"
  14              		.text
  15              	.Ltext0:
  16              		.cfi_sections	.debug_frame
  17              		.section	.text._idle_thread,"ax",%progbits
  18              		.align	2
  19              		.p2align 4,,15
  20              		.global	_idle_thread
  21              		.code	16
  22              		.thumb_func
  23              		.type	_idle_thread, %function
  24              	_idle_thread:
  25              	.LFB7:
  26              		.file 1 "../../ChibiOS_2.6.1/os/kernel/src/chsys.c"
  27              		.loc 1 61 0
  28              		.cfi_startproc
  29              	.LVL0:
  30              		.loc 1 64 0
  31 0000 024B     		ldr	r3, .L4
  32 0002 034A     		ldr	r2, .L4+4
  33 0004 9869     		ldr	r0, [r3, #24]
  34              	.LVL1:
  35 0006 8261     		str	r2, [r0, #24]
  36              	.L2:
  37 0008 FEE7     		b	.L2
  38              	.L5:
  39 000a C046     		.align	2
  40              	.L4:
  41 000c 00000000 		.word	rlist
  42 0010 00000000 		.word	.LC1
  43              		.cfi_endproc
  44              	.LFE7:
  45              		.size	_idle_thread, .-_idle_thread
  46 0014 C046C046 		.section	.text.chSysInit,"ax",%progbits
  46      C046C046 
  46      C046C046 
  47              		.align	2
  48              		.p2align 4,,15
  49              		.global	chSysInit
  50              		.code	16
  51              		.thumb_func
  52              		.type	chSysInit, %function
  53              	chSysInit:
  54              	.LFB8:
  55              		.loc 1 84 0
ARM GAS  C:\Users\3130\AppData\Local\Temp\ccQ6IKEH.s 			page 2


  56              		.cfi_startproc
  57 0000 00B5     		push	{lr}
  58              	.LCFI0:
  59              		.cfi_def_cfa_offset 4
  60              		.cfi_offset 14, -4
  61              		.loc 1 90 0
  62 0002 154A     		ldr	r2, .L7
  63 0004 154B     		ldr	r3, .L7+4
  64              		.loc 1 84 0
  65 0006 83B0     		sub	sp, sp, #12
  66              	.LCFI1:
  67              		.cfi_def_cfa_offset 16
  68              		.loc 1 90 0
  69 0008 DA60     		str	r2, [r3, #12]
  70 000a 0A20     		mov	r0, #10
  71 000c 0021     		mov	r1, #0
  72 000e FFF7FEFF 		bl	nvicSetSystemHandlerPriority
  73              	.LVL2:
  74 0012 0B20     		mov	r0, #11
  75 0014 8021     		mov	r1, #128
  76 0016 FFF7FEFF 		bl	nvicSetSystemHandlerPriority
  77              	.LVL3:
  78              		.loc 1 91 0
  79 001a FFF7FEFF 		bl	_scheduler_init
  80              	.LVL4:
  81              		.loc 1 92 0
  82 001e FFF7FEFF 		bl	_vt_init
  83              	.LVL5:
  84              		.loc 1 94 0
  85 0022 FFF7FEFF 		bl	_core_init
  86              	.LVL6:
  87              		.loc 1 97 0
  88 0026 FFF7FEFF 		bl	_heap_init
  89              	.LVL7:
  90              		.loc 1 104 0
  91 002a 4021     		mov	r1, #64
  92 002c 0C48     		ldr	r0, .L7+8
  93 002e FFF7FEFF 		bl	_thread_init
  94              	.LVL8:
  95 0032 0C49     		ldr	r1, .L7+12
  96              		.loc 1 105 0
  97 0034 0122     		mov	r2, #1
  98              		.loc 1 104 0
  99 0036 8861     		str	r0, [r1, #24]
 100              		.loc 1 105 0
 101 0038 0277     		strb	r2, [r0, #28]
 102              		.loc 1 111 0
 103              	@ 111 "../../ChibiOS_2.6.1/os/kernel/src/chsys.c" 1
 104 003a 62B6     		cpsie   i
 105              	@ 0 "" 2
 106              		.loc 1 115 0
 107              		.code	16
 108 003c 0A4B     		ldr	r3, .L7+16
 109 003e 8869     		ldr	r0, [r1, #24]
 110              		.loc 1 121 0
 111 0040 0021     		mov	r1, #0
 112              		.loc 1 115 0
ARM GAS  C:\Users\3130\AppData\Local\Temp\ccQ6IKEH.s 			page 3


 113 0042 8361     		str	r3, [r0, #24]
 114              		.loc 1 121 0
 115 0044 0122     		mov	r2, #1
 116 0046 0091     		str	r1, [sp]
 117 0048 084B     		ldr	r3, .L7+20
 118 004a C021     		mov	r1, #192
 119 004c 0848     		ldr	r0, .L7+24
 120 004e FFF7FEFF 		bl	chThdCreateStatic
 121              	.LVL9:
 122              		.loc 1 124 0
 123 0052 03B0     		add	sp, sp, #12
 124              		@ sp needed for prologue
 125 0054 00BD     		pop	{pc}
 126              	.L8:
 127 0056 C046     		.align	2
 128              	.L7:
 129 0058 0000FA05 		.word	100270080
 130 005c 00ED00E0 		.word	-536810240
 131 0060 00000000 		.word	.LANCHOR0
 132 0064 00000000 		.word	rlist
 133 0068 00000000 		.word	ch_debug
 134 006c 00000000 		.word	_idle_thread
 135 0070 00000000 		.word	.LANCHOR1
 136              		.cfi_endproc
 137              	.LFE8:
 138              		.size	chSysInit, .-chSysInit
 139 0074 C046C046 		.section	.text.chSysTimerHandlerI,"ax",%progbits
 139      C046C046 
 139      C046C046 
 140              		.align	2
 141              		.p2align 4,,15
 142              		.global	chSysTimerHandlerI
 143              		.code	16
 144              		.thumb_func
 145              		.type	chSysTimerHandlerI, %function
 146              	chSysTimerHandlerI:
 147              	.LFB9:
 148              		.loc 1 137 0
 149              		.cfi_startproc
 150 0000 38B5     		push	{r3, r4, r5, lr}
 151              	.LCFI2:
 152              		.cfi_def_cfa_offset 16
 153              		.cfi_offset 3, -16
 154              		.cfi_offset 4, -12
 155              		.cfi_offset 5, -8
 156              		.cfi_offset 14, -4
 157              		.loc 1 143 0
 158 0002 124B     		ldr	r3, .L22
 159 0004 9869     		ldr	r0, [r3, #24]
 160 0006 C27F     		ldrb	r2, [r0, #31]
 161 0008 002A     		cmp	r2, #0
 162 000a 01D0     		beq	.L10
 163              		.loc 1 145 0
 164 000c 013A     		sub	r2, r2, #1
 165 000e C277     		strb	r2, [r0, #31]
 166              	.L10:
 167              		.loc 1 148 0
ARM GAS  C:\Users\3130\AppData\Local\Temp\ccQ6IKEH.s 			page 4


 168 0010 016A     		ldr	r1, [r0, #32]
 169              		.loc 1 150 0
 170 0012 0F4C     		ldr	r4, .L22+4
 171              		.loc 1 148 0
 172 0014 0131     		add	r1, r1, #1
 173 0016 0162     		str	r1, [r0, #32]
 174              		.loc 1 150 0
 175 0018 E568     		ldr	r5, [r4, #12]
 176 001a 2368     		ldr	r3, [r4]
 177 001c 0135     		add	r5, r5, #1
 178 001e E560     		str	r5, [r4, #12]
 179 0020 A342     		cmp	r3, r4
 180 0022 12D0     		beq	.L9
 181              	.LBB2:
 182              		.loc 1 150 0 is_stmt 0 discriminator 1
 183 0024 9868     		ldr	r0, [r3, #8]
 184 0026 0138     		sub	r0, r0, #1
 185 0028 9860     		str	r0, [r3, #8]
 186              	.LVL10:
 187 002a 0028     		cmp	r0, #0
 188 002c 0DD1     		bne	.L9
 189              	.LBB3:
 190              		.loc 1 150 0 discriminator 3
 191 002e 0025     		mov	r5, #0
 192              	.L18:
 193 0030 1A68     		ldr	r2, [r3]
 194 0032 D968     		ldr	r1, [r3, #12]
 195              	.LVL11:
 196 0034 5460     		str	r4, [r2, #4]
 197 0036 DD60     		str	r5, [r3, #12]
 198 0038 2260     		str	r2, [r4]
 199              	@ 150 "../../ChibiOS_2.6.1/os/kernel/src/chsys.c" 1
 200 003a 62B6     		cpsie   i
 201              	@ 0 "" 2
 202              		.code	16
 203 003c 1869     		ldr	r0, [r3, #16]
 204 003e 8847     		blx	r1
 205              	.LVL12:
 206              	@ 150 "../../ChibiOS_2.6.1/os/kernel/src/chsys.c" 1
 207 0040 72B6     		cpsid   i
 208              	@ 0 "" 2
 209              		.code	16
 210              	.LBE3:
 211 0042 2368     		ldr	r3, [r4]
 212              	.LVL13:
 213 0044 9868     		ldr	r0, [r3, #8]
 214 0046 0028     		cmp	r0, #0
 215 0048 F2D0     		beq	.L18
 216              	.LVL14:
 217              	.L9:
 218              	.LBE2:
 219              		.loc 1 154 0 is_stmt 1
 220              		@ sp needed for prologue
 221 004a 38BD     		pop	{r3, r4, r5, pc}
 222              	.L23:
 223              		.align	2
 224              	.L22:
ARM GAS  C:\Users\3130\AppData\Local\Temp\ccQ6IKEH.s 			page 5


 225 004c 00000000 		.word	rlist
 226 0050 00000000 		.word	vtlist
 227              		.cfi_endproc
 228              	.LFE9:
 229              		.size	chSysTimerHandlerI, .-chSysTimerHandlerI
 230              		.global	_idle_thread_wa
 231 0054 C046C046 		.section	.bss.mainthread.4774,"aw",%nobits
 231      C046C046 
 231      C046C046 
 232              		.align	2
 233              		.set	.LANCHOR0,. + 0
 234              		.type	mainthread.4774, %object
 235              		.size	mainthread.4774, 72
 236              	mainthread.4774:
 237 0000 00000000 		.space	72
 237      00000000 
 237      00000000 
 237      00000000 
 237      00000000 
 238              		.section	.rodata.str1.4,"aMS",%progbits,1
 239              		.align	2
 240              	.LC1:
 241 0000 69646C65 		.ascii	"idle\000"
 241      00
 242 0005 000000   		.section	.bss._idle_thread_wa,"aw",%nobits
 243              		.align	3
 244              		.set	.LANCHOR1,. + 0
 245              		.type	_idle_thread_wa, %object
 246              		.size	_idle_thread_wa, 192
 247              	_idle_thread_wa:
 248 0000 00000000 		.space	192
 248      00000000 
 248      00000000 
 248      00000000 
 248      00000000 
 249              		.text
 250              	.Letext0:
 251              		.file 2 "c:\\stm32f0-discovery_tools\\gcc-arm-none-eabi\\bin\\../lib/gcc/arm-none-eabi/4.7.4/inclu
 252              		.file 3 "c:\\stm32f0-discovery_tools\\gcc-arm-none-eabi\\bin\\../lib/gcc/arm-none-eabi/4.7.4/../..
 253              		.file 4 "../../ChibiOS_2.6.1/os/ports/GCC/ARMCMx/chtypes.h"
 254              		.file 5 "../../ChibiOS_2.6.1/os/kernel/include/chlists.h"
 255              		.file 6 "../../ChibiOS_2.6.1/os/kernel/include/chthreads.h"
 256              		.file 7 "../../ChibiOS_2.6.1/os/ports/GCC/ARMCMx/chcore_v6m.h"
 257              		.file 8 "../../ChibiOS_2.6.1/os/ports/common/ARMCMx/nvic.h"
 258              		.file 9 "../../ChibiOS_2.6.1/os/kernel/include/chvt.h"
 259              		.file 10 "../../ChibiOS_2.6.1/os/kernel/include/chschd.h"
 260              		.file 11 "../../ChibiOS_2.6.1/os/kernel/include/chmtx.h"
 261              		.file 12 "../../ChibiOS_2.6.1/os/kernel/include/chregistry.h"
 262              		.file 13 "../../ChibiOS_2.6.1/os/kernel/include/chmemcore.h"
 263              		.file 14 "../../ChibiOS_2.6.1/os/kernel/include/chheap.h"