ARM GAS  C:\Users\3130\AppData\Local\Temp\cci3Wvfd.s 			page 1


   1              		.cpu cortex-m0
   2              		.fpu softvfp
   3              		.eabi_attribute 20, 1
   4              		.eabi_attribute 21, 1
   5              		.eabi_attribute 23, 3
   6              		.eabi_attribute 24, 1
   7              		.eabi_attribute 25, 1
   8              		.eabi_attribute 26, 1
   9              		.eabi_attribute 30, 2
  10              		.eabi_attribute 34, 0
  11              		.eabi_attribute 18, 4
  12              		.code	16
  13              		.file	"chthreads.c"
  14              		.text
  15              	.Ltext0:
  16              		.cfi_sections	.debug_frame
  17              		.section	.text._thread_init,"ax",%progbits
  18              		.align	2
  19              		.p2align 4,,15
  20              		.global	_thread_init
  21              		.code	16
  22              		.thumb_func
  23              		.type	_thread_init, %function
  24              	_thread_init:
  25              	.LFB7:
  26              		.file 1 "../../ChibiOS_2.6.1/os/kernel/src/chthreads.c"
  27              		.loc 1 76 0
  28              		.cfi_startproc
  29              	.LVL0:
  30              		.loc 1 79 0
  31 0000 0223     		mov	r3, #2
  32 0002 0377     		strb	r3, [r0, #28]
  33              		.loc 1 80 0
  34 0004 0023     		mov	r3, #0
  35              		.loc 1 78 0
  36 0006 8160     		str	r1, [r0, #8]
  37              		.loc 1 80 0
  38 0008 4377     		strb	r3, [r0, #29]
  39              		.loc 1 85 0
  40 000a 0164     		str	r1, [r0, #64]
  41              		.loc 1 86 0
  42 000c C363     		str	r3, [r0, #60]
  43              		.loc 1 89 0
  44 000e 8363     		str	r3, [r0, #56]
  45              		.loc 1 92 0
  46 0010 0362     		str	r3, [r0, #32]
  47              		.loc 1 95 0
  48 0012 0121     		mov	r1, #1
  49              	.LVL1:
  50              		.loc 1 98 0
  51 0014 8361     		str	r3, [r0, #24]
  52              		.loc 1 99 0
  53 0016 084B     		ldr	r3, .L2
  54              		.loc 1 82 0
  55 0018 1422     		mov	r2, #20
  56              		.loc 1 95 0
  57 001a 8177     		strb	r1, [r0, #30]
ARM GAS  C:\Users\3130\AppData\Local\Temp\cci3Wvfd.s 			page 2


  58              		.loc 1 102 0
  59 001c 011C     		mov	r1, r0
  60              		.loc 1 82 0
  61 001e C277     		strb	r2, [r0, #31]
  62              		.loc 1 102 0
  63 0020 2831     		add	r1, r1, #40
  64              		.loc 1 99 0
  65 0022 5A69     		ldr	r2, [r3, #20]
  66              		.loc 1 102 0
  67 0024 8162     		str	r1, [r0, #40]
  68              		.loc 1 105 0
  69 0026 0431     		add	r1, r1, #4
  70              		.loc 1 99 0
  71 0028 0361     		str	r3, [r0, #16]
  72 002a 4261     		str	r2, [r0, #20]
  73              		.loc 1 105 0
  74 002c 0163     		str	r1, [r0, #48]
  75              		.loc 1 99 0
  76 002e 5861     		str	r0, [r3, #20]
  77              		.loc 1 105 0
  78 0030 C162     		str	r1, [r0, #44]
  79              		.loc 1 99 0
  80 0032 1061     		str	r0, [r2, #16]
  81              		.loc 1 114 0
  82              		@ sp needed for prologue
  83 0034 7047     		bx	lr
  84              	.L3:
  85 0036 C046     		.align	2
  86              	.L2:
  87 0038 00000000 		.word	rlist
  88              		.cfi_endproc
  89              	.LFE7:
  90              		.size	_thread_init, .-_thread_init
  91 003c C046C046 		.section	.text.chThdCreateI,"ax",%progbits
  92              		.align	2
  93              		.p2align 4,,15
  94              		.global	chThdCreateI
  95              		.code	16
  96              		.thumb_func
  97              		.type	chThdCreateI, %function
  98              	chThdCreateI:
  99              	.LFB8:
 100              		.loc 1 158 0
 101              		.cfi_startproc
 102              	.LVL2:
 103              		.loc 1 167 0
 104 0000 2439     		sub	r1, r1, #36
 105              	.LVL3:
 106 0002 4118     		add	r1, r0, r1
 107              	.LVL4:
 108 0004 C160     		str	r1, [r0, #12]
 109 0006 0B61     		str	r3, [r1, #16]
 110 0008 009B     		ldr	r3, [sp]
 111              	.LVL5:
 112              		.loc 1 169 0
 113              		@ sp needed for prologue
 114              		.loc 1 167 0
ARM GAS  C:\Users\3130\AppData\Local\Temp\cci3Wvfd.s 			page 3


 115 000a 4B61     		str	r3, [r1, #20]
 116 000c 0E4B     		ldr	r3, .L5
 117 000e 0B62     		str	r3, [r1, #32]
 118              	.LVL6:
 119              	.LBB8:
 120              	.LBB9:
 121              		.loc 1 80 0
 122 0010 0023     		mov	r3, #0
 123              		.loc 1 78 0
 124 0012 8260     		str	r2, [r0, #8]
 125              		.loc 1 79 0
 126 0014 0221     		mov	r1, #2
 127              	.LVL7:
 128              		.loc 1 80 0
 129 0016 4377     		strb	r3, [r0, #29]
 130              		.loc 1 85 0
 131 0018 0264     		str	r2, [r0, #64]
 132              		.loc 1 86 0
 133 001a C363     		str	r3, [r0, #60]
 134              		.loc 1 89 0
 135 001c 8363     		str	r3, [r0, #56]
 136              		.loc 1 92 0
 137 001e 0362     		str	r3, [r0, #32]
 138              		.loc 1 95 0
 139 0020 0122     		mov	r2, #1
 140              	.LVL8:
 141              		.loc 1 98 0
 142 0022 8361     		str	r3, [r0, #24]
 143              		.loc 1 99 0
 144 0024 094B     		ldr	r3, .L5+4
 145              		.loc 1 79 0
 146 0026 0177     		strb	r1, [r0, #28]
 147              		.loc 1 95 0
 148 0028 8277     		strb	r2, [r0, #30]
 149              		.loc 1 82 0
 150 002a 1421     		mov	r1, #20
 151              		.loc 1 102 0
 152 002c 021C     		mov	r2, r0
 153              		.loc 1 82 0
 154 002e C177     		strb	r1, [r0, #31]
 155              		.loc 1 102 0
 156 0030 2832     		add	r2, r2, #40
 157              		.loc 1 99 0
 158 0032 5969     		ldr	r1, [r3, #20]
 159              		.loc 1 102 0
 160 0034 8262     		str	r2, [r0, #40]
 161              		.loc 1 105 0
 162 0036 0432     		add	r2, r2, #4
 163              		.loc 1 99 0
 164 0038 0361     		str	r3, [r0, #16]
 165 003a 4161     		str	r1, [r0, #20]
 166              		.loc 1 105 0
 167 003c 0263     		str	r2, [r0, #48]
 168              		.loc 1 99 0
 169 003e 5861     		str	r0, [r3, #20]
 170              		.loc 1 105 0
 171 0040 C262     		str	r2, [r0, #44]
ARM GAS  C:\Users\3130\AppData\Local\Temp\cci3Wvfd.s 			page 4


 172              		.loc 1 99 0
 173 0042 0861     		str	r0, [r1, #16]
 174              	.LBE9:
 175              	.LBE8:
 176              		.loc 1 169 0
 177 0044 7047     		bx	lr
 178              	.L6:
 179 0046 C046     		.align	2
 180              	.L5:
 181 0048 00000000 		.word	_port_thread_start
 182 004c 00000000 		.word	rlist
 183              		.cfi_endproc
 184              	.LFE8:
 185              		.size	chThdCreateI, .-chThdCreateI
 186              		.section	.text.chThdCreateStatic,"ax",%progbits
 187              		.align	2
 188              		.p2align 4,,15
 189              		.global	chThdCreateStatic
 190              		.code	16
 191              		.thumb_func
 192              		.type	chThdCreateStatic, %function
 193              	chThdCreateStatic:
 194              	.LFB9:
 195              		.loc 1 188 0
 196              		.cfi_startproc
 197              	.LVL9:
 198 0000 10B5     		push	{r4, lr}
 199              	.LCFI0:
 200              		.cfi_def_cfa_offset 8
 201              		.cfi_offset 4, -8
 202              		.cfi_offset 14, -4
 203 0002 82B0     		sub	sp, sp, #8
 204              	.LCFI1:
 205              		.cfi_def_cfa_offset 16
 206              		.loc 1 199 0
 207              	@ 199 "../../ChibiOS_2.6.1/os/kernel/src/chthreads.c" 1
 208 0004 72B6     		cpsid   i
 209              	@ 0 "" 2
 210              		.loc 1 200 0
 211              		.code	16
 212 0006 049C     		ldr	r4, [sp, #16]
 213 0008 0094     		str	r4, [sp]
 214 000a FFF7FEFF 		bl	chThdCreateI
 215              	.LVL10:
 216 000e 0021     		mov	r1, #0
 217 0010 041C     		mov	r4, r0
 218              	.LVL11:
 219 0012 FFF7FEFF 		bl	chSchWakeupS
 220              	.LVL12:
 221              		.loc 1 201 0
 222              	@ 201 "../../ChibiOS_2.6.1/os/kernel/src/chthreads.c" 1
 223 0016 62B6     		cpsie   i
 224              	@ 0 "" 2
 225              		.loc 1 203 0
 226              		.code	16
 227 0018 201C     		mov	r0, r4
 228 001a 02B0     		add	sp, sp, #8
ARM GAS  C:\Users\3130\AppData\Local\Temp\cci3Wvfd.s 			page 5


 229              		@ sp needed for prologue
 230              	.LVL13:
 231 001c 10BD     		pop	{r4, pc}
 232              		.cfi_endproc
 233              	.LFE9:
 234              		.size	chThdCreateStatic, .-chThdCreateStatic
 235 001e C046     		.section	.text.chThdSetPriority,"ax",%progbits
 236              		.align	2
 237              		.p2align 4,,15
 238              		.global	chThdSetPriority
 239              		.code	16
 240              		.thumb_func
 241              		.type	chThdSetPriority, %function
 242              	chThdSetPriority:
 243              	.LFB10:
 244              		.loc 1 217 0
 245              		.cfi_startproc
 246              	.LVL14:
 247 0000 10B5     		push	{r4, lr}
 248              	.LCFI2:
 249              		.cfi_def_cfa_offset 8
 250              		.cfi_offset 4, -8
 251              		.cfi_offset 14, -4
 252              		.loc 1 222 0
 253              	@ 222 "../../ChibiOS_2.6.1/os/kernel/src/chthreads.c" 1
 254 0002 72B6     		cpsid   i
 255              	@ 0 "" 2
 256              		.loc 1 224 0
 257              		.code	16
 258 0004 074B     		ldr	r3, .L12
 259 0006 9A69     		ldr	r2, [r3, #24]
 260 0008 146C     		ldr	r4, [r2, #64]
 261              	.LVL15:
 262              		.loc 1 225 0
 263 000a 9168     		ldr	r1, [r2, #8]
 264 000c 8C42     		cmp	r4, r1
 265 000e 01D0     		beq	.L9
 266              		.loc 1 225 0 is_stmt 0 discriminator 1
 267 0010 8142     		cmp	r1, r0
 268 0012 00D2     		bcs	.L10
 269              	.L9:
 270              		.loc 1 226 0 is_stmt 1
 271 0014 9060     		str	r0, [r2, #8]
 272              	.L10:
 273              		.loc 1 227 0
 274 0016 1064     		str	r0, [r2, #64]
 275              		.loc 1 232 0
 276 0018 FFF7FEFF 		bl	chSchRescheduleS
 277              	.LVL16:
 278              		.loc 1 233 0
 279              	@ 233 "../../ChibiOS_2.6.1/os/kernel/src/chthreads.c" 1
 280 001c 62B6     		cpsie   i
 281              	@ 0 "" 2
 282              		.loc 1 235 0
 283              		.code	16
 284 001e 201C     		mov	r0, r4
 285              		@ sp needed for prologue
ARM GAS  C:\Users\3130\AppData\Local\Temp\cci3Wvfd.s 			page 6


 286              	.LVL17:
 287 0020 10BD     		pop	{r4, pc}
 288              	.L13:
 289 0022 C046     		.align	2
 290              	.L12:
 291 0024 00000000 		.word	rlist
 292              		.cfi_endproc
 293              	.LFE10:
 294              		.size	chThdSetPriority, .-chThdSetPriority
 295 0028 C046C046 		.section	.text.chThdResume,"ax",%progbits
 295      C046C046 
 296              		.align	2
 297              		.p2align 4,,15
 298              		.global	chThdResume
 299              		.code	16
 300              		.thumb_func
 301              		.type	chThdResume, %function
 302              	chThdResume:
 303              	.LFB11:
 304              		.loc 1 250 0
 305              		.cfi_startproc
 306              	.LVL18:
 307 0000 10B5     		push	{r4, lr}
 308              	.LCFI3:
 309              		.cfi_def_cfa_offset 8
 310              		.cfi_offset 4, -8
 311              		.cfi_offset 14, -4
 312              		.loc 1 250 0
 313 0002 041C     		mov	r4, r0
 314              		.loc 1 252 0
 315              	@ 252 "../../ChibiOS_2.6.1/os/kernel/src/chthreads.c" 1
 316 0004 72B6     		cpsid   i
 317              	@ 0 "" 2
 318              		.loc 1 256 0
 319              		.code	16
 320 0006 0021     		mov	r1, #0
 321 0008 FFF7FEFF 		bl	chSchWakeupS
 322              	.LVL19:
 323              		.loc 1 257 0
 324              	@ 257 "../../ChibiOS_2.6.1/os/kernel/src/chthreads.c" 1
 325 000c 62B6     		cpsie   i
 326              	@ 0 "" 2
 327              		.loc 1 259 0
 328              		.code	16
 329 000e 201C     		mov	r0, r4
 330              		@ sp needed for prologue
 331              	.LVL20:
 332 0010 10BD     		pop	{r4, pc}
 333              		.cfi_endproc
 334              	.LFE11:
 335              		.size	chThdResume, .-chThdResume
 336 0012 C046C046 		.section	.text.chThdTerminate,"ax",%progbits
 336      C046C046 
 336      C046C046 
 336      C046
 337              		.align	2
 338              		.p2align 4,,15
ARM GAS  C:\Users\3130\AppData\Local\Temp\cci3Wvfd.s 			page 7


 339              		.global	chThdTerminate
 340              		.code	16
 341              		.thumb_func
 342              		.type	chThdTerminate, %function
 343              	chThdTerminate:
 344              	.LFB12:
 345              		.loc 1 273 0
 346              		.cfi_startproc
 347              	.LVL21:
 348              		.loc 1 275 0
 349              	@ 275 "../../ChibiOS_2.6.1/os/kernel/src/chthreads.c" 1
 350 0000 72B6     		cpsid   i
 351              	@ 0 "" 2
 352              		.loc 1 276 0
 353              		.code	16
 354 0002 427F     		ldrb	r2, [r0, #29]
 355 0004 0423     		mov	r3, #4
 356 0006 1343     		orr	r3, r2
 357 0008 4377     		strb	r3, [r0, #29]
 358              		.loc 1 277 0
 359              	@ 277 "../../ChibiOS_2.6.1/os/kernel/src/chthreads.c" 1
 360 000a 62B6     		cpsie   i
 361              	@ 0 "" 2
 362              		.loc 1 278 0
 363              		.code	16
 364              		@ sp needed for prologue
 365 000c 7047     		bx	lr
 366              		.cfi_endproc
 367              	.LFE12:
 368              		.size	chThdTerminate, .-chThdTerminate
 369 000e C046     		.section	.text.chThdSleep,"ax",%progbits
 370              		.align	2
 371              		.p2align 4,,15
 372              		.global	chThdSleep
 373              		.code	16
 374              		.thumb_func
 375              		.type	chThdSleep, %function
 376              	chThdSleep:
 377              	.LFB13:
 378              		.loc 1 292 0
 379              		.cfi_startproc
 380              	.LVL22:
 381 0000 08B5     		push	{r3, lr}
 382              	.LCFI4:
 383              		.cfi_def_cfa_offset 8
 384              		.cfi_offset 3, -8
 385              		.cfi_offset 14, -4
 386              		.loc 1 292 0
 387 0002 011C     		mov	r1, r0
 388              		.loc 1 296 0
 389              	@ 296 "../../ChibiOS_2.6.1/os/kernel/src/chthreads.c" 1
 390 0004 72B6     		cpsid   i
 391              	@ 0 "" 2
 392              		.loc 1 297 0
 393              		.code	16
 394 0006 0620     		mov	r0, #6
 395              	.LVL23:
ARM GAS  C:\Users\3130\AppData\Local\Temp\cci3Wvfd.s 			page 8


 396 0008 FFF7FEFF 		bl	chSchGoSleepTimeoutS
 397              	.LVL24:
 398              		.loc 1 298 0
 399              	@ 298 "../../ChibiOS_2.6.1/os/kernel/src/chthreads.c" 1
 400 000c 62B6     		cpsie   i
 401              	@ 0 "" 2
 402              		.loc 1 299 0
 403              		.code	16
 404              		@ sp needed for prologue
 405 000e 08BD     		pop	{r3, pc}
 406              		.cfi_endproc
 407              	.LFE13:
 408              		.size	chThdSleep, .-chThdSleep
 409              		.section	.text.chThdSleepUntil,"ax",%progbits
 410              		.align	2
 411              		.p2align 4,,15
 412              		.global	chThdSleepUntil
 413              		.code	16
 414              		.thumb_func
 415              		.type	chThdSleepUntil, %function
 416              	chThdSleepUntil:
 417              	.LFB14:
 418              		.loc 1 309 0
 419              		.cfi_startproc
 420              	.LVL25:
 421 0000 08B5     		push	{r3, lr}
 422              	.LCFI5:
 423              		.cfi_def_cfa_offset 8
 424              		.cfi_offset 3, -8
 425              		.cfi_offset 14, -4
 426              		.loc 1 311 0
 427              	@ 311 "../../ChibiOS_2.6.1/os/kernel/src/chthreads.c" 1
 428 0002 72B6     		cpsid   i
 429              	@ 0 "" 2
 430              		.loc 1 312 0
 431              		.code	16
 432 0004 044B     		ldr	r3, .L22
 433 0006 D968     		ldr	r1, [r3, #12]
 434 0008 411A     		sub	r1, r0, r1
 435              	.LVL26:
 436 000a 02D0     		beq	.L18
 437              		.loc 1 313 0
 438 000c 0620     		mov	r0, #6
 439 000e FFF7FEFF 		bl	chSchGoSleepTimeoutS
 440              	.LVL27:
 441              	.L18:
 442              		.loc 1 314 0
 443              	@ 314 "../../ChibiOS_2.6.1/os/kernel/src/chthreads.c" 1
 444 0012 62B6     		cpsie   i
 445              	@ 0 "" 2
 446              		.loc 1 315 0
 447              		.code	16
 448              		@ sp needed for prologue
 449 0014 08BD     		pop	{r3, pc}
 450              	.L23:
 451 0016 C046     		.align	2
 452              	.L22:
ARM GAS  C:\Users\3130\AppData\Local\Temp\cci3Wvfd.s 			page 9


 453 0018 00000000 		.word	vtlist
 454              		.cfi_endproc
 455              	.LFE14:
 456              		.size	chThdSleepUntil, .-chThdSleepUntil
 457 001c C046C046 		.section	.text.chThdYield,"ax",%progbits
 458              		.align	2
 459              		.p2align 4,,15
 460              		.global	chThdYield
 461              		.code	16
 462              		.thumb_func
 463              		.type	chThdYield, %function
 464              	chThdYield:
 465              	.LFB15:
 466              		.loc 1 324 0
 467              		.cfi_startproc
 468 0000 08B5     		push	{r3, lr}
 469              	.LCFI6:
 470              		.cfi_def_cfa_offset 8
 471              		.cfi_offset 3, -8
 472              		.cfi_offset 14, -4
 473              		.loc 1 326 0
 474              	@ 326 "../../ChibiOS_2.6.1/os/kernel/src/chthreads.c" 1
 475 0002 72B6     		cpsid   i
 476              	@ 0 "" 2
 477              		.loc 1 327 0
 478              		.code	16
 479 0004 054B     		ldr	r3, .L26
 480 0006 1A68     		ldr	r2, [r3]
 481 0008 9869     		ldr	r0, [r3, #24]
 482 000a 9168     		ldr	r1, [r2, #8]
 483 000c 8368     		ldr	r3, [r0, #8]
 484 000e 9942     		cmp	r1, r3
 485 0010 01D3     		bcc	.L25
 486              		.loc 1 327 0 is_stmt 0 discriminator 1
 487 0012 FFF7FEFF 		bl	chSchDoRescheduleBehind
 488              	.LVL28:
 489              	.L25:
 490              		.loc 1 328 0 is_stmt 1
 491              	@ 328 "../../ChibiOS_2.6.1/os/kernel/src/chthreads.c" 1
 492 0016 62B6     		cpsie   i
 493              	@ 0 "" 2
 494              		.loc 1 329 0
 495              		.code	16
 496              		@ sp needed for prologue
 497 0018 08BD     		pop	{r3, pc}
 498              	.L27:
 499 001a C046     		.align	2
 500              	.L26:
 501 001c 00000000 		.word	rlist
 502              		.cfi_endproc
 503              	.LFE15:
 504              		.size	chThdYield, .-chThdYield
 505              		.section	.text.chThdExitS,"ax",%progbits
 506              		.align	2
 507              		.p2align 4,,15
 508              		.global	chThdExitS
 509              		.code	16
ARM GAS  C:\Users\3130\AppData\Local\Temp\cci3Wvfd.s 			page 10


 510              		.thumb_func
 511              		.type	chThdExitS, %function
 512              	chThdExitS:
 513              	.LFB17:
 514              		.loc 1 366 0
 515              		.cfi_startproc
 516              	.LVL29:
 517 0000 38B5     		push	{r3, r4, r5, lr}
 518              	.LCFI7:
 519              		.cfi_def_cfa_offset 16
 520              		.cfi_offset 3, -16
 521              		.cfi_offset 4, -12
 522              		.cfi_offset 5, -8
 523              		.cfi_offset 14, -4
 524              		.loc 1 367 0
 525 0002 0D4B     		ldr	r3, .L36
 526 0004 9C69     		ldr	r4, [r3, #24]
 527              	.LVL30:
 528              		.loc 1 369 0
 529 0006 6062     		str	r0, [r4, #36]
 530              		.loc 1 374 0
 531 0008 251C     		mov	r5, r4
 532 000a A06A     		ldr	r0, [r4, #40]
 533              	.LVL31:
 534 000c 2835     		add	r5, r5, #40
 535 000e A842     		cmp	r0, r5
 536 0010 06D0     		beq	.L33
 537              	.LVL32:
 538              	.L34:
 539              	.LBB10:
 540              	.LBB11:
 541              		.file 2 "../../ChibiOS_2.6.1/os/kernel/include/chinline.h"
 542              		.loc 2 89 0
 543 0012 0168     		ldr	r1, [r0]
 544 0014 A162     		str	r1, [r4, #40]
 545              	.LBE11:
 546              	.LBE10:
 547              		.loc 1 375 0
 548 0016 FFF7FEFF 		bl	chSchReadyI
 549              	.LVL33:
 550              		.loc 1 374 0
 551 001a A06A     		ldr	r0, [r4, #40]
 552 001c A842     		cmp	r0, r5
 553 001e F8D1     		bne	.L34
 554              	.LVL34:
 555              	.L33:
 556              		.loc 1 380 0
 557 0020 607F     		ldrb	r0, [r4, #29]
 558 0022 8207     		lsl	r2, r0, #30
 559 0024 04D1     		bne	.L31
 560              		.loc 1 381 0
 561 0026 6369     		ldr	r3, [r4, #20]
 562 0028 2269     		ldr	r2, [r4, #16]
 563 002a 1A61     		str	r2, [r3, #16]
 564 002c 2469     		ldr	r4, [r4, #16]
 565              	.LVL35:
 566 002e 6361     		str	r3, [r4, #20]
ARM GAS  C:\Users\3130\AppData\Local\Temp\cci3Wvfd.s 			page 11


 567              	.L31:
 568              		.loc 1 383 0
 569 0030 0E20     		mov	r0, #14
 570 0032 FFF7FEFF 		bl	chSchGoSleepS
 571              	.LVL36:
 572              		.loc 1 386 0
 573              		@ sp needed for prologue
 574              	.LVL37:
 575 0036 38BD     		pop	{r3, r4, r5, pc}
 576              	.L37:
 577              		.align	2
 578              	.L36:
 579 0038 00000000 		.word	rlist
 580              		.cfi_endproc
 581              	.LFE17:
 582              		.size	chThdExitS, .-chThdExitS
 583 003c C046C046 		.section	.text.chThdExit,"ax",%progbits
 584              		.align	2
 585              		.p2align 4,,15
 586              		.global	chThdExit
 587              		.code	16
 588              		.thumb_func
 589              		.type	chThdExit, %function
 590              	chThdExit:
 591              	.LFB16:
 592              		.loc 1 345 0
 593              		.cfi_startproc
 594              	.LVL38:
 595 0000 08B5     		push	{r3, lr}
 596              	.LCFI8:
 597              		.cfi_def_cfa_offset 8
 598              		.cfi_offset 3, -8
 599              		.cfi_offset 14, -4
 600              		.loc 1 347 0
 601              	@ 347 "../../ChibiOS_2.6.1/os/kernel/src/chthreads.c" 1
 602 0002 72B6     		cpsid   i
 603              	@ 0 "" 2
 604              		.loc 1 348 0
 605              		.code	16
 606 0004 FFF7FEFF 		bl	chThdExitS
 607              	.LVL39:
 608              		.loc 1 350 0
 609              		@ sp needed for prologue
 610 0008 08BD     		pop	{r3, pc}
 611              		.cfi_endproc
 612              	.LFE16:
 613              		.size	chThdExit, .-chThdExit
 614 000a C046C046 		.section	.text.chThdWait,"ax",%progbits
 614      C046
 615              		.align	2
 616              		.p2align 4,,15
 617              		.global	chThdWait
 618              		.code	16
 619              		.thumb_func
 620              		.type	chThdWait, %function
 621              	chThdWait:
 622              	.LFB18:
ARM GAS  C:\Users\3130\AppData\Local\Temp\cci3Wvfd.s 			page 12


 623              		.loc 1 420 0
 624              		.cfi_startproc
 625              	.LVL40:
 626 0000 38B5     		push	{r3, r4, r5, lr}
 627              	.LCFI9:
 628              		.cfi_def_cfa_offset 16
 629              		.cfi_offset 3, -16
 630              		.cfi_offset 4, -12
 631              		.cfi_offset 5, -8
 632              		.cfi_offset 14, -4
 633              		.loc 1 420 0
 634 0002 041C     		mov	r4, r0
 635              		.loc 1 425 0
 636              	@ 425 "../../ChibiOS_2.6.1/os/kernel/src/chthreads.c" 1
 637 0004 72B6     		cpsid   i
 638              	@ 0 "" 2
 639              		.loc 1 430 0
 640              		.code	16
 641 0006 037F     		ldrb	r3, [r0, #28]
 642 0008 0E2B     		cmp	r3, #14
 643 000a 07D0     		beq	.L40
 644              		.loc 1 431 0
 645 000c 0748     		ldr	r0, .L44
 646              	.LVL41:
 647              	.LBB12:
 648              	.LBB13:
 649              		.loc 2 82 0
 650 000e A26A     		ldr	r2, [r4, #40]
 651              	.LBE13:
 652              	.LBE12:
 653              		.loc 1 431 0
 654 0010 8169     		ldr	r1, [r0, #24]
 655              	.LVL42:
 656              		.loc 1 432 0
 657 0012 0720     		mov	r0, #7
 658              	.LBB15:
 659              	.LBB14:
 660              		.loc 2 82 0
 661 0014 0A60     		str	r2, [r1]
 662              		.loc 2 83 0
 663 0016 A162     		str	r1, [r4, #40]
 664              	.LBE14:
 665              	.LBE15:
 666              		.loc 1 432 0
 667 0018 FFF7FEFF 		bl	chSchGoSleepS
 668              	.LVL43:
 669              	.L40:
 670              		.loc 1 434 0
 671 001c 656A     		ldr	r5, [r4, #36]
 672              	.LVL44:
 673              		.loc 1 435 0
 674              	@ 435 "../../ChibiOS_2.6.1/os/kernel/src/chthreads.c" 1
 675 001e 62B6     		cpsie   i
 676              	@ 0 "" 2
 677              		.loc 1 437 0
 678              		.code	16
 679 0020 201C     		mov	r0, r4
ARM GAS  C:\Users\3130\AppData\Local\Temp\cci3Wvfd.s 			page 13


 680 0022 FFF7FEFF 		bl	chThdRelease
 681              	.LVL45:
 682              		.loc 1 440 0
 683              		@ sp needed for prologue
 684 0026 281C     		mov	r0, r5
 685              	.LVL46:
 686              	.LVL47:
 687 0028 38BD     		pop	{r3, r4, r5, pc}
 688              	.L45:
 689 002a C046     		.align	2
 690              	.L44:
 691 002c 00000000 		.word	rlist
 692              		.cfi_endproc
 693              	.LFE18:
 694              		.size	chThdWait, .-chThdWait
 695              		.text
 696              	.Letext0:
 697              		.file 3 "c:\\stm32f0-discovery_tools\\gcc-arm-none-eabi\\bin\\../lib/gcc/arm-none-eabi/4.7.4/inclu
 698              		.file 4 "c:\\stm32f0-discovery_tools\\gcc-arm-none-eabi\\bin\\../lib/gcc/arm-none-eabi/4.7.4/../..
 699              		.file 5 "../../ChibiOS_2.6.1/os/ports/GCC/ARMCMx/chtypes.h"
 700              		.file 6 "../../ChibiOS_2.6.1/os/kernel/include/chlists.h"
 701              		.file 7 "../../ChibiOS_2.6.1/os/kernel/include/chthreads.h"
 702              		.file 8 "../../ChibiOS_2.6.1/os/ports/GCC/ARMCMx/chcore_v6m.h"
 703              		.file 9 "../../ChibiOS_2.6.1/os/kernel/include/chvt.h"
 704              		.file 10 "../../ChibiOS_2.6.1/os/kernel/include/chschd.h"
 705              		.file 11 "../../ChibiOS_2.6.1/os/kernel/include/chmtx.h"
 706              		.file 12 "../../ChibiOS_2.6.1/os/kernel/include/chdynamic.h"