ARM GAS  C:\Users\3130\AppData\Local\Temp\ccONxat4.s 			page 1


   1              		.cpu cortex-m0
   2              		.fpu softvfp
   3              		.eabi_attribute 20, 1
   4              		.eabi_attribute 21, 1
   5              		.eabi_attribute 23, 3
   6              		.eabi_attribute 24, 1
   7              		.eabi_attribute 25, 1
   8              		.eabi_attribute 26, 1
   9              		.eabi_attribute 30, 2
  10              		.eabi_attribute 34, 0
  11              		.eabi_attribute 18, 4
  12              		.code	16
  13              		.file	"chvt.c"
  14              		.text
  15              	.Ltext0:
  16              		.cfi_sections	.debug_frame
  17              		.section	.text._vt_init,"ax",%progbits
  18              		.align	2
  19              		.p2align 4,,15
  20              		.global	_vt_init
  21              		.code	16
  22              		.thumb_func
  23              		.type	_vt_init, %function
  24              	_vt_init:
  25              	.LFB7:
  26              		.file 1 "../../ChibiOS_2.6.1/os/kernel/src/chvt.c"
  27              		.loc 1 50 0
  28              		.cfi_startproc
  29              		.loc 1 52 0
  30 0000 044B     		ldr	r3, .L2
  31              		.loc 1 53 0
  32 0002 0122     		mov	r2, #1
  33 0004 5042     		neg	r0, r2
  34              		.loc 1 54 0
  35 0006 0021     		mov	r1, #0
  36              		.loc 1 52 0
  37 0008 5B60     		str	r3, [r3, #4]
  38 000a 1B60     		str	r3, [r3]
  39              		.loc 1 53 0
  40 000c 9860     		str	r0, [r3, #8]
  41              		.loc 1 54 0
  42 000e D960     		str	r1, [r3, #12]
  43              		.loc 1 55 0
  44              		@ sp needed for prologue
  45 0010 7047     		bx	lr
  46              	.L3:
  47 0012 C046     		.align	2
  48              	.L2:
  49 0014 00000000 		.word	.LANCHOR0
  50              		.cfi_endproc
  51              	.LFE7:
  52              		.size	_vt_init, .-_vt_init
  53 0018 C046C046 		.section	.text.chVTSetI,"ax",%progbits
  53      C046C046 
  54              		.align	2
  55              		.p2align 4,,15
  56              		.global	chVTSetI
ARM GAS  C:\Users\3130\AppData\Local\Temp\ccONxat4.s 			page 2


  57              		.code	16
  58              		.thumb_func
  59              		.type	chVTSetI, %function
  60              	chVTSetI:
  61              	.LFB8:
  62              		.loc 1 76 0
  63              		.cfi_startproc
  64              	.LVL0:
  65 0000 10B5     		push	{r4, lr}
  66              	.LCFI0:
  67              		.cfi_def_cfa_offset 8
  68              		.cfi_offset 4, -8
  69              		.cfi_offset 14, -4
  70              		.loc 1 85 0
  71 0002 0C4C     		ldr	r4, .L11
  72              		.loc 1 83 0
  73 0004 0361     		str	r3, [r0, #16]
  74              		.loc 1 85 0
  75 0006 2368     		ldr	r3, [r4]
  76              	.LVL1:
  77              		.loc 1 84 0
  78 0008 C260     		str	r2, [r0, #12]
  79              		.loc 1 86 0
  80 000a 9A68     		ldr	r2, [r3, #8]
  81              	.LVL2:
  82 000c 9142     		cmp	r1, r2
  83 000e 04D9     		bls	.L5
  84              	.L8:
  85              		.loc 1 88 0
  86 0010 1B68     		ldr	r3, [r3]
  87              	.LVL3:
  88              		.loc 1 87 0
  89 0012 891A     		sub	r1, r1, r2
  90              	.LVL4:
  91              		.loc 1 86 0
  92 0014 9A68     		ldr	r2, [r3, #8]
  93 0016 8A42     		cmp	r2, r1
  94 0018 FAD3     		bcc	.L8
  95              	.L5:
  96              		.loc 1 91 0
  97 001a 5A68     		ldr	r2, [r3, #4]
  98 001c 0360     		str	r3, [r0]
  99 001e 4260     		str	r2, [r0, #4]
 100              		.loc 1 92 0
 101 0020 1060     		str	r0, [r2]
 102 0022 5860     		str	r0, [r3, #4]
 103              		.loc 1 93 0
 104 0024 8160     		str	r1, [r0, #8]
 105              		.loc 1 94 0
 106 0026 A342     		cmp	r3, r4
 107 0028 02D0     		beq	.L4
 108              		.loc 1 95 0
 109 002a 9868     		ldr	r0, [r3, #8]
 110              	.LVL5:
 111 002c 411A     		sub	r1, r0, r1
 112              	.LVL6:
 113 002e 9960     		str	r1, [r3, #8]
ARM GAS  C:\Users\3130\AppData\Local\Temp\ccONxat4.s 			page 3


 114              	.L4:
 115              		.loc 1 96 0
 116              		@ sp needed for prologue
 117 0030 10BD     		pop	{r4, pc}
 118              	.L12:
 119 0032 C046     		.align	2
 120              	.L11:
 121 0034 00000000 		.word	.LANCHOR0
 122              		.cfi_endproc
 123              	.LFE8:
 124              		.size	chVTSetI, .-chVTSetI
 125 0038 C046C046 		.section	.text.chVTResetI,"ax",%progbits
 125      C046C046 
 126              		.align	2
 127              		.p2align 4,,15
 128              		.global	chVTResetI
 129              		.code	16
 130              		.thumb_func
 131              		.type	chVTResetI, %function
 132              	chVTResetI:
 133              	.LFB9:
 134              		.loc 1 106 0
 135              		.cfi_startproc
 136              	.LVL7:
 137              		.loc 1 114 0
 138 0000 0368     		ldr	r3, [r0]
 139 0002 074A     		ldr	r2, .L15
 140              		.loc 1 106 0
 141 0004 10B5     		push	{r4, lr}
 142              	.LCFI1:
 143              		.cfi_def_cfa_offset 8
 144              		.cfi_offset 4, -8
 145              		.cfi_offset 14, -4
 146              		.loc 1 114 0
 147 0006 9342     		cmp	r3, r2
 148 0008 03D0     		beq	.L14
 149              		.loc 1 115 0
 150 000a 9968     		ldr	r1, [r3, #8]
 151 000c 8468     		ldr	r4, [r0, #8]
 152 000e 0A19     		add	r2, r1, r4
 153 0010 9A60     		str	r2, [r3, #8]
 154              	.L14:
 155              		.loc 1 116 0
 156 0012 4168     		ldr	r1, [r0, #4]
 157              		.loc 1 118 0
 158 0014 0024     		mov	r4, #0
 159              		.loc 1 116 0
 160 0016 0B60     		str	r3, [r1]
 161              		.loc 1 117 0
 162 0018 0368     		ldr	r3, [r0]
 163              		.loc 1 118 0
 164 001a C460     		str	r4, [r0, #12]
 165              		.loc 1 117 0
 166 001c 5960     		str	r1, [r3, #4]
 167              		.loc 1 119 0
 168              		@ sp needed for prologue
 169 001e 10BD     		pop	{r4, pc}
ARM GAS  C:\Users\3130\AppData\Local\Temp\ccONxat4.s 			page 4


 170              	.L16:
 171              		.align	2
 172              	.L15:
 173 0020 00000000 		.word	.LANCHOR0
 174              		.cfi_endproc
 175              	.LFE9:
 176              		.size	chVTResetI, .-chVTResetI
 177 0024 C046C046 		.section	.text.chTimeIsWithin,"ax",%progbits
 177      C046C046 
 177      C046C046 
 178              		.align	2
 179              		.p2align 4,,15
 180              		.global	chTimeIsWithin
 181              		.code	16
 182              		.thumb_func
 183              		.type	chTimeIsWithin, %function
 184              	chTimeIsWithin:
 185              	.LFB10:
 186              		.loc 1 134 0
 187              		.cfi_startproc
 188              	.LVL8:
 189              		.loc 1 136 0
 190 0000 074A     		ldr	r2, .L25
 191              		.loc 1 134 0
 192 0002 031C     		mov	r3, r0
 193              		.loc 1 136 0
 194 0004 D268     		ldr	r2, [r2, #12]
 195              	.LVL9:
 196              		.loc 1 137 0
 197 0006 8142     		cmp	r1, r0
 198 0008 06D9     		bls	.L18
 199              		.loc 1 137 0 is_stmt 0 discriminator 1
 200 000a 0020     		mov	r0, #0
 201              	.LVL10:
 202 000c 9A42     		cmp	r2, r3
 203 000e 02D3     		bcc	.L20
 204              	.L24:
 205              		.loc 1 138 0 is_stmt 1 discriminator 2
 206 0010 8A42     		cmp	r2, r1
 207 0012 8041     		sbc	r0, r0, r0
 208 0014 4042     		neg	r0, r0
 209              	.L20:
 210              		.loc 1 139 0 discriminator 2
 211              		@ sp needed for prologue
 212 0016 7047     		bx	lr
 213              	.LVL11:
 214              	.L18:
 215              		.loc 1 138 0
 216 0018 0120     		mov	r0, #1
 217              	.LVL12:
 218 001a 9A42     		cmp	r2, r3
 219 001c FBD2     		bcs	.L20
 220 001e F7E7     		b	.L24
 221              	.L26:
 222              		.align	2
 223              	.L25:
 224 0020 00000000 		.word	.LANCHOR0
ARM GAS  C:\Users\3130\AppData\Local\Temp\ccONxat4.s 			page 5


 225              		.cfi_endproc
 226              	.LFE10:
 227              		.size	chTimeIsWithin, .-chTimeIsWithin
 228              		.global	vtlist
 229 0024 C046C046 		.section	.bss.vtlist,"aw",%nobits
 229      C046C046 
 229      C046C046 
 230              		.align	2
 231              		.set	.LANCHOR0,. + 0
 232              		.type	vtlist, %object
 233              		.size	vtlist, 16
 234              	vtlist:
 235 0000 00000000 		.space	16
 235      00000000 
 235      00000000 
 235      00000000 
 236              		.text
 237              	.Letext0:
 238              		.file 2 "c:\\stm32f0-discovery_tools\\gcc-arm-none-eabi\\bin\\../lib/gcc/arm-none-eabi/4.7.4/../..
 239              		.file 3 "../../ChibiOS_2.6.1/os/ports/GCC/ARMCMx/chtypes.h"
 240              		.file 4 "../../ChibiOS_2.6.1/os/kernel/include/chvt.h"