ARM GAS  C:\Users\3130\AppData\Local\Temp\cczaoBTT.s 			page 1


   1              		.cpu cortex-m0
   2              		.fpu softvfp
   3              		.eabi_attribute 20, 1
   4              		.eabi_attribute 21, 1
   5              		.eabi_attribute 23, 3
   6              		.eabi_attribute 24, 1
   7              		.eabi_attribute 25, 1
   8              		.eabi_attribute 26, 1
   9              		.eabi_attribute 30, 2
  10              		.eabi_attribute 34, 0
  11              		.eabi_attribute 18, 4
  12              		.code	16
  13              		.file	"main.c"
  14              		.text
  15              	.Ltext0:
  16              		.cfi_sections	.debug_frame
  17              		.section	.text.Thread2,"ax",%progbits
  18              		.align	2
  19              		.p2align 4,,15
  20              		.code	16
  21              		.thumb_func
  22              		.type	Thread2, %function
  23              	Thread2:
  24              	.LFB41:
  25              		.file 1 "main.c"
  26              		.loc 1 41 0
  27              		.cfi_startproc
  28              	.LVL0:
  29              		.loc 1 44 0
  30 0000 084B     		ldr	r3, .L4
  31              		.loc 1 41 0
  32 0002 70B5     		push	{r4, r5, r6, lr}
  33              	.LCFI0:
  34              		.cfi_def_cfa_offset 16
  35              		.cfi_offset 4, -16
  36              		.cfi_offset 5, -12
  37              		.cfi_offset 6, -8
  38              		.cfi_offset 14, -4
  39              		.loc 1 44 0
  40 0004 9869     		ldr	r0, [r3, #24]
  41              	.LVL1:
  42 0006 084A     		ldr	r2, .L4+4
  43              		.loc 1 46 0
  44 0008 8025     		mov	r5, #128
  45 000a AD00     		lsl	r5, r5, #2
  46 000c 074C     		ldr	r4, .L4+8
  47              		.loc 1 44 0
  48 000e 8261     		str	r2, [r0, #24]
  49              		.loc 1 46 0
  50 0010 2E1C     		add	r6, r5, #0
  51              	.L2:
  52              		.loc 1 46 0 is_stmt 0 discriminator 1
  53 0012 6683     		strh	r6, [r4, #26]
  54              		.loc 1 47 0 is_stmt 1 discriminator 1
  55 0014 FA20     		mov	r0, #250
  56 0016 FFF7FEFF 		bl	chThdSleep
  57              	.LVL2:
ARM GAS  C:\Users\3130\AppData\Local\Temp\cczaoBTT.s 			page 2


  58              		.loc 1 48 0 discriminator 1
  59 001a 2583     		strh	r5, [r4, #24]
  60              		.loc 1 49 0 discriminator 1
  61 001c FA20     		mov	r0, #250
  62 001e FFF7FEFF 		bl	chThdSleep
  63              	.LVL3:
  64 0022 F6E7     		b	.L2
  65              	.L5:
  66              		.align	2
  67              	.L4:
  68 0024 00000000 		.word	rlist
  69 0028 00000000 		.word	.LC1
  70 002c 00080048 		.word	1207961600
  71              		.cfi_endproc
  72              	.LFE41:
  73              		.size	Thread2, .-Thread2
  74              		.section	.text.Thread1,"ax",%progbits
  75              		.align	2
  76              		.p2align 4,,15
  77              		.code	16
  78              		.thumb_func
  79              		.type	Thread1, %function
  80              	Thread1:
  81              	.LFB40:
  82              		.loc 1 25 0
  83              		.cfi_startproc
  84              	.LVL4:
  85              		.loc 1 28 0
  86 0000 094B     		ldr	r3, .L8
  87              		.loc 1 25 0
  88 0002 70B5     		push	{r4, r5, r6, lr}
  89              	.LCFI1:
  90              		.cfi_def_cfa_offset 16
  91              		.cfi_offset 4, -16
  92              		.cfi_offset 5, -12
  93              		.cfi_offset 6, -8
  94              		.cfi_offset 14, -4
  95              		.loc 1 28 0
  96 0004 9869     		ldr	r0, [r3, #24]
  97              	.LVL5:
  98 0006 094A     		ldr	r2, .L8+4
  99              		.loc 1 30 0
 100 0008 8025     		mov	r5, #128
 101 000a 6D00     		lsl	r5, r5, #1
 102 000c 084C     		ldr	r4, .L8+8
 103              		.loc 1 28 0
 104 000e 8261     		str	r2, [r0, #24]
 105              		.loc 1 30 0
 106 0010 2E1C     		add	r6, r5, #0
 107              	.L7:
 108              		.loc 1 31 0 discriminator 1
 109 0012 FA21     		mov	r1, #250
 110 0014 4800     		lsl	r0, r1, #1
 111              		.loc 1 30 0 discriminator 1
 112 0016 6683     		strh	r6, [r4, #26]
 113              		.loc 1 31 0 discriminator 1
 114 0018 FFF7FEFF 		bl	chThdSleep
ARM GAS  C:\Users\3130\AppData\Local\Temp\cczaoBTT.s 			page 3


 115              	.LVL6:
 116              		.loc 1 33 0 discriminator 1
 117 001c FA23     		mov	r3, #250
 118              		.loc 1 32 0 discriminator 1
 119 001e 2583     		strh	r5, [r4, #24]
 120              		.loc 1 33 0 discriminator 1
 121 0020 5800     		lsl	r0, r3, #1
 122 0022 FFF7FEFF 		bl	chThdSleep
 123              	.LVL7:
 124 0026 F4E7     		b	.L7
 125              	.L9:
 126              		.align	2
 127              	.L8:
 128 0028 00000000 		.word	rlist
 129 002c 0C000000 		.word	.LC4
 130 0030 00080048 		.word	1207961600
 131              		.cfi_endproc
 132              	.LFE40:
 133              		.size	Thread1, .-Thread1
 134 0034 C046C046 		.section	.text.startup.main,"ax",%progbits
 134      C046C046 
 134      C046C046 
 135              		.align	2
 136              		.p2align 4,,15
 137              		.global	main
 138              		.code	16
 139              		.thumb_func
 140              		.type	main, %function
 141              	main:
 142              	.LFB42:
 143              		.loc 1 56 0
 144              		.cfi_startproc
 145 0000 70B5     		push	{r4, r5, r6, lr}
 146              	.LCFI2:
 147              		.cfi_def_cfa_offset 16
 148              		.cfi_offset 4, -16
 149              		.cfi_offset 5, -12
 150              		.cfi_offset 6, -8
 151              		.cfi_offset 14, -4
 152 0002 82B0     		sub	sp, sp, #8
 153              	.LCFI3:
 154              		.cfi_def_cfa_offset 24
 155              		.loc 1 65 0
 156 0004 FFF7FEFF 		bl	halInit
 157              	.LVL8:
 158              		.loc 1 66 0
 159 0008 FFF7FEFF 		bl	chSysInit
 160              	.LVL9:
 161              		.loc 1 72 0
 162 000c 194E     		ldr	r6, .L16
 163 000e 0021     		mov	r1, #0
 164 0010 301C     		mov	r0, r6
 165 0012 FFF7FEFF 		bl	sdStart
 166              	.LVL10:
 167              		.loc 1 73 0
 168 0016 9020     		mov	r0, #144
 169 0018 8021     		mov	r1, #128
ARM GAS  C:\Users\3130\AppData\Local\Temp\cczaoBTT.s 			page 4


 170 001a C005     		lsl	r0, r0, #23
 171 001c 8900     		lsl	r1, r1, #2
 172 001e 8222     		mov	r2, #130
 173 0020 FFF7FEFF 		bl	_pal_lld_setgroupmode
 174              	.LVL11:
 175              		.loc 1 74 0
 176 0024 8023     		mov	r3, #128
 177 0026 9022     		mov	r2, #144
 178 0028 D005     		lsl	r0, r2, #23
 179 002a D900     		lsl	r1, r3, #3
 180              		.loc 1 79 0
 181 002c 0024     		mov	r4, #0
 182              		.loc 1 74 0
 183 002e 8222     		mov	r2, #130
 184              		.loc 1 79 0
 185 0030 9825     		mov	r5, #152
 186              		.loc 1 74 0
 187 0032 FFF7FEFF 		bl	_pal_lld_setgroupmode
 188              	.LVL12:
 189              		.loc 1 79 0
 190 0036 6900     		lsl	r1, r5, #1
 191 0038 0094     		str	r4, [sp]
 192 003a 4022     		mov	r2, #64
 193 003c 0E4B     		ldr	r3, .L16+4
 194 003e 0F48     		ldr	r0, .L16+8
 195 0040 FFF7FEFF 		bl	chThdCreateStatic
 196              	.LVL13:
 197              		.loc 1 80 0
 198 0044 9821     		mov	r1, #152
 199 0046 0094     		str	r4, [sp]
 200 0048 0D48     		ldr	r0, .L16+12
 201 004a 4900     		lsl	r1, r1, #1
 202 004c 4022     		mov	r2, #64
 203 004e 0D4B     		ldr	r3, .L16+16
 204 0050 FFF7FEFF 		bl	chThdCreateStatic
 205              	.LVL14:
 206              		.loc 1 89 0
 207 0054 9020     		mov	r0, #144
 208 0056 C505     		lsl	r5, r0, #23
 209 0058 0124     		mov	r4, #1
 210 005a 03E0     		b	.L12
 211              	.L11:
 212              		.loc 1 91 0
 213 005c FA23     		mov	r3, #250
 214 005e 5800     		lsl	r0, r3, #1
 215 0060 FFF7FEFF 		bl	chThdSleep
 216              	.LVL15:
 217              	.L12:
 218              		.loc 1 89 0
 219 0064 2A69     		ldr	r2, [r5, #16]
 220 0066 1442     		tst	r4, r2
 221 0068 F8D0     		beq	.L11
 222              		.loc 1 90 0
 223 006a 301C     		mov	r0, r6
 224 006c FFF7FEFF 		bl	TestThread
 225              	.LVL16:
 226 0070 F4E7     		b	.L11
ARM GAS  C:\Users\3130\AppData\Local\Temp\cczaoBTT.s 			page 5


 227              	.L17:
 228 0072 C046     		.align	2
 229              	.L16:
 230 0074 00000000 		.word	SD1
 231 0078 00000000 		.word	Thread1
 232 007c 00000000 		.word	.LANCHOR0
 233 0080 00000000 		.word	.LANCHOR1
 234 0084 00000000 		.word	Thread2
 235              		.cfi_endproc
 236              	.LFE42:
 237              		.size	main, .-main
 238 0088 C046C046 		.section	.bss.waThread1,"aw",%nobits
 238      C046C046 
 239              		.align	3
 240              		.set	.LANCHOR0,. + 0
 241              		.type	waThread1, %object
 242              		.size	waThread1, 304
 243              	waThread1:
 244 0000 00000000 		.space	304
 244      00000000 
 244      00000000 
 244      00000000 
 244      00000000 
 245              		.section	.bss.waThread2,"aw",%nobits
 246              		.align	3
 247              		.set	.LANCHOR1,. + 0
 248              		.type	waThread2, %object
 249              		.size	waThread2, 304
 250              	waThread2:
 251 0000 00000000 		.space	304
 251      00000000 
 251      00000000 
 251      00000000 
 251      00000000 
 252              		.section	.rodata.str1.4,"aMS",%progbits,1
 253              		.align	2
 254              	.LC1:
 255 0000 626C696E 		.ascii	"blinker2\000"
 255      6B657232 
 255      00
 256 0009 000000   		.space	3
 257              	.LC4:
 258 000c 626C696E 		.ascii	"blinker1\000"
 258      6B657231 
 258      00
 259 0015 000000   		.text
 260              	.Letext0:
 261              		.file 2 "c:\\stm32f0-discovery_tools\\gcc-arm-none-eabi\\bin\\../lib/gcc/arm-none-eabi/4.7.4/inclu
 262              		.file 3 "c:\\stm32f0-discovery_tools\\gcc-arm-none-eabi\\bin\\../lib/gcc/arm-none-eabi/4.7.4/../..
 263              		.file 4 "../../ChibiOS_2.6.1/os/ports/GCC/ARMCMx/chtypes.h"
 264              		.file 5 "../../ChibiOS_2.6.1/os/kernel/include/chlists.h"
 265              		.file 6 "../../ChibiOS_2.6.1/os/kernel/include/chthreads.h"
 266              		.file 7 "../../ChibiOS_2.6.1/os/ports/GCC/ARMCMx/chcore_v6m.h"
 267              		.file 8 "../../ChibiOS_2.6.1/os/kernel/include/chschd.h"
 268              		.file 9 "../../ChibiOS_2.6.1/os/kernel/include/chmtx.h"
 269              		.file 10 "../../ChibiOS_2.6.1/os/kernel/include/chevents.h"
 270              		.file 11 "../../ChibiOS_2.6.1/os/kernel/include/chqueues.h"
ARM GAS  C:\Users\3130\AppData\Local\Temp\cczaoBTT.s 			page 6


 271              		.file 12 "../../ChibiOS_2.6.1/os/hal/platforms/STM32F0xx/stm32f0xx.h"
 272              		.file 13 "../../ChibiOS_2.6.1/os/hal/platforms/STM32/GPIOv2/pal_lld.h"
 273              		.file 14 "../../ChibiOS_2.6.1/os/hal/include/serial.h"
 274              		.file 15 "../../ChibiOS_2.6.1/os/hal/platforms/STM32/USARTv2/serial_lld.h"
 275              		.file 16 "../../ChibiOS_2.6.1/os/hal/include/hal.h"
 276              		.file 17 "../../ChibiOS_2.6.1/os/kernel/include/chsys.h"
 277              		.file 18 "../../ChibiOS_2.6.1/test/test.h"