ARM GAS  C:\Users\3130\AppData\Local\Temp\ccYIRpRE.s 			page 1


   1              		.cpu cortex-m0
   2              		.fpu softvfp
   3              		.eabi_attribute 20, 1
   4              		.eabi_attribute 21, 1
   5              		.eabi_attribute 23, 3
   6              		.eabi_attribute 24, 1
   7              		.eabi_attribute 25, 1
   8              		.eabi_attribute 26, 1
   9              		.eabi_attribute 30, 2
  10              		.eabi_attribute 34, 0
  11              		.eabi_attribute 18, 4
  12              		.code	16
  13              		.file	"nvic.c"
  14              		.text
  15              	.Ltext0:
  16              		.cfi_sections	.debug_frame
  17              		.section	.text.nvicEnableVector,"ax",%progbits
  18              		.align	2
  19              		.p2align 4,,15
  20              		.global	nvicEnableVector
  21              		.code	16
  22              		.thumb_func
  23              		.type	nvicEnableVector, %function
  24              	nvicEnableVector:
  25              	.LFB7:
  26              		.file 1 "../../ChibiOS_2.6.1/os/ports/common/ARMCMx/nvic.c"
  27              		.loc 1 46 0
  28              		.cfi_startproc
  29              	.LVL0:
  30              		.loc 1 49 0
  31 0000 8208     		lsr	r2, r0, #2
  32              		.loc 1 46 0
  33 0002 70B5     		push	{r4, r5, r6, lr}
  34              	.LCFI0:
  35              		.cfi_def_cfa_offset 16
  36              		.cfi_offset 4, -16
  37              		.cfi_offset 5, -12
  38              		.cfi_offset 6, -8
  39              		.cfi_offset 14, -4
  40              		.loc 1 49 0
  41 0004 0C4B     		ldr	r3, .L2
  42 0006 C032     		add	r2, r2, #192
  43              		.loc 1 47 0
  44 0008 0324     		mov	r4, #3
  45              		.loc 1 49 0
  46 000a 9200     		lsl	r2, r2, #2
  47              		.loc 1 47 0
  48 000c 0440     		and	r4, r0
  49              		.loc 1 49 0
  50 000e D558     		ldr	r5, [r2, r3]
  51              		.loc 1 47 0
  52 0010 E400     		lsl	r4, r4, #3
  53              	.LVL1:
  54              		.loc 1 49 0
  55 0012 FF26     		mov	r6, #255
  56 0014 A640     		lsl	r6, r6, r4
  57 0016 A140     		lsl	r1, r1, r4
ARM GAS  C:\Users\3130\AppData\Local\Temp\ccYIRpRE.s 			page 2


  58              	.LVL2:
  59 0018 B543     		bic	r5, r6
  60 001a 0D43     		orr	r5, r1
  61 001c D550     		str	r5, [r2, r3]
  62              		.loc 1 50 0
  63 001e 4209     		lsr	r2, r0, #5
  64 0020 1F21     		mov	r1, #31
  65 0022 161C     		mov	r6, r2
  66 0024 6036     		add	r6, r6, #96
  67 0026 0840     		and	r0, r1
  68              	.LVL3:
  69 0028 0124     		mov	r4, #1
  70              	.LVL4:
  71 002a B500     		lsl	r5, r6, #2
  72 002c 8440     		lsl	r4, r4, r0
  73              		.loc 1 51 0
  74 002e 9200     		lsl	r2, r2, #2
  75              		.loc 1 50 0
  76 0030 EC50     		str	r4, [r5, r3]
  77              		.loc 1 52 0
  78              		@ sp needed for prologue
  79              		.loc 1 51 0
  80 0032 D450     		str	r4, [r2, r3]
  81              		.loc 1 52 0
  82 0034 70BD     		pop	{r4, r5, r6, pc}
  83              	.L3:
  84 0036 C046     		.align	2
  85              	.L2:
  86 0038 00E100E0 		.word	-536813312
  87              		.cfi_endproc
  88              	.LFE7:
  89              		.size	nvicEnableVector, .-nvicEnableVector
  90 003c C046C046 		.section	.text.nvicDisableVector,"ax",%progbits
  91              		.align	2
  92              		.p2align 4,,15
  93              		.global	nvicDisableVector
  94              		.code	16
  95              		.thumb_func
  96              		.type	nvicDisableVector, %function
  97              	nvicDisableVector:
  98              	.LFB8:
  99              		.loc 1 60 0
 100              		.cfi_startproc
 101              	.LVL5:
 102              		.loc 1 63 0
 103 0000 1F21     		mov	r1, #31
 104 0002 0140     		and	r1, r0
 105 0004 0123     		mov	r3, #1
 106 0006 8B40     		lsl	r3, r3, r1
 107 0008 4209     		lsr	r2, r0, #5
 108              		.loc 1 60 0
 109 000a 10B5     		push	{r4, lr}
 110              	.LCFI1:
 111              		.cfi_def_cfa_offset 8
 112              		.cfi_offset 4, -8
 113              		.cfi_offset 14, -4
 114              		.loc 1 63 0
ARM GAS  C:\Users\3130\AppData\Local\Temp\ccYIRpRE.s 			page 3


 115 000c 2032     		add	r2, r2, #32
 116 000e 1C1C     		mov	r4, r3
 117 0010 074B     		ldr	r3, .L5
 118 0012 9200     		lsl	r2, r2, #2
 119              		.loc 1 64 0
 120 0014 8108     		lsr	r1, r0, #2
 121              		.loc 1 63 0
 122 0016 D450     		str	r4, [r2, r3]
 123              		.loc 1 64 0
 124 0018 C031     		add	r1, r1, #192
 125              		.loc 1 61 0
 126 001a 0324     		mov	r4, #3
 127              		.loc 1 64 0
 128 001c 8A00     		lsl	r2, r1, #2
 129              		.loc 1 61 0
 130 001e 2040     		and	r0, r4
 131              	.LVL6:
 132              		.loc 1 64 0
 133 0020 D158     		ldr	r1, [r2, r3]
 134              		.loc 1 61 0
 135 0022 C000     		lsl	r0, r0, #3
 136              	.LVL7:
 137              		.loc 1 64 0
 138 0024 FF24     		mov	r4, #255
 139 0026 8440     		lsl	r4, r4, r0
 140 0028 A143     		bic	r1, r4
 141 002a D150     		str	r1, [r2, r3]
 142              		.loc 1 65 0
 143              		@ sp needed for prologue
 144 002c 10BD     		pop	{r4, pc}
 145              	.L6:
 146 002e C046     		.align	2
 147              	.L5:
 148 0030 00E100E0 		.word	-536813312
 149              		.cfi_endproc
 150              	.LFE8:
 151              		.size	nvicDisableVector, .-nvicDisableVector
 152 0034 C046C046 		.section	.text.nvicSetSystemHandlerPriority,"ax",%progbits
 152      C046C046 
 152      C046C046 
 153              		.align	2
 154              		.p2align 4,,15
 155              		.global	nvicSetSystemHandlerPriority
 156              		.code	16
 157              		.thumb_func
 158              		.type	nvicSetSystemHandlerPriority, %function
 159              	nvicSetSystemHandlerPriority:
 160              	.LFB9:
 161              		.loc 1 74 0
 162              		.cfi_startproc
 163              	.LVL8:
 164              		.loc 1 77 0
 165 0000 8208     		lsr	r2, r0, #2
 166              		.loc 1 74 0
 167 0002 30B5     		push	{r4, r5, lr}
 168              	.LCFI2:
 169              		.cfi_def_cfa_offset 12
ARM GAS  C:\Users\3130\AppData\Local\Temp\ccYIRpRE.s 			page 4


 170              		.cfi_offset 4, -12
 171              		.cfi_offset 5, -8
 172              		.cfi_offset 14, -4
 173              		.loc 1 77 0
 174 0004 064B     		ldr	r3, .L8
 175              		.loc 1 75 0
 176 0006 0325     		mov	r5, #3
 177              		.loc 1 77 0
 178 0008 0632     		add	r2, r2, #6
 179 000a 9200     		lsl	r2, r2, #2
 180              		.loc 1 75 0
 181 000c 2840     		and	r0, r5
 182              	.LVL9:
 183              		.loc 1 77 0
 184 000e D458     		ldr	r4, [r2, r3]
 185              		.loc 1 75 0
 186 0010 C000     		lsl	r0, r0, #3
 187              	.LVL10:
 188              		.loc 1 78 0
 189 0012 FF25     		mov	r5, #255
 190 0014 8540     		lsl	r5, r5, r0
 191              		.loc 1 77 0
 192 0016 AC43     		bic	r4, r5
 193              		.loc 1 78 0
 194 0018 8140     		lsl	r1, r1, r0
 195              	.LVL11:
 196 001a 0C43     		orr	r4, r1
 197              		.loc 1 77 0
 198 001c D450     		str	r4, [r2, r3]
 199              		.loc 1 79 0
 200              		@ sp needed for prologue
 201 001e 30BD     		pop	{r4, r5, pc}
 202              	.L9:
 203              		.align	2
 204              	.L8:
 205 0020 00ED00E0 		.word	-536810240
 206              		.cfi_endproc
 207              	.LFE9:
 208              		.size	nvicSetSystemHandlerPriority, .-nvicSetSystemHandlerPriority
 209 0024 C046C046 		.text
 209      C046C046 
 209      C046C046 
 210              	.Letext0:
 211              		.file 2 "c:\\stm32f0-discovery_tools\\gcc-arm-none-eabi\\bin\\../lib/gcc/arm-none-eabi/4.7.4/../..
 212              		.file 3 "../../ChibiOS_2.6.1/os/ports/common/ARMCMx/nvic.h"