ARM GAS  C:\Users\3130\AppData\Local\Temp\ccd4kUaJ.s 			page 1


   1              		.cpu cortex-m0
   2              		.fpu softvfp
   3              		.eabi_attribute 20, 1
   4              		.eabi_attribute 21, 1
   5              		.eabi_attribute 23, 3
   6              		.eabi_attribute 24, 1
   7              		.eabi_attribute 25, 1
   8              		.eabi_attribute 26, 1
   9              		.eabi_attribute 30, 2
  10              		.eabi_attribute 34, 0
  11              		.eabi_attribute 18, 4
  12              		.code	16
  13              		.file	"pal.c"
  14              		.text
  15              	.Ltext0:
  16              		.cfi_sections	.debug_frame
  17              		.section	.text.palReadBus,"ax",%progbits
  18              		.align	2
  19              		.p2align 4,,15
  20              		.global	palReadBus
  21              		.code	16
  22              		.thumb_func
  23              		.type	palReadBus, %function
  24              	palReadBus:
  25              	.LFB40:
  26              		.file 1 "../../ChibiOS_2.6.1/os/hal/src/pal.c"
  27              		.loc 1 77 0
  28              		.cfi_startproc
  29              	.LVL0:
  30              		.loc 1 82 0
  31 0000 0368     		ldr	r3, [r0]
  32 0002 8268     		ldr	r2, [r0, #8]
  33 0004 1969     		ldr	r1, [r3, #16]
  34 0006 4068     		ldr	r0, [r0, #4]
  35              	.LVL1:
  36 0008 D140     		lsr	r1, r1, r2
  37 000a 0840     		and	r0, r1
  38              		.loc 1 83 0
  39              		@ sp needed for prologue
  40 000c 7047     		bx	lr
  41              		.cfi_endproc
  42              	.LFE40:
  43              		.size	palReadBus, .-palReadBus
  44 000e C046     		.section	.text.palWriteBus,"ax",%progbits
  45              		.align	2
  46              		.p2align 4,,15
  47              		.global	palWriteBus
  48              		.code	16
  49              		.thumb_func
  50              		.type	palWriteBus, %function
  51              	palWriteBus:
  52              	.LFB41:
  53              		.loc 1 103 0
  54              		.cfi_startproc
  55              	.LVL2:
  56              		.loc 1 108 0
  57 0000 4268     		ldr	r2, [r0, #4]
ARM GAS  C:\Users\3130\AppData\Local\Temp\ccd4kUaJ.s 			page 2


  58 0002 8368     		ldr	r3, [r0, #8]
  59              		.loc 1 103 0
  60 0004 30B5     		push	{r4, r5, lr}
  61              	.LCFI0:
  62              		.cfi_def_cfa_offset 12
  63              		.cfi_offset 4, -12
  64              		.cfi_offset 5, -8
  65              		.cfi_offset 14, -4
  66              		.loc 1 108 0
  67 0006 0468     		ldr	r4, [r0]
  68 0008 151C     		mov	r5, r2
  69 000a 181C     		mov	r0, r3
  70              	.LVL3:
  71 000c 8D43     		bic	r5, r1
  72 000e 1030     		add	r0, r0, #16
  73 0010 1140     		and	r1, r2
  74              	.LVL4:
  75 0012 8540     		lsl	r5, r5, r0
  76 0014 9940     		lsl	r1, r1, r3
  77 0016 2943     		orr	r1, r5
  78 0018 A161     		str	r1, [r4, #24]
  79              		.loc 1 109 0
  80              		@ sp needed for prologue
  81 001a 30BD     		pop	{r4, r5, pc}
  82              		.cfi_endproc
  83              	.LFE41:
  84              		.size	palWriteBus, .-palWriteBus
  85 001c C046C046 		.section	.text.palSetBusMode,"ax",%progbits
  86              		.align	2
  87              		.p2align 4,,15
  88              		.global	palSetBusMode
  89              		.code	16
  90              		.thumb_func
  91              		.type	palSetBusMode, %function
  92              	palSetBusMode:
  93              	.LFB42:
  94              		.loc 1 127 0
  95              		.cfi_startproc
  96              	.LVL5:
  97 0000 08B5     		push	{r3, lr}
  98              	.LCFI1:
  99              		.cfi_def_cfa_offset 8
 100              		.cfi_offset 3, -8
 101              		.cfi_offset 14, -4
 102              		.loc 1 127 0
 103 0002 031C     		mov	r3, r0
 104 0004 0A1C     		mov	r2, r1
 105              		.loc 1 132 0
 106 0006 5968     		ldr	r1, [r3, #4]
 107              	.LVL6:
 108 0008 9B68     		ldr	r3, [r3, #8]
 109 000a 0068     		ldr	r0, [r0]
 110              	.LVL7:
 111 000c 9940     		lsl	r1, r1, r3
 112 000e FFF7FEFF 		bl	_pal_lld_setgroupmode
 113              	.LVL8:
 114              		.loc 1 133 0
ARM GAS  C:\Users\3130\AppData\Local\Temp\ccd4kUaJ.s 			page 3


 115              		@ sp needed for prologue
 116 0012 08BD     		pop	{r3, pc}
 117              		.cfi_endproc
 118              	.LFE42:
 119              		.size	palSetBusMode, .-palSetBusMode
 120 0014 C046C046 		.text
 120      C046C046 
 120      C046C046 
 121              	.Letext0:
 122              		.file 2 "c:\\stm32f0-discovery_tools\\gcc-arm-none-eabi\\bin\\../lib/gcc/arm-none-eabi/4.7.4/../..
 123              		.file 3 "../../ChibiOS_2.6.1/os/hal/platforms/STM32/GPIOv2/pal_lld.h"
 124              		.file 4 "../../ChibiOS_2.6.1/os/hal/include/pal.h"