ARM GAS  C:\Users\3130\AppData\Local\Temp\ccqWRfd5.s 			page 1


   1              		.cpu cortex-m0
   2              		.fpu softvfp
   3              		.eabi_attribute 20, 1
   4              		.eabi_attribute 21, 1
   5              		.eabi_attribute 23, 3
   6              		.eabi_attribute 24, 1
   7              		.eabi_attribute 25, 1
   8              		.eabi_attribute 26, 1
   9              		.eabi_attribute 30, 2
  10              		.eabi_attribute 34, 0
  11              		.eabi_attribute 18, 4
  12              		.code	16
  13              		.file	"pal_lld.c"
  14              		.text
  15              	.Ltext0:
  16              		.cfi_sections	.debug_frame
  17              		.section	.text._pal_lld_init,"ax",%progbits
  18              		.align	2
  19              		.p2align 4,,15
  20              		.global	_pal_lld_init
  21              		.code	16
  22              		.thumb_func
  23              		.type	_pal_lld_init, %function
  24              	_pal_lld_init:
  25              	.LFB41:
  26              		.file 1 "../../ChibiOS_2.6.1/os/hal/platforms/STM32/GPIOv2/pal_lld.c"
  27              		.loc 1 104 0
  28              		.cfi_startproc
  29              	.LVL0:
  30              		.loc 1 113 0
  31 0000 2A4B     		ldr	r3, .L2
  32 0002 BC22     		mov	r2, #188
  33 0004 5969     		ldr	r1, [r3, #20]
  34 0006 D203     		lsl	r2, r2, #15
  35 0008 0A43     		orr	r2, r1
  36 000a 5A61     		str	r2, [r3, #20]
  37              	.LVL1:
  38              	.LBB12:
  39              	.LBB13:
  40              		.loc 1 79 0
  41 000c 4268     		ldr	r2, [r0, #4]
  42 000e 9023     		mov	r3, #144
  43 0010 D905     		lsl	r1, r3, #23
  44 0012 4A60     		str	r2, [r1, #4]
  45              		.loc 1 80 0
  46 0014 8368     		ldr	r3, [r0, #8]
  47              	.LBE13:
  48              	.LBE12:
  49              		.loc 1 143 0
  50              		@ sp needed for prologue
  51              	.LBB15:
  52              	.LBB14:
  53              		.loc 1 80 0
  54 0016 8B60     		str	r3, [r1, #8]
  55              		.loc 1 81 0
  56 0018 C268     		ldr	r2, [r0, #12]
  57 001a CA60     		str	r2, [r1, #12]
ARM GAS  C:\Users\3130\AppData\Local\Temp\ccqWRfd5.s 			page 2


  58              		.loc 1 82 0
  59 001c 0369     		ldr	r3, [r0, #16]
  60 001e 4B61     		str	r3, [r1, #20]
  61              		.loc 1 83 0
  62 0020 4269     		ldr	r2, [r0, #20]
  63 0022 0A62     		str	r2, [r1, #32]
  64              		.loc 1 84 0
  65 0024 8369     		ldr	r3, [r0, #24]
  66 0026 4B62     		str	r3, [r1, #36]
  67              		.loc 1 85 0
  68 0028 0268     		ldr	r2, [r0]
  69 002a 0A60     		str	r2, [r1]
  70              	.LVL2:
  71              	.LBE14:
  72              	.LBE15:
  73              	.LBB16:
  74              	.LBB17:
  75              		.loc 1 79 0
  76 002c 036A     		ldr	r3, [r0, #32]
  77 002e 2049     		ldr	r1, .L2+4
  78 0030 4B60     		str	r3, [r1, #4]
  79              		.loc 1 80 0
  80 0032 426A     		ldr	r2, [r0, #36]
  81 0034 8A60     		str	r2, [r1, #8]
  82              		.loc 1 81 0
  83 0036 836A     		ldr	r3, [r0, #40]
  84 0038 CB60     		str	r3, [r1, #12]
  85              		.loc 1 82 0
  86 003a C26A     		ldr	r2, [r0, #44]
  87 003c 4A61     		str	r2, [r1, #20]
  88              		.loc 1 83 0
  89 003e 036B     		ldr	r3, [r0, #48]
  90 0040 0B62     		str	r3, [r1, #32]
  91              		.loc 1 84 0
  92 0042 426B     		ldr	r2, [r0, #52]
  93 0044 4A62     		str	r2, [r1, #36]
  94              		.loc 1 85 0
  95 0046 C369     		ldr	r3, [r0, #28]
  96 0048 0B60     		str	r3, [r1]
  97              	.LVL3:
  98              	.LBE17:
  99              	.LBE16:
 100              	.LBB18:
 101              	.LBB19:
 102              		.loc 1 79 0
 103 004a C26B     		ldr	r2, [r0, #60]
 104 004c 1949     		ldr	r1, .L2+8
 105 004e 4A60     		str	r2, [r1, #4]
 106              		.loc 1 80 0
 107 0050 036C     		ldr	r3, [r0, #64]
 108 0052 8B60     		str	r3, [r1, #8]
 109              		.loc 1 81 0
 110 0054 426C     		ldr	r2, [r0, #68]
 111 0056 CA60     		str	r2, [r1, #12]
 112              		.loc 1 82 0
 113 0058 836C     		ldr	r3, [r0, #72]
 114 005a 4B61     		str	r3, [r1, #20]
ARM GAS  C:\Users\3130\AppData\Local\Temp\ccqWRfd5.s 			page 3


 115              		.loc 1 83 0
 116 005c C26C     		ldr	r2, [r0, #76]
 117 005e 0A62     		str	r2, [r1, #32]
 118              		.loc 1 84 0
 119 0060 036D     		ldr	r3, [r0, #80]
 120 0062 4B62     		str	r3, [r1, #36]
 121              		.loc 1 85 0
 122 0064 826B     		ldr	r2, [r0, #56]
 123 0066 0A60     		str	r2, [r1]
 124              	.LVL4:
 125              	.LBE19:
 126              	.LBE18:
 127              	.LBB20:
 128              	.LBB21:
 129              		.loc 1 79 0
 130 0068 836D     		ldr	r3, [r0, #88]
 131 006a 1349     		ldr	r1, .L2+12
 132 006c 4B60     		str	r3, [r1, #4]
 133              		.loc 1 80 0
 134 006e C26D     		ldr	r2, [r0, #92]
 135 0070 8A60     		str	r2, [r1, #8]
 136              		.loc 1 81 0
 137 0072 036E     		ldr	r3, [r0, #96]
 138 0074 CB60     		str	r3, [r1, #12]
 139              		.loc 1 82 0
 140 0076 426E     		ldr	r2, [r0, #100]
 141 0078 4A61     		str	r2, [r1, #20]
 142              		.loc 1 83 0
 143 007a 836E     		ldr	r3, [r0, #104]
 144 007c 0B62     		str	r3, [r1, #32]
 145              		.loc 1 84 0
 146 007e C26E     		ldr	r2, [r0, #108]
 147 0080 4A62     		str	r2, [r1, #36]
 148              		.loc 1 85 0
 149 0082 436D     		ldr	r3, [r0, #84]
 150 0084 0B60     		str	r3, [r1]
 151              	.LVL5:
 152              	.LBE21:
 153              	.LBE20:
 154              	.LBB22:
 155              	.LBB23:
 156              		.loc 1 79 0
 157 0086 426F     		ldr	r2, [r0, #116]
 158 0088 0C49     		ldr	r1, .L2+16
 159 008a 4A60     		str	r2, [r1, #4]
 160              		.loc 1 80 0
 161 008c 836F     		ldr	r3, [r0, #120]
 162 008e 8B60     		str	r3, [r1, #8]
 163              		.loc 1 81 0
 164 0090 C26F     		ldr	r2, [r0, #124]
 165              		.loc 1 82 0
 166 0092 8023     		mov	r3, #128
 167              		.loc 1 81 0
 168 0094 CA60     		str	r2, [r1, #12]
 169              		.loc 1 82 0
 170 0096 C258     		ldr	r2, [r0, r3]
 171              		.loc 1 83 0
ARM GAS  C:\Users\3130\AppData\Local\Temp\ccqWRfd5.s 			page 4


 172 0098 8423     		mov	r3, #132
 173              		.loc 1 82 0
 174 009a 4A61     		str	r2, [r1, #20]
 175              		.loc 1 83 0
 176 009c C258     		ldr	r2, [r0, r3]
 177              		.loc 1 84 0
 178 009e 8823     		mov	r3, #136
 179              		.loc 1 83 0
 180 00a0 0A62     		str	r2, [r1, #32]
 181              		.loc 1 84 0
 182 00a2 C258     		ldr	r2, [r0, r3]
 183 00a4 4A62     		str	r2, [r1, #36]
 184              		.loc 1 85 0
 185 00a6 006F     		ldr	r0, [r0, #112]
 186              	.LVL6:
 187 00a8 0860     		str	r0, [r1]
 188              	.LBE23:
 189              	.LBE22:
 190              		.loc 1 143 0
 191 00aa 7047     		bx	lr
 192              	.L3:
 193              		.align	2
 194              	.L2:
 195 00ac 00100240 		.word	1073876992
 196 00b0 00040048 		.word	1207960576
 197 00b4 00080048 		.word	1207961600
 198 00b8 000C0048 		.word	1207962624
 199 00bc 00140048 		.word	1207964672
 200              		.cfi_endproc
 201              	.LFE41:
 202              		.size	_pal_lld_init, .-_pal_lld_init
 203              		.section	.text._pal_lld_setgroupmode,"ax",%progbits
 204              		.align	2
 205              		.p2align 4,,15
 206              		.global	_pal_lld_setgroupmode
 207              		.code	16
 208              		.thumb_func
 209              		.type	_pal_lld_setgroupmode, %function
 210              	_pal_lld_setgroupmode:
 211              	.LFB42:
 212              		.loc 1 161 0
 213              		.cfi_startproc
 214              	.LVL7:
 215 0000 F0B5     		push	{r4, r5, r6, r7, lr}
 216              	.LCFI0:
 217              		.cfi_def_cfa_offset 20
 218              		.cfi_offset 4, -20
 219              		.cfi_offset 5, -16
 220              		.cfi_offset 6, -12
 221              		.cfi_offset 7, -8
 222              		.cfi_offset 14, -4
 223 0002 5646     		mov	r6, sl
 224 0004 4D46     		mov	r5, r9
 225 0006 5F46     		mov	r7, fp
 226 0008 4446     		mov	r4, r8
 227 000a F0B4     		push	{r4, r5, r6, r7}
 228              	.LCFI1:
ARM GAS  C:\Users\3130\AppData\Local\Temp\ccqWRfd5.s 			page 5


 229              		.cfi_def_cfa_offset 36
 230              		.cfi_offset 8, -36
 231              		.cfi_offset 9, -32
 232              		.cfi_offset 10, -28
 233              		.cfi_offset 11, -24
 234              		.loc 1 163 0
 235 000c 0327     		mov	r7, #3
 236              		.loc 1 164 0
 237 000e 5607     		lsl	r6, r2, #29
 238              		.loc 1 165 0
 239 0010 D506     		lsl	r5, r2, #27
 240              		.loc 1 166 0
 241 0012 5406     		lsl	r4, r2, #25
 242              		.loc 1 163 0
 243 0014 1740     		and	r7, r2
 244              	.LVL8:
 245              		.loc 1 167 0
 246 0016 5205     		lsl	r2, r2, #21
 247              	.LVL9:
 248 0018 130F     		lsr	r3, r2, #28
 249              		.loc 1 161 0
 250 001a 83B0     		sub	sp, sp, #12
 251              	.LCFI2:
 252              		.cfi_def_cfa_offset 48
 253              		.loc 1 166 0
 254 001c A40F     		lsr	r4, r4, #30
 255              		.loc 1 167 0
 256 001e 9A46     		mov	sl, r3
 257              		.loc 1 168 0
 258 0020 0022     		mov	r2, #0
 259              	.LBB24:
 260              		.loc 1 173 0
 261 0022 0723     		mov	r3, #7
 262 0024 9946     		mov	r9, r3
 263              	.LBE24:
 264              		.loc 1 164 0
 265 0026 F60F     		lsr	r6, r6, #31
 266              	.LVL10:
 267              		.loc 1 165 0
 268 0028 AD0F     		lsr	r5, r5, #30
 269              	.LVL11:
 270              	.LBB25:
 271              		.loc 1 181 0
 272 002a 0194     		str	r4, [sp, #4]
 273 002c 131C     		mov	r3, r2
 274 002e 2DE0     		b	.L9
 275              	.LVL12:
 276              	.L14:
 277              		.loc 1 176 0
 278 0030 026A     		ldr	r2, [r0, #32]
 279 0032 A243     		bic	r2, r4
 280 0034 4446     		mov	r4, r8
 281              	.LVL13:
 282 0036 2243     		orr	r2, r4
 283 0038 0262     		str	r2, [r0, #32]
 284              	.L7:
 285              	.LVL14:
ARM GAS  C:\Users\3130\AppData\Local\Temp\ccqWRfd5.s 			page 6


 286              		.loc 1 180 0
 287 003a 4268     		ldr	r2, [r0, #4]
 288 003c 9046     		mov	r8, r2
 289              	.LVL15:
 290              		.loc 1 179 0
 291 003e 0122     		mov	r2, #1
 292 0040 9A40     		lsl	r2, r2, r3
 293              	.LVL16:
 294              		.loc 1 180 0
 295 0042 4446     		mov	r4, r8
 296 0044 9443     		bic	r4, r2
 297 0046 3443     		orr	r4, r6
 298 0048 4460     		str	r4, [r0, #4]
 299              	.LVL17:
 300              		.loc 1 182 0
 301 004a 8268     		ldr	r2, [r0, #8]
 302              	.LVL18:
 303              		.loc 1 159 0
 304 004c 5C00     		lsl	r4, r3, #1
 305              		.loc 1 182 0
 306 004e 9346     		mov	fp, r2
 307              		.loc 1 181 0
 308 0050 0322     		mov	r2, #3
 309 0052 A240     		lsl	r2, r2, r4
 310              	.LVL19:
 311              		.loc 1 182 0
 312 0054 D243     		mvn	r2, r2
 313              	.LVL20:
 314 0056 5C46     		mov	r4, fp
 315 0058 1440     		and	r4, r2
 316 005a 2C43     		orr	r4, r5
 317 005c 8460     		str	r4, [r0, #8]
 318 005e 9446     		mov	ip, r2
 319              	.LVL21:
 320              		.loc 1 183 0
 321 0060 C268     		ldr	r2, [r0, #12]
 322              	.LVL22:
 323 0062 141C     		mov	r4, r2
 324 0064 6246     		mov	r2, ip
 325 0066 1440     		and	r4, r2
 326 0068 019A     		ldr	r2, [sp, #4]
 327 006a 1443     		orr	r4, r2
 328 006c C460     		str	r4, [r0, #12]
 329              		.loc 1 184 0
 330 006e 0468     		ldr	r4, [r0]
 331 0070 221C     		mov	r2, r4
 332 0072 6446     		mov	r4, ip
 333 0074 2240     		and	r2, r4
 334 0076 3A43     		orr	r2, r7
 335 0078 0260     		str	r2, [r0]
 336              	.LVL23:
 337              	.L5:
 338              	.LBE25:
 339              		.loc 1 186 0
 340 007a 4908     		lsr	r1, r1, #1
 341              	.LVL24:
 342              		.loc 1 187 0
ARM GAS  C:\Users\3130\AppData\Local\Temp\ccqWRfd5.s 			page 7


 343 007c 1CD0     		beq	.L4
 344              		.loc 1 191 0
 345 007e 019A     		ldr	r2, [sp, #4]
 346              		.loc 1 189 0
 347 0080 7600     		lsl	r6, r6, #1
 348              	.LVL25:
 349              		.loc 1 191 0
 350 0082 9400     		lsl	r4, r2, #2
 351              		.loc 1 190 0
 352 0084 AD00     		lsl	r5, r5, #2
 353              	.LVL26:
 354              		.loc 1 191 0
 355 0086 0194     		str	r4, [sp, #4]
 356              	.LVL27:
 357              		.loc 1 192 0
 358 0088 BF00     		lsl	r7, r7, #2
 359              	.LVL28:
 360              		.loc 1 193 0
 361 008a 0133     		add	r3, r3, #1
 362              	.LVL29:
 363              	.L9:
 364              		.loc 1 170 0
 365 008c 0124     		mov	r4, #1
 366 008e 0C42     		tst	r4, r1
 367 0090 F3D0     		beq	.L5
 368              	.LBB26:
 369              		.loc 1 173 0
 370 0092 4A46     		mov	r2, r9
 371 0094 1A40     		and	r2, r3
 372 0096 9200     		lsl	r2, r2, #2
 373 0098 5446     		mov	r4, sl
 374 009a 9440     		lsl	r4, r4, r2
 375 009c A046     		mov	r8, r4
 376              	.LVL30:
 377              		.loc 1 174 0
 378 009e 0F24     		mov	r4, #15
 379              	.LVL31:
 380 00a0 9440     		lsl	r4, r4, r2
 381 00a2 A446     		mov	ip, r4
 382              	.LVL32:
 383              		.loc 1 175 0
 384 00a4 072B     		cmp	r3, #7
 385 00a6 C3D9     		bls	.L14
 386              		.loc 1 178 0
 387 00a8 426A     		ldr	r2, [r0, #36]
 388 00aa 141C     		mov	r4, r2
 389              	.LVL33:
 390 00ac 6246     		mov	r2, ip
 391 00ae 9443     		bic	r4, r2
 392 00b0 4246     		mov	r2, r8
 393 00b2 1443     		orr	r4, r2
 394 00b4 4462     		str	r4, [r0, #36]
 395 00b6 C0E7     		b	.L7
 396              	.LVL34:
 397              	.L4:
 398              	.LBE26:
 399              		.loc 1 195 0
ARM GAS  C:\Users\3130\AppData\Local\Temp\ccqWRfd5.s 			page 8


 400 00b8 03B0     		add	sp, sp, #12
 401              		@ sp needed for prologue
 402              	.LVL35:
 403              	.LVL36:
 404              	.LVL37:
 405              	.LVL38:
 406 00ba 3CBC     		pop	{r2, r3, r4, r5}
 407 00bc 9046     		mov	r8, r2
 408 00be 9946     		mov	r9, r3
 409 00c0 A246     		mov	sl, r4
 410 00c2 AB46     		mov	fp, r5
 411 00c4 F0BD     		pop	{r4, r5, r6, r7, pc}
 412              		.cfi_endproc
 413              	.LFE42:
 414              		.size	_pal_lld_setgroupmode, .-_pal_lld_setgroupmode
 415 00c6 C046C046 		.text
 415      C046C046 
 415      C046
 416              	.Letext0:
 417              		.file 2 "c:\\stm32f0-discovery_tools\\gcc-arm-none-eabi\\bin\\../lib/gcc/arm-none-eabi/4.7.4/../..
 418              		.file 3 "../../ChibiOS_2.6.1/os/hal/platforms/STM32F0xx/stm32f0xx.h"
 419              		.file 4 "../../ChibiOS_2.6.1/os/hal/platforms/STM32/GPIOv2/pal_lld.h"