ARM GAS  C:\Users\3130\AppData\Local\Temp\ccJU1WQ2.s 			page 1


   1              		.cpu cortex-m0
   2              		.fpu softvfp
   3              		.eabi_attribute 20, 1
   4              		.eabi_attribute 21, 1
   5              		.eabi_attribute 23, 3
   6              		.eabi_attribute 24, 1
   7              		.eabi_attribute 25, 1
   8              		.eabi_attribute 26, 1
   9              		.eabi_attribute 30, 2
  10              		.eabi_attribute 34, 0
  11              		.eabi_attribute 18, 4
  12              		.code	16
  13              		.file	"serial.c"
  14              		.text
  15              	.Ltext0:
  16              		.cfi_sections	.debug_frame
  17              		.section	.text.readt,"ax",%progbits
  18              		.align	2
  19              		.p2align 4,,15
  20              		.code	16
  21              		.thumb_func
  22              		.type	readt, %function
  23              	readt:
  24              	.LFB47:
  25              		.file 1 "../../ChibiOS_2.6.1/os/hal/src/serial.c"
  26              		.loc 1 99 0
  27              		.cfi_startproc
  28              	.LVL0:
  29 0000 08B5     		push	{r3, lr}
  30              	.LCFI0:
  31              		.cfi_def_cfa_offset 8
  32              		.cfi_offset 3, -8
  33              		.cfi_offset 14, -4
  34              		.loc 1 101 0
  35 0002 0C30     		add	r0, r0, #12
  36              	.LVL1:
  37 0004 FFF7FEFF 		bl	chIQReadTimeout
  38              	.LVL2:
  39              		.loc 1 102 0
  40              		@ sp needed for prologue
  41 0008 08BD     		pop	{r3, pc}
  42              		.cfi_endproc
  43              	.LFE47:
  44              		.size	readt, .-readt
  45 000a C046C046 		.section	.text.read,"ax",%progbits
  45      C046
  46              		.align	2
  47              		.p2align 4,,15
  48              		.code	16
  49              		.thumb_func
  50              		.type	read, %function
  51              	read:
  52              	.LFB41:
  53              		.loc 1 68 0
  54              		.cfi_startproc
  55              	.LVL3:
  56 0000 08B5     		push	{r3, lr}
ARM GAS  C:\Users\3130\AppData\Local\Temp\ccJU1WQ2.s 			page 2


  57              	.LCFI1:
  58              		.cfi_def_cfa_offset 8
  59              		.cfi_offset 3, -8
  60              		.cfi_offset 14, -4
  61              		.loc 1 70 0
  62 0002 0123     		mov	r3, #1
  63 0004 0C30     		add	r0, r0, #12
  64              	.LVL4:
  65 0006 5B42     		neg	r3, r3
  66 0008 FFF7FEFF 		bl	chIQReadTimeout
  67              	.LVL5:
  68              		.loc 1 72 0
  69              		@ sp needed for prologue
  70 000c 08BD     		pop	{r3, pc}
  71              		.cfi_endproc
  72              	.LFE41:
  73              		.size	read, .-read
  74 000e C046     		.section	.text.writet,"ax",%progbits
  75              		.align	2
  76              		.p2align 4,,15
  77              		.code	16
  78              		.thumb_func
  79              		.type	writet, %function
  80              	writet:
  81              	.LFB46:
  82              		.loc 1 94 0
  83              		.cfi_startproc
  84              	.LVL6:
  85 0000 08B5     		push	{r3, lr}
  86              	.LCFI2:
  87              		.cfi_def_cfa_offset 8
  88              		.cfi_offset 3, -8
  89              		.cfi_offset 14, -4
  90              		.loc 1 96 0
  91 0002 3030     		add	r0, r0, #48
  92              	.LVL7:
  93 0004 FFF7FEFF 		bl	chOQWriteTimeout
  94              	.LVL8:
  95              		.loc 1 97 0
  96              		@ sp needed for prologue
  97 0008 08BD     		pop	{r3, pc}
  98              		.cfi_endproc
  99              	.LFE46:
 100              		.size	writet, .-writet
 101 000a C046C046 		.section	.text.write,"ax",%progbits
 101      C046
 102              		.align	2
 103              		.p2align 4,,15
 104              		.code	16
 105              		.thumb_func
 106              		.type	write, %function
 107              	write:
 108              	.LFB40:
 109              		.loc 1 62 0
 110              		.cfi_startproc
 111              	.LVL9:
 112 0000 08B5     		push	{r3, lr}
ARM GAS  C:\Users\3130\AppData\Local\Temp\ccJU1WQ2.s 			page 3


 113              	.LCFI3:
 114              		.cfi_def_cfa_offset 8
 115              		.cfi_offset 3, -8
 116              		.cfi_offset 14, -4
 117              		.loc 1 64 0
 118 0002 0123     		mov	r3, #1
 119 0004 3030     		add	r0, r0, #48
 120              	.LVL10:
 121 0006 5B42     		neg	r3, r3
 122 0008 FFF7FEFF 		bl	chOQWriteTimeout
 123              	.LVL11:
 124              		.loc 1 66 0
 125              		@ sp needed for prologue
 126 000c 08BD     		pop	{r3, pc}
 127              		.cfi_endproc
 128              	.LFE40:
 129              		.size	write, .-write
 130 000e C046     		.section	.text.gett,"ax",%progbits
 131              		.align	2
 132              		.p2align 4,,15
 133              		.code	16
 134              		.thumb_func
 135              		.type	gett, %function
 136              	gett:
 137              	.LFB45:
 138              		.loc 1 89 0
 139              		.cfi_startproc
 140              	.LVL12:
 141 0000 08B5     		push	{r3, lr}
 142              	.LCFI4:
 143              		.cfi_def_cfa_offset 8
 144              		.cfi_offset 3, -8
 145              		.cfi_offset 14, -4
 146              		.loc 1 91 0
 147 0002 0C30     		add	r0, r0, #12
 148              	.LVL13:
 149 0004 FFF7FEFF 		bl	chIQGetTimeout
 150              	.LVL14:
 151              		.loc 1 92 0
 152              		@ sp needed for prologue
 153 0008 08BD     		pop	{r3, pc}
 154              		.cfi_endproc
 155              	.LFE45:
 156              		.size	gett, .-gett
 157 000a C046C046 		.section	.text.get,"ax",%progbits
 157      C046
 158              		.align	2
 159              		.p2align 4,,15
 160              		.code	16
 161              		.thumb_func
 162              		.type	get, %function
 163              	get:
 164              	.LFB43:
 165              		.loc 1 79 0
 166              		.cfi_startproc
 167              	.LVL15:
 168 0000 08B5     		push	{r3, lr}
ARM GAS  C:\Users\3130\AppData\Local\Temp\ccJU1WQ2.s 			page 4


 169              	.LCFI5:
 170              		.cfi_def_cfa_offset 8
 171              		.cfi_offset 3, -8
 172              		.cfi_offset 14, -4
 173              		.loc 1 81 0
 174 0002 0121     		mov	r1, #1
 175 0004 0C30     		add	r0, r0, #12
 176              	.LVL16:
 177 0006 4942     		neg	r1, r1
 178 0008 FFF7FEFF 		bl	chIQGetTimeout
 179              	.LVL17:
 180              		.loc 1 82 0
 181              		@ sp needed for prologue
 182 000c 08BD     		pop	{r3, pc}
 183              		.cfi_endproc
 184              	.LFE43:
 185              		.size	get, .-get
 186 000e C046     		.section	.text.putt,"ax",%progbits
 187              		.align	2
 188              		.p2align 4,,15
 189              		.code	16
 190              		.thumb_func
 191              		.type	putt, %function
 192              	putt:
 193              	.LFB44:
 194              		.loc 1 84 0
 195              		.cfi_startproc
 196              	.LVL18:
 197 0000 08B5     		push	{r3, lr}
 198              	.LCFI6:
 199              		.cfi_def_cfa_offset 8
 200              		.cfi_offset 3, -8
 201              		.cfi_offset 14, -4
 202              		.loc 1 86 0
 203 0002 3030     		add	r0, r0, #48
 204              	.LVL19:
 205 0004 FFF7FEFF 		bl	chOQPutTimeout
 206              	.LVL20:
 207              		.loc 1 87 0
 208              		@ sp needed for prologue
 209 0008 08BD     		pop	{r3, pc}
 210              		.cfi_endproc
 211              	.LFE44:
 212              		.size	putt, .-putt
 213 000a C046C046 		.section	.text.put,"ax",%progbits
 213      C046
 214              		.align	2
 215              		.p2align 4,,15
 216              		.code	16
 217              		.thumb_func
 218              		.type	put, %function
 219              	put:
 220              	.LFB42:
 221              		.loc 1 74 0
 222              		.cfi_startproc
 223              	.LVL21:
 224 0000 08B5     		push	{r3, lr}
ARM GAS  C:\Users\3130\AppData\Local\Temp\ccJU1WQ2.s 			page 5


 225              	.LCFI7:
 226              		.cfi_def_cfa_offset 8
 227              		.cfi_offset 3, -8
 228              		.cfi_offset 14, -4
 229              		.loc 1 76 0
 230 0002 0122     		mov	r2, #1
 231 0004 3030     		add	r0, r0, #48
 232              	.LVL22:
 233 0006 5242     		neg	r2, r2
 234 0008 FFF7FEFF 		bl	chOQPutTimeout
 235              	.LVL23:
 236              		.loc 1 77 0
 237              		@ sp needed for prologue
 238 000c 08BD     		pop	{r3, pc}
 239              		.cfi_endproc
 240              	.LFE42:
 241              		.size	put, .-put
 242 000e C046     		.section	.text.sdInit,"ax",%progbits
 243              		.align	2
 244              		.p2align 4,,15
 245              		.global	sdInit
 246              		.code	16
 247              		.thumb_func
 248              		.type	sdInit, %function
 249              	sdInit:
 250              	.LFB48:
 251              		.loc 1 120 0
 252              		.cfi_startproc
 253 0000 08B5     		push	{r3, lr}
 254              	.LCFI8:
 255              		.cfi_def_cfa_offset 8
 256              		.cfi_offset 3, -8
 257              		.cfi_offset 14, -4
 258              		.loc 1 122 0
 259 0002 FFF7FEFF 		bl	sd_lld_init
 260              	.LVL24:
 261              		.loc 1 123 0
 262              		@ sp needed for prologue
 263 0006 08BD     		pop	{r3, pc}
 264              		.cfi_endproc
 265              	.LFE48:
 266              		.size	sdInit, .-sdInit
 267 0008 C046C046 		.section	.text.sdObjectInit,"ax",%progbits
 267      C046C046 
 268              		.align	2
 269              		.p2align 4,,15
 270              		.global	sdObjectInit
 271              		.code	16
 272              		.thumb_func
 273              		.type	sdObjectInit, %function
 274              	sdObjectInit:
 275              	.LFB49:
 276              		.loc 1 140 0
 277              		.cfi_startproc
 278              	.LVL25:
 279 0000 30B5     		push	{r4, r5, lr}
 280              	.LCFI9:
ARM GAS  C:\Users\3130\AppData\Local\Temp\ccJU1WQ2.s 			page 6


 281              		.cfi_def_cfa_offset 12
 282              		.cfi_offset 4, -12
 283              		.cfi_offset 5, -8
 284              		.cfi_offset 14, -4
 285 0002 151C     		mov	r5, r2
 286              		.loc 1 142 0
 287 0004 0D4A     		ldr	r2, .L11
 288              	.LVL26:
 289              		.loc 1 140 0
 290 0006 041C     		mov	r4, r0
 291 0008 0B1C     		mov	r3, r1
 292              		.loc 1 142 0
 293 000a 04C0     		stmia	r0!, {r2}
 294              	.LVL27:
 295              		.loc 1 144 0
 296 000c 0121     		mov	r1, #1
 297              	.LVL28:
 298              		.loc 1 140 0
 299 000e 83B0     		sub	sp, sp, #12
 300              	.LCFI10:
 301              		.cfi_def_cfa_offset 24
 302              		.loc 1 143 0
 303 0010 6060     		str	r0, [r4, #4]
 304              		.loc 1 144 0
 305 0012 2172     		strb	r1, [r4, #8]
 306              		.loc 1 145 0
 307 0014 201C     		mov	r0, r4
 308 0016 211C     		mov	r1, r4
 309 0018 0C30     		add	r0, r0, #12
 310 001a 5431     		add	r1, r1, #84
 311 001c 0094     		str	r4, [sp]
 312 001e 1022     		mov	r2, #16
 313 0020 FFF7FEFF 		bl	chIQInit
 314              	.LVL29:
 315              		.loc 1 146 0
 316 0024 201C     		mov	r0, r4
 317 0026 211C     		mov	r1, r4
 318 0028 3030     		add	r0, r0, #48
 319 002a 6431     		add	r1, r1, #100
 320 002c 0094     		str	r4, [sp]
 321 002e 1022     		mov	r2, #16
 322 0030 2B1C     		mov	r3, r5
 323 0032 FFF7FEFF 		bl	chOQInit
 324              	.LVL30:
 325              		.loc 1 147 0
 326 0036 03B0     		add	sp, sp, #12
 327              		@ sp needed for prologue
 328              	.LVL31:
 329              	.LVL32:
 330 0038 30BD     		pop	{r4, r5, pc}
 331              	.L12:
 332 003a C046     		.align	2
 333              	.L11:
 334 003c 00000000 		.word	.LANCHOR0
 335              		.cfi_endproc
 336              	.LFE49:
 337              		.size	sdObjectInit, .-sdObjectInit
ARM GAS  C:\Users\3130\AppData\Local\Temp\ccJU1WQ2.s 			page 7


 338              		.section	.text.sdStart,"ax",%progbits
 339              		.align	2
 340              		.p2align 4,,15
 341              		.global	sdStart
 342              		.code	16
 343              		.thumb_func
 344              		.type	sdStart, %function
 345              	sdStart:
 346              	.LFB50:
 347              		.loc 1 159 0
 348              		.cfi_startproc
 349              	.LVL33:
 350 0000 10B5     		push	{r4, lr}
 351              	.LCFI11:
 352              		.cfi_def_cfa_offset 8
 353              		.cfi_offset 4, -8
 354              		.cfi_offset 14, -4
 355              		.loc 1 159 0
 356 0002 041C     		mov	r4, r0
 357              		.loc 1 163 0
 358              	@ 163 "../../ChibiOS_2.6.1/os/hal/src/serial.c" 1
 359 0004 72B6     		cpsid   i
 360              	@ 0 "" 2
 361              		.loc 1 167 0
 362              		.code	16
 363 0006 FFF7FEFF 		bl	sd_lld_start
 364              	.LVL34:
 365              		.loc 1 168 0
 366 000a 0223     		mov	r3, #2
 367 000c 2372     		strb	r3, [r4, #8]
 368              		.loc 1 169 0
 369              	@ 169 "../../ChibiOS_2.6.1/os/hal/src/serial.c" 1
 370 000e 62B6     		cpsie   i
 371              	@ 0 "" 2
 372              		.loc 1 170 0
 373              		.code	16
 374              		@ sp needed for prologue
 375              	.LVL35:
 376 0010 10BD     		pop	{r4, pc}
 377              		.cfi_endproc
 378              	.LFE50:
 379              		.size	sdStart, .-sdStart
 380 0012 C046C046 		.section	.text.sdStop,"ax",%progbits
 380      C046C046 
 380      C046C046 
 380      C046
 381              		.align	2
 382              		.p2align 4,,15
 383              		.global	sdStop
 384              		.code	16
 385              		.thumb_func
 386              		.type	sdStop, %function
 387              	sdStop:
 388              	.LFB51:
 389              		.loc 1 181 0
 390              		.cfi_startproc
 391              	.LVL36:
ARM GAS  C:\Users\3130\AppData\Local\Temp\ccJU1WQ2.s 			page 8


 392 0000 10B5     		push	{r4, lr}
 393              	.LCFI12:
 394              		.cfi_def_cfa_offset 8
 395              		.cfi_offset 4, -8
 396              		.cfi_offset 14, -4
 397              		.loc 1 181 0
 398 0002 041C     		mov	r4, r0
 399              		.loc 1 185 0
 400              	@ 185 "../../ChibiOS_2.6.1/os/hal/src/serial.c" 1
 401 0004 72B6     		cpsid   i
 402              	@ 0 "" 2
 403              		.loc 1 189 0
 404              		.code	16
 405 0006 FFF7FEFF 		bl	sd_lld_stop
 406              	.LVL37:
 407              		.loc 1 190 0
 408 000a 0123     		mov	r3, #1
 409              		.loc 1 191 0
 410 000c 201C     		mov	r0, r4
 411              		.loc 1 190 0
 412 000e 2372     		strb	r3, [r4, #8]
 413              		.loc 1 191 0
 414 0010 3030     		add	r0, r0, #48
 415 0012 FFF7FEFF 		bl	chOQResetI
 416              	.LVL38:
 417              		.loc 1 192 0
 418 0016 201C     		mov	r0, r4
 419 0018 0C30     		add	r0, r0, #12
 420 001a FFF7FEFF 		bl	chIQResetI
 421              	.LVL39:
 422              		.loc 1 193 0
 423 001e FFF7FEFF 		bl	chSchRescheduleS
 424              	.LVL40:
 425              		.loc 1 194 0
 426              	@ 194 "../../ChibiOS_2.6.1/os/hal/src/serial.c" 1
 427 0022 62B6     		cpsie   i
 428              	@ 0 "" 2
 429              		.loc 1 195 0
 430              		.code	16
 431              		@ sp needed for prologue
 432              	.LVL41:
 433 0024 10BD     		pop	{r4, pc}
 434              		.cfi_endproc
 435              	.LFE51:
 436              		.size	sdStop, .-sdStop
 437 0026 C046C046 		.section	.text.sdIncomingDataI,"ax",%progbits
 437      C046C046 
 437      C046
 438              		.align	2
 439              		.p2align 4,,15
 440              		.global	sdIncomingDataI
 441              		.code	16
 442              		.thumb_func
 443              		.type	sdIncomingDataI, %function
 444              	sdIncomingDataI:
 445              	.LFB52:
 446              		.loc 1 213 0
ARM GAS  C:\Users\3130\AppData\Local\Temp\ccJU1WQ2.s 			page 9


 447              		.cfi_startproc
 448              	.LVL42:
 449 0000 38B5     		push	{r3, r4, r5, lr}
 450              	.LCFI13:
 451              		.cfi_def_cfa_offset 16
 452              		.cfi_offset 3, -16
 453              		.cfi_offset 4, -12
 454              		.cfi_offset 5, -8
 455              		.cfi_offset 14, -4
 456              		.loc 1 218 0
 457 0002 4369     		ldr	r3, [r0, #20]
 458              		.loc 1 213 0
 459 0004 041C     		mov	r4, r0
 460 0006 0D1C     		mov	r5, r1
 461              		.loc 1 218 0
 462 0008 002B     		cmp	r3, #0
 463 000a 07D0     		beq	.L19
 464              		.loc 1 220 0
 465 000c 201C     		mov	r0, r4
 466 000e 0C30     		add	r0, r0, #12
 467              	.LVL43:
 468 0010 291C     		mov	r1, r5
 469              	.LVL44:
 470 0012 FFF7FEFF 		bl	chIQPutI
 471              	.LVL45:
 472 0016 0028     		cmp	r0, #0
 473 0018 0BDB     		blt	.L20
 474              	.L15:
 475              		.loc 1 222 0
 476              		@ sp needed for prologue
 477              	.LVL46:
 478 001a 38BD     		pop	{r3, r4, r5, pc}
 479              	.LVL47:
 480              	.L19:
 481              		.loc 1 219 0
 482 001c 0430     		add	r0, r0, #4
 483              	.LVL48:
 484 001e 0421     		mov	r1, #4
 485              	.LVL49:
 486 0020 FFF7FEFF 		bl	chEvtBroadcastFlagsI
 487              	.LVL50:
 488              		.loc 1 220 0
 489 0024 201C     		mov	r0, r4
 490 0026 0C30     		add	r0, r0, #12
 491 0028 291C     		mov	r1, r5
 492 002a FFF7FEFF 		bl	chIQPutI
 493              	.LVL51:
 494 002e 0028     		cmp	r0, #0
 495 0030 F3DA     		bge	.L15
 496              	.L20:
 497              		.loc 1 221 0
 498 0032 201D     		add	r0, r4, #4
 499 0034 8021     		mov	r1, #128
 500 0036 FFF7FEFF 		bl	chEvtBroadcastFlagsI
 501              	.LVL52:
 502 003a EEE7     		b	.L15
 503              		.cfi_endproc
ARM GAS  C:\Users\3130\AppData\Local\Temp\ccJU1WQ2.s 			page 10


 504              	.LFE52:
 505              		.size	sdIncomingDataI, .-sdIncomingDataI
 506 003c C046C046 		.section	.text.sdRequestDataI,"ax",%progbits
 507              		.align	2
 508              		.p2align 4,,15
 509              		.global	sdRequestDataI
 510              		.code	16
 511              		.thumb_func
 512              		.type	sdRequestDataI, %function
 513              	sdRequestDataI:
 514              	.LFB53:
 515              		.loc 1 239 0
 516              		.cfi_startproc
 517              	.LVL53:
 518 0000 38B5     		push	{r3, r4, r5, lr}
 519              	.LCFI14:
 520              		.cfi_def_cfa_offset 16
 521              		.cfi_offset 3, -16
 522              		.cfi_offset 4, -12
 523              		.cfi_offset 5, -8
 524              		.cfi_offset 14, -4
 525              		.loc 1 239 0
 526 0002 051C     		mov	r5, r0
 527              		.loc 1 245 0
 528 0004 3030     		add	r0, r0, #48
 529              	.LVL54:
 530 0006 FFF7FEFF 		bl	chOQGetI
 531              	.LVL55:
 532 000a 041E     		sub	r4, r0, #0
 533              	.LVL56:
 534              		.loc 1 246 0
 535 000c 01DB     		blt	.L23
 536              	.LVL57:
 537              	.L22:
 538              		.loc 1 249 0
 539 000e 201C     		mov	r0, r4
 540              		@ sp needed for prologue
 541              	.LVL58:
 542              	.LVL59:
 543 0010 38BD     		pop	{r3, r4, r5, pc}
 544              	.LVL60:
 545              	.L23:
 546              		.loc 1 247 0
 547 0012 281D     		add	r0, r5, #4
 548              	.LVL61:
 549 0014 0821     		mov	r1, #8
 550 0016 FFF7FEFF 		bl	chEvtBroadcastFlagsI
 551              	.LVL62:
 552 001a F8E7     		b	.L22
 553              		.cfi_endproc
 554              	.LFE53:
 555              		.size	sdRequestDataI, .-sdRequestDataI
 556 001c C046C046 		.section	.rodata.vmt,"a",%progbits
 557              		.align	2
 558              		.set	.LANCHOR0,. + 0
 559              		.type	vmt, %object
 560              		.size	vmt, 32
ARM GAS  C:\Users\3130\AppData\Local\Temp\ccJU1WQ2.s 			page 11


 561              	vmt:
 562 0000 00000000 		.word	write
 563 0004 00000000 		.word	read
 564 0008 00000000 		.word	put
 565 000c 00000000 		.word	get
 566 0010 00000000 		.word	putt
 567 0014 00000000 		.word	gett
 568 0018 00000000 		.word	writet
 569 001c 00000000 		.word	readt
 570              		.text
 571              	.Letext0:
 572              		.file 2 "c:\\stm32f0-discovery_tools\\gcc-arm-none-eabi\\bin\\../lib/gcc/arm-none-eabi/4.7.4/inclu
 573              		.file 3 "c:\\stm32f0-discovery_tools\\gcc-arm-none-eabi\\bin\\../lib/gcc/arm-none-eabi/4.7.4/../..
 574              		.file 4 "../../ChibiOS_2.6.1/os/ports/GCC/ARMCMx/chtypes.h"
 575              		.file 5 "../../ChibiOS_2.6.1/os/kernel/include/chlists.h"
 576              		.file 6 "../../ChibiOS_2.6.1/os/kernel/include/chthreads.h"
 577              		.file 7 "../../ChibiOS_2.6.1/os/ports/GCC/ARMCMx/chcore_v6m.h"
 578              		.file 8 "../../ChibiOS_2.6.1/os/kernel/include/chmtx.h"
 579              		.file 9 "../../ChibiOS_2.6.1/os/kernel/include/chevents.h"
 580              		.file 10 "../../ChibiOS_2.6.1/os/kernel/include/chqueues.h"
 581              		.file 11 "../../ChibiOS_2.6.1/os/hal/platforms/STM32F0xx/stm32f0xx.h"
 582              		.file 12 "../../ChibiOS_2.6.1/os/hal/include/serial.h"
 583              		.file 13 "../../ChibiOS_2.6.1/os/hal/platforms/STM32/USARTv2/serial_lld.h"
 584              		.file 14 "../../ChibiOS_2.6.1/os/kernel/include/chschd.h"