ARM GAS  C:\Users\3130\AppData\Local\Temp\ccJU1WQ2.s 			page 1


   1              		.cpu cortex-m0
   2              		.fpu softvfp
   3              		.eabi_attribute 20, 1
   4              		.eabi_attribute 21, 1
   5              		.eabi_attribute 23, 3
   6              		.eabi_attribute 24, 1
   7              		.eabi_attribute 25, 1
   8              		.eabi_attribute 26, 1
   9              		.eabi_attribute 30, 2
  10              		.eabi_attribute 34, 0
  11              		.eabi_attribute 18, 4
  12              		.code	16
  13              		.file	"serial.c"
  14              		.text
  15              	.Ltext0:
  16              		.cfi_sections	.debug_frame
  17              		.section	.text.readt,"ax",%progbits
  18              		.align	2
  19              		.p2align 4,,15
  20              		.code	16
  21              		.thumb_func
  22              		.type	readt, %function
  23              	readt:
  24              	.LFB47:
  25              		.file 1 "../../ChibiOS_2.6.1/os/hal/src/serial.c"
  26              		.loc 1 99 0
  27              		.cfi_startproc
  28              	.LVL0:
  29 0000 08B5     		push	{r3, lr}
  30              	.LCFI0:
  31              		.cfi_def_cfa_offset 8
  32              		.cfi_offset 3, -8
  33              		.cfi_offset 14, -4
  34              		.loc 1 101 0
  35 0002 0C30     		add	r0, r0, #12
  36              	.LVL1:
  37 0004 FFF7FEFF 		bl	chIQReadTimeout
  38              	.LVL2:
  39              		.loc 1 102 0
  40              		@ sp needed for prologue
  41 0008 08BD     		pop	{r3, pc}
  42              		.cfi_endproc
  43              	.LFE47:
  44              		.size	readt, .-readt
  45 000a C046C046 		.section	.text.read,"ax",%progbits
  45      C046
  46              		.align	2
  47              		.p2align 4,,15
  48              		.code	16
  49              		.thumb_func
  50              		.type	read, %function
  51              	read:
  52              	.LFB41:
  53              		.loc 1 68 0
  54              		.cfi_startproc
  55              	.LVL3:
  56 0000 08B5     		push	{r3, lr}
ARM GAS  C:\Users\3130\AppData\Local\Temp\ccJU1WQ2.s 			page 2


  57              	.LCFI1:
  58              		.cfi_def_cfa_offset 8
  59              		.cfi_offset 3, -8
  60              		.cfi_offset 14, -4
  61              		.loc 1 70 0
  62 0002 0123     		mov	r3, #1
  63 0004 0C30     		add	r0, r0, #12
  64              	.LVL4:
  65 0006 5B42     		neg	r3, r3
  66 0008 FFF7FEFF 		bl	chIQReadTimeout
  67              	.LVL5:
  68              		.loc 1 72 0
  69              		@ sp needed for prologue
  70 000c 08BD     		pop	{r3, pc}
  71              		.cfi_endproc
  72              	.LFE41:
  73              		.size	read, .-read
  74 000e C046     		.section	.text.writet,"ax",%progbits
  75              		.align	2
  76              		.p2align 4,,15
  77              		.code	16
  78              		.thumb_func
  79              		.type	writet, %function
  80              	writet:
  81              	.LFB46:
  82              		.loc 1 94 0
  83              		.cfi_startproc
  84              	.LVL6:
  85 0000 08B5     		push	{r3, lr}
  86              	.LCFI2:
  87              		.cfi_def_cfa_offset 8
  88              		.cfi_offset 3, -8
  89              		.cfi_offset 14, -4
  90              		.loc 1 96 0
  91 0002 3030     		add	r0, r0, #48
  92              	.LVL7:
  93 0004 FFF7FEFF 		bl	chOQWriteTimeout
  94              	.LVL8:
  95              		.loc 1 97 0
  96              		@ sp needed for prologue
  97 0008 08BD     		pop	{r3, pc}
  98              		.cfi_endproc
  99              	.LFE46:
 100              		.size	writet, .-writet
 101 000a C046C046 		.section	.text.write,"ax",%progbits
 101      C046
 102              		.align	2
 103              		.p2align 4,,15
 104              		.code	16
 105              		.thumb_func
 106              		.type	write, %function
 107              	write:
 108              	.LFB40:
 109              		.loc 1 62 0
 110              		.cfi_startproc
 111              	.LVL9:
 112 0000 08B5     		push	{r3, lr}
ARM GAS  C:\Users\3130\AppData\Local\Temp\ccJU1WQ2.s 			page 3


 113              	.LCFI3:
 114              		.cfi_def_cfa_offset 8
 115              		.cfi_offset 3, -8
 116              		.cfi_offset 14, -4
 117              		.loc 1 64 0
 118 0002 0123     		mov	r3, #1
 119 0004 3030     		add	r0, r0, #48
 120              	.LVL10:
 121 0006 5B42     		neg	r3, r3
 122 0008 FFF7FEFF 		bl	chOQWriteTimeout
 123              	.LVL11:
 124              		.loc 1 66 0
 125              		@ sp needed for prologue
 126 000c 08BD     		pop	{r3, pc}
 127              		.cfi_endproc
 128              	.LFE40:
 129              		.size	write, .-write
 130 000e C046     		.section	.text.gett,"ax",%progbits
 131              		.align	2
 132              		.p2align 4,,15
 133              		.code	16
 134              		.thumb_func
 135              		.type	gett, %function
 136              	gett:
 137              	.LFB45:
 138              		.loc 1 89 0
 139              		.cfi_startproc
 140              	.LVL12:
 141 0000 08B5     		push	{r3, lr}
 142              	.LCFI4:
 143              		.cfi_def_cfa_offset 8
 144              		.cfi_offset 3, -8
 145              		.cfi_offset 14, -4
 146              		.loc 1 91 0
 147 0002 0C30     		add	r0, r0, #12
 148              	.LVL13:
 149 0004 FFF7FEFF 		bl	chIQGetTimeout
 150              	.LVL14:
 151              		.loc 1 92 0
 152              		@ sp needed for prologue
 153 0008 08BD     		pop	{r3, pc}
 154              		.cfi_endproc
 155              	.LFE45:
 156              		.size	gett, .-gett
 157 000a C046C046 		.section	.text.get,"ax",%progbits
 157      C046
 158              		.align	2
 159              		.p2align 4,,15
 160              		.code	16
 161              		.thumb_func
 162              		.type	get, %function
 163              	get:
 164              	.LFB43:
 165              		.loc 1 79 0
 166              		.cfi_startproc
 167              	.LVL15:
 168 0000 08B5     		push	{r3, lr}
ARM GAS  C:\Users\3130\AppData\Local\Temp\ccJU1WQ2.s 			page 4


 169              	.LCFI5:
 170              		.cfi_def_cfa_offset 8
 171              		.cfi_offset 3, -8
 172              		.cfi_offset 14, -4
 173              		.loc 1 81 0
 174 0002 0121     		mov	r1, #1
 175 0004 0C30     		add	r0, r0, #12
 176              	.LVL16:
 177 0006 4942     		neg	r1, r1
 178 0008 FFF7FEFF 		bl	chIQGetTimeout
 179              	.LVL17:
 180              		.loc 1 82 0
 181              		@ sp needed for prologue
 182 000c 08BD     		pop	{r3, pc}
 183              		.cfi_endproc
 184              	.LFE43:
 185              		.size	get, .-get
 186 000e C046     		.section	.text.putt,"ax",%progbits
 187              		.align	2
 188              		.p2align 4,,15
 189              		.code	16
 190              		.thumb_func
 191              		.type	putt, %function
 192              	putt:
 193              	.LFB44:
 194              		.loc 1 84 0
 195              		.cfi_startproc
 196              	.LVL18:
 197 0000 08B5     		push	{r3, lr}
 198              	.LCFI6:
 199              		.cfi_def_cfa_offset 8
 200              		.cfi_offset 3, -8
 201              		.cfi_offset 14, -4
 202              		.loc 1 86 0
 203 0002 3030     		add	r0, r0, #48
 204              	.LVL19:
 205 0004 FFF7FEFF 		bl	chOQPutTimeout
 206              	.LVL20:
 207              		.loc 1 87 0
 208              		@ sp needed for prologue
 209 0008 08BD     		pop	{r3, pc}
 210              		.cfi_endproc
 211              	.LFE44:
 212              		.size	putt, .-putt
 213 000a C046C046 		.section	.text.put,"ax",%progbits
 213      C046
 214              		.align	2
 215              		.p2align 4,,15
 216              		.code	16
 217              		.thumb_func
 218              		.type	put, %function
 219              	put:
 220              	.LFB42:
 221              		.loc 1 74 0
 222              		.cfi_startproc
 223              	.LVL21:
 224 0000 08B5     		push	{r3, lr}
ARM GAS  C:\Users\3130\AppData\Local\Temp\ccJU1WQ2.s 			page 5


 225              	.LCFI7:
 226              		.cfi_def_cfa_offset 8
 227              		.cfi_offset 3, -8
 228              		.cfi_offset 14, -4
 229              		.loc 1 76 0
 230 0002 0122     		mov	r2, #1
 231 0004 3030     		add	r0, r0, #48
 232              	.LVL22:
 233 0006 5242     		neg	r2, r2
 234 0008 FFF7FEFF 		bl	chOQPutTimeout
 235              	.LVL23:
 236              		.loc 1 77 0
 237              		@ sp needed for prologue
 238 000c 08BD     		pop	{r3, pc}
 239              		.cfi_endproc
 240              	.LFE42:
 241              		.size	put, .-put
 242 000e C046     		.section	.text.sdInit,"ax",%progbits
 243              		.align	2
 244              		.p2align 4,,15
 245              		.global	sdInit
 246              		.code	16
 247              		.thumb_func
 248              		.type	sdInit, %function
 249              	sdInit:
 250              	.LFB48:
 251              		.loc 1 120 0
 252              		.cfi_startproc
 253 0000 08B5     		push	{r3, lr}
 254              	.LCFI8:
 255              		.cfi_def_cfa_offset 8
 256              		.cfi_offset 3, -8
 257              		.cfi_offset 14, -4
 258              		.loc 1 122 0
 259 0002 FFF7FEFF 		bl	sd_lld_init
 260              	.LVL24:
 261              		.loc 1 123 0
 262              		@ sp needed for prologue
 263 0006 08BD     		pop	{r3, pc}
 264              		.cfi_endproc
 265              	.LFE48:
 266              		.size	sdInit, .-sdInit
 267 0008 C046C046 		.section	.text.sdObjectInit,"ax",%progbits
 267      C046C046 
 268              		.align	2
 269              		.p2align 4,,15
 270              		.global	sdObjectInit
 271              		.code	16
 272              		.thumb_func
 273              		.type	sdObjectInit, %function
 274              	sdObjectInit:
 275              	.LFB49:
 276              		.loc 1 140 0
 277              		.cfi_startproc
 278              	.LVL25:
 279 0000 30B5     		push	{r4, r5, lr}
 280              	.LCFI9:
ARM GAS  C:\Users\3130\AppData\Local\Temp\ccJU1WQ2.s 			page 6


 281              		.cfi_def_cfa_offset 12
 282              		.cfi_offset 4, -12
 283              		.cfi_offset 5, -8
 284              		.cfi_offset 14, -4
 285 0002 151C     		mov	r5, r2
 286              		.loc 1 142 0
 287 0004 0D4A     		ldr	r2, .L11
 288              	.LVL26:
 289              		.loc 1 140 0
 290 0006 041C     		mov	r4, r0
 291 0008 0B1C     		mov	r3, r1
 292              		.loc 1 142 0
 293 000a 04C0     		stmia	r0!, {r2}
 294              	.LVL27:
 295              		.loc 1 144 0
 296 000c 0121     		mov	r1, #1
 297              	.LVL28:
 298              		.loc 1 140 0
 299 000e 83B0     		sub	sp, sp, #12
 300              	.LCFI10:
 301              		.cfi_def_cfa_offset 24
 302              		.loc 1 143 0
 303 0010 6060     		str	r0, [r4, #4]
 304              		.loc 1 144 0
 305 0012 2172     		strb	r1, [r4, #8]
 306              		.loc 1 145 0
 307 0014 201C     		mov	r0, r4
 308 0016 211C     		mov	r1, r4
 309 0018 0C30     		add	r0, r0, #12
 310 001a 5431     		add	r1, r1, #84
 311 001c 0094     		str	r4, [sp]
 312 001e 1022     		mov	r2, #16
 313 0020 FFF7FEFF 		bl	chIQInit
 314              	.LVL29:
 315              		.loc 1 146 0
 316 0024 201C     		mov	r0, r4
 317 0026 211C     		mov	r1, r4
 318 0028 3030     		add	r0, r0, #48
 319 002a 6431     		add	r1, r1, #100
 320 002c 0094     		str	r4, [sp]
 321 002e 1022     		mov	r2, #16
 322 0030 2B1C     		mov	r3, r5
 323 0032 FFF7FEFF 		bl	chOQInit
 324              	.LVL30:
 325              		.loc 1 147 0
 326 0036 03B0     		add	sp, sp, #12
 327              		@ sp needed for prologue
 328              	.LVL31:
 329              	.LVL32:
 330 0038 30BD     		pop	{r4, r5, pc}
 331              	.L12:
 332 003a C046     		.align	2
 333              	.L11:
 334 003c 00000000 		.word	.LANCHOR0
 335              		.cfi_endproc
 336              	.LFE49:
 337              		.size	sdObjectInit, .-sdObjectInit
ARM GAS  C:\Users\3130\AppData\Local\Temp\ccJU1WQ2.s 			page 7


 338              		.section	.text.sdStart,"ax",%progbits
 339              		.align	2
 340              		.p2align 4,,15
 341              		.global	sdStart
 342              		.code	16
 343              		.thumb_func
 344              		.type	sdStart, %function
 345              	sdStart:
 346              	.LFB50:
 347              		.loc 1 159 0
 348              		.cfi_startproc
 349              	.LVL33:
 350 0000 10B5     		push	{r4, lr}
 351              	.LCFI11:
 352              		.cfi_def_cfa_offset 8
 353              		.cfi_offset 4, -8
 354              		.cfi_offset 14, -4
 355              		.loc 1 159 0
 356 0002 041C     		mov	r4, r0
 357              		.loc 1 163 0
 358              	@ 163 "../../ChibiOS_2.6.1/os/hal/src/serial.c" 1
 359 0004 72B6     		cpsid   i
 360              	@ 0 "" 2
 361              		.loc 1 167 0
 362              		.code	16
 363 0006 FFF7FEFF 		bl	sd_lld_start
 364              	.LVL34:
 365              		.loc 1 168 0
 366 000a 0223     		mov	r3, #2
 367 000c 2372     		strb	r3, [r4, #8]
 368              		.loc 1 169 0
 369              	@ 169 "../../ChibiOS_2.6.1/os/hal/src/serial.c" 1
 370 000e 62B6     		cpsie   i
 371              	@ 0 "" 2
 372              		.loc 1 170 0
 373              		.code	16
 374              		@ sp needed for prologue
 375              	.LVL35:
 376 0010 10BD     		pop	{r4, pc}
 377              		.cfi_endproc
 378              	.LFE50:
 379              		.size	sdStart, .-sdStart
 380 0012 C046C046 		.section	.text.sdStop,"ax",%progbits
 380      C046C046 
 380      C046C046 
 380      C046
 381              		.align	2
 382              		.p2align 4,,15
 383              		.global	sdStop
 384              		.code	16
 385              		.thumb_func
 386              		.type	sdStop, %function
 387              	sdStop:
 388              	.LFB51:
 389              		.loc 1 181 0
 390              		.cfi_startproc
 391              	.LVL36:
ARM GAS  C:\Users\3130\AppData\Local\Temp\ccJU1WQ2.s 			page 8


 392 0000 10B5     		push	{r4, lr}
 393              	.LCFI12:
 394              		.cfi_def_cfa_offset 8
 395              		.cfi_offset 4, -8
 396              		.cfi_offset 14, -4
 397              		.loc 1 181 0
 398 0002 041C     		mov	r4, r0
 399              		.loc 1 185 0
 400              	@ 185 "../../ChibiOS_2.6.1/os/hal/src/serial.c" 1
 401 0004 72B6     		cpsid   i
 402              	@ 0 "" 2
 403              		.loc 1 189 0
 404              		.code	16
 405 0006 FFF7FEFF 		bl	sd_lld_stop
 406              	.LVL37:
 407              		.loc 1 190 0
 408 000a 0123     		mov	r3, #1
 409              		.loc 1 191 0
 410 000c 201C     		mov	r0, r4
 411              		.loc 1 190 0
 412 000e 2372     		strb	r3, [r4, #8]
 413              		.loc 1 191 0
 414 0010 3030     		add	r0, r0, #48
 415 0012 FFF7FEFF 		bl	chOQResetI
 416              	.LVL38:
 417              		.loc 1 192 0
 418 0016 201C     		mov	r0, r4
 419 0018 0C30     		add	r0, r0, #12
 420 001a FFF7FEFF 		bl	chIQResetI
 421              	.LVL39:
 422              		.loc 1 193 0
 423 001e FFF7FEFF 		bl	chSchRescheduleS
 424              	.LVL40:
 425              		.loc 1 194 0
 426              	@ 194 "../../ChibiOS_2.6.1/os/hal/src/serial.c" 1
 427 0022 62B6     		cpsie   i
 428              	@ 0 "" 2
 429              		.loc 1 195 0
 430              		.code	16
 431              		@ sp needed for prologue
 432              	.LVL41:
 433 0024 10BD     		pop	{r4, pc}
 434              		.cfi_endproc
 435              	.LFE51:
 436              		.size	sdStop, .-sdStop
 437 0026 C046C046 		.section	.text.sdIncomingDataI,"ax",%progbits
 437      C046C046 
 437      C046
 438              		.align	2
 439              		.p2align 4,,15
 440              		.global	sdIncomingDataI
 441              		.code	16
 442              		.thumb_func
 443              		.type	sdIncomingDataI, %function
 444              	sdIncomingDataI:
 445              	.LFB52:
 446              		.loc 1 213 0
ARM GAS  C:\Users\3130\AppData\Local\Temp\ccJU1WQ2.s 			page 9


 447              		.cfi_startproc
 448              	.LVL42:
 449 0000 38B5     		push	{r3, r4, r5, lr}
 450              	.LCFI13:
 451              		.cfi_def_cfa_offset 16
 452              		.cfi_offset 3, -16
 453              		.cfi_offset 4, -12
 454              		.cfi_offset 5, -8
 455              		.cfi_offset 14, -4
 456              		.loc 1 218 0
 457 0002 4369     		ldr	r3, [r0, #20]
 458              		.loc 1 213 0
 459 0004 041C     		mov	r4, r0
 460 0006 0D1C     		mov	r5, r1
 461              		.loc 1 218 0
 462 0008 002B     		cmp	r3, #0
 463 000a 07D0     		beq	.L19
 464              		.loc 1 220 0
 465 000c 201C     		mov	r0, r4
 466 000e 0C30     		add	r0, r0, #12
 467              	.LVL43:
 468 0010 291C     		mov	r1, r5
 469              	.LVL44:
 470 0012 FFF7FEFF 		bl	chIQPutI
 471              	.LVL45:
 472 0016 0028     		cmp	r0, #0
 473 0018 0BDB     		blt	.L20
 474              	.L15:
 475              		.loc 1 222 0
 476              		@ sp needed for prologue
 477              	.LVL46:
 478 001a 38BD     		pop	{r3, r4, r5, pc}
 479              	.LVL47:
 480              	.L19:
 481              		.loc 1 219 0
 482 001c 0430     		add	r0, r0, #4
 483              	.LVL48:
 484 001e 0421     		mov	r1, #4
 485              	.LVL49:
 486 0020 FFF7FEFF 		bl	chEvtBroadcastFlagsI
 487              	.LVL50:
 488              		.loc 1 220 0
 489 0024 201C     		mov	r0, r4
 490 0026 0C30     		add	r0, r0, #12
 491 0028 291C     		mov	r1, r5
 492 002a FFF7FEFF 		bl	chIQPutI
 493              	.LVL51:
 494 002e 0028     		cmp	r0, #0
 495 0030 F3DA     		bge	.L15
 496              	.L20:
 497              		.loc 1 221 0
 498 0032 201D     		add	r0, r4, #4
 499 0034 8021     		mov	r1, #128
 500 0036 FFF7FEFF 		bl	chEvtBroadcastFlagsI
 501              	.LVL52:
 502 003a EEE7     		b	.L15
 503              		.cfi_endproc
ARM GAS  C:\Users\3130\AppData\Local\Temp\ccJU1WQ2.s 			page 10


 504              	.LFE52:
 505              		.size	sdIncomingDataI, .-sdIncomingDataI
 506 003c C046C046 		.section	.text.sdRequestDataI,"ax",%progbits
 507              		.align	2
 508              		.p2align 4,,15
 509              		.global	sdRequestDataI
 510              		.code	16
 511              		.thumb_func
 512              		.type	sdRequestDataI, %function
 513              	sdRequestDataI:
 514              	.LFB53:
 515              		.loc 1 239 0
 516              		.cfi_startproc
 517              	.LVL53:
 518 0000 38B5     		push	{r3, r4, r5, lr}
 519              	.LCFI14:
 520              		.cfi_def_cfa_offset 16
 521              		.cfi_offset 3, -16
 522              		.cfi_offset 4, -12
 523              		.cfi_offset 5, -8
 524              		.cfi_offset 14, -4
 525              		.loc 1 239 0
 526 0002 051C     		mov	r5, r0
 527              		.loc 1 245 0
 528 0004 3030     		add	r0, r0, #48
 529              	.LVL54:
 530 0006 FFF7FEFF 		bl	chOQGetI
 531              	.LVL55:
 532 000a 041E     		sub	r4, r0, #0
 533              	.LVL56:
 534              		.loc 1 246 0
 535 000c 01DB     		blt	.L23
 536              	.LVL57:
 537              	.L22:
 538              		.loc 1 249 0
 539 000e 201C     		mov	r0, r4
 540              		@ sp needed for prologue
 541              	.LVL58:
 542              	.LVL59:
 543 0010 38BD     		pop	{r3, r4, r5, pc}
 544              	.LVL60:
 545              	.L23:
 546              		.loc 1 247 0
 547 0012 281D     		add	r0, r5, #4
 548              	.LVL61:
 549 0014 0821     		mov	r1, #8
 550 0016 FFF7FEFF 		bl	chEvtBroadcastFlagsI
 551              	.LVL62:
 552 001a F8E7     		b	.L22
 553              		.cfi_endproc
 554              	.LFE53:
 555              		.size	sdRequestDataI, .-sdRequestDataI
 556 001c C046C046 		.section	.rodata.vmt,"a",%progbits
 557              		.align	2
 558              		.set	.LANCHOR0,. + 0
 559              		.type	vmt, %object
 560              		.size	vmt, 32
ARM GAS  C:\Users\3130\AppData\Local\Temp\ccJU1WQ2.s 			page 11


 561              	vmt:
 562 0000 00000000 		.word	write
 563 0004 00000000 		.word	read
 564 0008 00000000 		.word	put
 565 000c 00000000 		.word	get
 566 0010 00000000 		.word	putt
 567 0014 00000000 		.word	gett
 568 0018 00000000 		.word	writet
 569 001c 00000000 		.word	readt
 570              		.text
 571              	.Letext0:
 572              		.file 2 "c:\\stm32f0-discovery_tools\\gcc-arm-none-eabi\\bin\\../lib/gcc/arm-none-eabi/4.7.4/inclu
 573              		.file 3 "c:\\stm32f0-discovery_tools\\gcc-arm-none-eabi\\bin\\../lib/gcc/arm-none-eabi/4.7.4/../..
 574              		.file 4 "../../ChibiOS_2.6.1/os/ports/GCC/ARMCMx/chtypes.h"
 575              		.file 5 "../../ChibiOS_2.6.1/os/kernel/include/chlists.h"
 576              		.file 6 "../../ChibiOS_2.6.1/os/kernel/include/chthreads.h"
 577              		.file 7 "../../ChibiOS_2.6.1/os/ports/GCC/ARMCMx/chcore_v6m.h"
 578              		.file 8 "../../ChibiOS_2.6.1/os/kernel/include/chmtx.h"
 579              		.file 9 "../../ChibiOS_2.6.1/os/kernel/include/chevents.h"
 580              		.file 10 "../../ChibiOS_2.6.1/os/kernel/include/chqueues.h"
 581              		.file 11 "../../ChibiOS_2.6.1/os/hal/platforms/STM32F0xx/stm32f0xx.h"
 582              		.file 12 "../../ChibiOS_2.6.1/os/hal/include/serial.h"
 583              		.file 13 "../../ChibiOS_2.6.1/os/hal/platforms/STM32/USARTv2/serial_lld.h"
 584              		.file 14 "../../ChibiOS_2.6.1/os/kernel/include/chschd.h"
 585              		.section	.debug_info,"",%progbits
 586              	.Ldebug_info0:
 587 0000 62100000 		.4byte	0x1062
 588 0004 0200     		.2byte	0x2
 589 0006 00000000 		.4byte	.Ldebug_abbrev0
 590 000a 04       		.byte	0x4
 591 000b 01       		.uleb128 0x1
 592 000c 16000000 		.4byte	.LASF132
 593 0010 01       		.byte	0x1
 594 0011 22050000 		.4byte	.LASF133
 595 0015 9C000000 		.4byte	.LASF134
 596 0019 00000000 		.4byte	.Ldebug_ranges0+0
 597 001d 00000000 		.4byte	0
 598 0021 00000000 		.4byte	0
 599 0025 00000000 		.4byte	.Ldebug_line0
 600 0029 02       		.uleb128 0x2
 601 002a 04       		.byte	0x4
 602 002b 05       		.byte	0x5
 603 002c 696E7400 		.ascii	"int\000"
 604 0030 03       		.uleb128 0x3
 605 0031 FB010000 		.4byte	.LASF2
 606 0035 02       		.byte	0x2
 607 0036 D5       		.byte	0xd5
 608 0037 3B000000 		.4byte	0x3b
 609 003b 04       		.uleb128 0x4
 610 003c 04       		.byte	0x4
 611 003d 07       		.byte	0x7
 612 003e 8F000000 		.4byte	.LASF0
 613 0042 04       		.uleb128 0x4
 614 0043 01       		.byte	0x1
 615 0044 06       		.byte	0x6
 616 0045 FD040000 		.4byte	.LASF1
 617 0049 03       		.uleb128 0x3
ARM GAS  C:\Users\3130\AppData\Local\Temp\ccJU1WQ2.s 			page 12


 618 004a C7020000 		.4byte	.LASF3
 619 004e 03       		.byte	0x3
 620 004f 2A       		.byte	0x2a
 621 0050 54000000 		.4byte	0x54
 622 0054 04       		.uleb128 0x4
 623 0055 01       		.byte	0x1
 624 0056 08       		.byte	0x8
 625 0057 B2040000 		.4byte	.LASF4
 626 005b 04       		.uleb128 0x4
 627 005c 02       		.byte	0x2
 628 005d 05       		.byte	0x5
 629 005e F5030000 		.4byte	.LASF5
 630 0062 03       		.uleb128 0x3
 631 0063 88030000 		.4byte	.LASF6
 632 0067 03       		.byte	0x3
 633 0068 36       		.byte	0x36
 634 0069 6D000000 		.4byte	0x6d
 635 006d 04       		.uleb128 0x4
 636 006e 02       		.byte	0x2
 637 006f 07       		.byte	0x7
 638 0070 0F050000 		.4byte	.LASF7
 639 0074 03       		.uleb128 0x3
 640 0075 A1040000 		.4byte	.LASF8
 641 0079 03       		.byte	0x3
 642 007a 4F       		.byte	0x4f
 643 007b 7F000000 		.4byte	0x7f
 644 007f 04       		.uleb128 0x4
 645 0080 04       		.byte	0x4
 646 0081 05       		.byte	0x5
 647 0082 12040000 		.4byte	.LASF9
 648 0086 03       		.uleb128 0x3
 649 0087 4F010000 		.4byte	.LASF10
 650 008b 03       		.byte	0x3
 651 008c 50       		.byte	0x50
 652 008d 91000000 		.4byte	0x91
 653 0091 04       		.uleb128 0x4
 654 0092 04       		.byte	0x4
 655 0093 07       		.byte	0x7
 656 0094 8F040000 		.4byte	.LASF11
 657 0098 04       		.uleb128 0x4
 658 0099 08       		.byte	0x8
 659 009a 05       		.byte	0x5
 660 009b F8020000 		.4byte	.LASF12
 661 009f 04       		.uleb128 0x4
 662 00a0 08       		.byte	0x8
 663 00a1 07       		.byte	0x7
 664 00a2 A3010000 		.4byte	.LASF13
 665 00a6 03       		.uleb128 0x3
 666 00a7 11020000 		.4byte	.LASF14
 667 00ab 04       		.byte	0x4
 668 00ac 2B       		.byte	0x2b
 669 00ad B1000000 		.4byte	0xb1
 670 00b1 04       		.uleb128 0x4
 671 00b2 01       		.byte	0x1
 672 00b3 02       		.byte	0x2
 673 00b4 18020000 		.4byte	.LASF15
 674 00b8 03       		.uleb128 0x3
ARM GAS  C:\Users\3130\AppData\Local\Temp\ccJU1WQ2.s 			page 13


 675 00b9 6C030000 		.4byte	.LASF16
 676 00bd 04       		.byte	0x4
 677 00be 2C       		.byte	0x2c
 678 00bf 49000000 		.4byte	0x49
 679 00c3 03       		.uleb128 0x3
 680 00c4 99020000 		.4byte	.LASF17
 681 00c8 04       		.byte	0x4
 682 00c9 2D       		.byte	0x2d
 683 00ca 49000000 		.4byte	0x49
 684 00ce 03       		.uleb128 0x3
 685 00cf 79040000 		.4byte	.LASF18
 686 00d3 04       		.byte	0x4
 687 00d4 2E       		.byte	0x2e
 688 00d5 49000000 		.4byte	0x49
 689 00d9 03       		.uleb128 0x3
 690 00da 3E030000 		.4byte	.LASF19
 691 00de 04       		.byte	0x4
 692 00df 2F       		.byte	0x2f
 693 00e0 49000000 		.4byte	0x49
 694 00e4 03       		.uleb128 0x3
 695 00e5 9B010000 		.4byte	.LASF20
 696 00e9 04       		.byte	0x4
 697 00ea 30       		.byte	0x30
 698 00eb 86000000 		.4byte	0x86
 699 00ef 03       		.uleb128 0x3
 700 00f0 15030000 		.4byte	.LASF21
 701 00f4 04       		.byte	0x4
 702 00f5 31       		.byte	0x31
 703 00f6 74000000 		.4byte	0x74
 704 00fa 03       		.uleb128 0x3
 705 00fb 72010000 		.4byte	.LASF22
 706 00ff 04       		.byte	0x4
 707 0100 33       		.byte	0x33
 708 0101 86000000 		.4byte	0x86
 709 0105 03       		.uleb128 0x3
 710 0106 CF020000 		.4byte	.LASF23
 711 010a 04       		.byte	0x4
 712 010b 34       		.byte	0x34
 713 010c 86000000 		.4byte	0x86
 714 0110 03       		.uleb128 0x3
 715 0111 72000000 		.4byte	.LASF24
 716 0115 04       		.byte	0x4
 717 0116 35       		.byte	0x35
 718 0117 86000000 		.4byte	0x86
 719 011b 03       		.uleb128 0x3
 720 011c 92020000 		.4byte	.LASF25
 721 0120 05       		.byte	0x5
 722 0121 2A       		.byte	0x2a
 723 0122 26010000 		.4byte	0x126
 724 0126 05       		.uleb128 0x5
 725 0127 92020000 		.4byte	.LASF25
 726 012b 48       		.byte	0x48
 727 012c 06       		.byte	0x6
 728 012d 5E       		.byte	0x5e
 729 012e 4B020000 		.4byte	0x24b
 730 0132 06       		.uleb128 0x6
 731 0133 23040000 		.4byte	.LASF26
ARM GAS  C:\Users\3130\AppData\Local\Temp\ccJU1WQ2.s 			page 14


 732 0137 06       		.byte	0x6
 733 0138 5F       		.byte	0x5f
 734 0139 70020000 		.4byte	0x270
 735 013d 02       		.byte	0x2
 736 013e 23       		.byte	0x23
 737 013f 00       		.uleb128 0
 738 0140 06       		.uleb128 0x6
 739 0141 69040000 		.4byte	.LASF27
 740 0145 06       		.byte	0x6
 741 0146 61       		.byte	0x61
 742 0147 70020000 		.4byte	0x270
 743 014b 02       		.byte	0x2
 744 014c 23       		.byte	0x23
 745 014d 04       		.uleb128 0x4
 746 014e 06       		.uleb128 0x6
 747 014f 6B000000 		.4byte	.LASF28
 748 0153 06       		.byte	0x6
 749 0154 63       		.byte	0x63
 750 0155 E4000000 		.4byte	0xe4
 751 0159 02       		.byte	0x2
 752 015a 23       		.byte	0x23
 753 015b 08       		.uleb128 0x8
 754 015c 06       		.uleb128 0x6
 755 015d 2A040000 		.4byte	.LASF29
 756 0161 06       		.byte	0x6
 757 0162 64       		.byte	0x64
 758 0163 34030000 		.4byte	0x334
 759 0167 02       		.byte	0x2
 760 0168 23       		.byte	0x23
 761 0169 0C       		.uleb128 0xc
 762 016a 06       		.uleb128 0x6
 763 016b D8010000 		.4byte	.LASF30
 764 016f 06       		.byte	0x6
 765 0170 66       		.byte	0x66
 766 0171 70020000 		.4byte	0x270
 767 0175 02       		.byte	0x2
 768 0176 23       		.byte	0x23
 769 0177 10       		.uleb128 0x10
 770 0178 06       		.uleb128 0x6
 771 0179 B7020000 		.4byte	.LASF31
 772 017d 06       		.byte	0x6
 773 017e 67       		.byte	0x67
 774 017f 70020000 		.4byte	0x270
 775 0183 02       		.byte	0x2
 776 0184 23       		.byte	0x23
 777 0185 14       		.uleb128 0x14
 778 0186 06       		.uleb128 0x6
 779 0187 66020000 		.4byte	.LASF32
 780 018b 06       		.byte	0x6
 781 018c 6E       		.byte	0x6e
 782 018d 5F040000 		.4byte	0x45f
 783 0191 02       		.byte	0x2
 784 0192 23       		.byte	0x23
 785 0193 18       		.uleb128 0x18
 786 0194 06       		.uleb128 0x6
 787 0195 BF020000 		.4byte	.LASF33
 788 0199 06       		.byte	0x6
ARM GAS  C:\Users\3130\AppData\Local\Temp\ccJU1WQ2.s 			page 15


 789 019a 79       		.byte	0x79
 790 019b C3000000 		.4byte	0xc3
 791 019f 02       		.byte	0x2
 792 01a0 23       		.byte	0x23
 793 01a1 1C       		.uleb128 0x1c
 794 01a2 06       		.uleb128 0x6
 795 01a3 2F030000 		.4byte	.LASF34
 796 01a7 06       		.byte	0x6
 797 01a8 7D       		.byte	0x7d
 798 01a9 B8000000 		.4byte	0xb8
 799 01ad 02       		.byte	0x2
 800 01ae 23       		.byte	0x23
 801 01af 1D       		.uleb128 0x1d
 802 01b0 06       		.uleb128 0x6
 803 01b1 C0040000 		.4byte	.LASF35
 804 01b5 06       		.byte	0x6
 805 01b6 82       		.byte	0x82
 806 01b7 CE000000 		.4byte	0xce
 807 01bb 02       		.byte	0x2
 808 01bc 23       		.byte	0x23
 809 01bd 1E       		.uleb128 0x1e
 810 01be 06       		.uleb128 0x6
 811 01bf DE040000 		.4byte	.LASF36
 812 01c3 06       		.byte	0x6
 813 01c4 88       		.byte	0x88
 814 01c5 D9000000 		.4byte	0xd9
 815 01c9 02       		.byte	0x2
 816 01ca 23       		.byte	0x23
 817 01cb 1F       		.uleb128 0x1f
 818 01cc 06       		.uleb128 0x6
 819 01cd 4C000000 		.4byte	.LASF37
 820 01d1 06       		.byte	0x6
 821 01d2 8F       		.byte	0x8f
 822 01d3 61030000 		.4byte	0x361
 823 01d7 02       		.byte	0x2
 824 01d8 23       		.byte	0x23
 825 01d9 20       		.uleb128 0x20
 826 01da 07       		.uleb128 0x7
 827 01db 705F7500 		.ascii	"p_u\000"
 828 01df 06       		.byte	0x6
 829 01e0 B4       		.byte	0xb4
 830 01e1 2A040000 		.4byte	0x42a
 831 01e5 02       		.byte	0x2
 832 01e6 23       		.byte	0x23
 833 01e7 24       		.uleb128 0x24
 834 01e8 06       		.uleb128 0x6
 835 01e9 0C000000 		.4byte	.LASF38
 836 01ed 06       		.byte	0x6
 837 01ee B9       		.byte	0xb9
 838 01ef 98020000 		.4byte	0x298
 839 01f3 02       		.byte	0x2
 840 01f4 23       		.byte	0x23
 841 01f5 28       		.uleb128 0x28
 842 01f6 06       		.uleb128 0x6
 843 01f7 84000000 		.4byte	.LASF39
 844 01fb 06       		.byte	0x6
 845 01fc BF       		.byte	0xbf
ARM GAS  C:\Users\3130\AppData\Local\Temp\ccJU1WQ2.s 			page 16


 846 01fd 76020000 		.4byte	0x276
 847 0201 02       		.byte	0x2
 848 0202 23       		.byte	0x23
 849 0203 2C       		.uleb128 0x2c
 850 0204 06       		.uleb128 0x6
 851 0205 66030000 		.4byte	.LASF40
 852 0209 06       		.byte	0x6
 853 020a C3       		.byte	0xc3
 854 020b EF000000 		.4byte	0xef
 855 020f 02       		.byte	0x2
 856 0210 23       		.byte	0x23
 857 0211 34       		.uleb128 0x34
 858 0212 06       		.uleb128 0x6
 859 0213 FF030000 		.4byte	.LASF41
 860 0217 06       		.byte	0x6
 861 0218 C9       		.byte	0xc9
 862 0219 FA000000 		.4byte	0xfa
 863 021d 02       		.byte	0x2
 864 021e 23       		.byte	0x23
 865 021f 38       		.uleb128 0x38
 866 0220 06       		.uleb128 0x6
 867 0221 E8020000 		.4byte	.LASF42
 868 0225 06       		.byte	0x6
 869 0226 D0       		.byte	0xd0
 870 0227 71040000 		.4byte	0x471
 871 022b 02       		.byte	0x2
 872 022c 23       		.byte	0x23
 873 022d 3C       		.uleb128 0x3c
 874 022e 06       		.uleb128 0x6
 875 022f B8030000 		.4byte	.LASF43
 876 0233 06       		.byte	0x6
 877 0234 D4       		.byte	0xd4
 878 0235 E4000000 		.4byte	0xe4
 879 0239 02       		.byte	0x2
 880 023a 23       		.byte	0x23
 881 023b 40       		.uleb128 0x40
 882 023c 06       		.uleb128 0x6
 883 023d E0020000 		.4byte	.LASF44
 884 0241 06       		.byte	0x6
 885 0242 DA       		.byte	0xda
 886 0243 AE020000 		.4byte	0x2ae
 887 0247 02       		.byte	0x2
 888 0248 23       		.byte	0x23
 889 0249 44       		.uleb128 0x44
 890 024a 00       		.byte	0
 891 024b 08       		.uleb128 0x8
 892 024c 08       		.byte	0x8
 893 024d 05       		.byte	0x5
 894 024e 61       		.byte	0x61
 895 024f 70020000 		.4byte	0x270
 896 0253 06       		.uleb128 0x6
 897 0254 23040000 		.4byte	.LASF26
 898 0258 05       		.byte	0x5
 899 0259 62       		.byte	0x62
 900 025a 70020000 		.4byte	0x270
 901 025e 02       		.byte	0x2
 902 025f 23       		.byte	0x23
ARM GAS  C:\Users\3130\AppData\Local\Temp\ccJU1WQ2.s 			page 17


 903 0260 00       		.uleb128 0
 904 0261 06       		.uleb128 0x6
 905 0262 69040000 		.4byte	.LASF27
 906 0266 05       		.byte	0x5
 907 0267 64       		.byte	0x64
 908 0268 70020000 		.4byte	0x270
 909 026c 02       		.byte	0x2
 910 026d 23       		.byte	0x23
 911 026e 04       		.uleb128 0x4
 912 026f 00       		.byte	0
 913 0270 09       		.uleb128 0x9
 914 0271 04       		.byte	0x4
 915 0272 1B010000 		.4byte	0x11b
 916 0276 03       		.uleb128 0x3
 917 0277 78020000 		.4byte	.LASF45
 918 027b 05       		.byte	0x5
 919 027c 66       		.byte	0x66
 920 027d 4B020000 		.4byte	0x24b
 921 0281 08       		.uleb128 0x8
 922 0282 04       		.byte	0x4
 923 0283 05       		.byte	0x5
 924 0284 6B       		.byte	0x6b
 925 0285 98020000 		.4byte	0x298
 926 0289 06       		.uleb128 0x6
 927 028a 23040000 		.4byte	.LASF26
 928 028e 05       		.byte	0x5
 929 028f 6D       		.byte	0x6d
 930 0290 70020000 		.4byte	0x270
 931 0294 02       		.byte	0x2
 932 0295 23       		.byte	0x23
 933 0296 00       		.uleb128 0
 934 0297 00       		.byte	0
 935 0298 03       		.uleb128 0x3
 936 0299 00000000 		.4byte	.LASF46
 937 029d 05       		.byte	0x5
 938 029e 70       		.byte	0x70
 939 029f 81020000 		.4byte	0x281
 940 02a3 03       		.uleb128 0x3
 941 02a4 62000000 		.4byte	.LASF47
 942 02a8 07       		.byte	0x7
 943 02a9 A7       		.byte	0xa7
 944 02aa AE020000 		.4byte	0x2ae
 945 02ae 0A       		.uleb128 0xa
 946 02af 04       		.byte	0x4
 947 02b0 05       		.uleb128 0x5
 948 02b1 91030000 		.4byte	.LASF48
 949 02b5 24       		.byte	0x24
 950 02b6 07       		.byte	0x7
 951 02b7 BA       		.byte	0xba
 952 02b8 34030000 		.4byte	0x334
 953 02bc 07       		.uleb128 0x7
 954 02bd 723800   		.ascii	"r8\000"
 955 02c0 07       		.byte	0x7
 956 02c1 BB       		.byte	0xbb
 957 02c2 A3020000 		.4byte	0x2a3
 958 02c6 02       		.byte	0x2
 959 02c7 23       		.byte	0x23
ARM GAS  C:\Users\3130\AppData\Local\Temp\ccJU1WQ2.s 			page 18


 960 02c8 00       		.uleb128 0
 961 02c9 07       		.uleb128 0x7
 962 02ca 723900   		.ascii	"r9\000"
 963 02cd 07       		.byte	0x7
 964 02ce BC       		.byte	0xbc
 965 02cf A3020000 		.4byte	0x2a3
 966 02d3 02       		.byte	0x2
 967 02d4 23       		.byte	0x23
 968 02d5 04       		.uleb128 0x4
 969 02d6 07       		.uleb128 0x7
 970 02d7 72313000 		.ascii	"r10\000"
 971 02db 07       		.byte	0x7
 972 02dc BD       		.byte	0xbd
 973 02dd A3020000 		.4byte	0x2a3
 974 02e1 02       		.byte	0x2
 975 02e2 23       		.byte	0x23
 976 02e3 08       		.uleb128 0x8
 977 02e4 07       		.uleb128 0x7
 978 02e5 72313100 		.ascii	"r11\000"
 979 02e9 07       		.byte	0x7
 980 02ea BE       		.byte	0xbe
 981 02eb A3020000 		.4byte	0x2a3
 982 02ef 02       		.byte	0x2
 983 02f0 23       		.byte	0x23
 984 02f1 0C       		.uleb128 0xc
 985 02f2 07       		.uleb128 0x7
 986 02f3 723400   		.ascii	"r4\000"
 987 02f6 07       		.byte	0x7
 988 02f7 BF       		.byte	0xbf
 989 02f8 A3020000 		.4byte	0x2a3
 990 02fc 02       		.byte	0x2
 991 02fd 23       		.byte	0x23
 992 02fe 10       		.uleb128 0x10
 993 02ff 07       		.uleb128 0x7
 994 0300 723500   		.ascii	"r5\000"
 995 0303 07       		.byte	0x7
 996 0304 C0       		.byte	0xc0
 997 0305 A3020000 		.4byte	0x2a3
 998 0309 02       		.byte	0x2
 999 030a 23       		.byte	0x23
 1000 030b 14       		.uleb128 0x14
 1001 030c 07       		.uleb128 0x7
 1002 030d 723600   		.ascii	"r6\000"
 1003 0310 07       		.byte	0x7
 1004 0311 C1       		.byte	0xc1
 1005 0312 A3020000 		.4byte	0x2a3
 1006 0316 02       		.byte	0x2
 1007 0317 23       		.byte	0x23
 1008 0318 18       		.uleb128 0x18
 1009 0319 07       		.uleb128 0x7
 1010 031a 723700   		.ascii	"r7\000"
 1011 031d 07       		.byte	0x7
 1012 031e C2       		.byte	0xc2
 1013 031f A3020000 		.4byte	0x2a3
 1014 0323 02       		.byte	0x2
 1015 0324 23       		.byte	0x23
 1016 0325 1C       		.uleb128 0x1c
ARM GAS  C:\Users\3130\AppData\Local\Temp\ccJU1WQ2.s 			page 19


 1017 0326 07       		.uleb128 0x7
 1018 0327 6C7200   		.ascii	"lr\000"
 1019 032a 07       		.byte	0x7
 1020 032b C3       		.byte	0xc3
 1021 032c A3020000 		.4byte	0x2a3
 1022 0330 02       		.byte	0x2
 1023 0331 23       		.byte	0x23
 1024 0332 20       		.uleb128 0x20
 1025 0333 00       		.byte	0
 1026 0334 05       		.uleb128 0x5
 1027 0335 27030000 		.4byte	.LASF49
 1028 0339 04       		.byte	0x4
 1029 033a 07       		.byte	0x7
 1030 033b CD       		.byte	0xcd
 1031 033c 4F030000 		.4byte	0x34f
 1032 0340 07       		.uleb128 0x7
 1033 0341 72313300 		.ascii	"r13\000"
 1034 0345 07       		.byte	0x7
 1035 0346 CE       		.byte	0xce
 1036 0347 4F030000 		.4byte	0x34f
 1037 034b 02       		.byte	0x2
 1038 034c 23       		.byte	0x23
 1039 034d 00       		.uleb128 0
 1040 034e 00       		.byte	0
 1041 034f 09       		.uleb128 0x9
 1042 0350 04       		.byte	0x4
 1043 0351 B0020000 		.4byte	0x2b0
 1044 0355 0B       		.uleb128 0xb
 1045 0356 86000000 		.4byte	0x86
 1046 035a 04       		.uleb128 0x4
 1047 035b 04       		.byte	0x4
 1048 035c 07       		.byte	0x7
 1049 035d 70040000 		.4byte	.LASF50
 1050 0361 0B       		.uleb128 0xb
 1051 0362 10010000 		.4byte	0x110
 1052 0366 05       		.uleb128 0x5
 1053 0367 45020000 		.4byte	.LASF51
 1054 036b 10       		.byte	0x10
 1055 036c 08       		.byte	0x8
 1056 036d 2C       		.byte	0x2c
 1057 036e 9D030000 		.4byte	0x39d
 1058 0372 06       		.uleb128 0x6
 1059 0373 0A040000 		.4byte	.LASF52
 1060 0377 08       		.byte	0x8
 1061 0378 2D       		.byte	0x2d
 1062 0379 76020000 		.4byte	0x276
 1063 037d 02       		.byte	0x2
 1064 037e 23       		.byte	0x23
 1065 037f 00       		.uleb128 0
 1066 0380 06       		.uleb128 0x6
 1067 0381 7C000000 		.4byte	.LASF53
 1068 0385 08       		.byte	0x8
 1069 0386 2F       		.byte	0x2f
 1070 0387 70020000 		.4byte	0x270
 1071 038b 02       		.byte	0x2
 1072 038c 23       		.byte	0x23
 1073 038d 08       		.uleb128 0x8
ARM GAS  C:\Users\3130\AppData\Local\Temp\ccJU1WQ2.s 			page 20


 1074 038e 06       		.uleb128 0x6
 1075 038f F6040000 		.4byte	.LASF54
 1076 0393 08       		.byte	0x8
 1077 0394 31       		.byte	0x31
 1078 0395 9D030000 		.4byte	0x39d
 1079 0399 02       		.byte	0x2
 1080 039a 23       		.byte	0x23
 1081 039b 0C       		.uleb128 0xc
 1082 039c 00       		.byte	0
 1083 039d 09       		.uleb128 0x9
 1084 039e 04       		.byte	0x4
 1085 039f 66030000 		.4byte	0x366
 1086 03a3 03       		.uleb128 0x3
 1087 03a4 45020000 		.4byte	.LASF51
 1088 03a8 08       		.byte	0x8
 1089 03a9 33       		.byte	0x33
 1090 03aa 66030000 		.4byte	0x366
 1091 03ae 03       		.uleb128 0x3
 1092 03af 81040000 		.4byte	.LASF55
 1093 03b3 09       		.byte	0x9
 1094 03b4 2C       		.byte	0x2c
 1095 03b5 B9030000 		.4byte	0x3b9
 1096 03b9 05       		.uleb128 0x5
 1097 03ba 81040000 		.4byte	.LASF55
 1098 03be 10       		.byte	0x10
 1099 03bf 09       		.byte	0x9
 1100 03c0 31       		.byte	0x31
 1101 03c1 FE030000 		.4byte	0x3fe
 1102 03c5 06       		.uleb128 0x6
 1103 03c6 5E030000 		.4byte	.LASF56
 1104 03ca 09       		.byte	0x9
 1105 03cb 32       		.byte	0x32
 1106 03cc FE030000 		.4byte	0x3fe
 1107 03d0 02       		.byte	0x2
 1108 03d1 23       		.byte	0x23
 1109 03d2 00       		.uleb128 0
 1110 03d3 06       		.uleb128 0x6
 1111 03d4 35040000 		.4byte	.LASF57
 1112 03d8 09       		.byte	0x9
 1113 03d9 35       		.byte	0x35
 1114 03da 70020000 		.4byte	0x270
 1115 03de 02       		.byte	0x2
 1116 03df 23       		.byte	0x23
 1117 03e0 04       		.uleb128 0x4
 1118 03e1 06       		.uleb128 0x6
 1119 03e2 FC000000 		.4byte	.LASF58
 1120 03e6 09       		.byte	0x9
 1121 03e7 37       		.byte	0x37
 1122 03e8 FA000000 		.4byte	0xfa
 1123 03ec 02       		.byte	0x2
 1124 03ed 23       		.byte	0x23
 1125 03ee 08       		.uleb128 0x8
 1126 03ef 06       		.uleb128 0x6
 1127 03f0 61050000 		.4byte	.LASF59
 1128 03f4 09       		.byte	0x9
 1129 03f5 3A       		.byte	0x3a
 1130 03f6 05010000 		.4byte	0x105
ARM GAS  C:\Users\3130\AppData\Local\Temp\ccJU1WQ2.s 			page 21


 1131 03fa 02       		.byte	0x2
 1132 03fb 23       		.byte	0x23
 1133 03fc 0C       		.uleb128 0xc
 1134 03fd 00       		.byte	0
 1135 03fe 09       		.uleb128 0x9
 1136 03ff 04       		.byte	0x4
 1137 0400 AE030000 		.4byte	0x3ae
 1138 0404 05       		.uleb128 0x5
 1139 0405 EF010000 		.4byte	.LASF60
 1140 0409 04       		.byte	0x4
 1141 040a 09       		.byte	0x9
 1142 040b 41       		.byte	0x41
 1143 040c 1F040000 		.4byte	0x41f
 1144 0410 06       		.uleb128 0x6
 1145 0411 E8040000 		.4byte	.LASF61
 1146 0415 09       		.byte	0x9
 1147 0416 42       		.byte	0x42
 1148 0417 FE030000 		.4byte	0x3fe
 1149 041b 02       		.byte	0x2
 1150 041c 23       		.byte	0x23
 1151 041d 00       		.uleb128 0
 1152 041e 00       		.byte	0
 1153 041f 03       		.uleb128 0x3
 1154 0420 EF010000 		.4byte	.LASF60
 1155 0424 09       		.byte	0x9
 1156 0425 45       		.byte	0x45
 1157 0426 04040000 		.4byte	0x404
 1158 042a 0C       		.uleb128 0xc
 1159 042b 04       		.byte	0x4
 1160 042c 06       		.byte	0x6
 1161 042d 96       		.byte	0x96
 1162 042e 5F040000 		.4byte	0x45f
 1163 0432 0D       		.uleb128 0xd
 1164 0433 02020000 		.4byte	.LASF62
 1165 0437 06       		.byte	0x6
 1166 0438 9D       		.byte	0x9d
 1167 0439 EF000000 		.4byte	0xef
 1168 043d 0D       		.uleb128 0xd
 1169 043e 6A050000 		.4byte	.LASF63
 1170 0442 06       		.byte	0x6
 1171 0443 A4       		.byte	0xa4
 1172 0444 EF000000 		.4byte	0xef
 1173 0448 0D       		.uleb128 0xd
 1174 0449 04010000 		.4byte	.LASF64
 1175 044d 06       		.byte	0x6
 1176 044e AB       		.byte	0xab
 1177 044f AE020000 		.4byte	0x2ae
 1178 0453 0D       		.uleb128 0xd
 1179 0454 1F010000 		.4byte	.LASF65
 1180 0458 06       		.byte	0x6
 1181 0459 B2       		.byte	0xb2
 1182 045a FA000000 		.4byte	0xfa
 1183 045e 00       		.byte	0
 1184 045f 09       		.uleb128 0x9
 1185 0460 04       		.byte	0x4
 1186 0461 65040000 		.4byte	0x465
 1187 0465 0E       		.uleb128 0xe
ARM GAS  C:\Users\3130\AppData\Local\Temp\ccJU1WQ2.s 			page 22


 1188 0466 6A040000 		.4byte	0x46a
 1189 046a 04       		.uleb128 0x4
 1190 046b 01       		.byte	0x1
 1191 046c 08       		.byte	0x8
 1192 046d 85020000 		.4byte	.LASF66
 1193 0471 09       		.uleb128 0x9
 1194 0472 04       		.byte	0x4
 1195 0473 A3030000 		.4byte	0x3a3
 1196 0477 09       		.uleb128 0x9
 1197 0478 04       		.byte	0x4
 1198 0479 7D040000 		.4byte	0x47d
 1199 047d 0F       		.uleb128 0xf
 1200 047e 01       		.byte	0x1
 1201 047f EF000000 		.4byte	0xef
 1202 0483 8D040000 		.4byte	0x48d
 1203 0487 10       		.uleb128 0x10
 1204 0488 AE020000 		.4byte	0x2ae
 1205 048c 00       		.byte	0
 1206 048d 03       		.uleb128 0x3
 1207 048e 74030000 		.4byte	.LASF67
 1208 0492 0A       		.byte	0xa
 1209 0493 37       		.byte	0x37
 1210 0494 98040000 		.4byte	0x498
 1211 0498 05       		.uleb128 0x5
 1212 0499 74030000 		.4byte	.LASF67
 1213 049d 24       		.byte	0x24
 1214 049e 0A       		.byte	0xa
 1215 049f 45       		.byte	0x45
 1216 04a0 15050000 		.4byte	0x515
 1217 04a4 06       		.uleb128 0x6
 1218 04a5 E0010000 		.4byte	.LASF68
 1219 04a9 0A       		.byte	0xa
 1220 04aa 46       		.byte	0x46
 1221 04ab 76020000 		.4byte	0x276
 1222 04af 02       		.byte	0x2
 1223 04b0 23       		.byte	0x23
 1224 04b1 00       		.uleb128 0
 1225 04b2 06       		.uleb128 0x6
 1226 04b3 54040000 		.4byte	.LASF69
 1227 04b7 0A       		.byte	0xa
 1228 04b8 47       		.byte	0x47
 1229 04b9 30000000 		.4byte	0x30
 1230 04bd 02       		.byte	0x2
 1231 04be 23       		.byte	0x23
 1232 04bf 08       		.uleb128 0x8
 1233 04c0 06       		.uleb128 0x6
 1234 04c1 0C030000 		.4byte	.LASF70
 1235 04c5 0A       		.byte	0xa
 1236 04c6 48       		.byte	0x48
 1237 04c7 38050000 		.4byte	0x538
 1238 04cb 02       		.byte	0x2
 1239 04cc 23       		.byte	0x23
 1240 04cd 0C       		.uleb128 0xc
 1241 04ce 06       		.uleb128 0x6
 1242 04cf 63040000 		.4byte	.LASF71
 1243 04d3 0A       		.byte	0xa
 1244 04d4 49       		.byte	0x49
ARM GAS  C:\Users\3130\AppData\Local\Temp\ccJU1WQ2.s 			page 23


 1245 04d5 38050000 		.4byte	0x538
 1246 04d9 02       		.byte	0x2
 1247 04da 23       		.byte	0x23
 1248 04db 10       		.uleb128 0x10
 1249 04dc 06       		.uleb128 0x6
 1250 04dd 8A020000 		.4byte	.LASF72
 1251 04e1 0A       		.byte	0xa
 1252 04e2 4B       		.byte	0x4b
 1253 04e3 38050000 		.4byte	0x538
 1254 04e7 02       		.byte	0x2
 1255 04e8 23       		.byte	0x23
 1256 04e9 14       		.uleb128 0x14
 1257 04ea 06       		.uleb128 0x6
 1258 04eb EA000000 		.4byte	.LASF73
 1259 04ef 0A       		.byte	0xa
 1260 04f0 4C       		.byte	0x4c
 1261 04f1 38050000 		.4byte	0x538
 1262 04f5 02       		.byte	0x2
 1263 04f6 23       		.byte	0x23
 1264 04f7 18       		.uleb128 0x18
 1265 04f8 06       		.uleb128 0x6
 1266 04f9 57020000 		.4byte	.LASF74
 1267 04fd 0A       		.byte	0xa
 1268 04fe 4D       		.byte	0x4d
 1269 04ff 15050000 		.4byte	0x515
 1270 0503 02       		.byte	0x2
 1271 0504 23       		.byte	0x23
 1272 0505 1C       		.uleb128 0x1c
 1273 0506 06       		.uleb128 0x6
 1274 0507 0B010000 		.4byte	.LASF75
 1275 050b 0A       		.byte	0xa
 1276 050c 4E       		.byte	0x4e
 1277 050d AE020000 		.4byte	0x2ae
 1278 0511 02       		.byte	0x2
 1279 0512 23       		.byte	0x23
 1280 0513 20       		.uleb128 0x20
 1281 0514 00       		.byte	0
 1282 0515 03       		.uleb128 0x3
 1283 0516 F2000000 		.4byte	.LASF76
 1284 051a 0A       		.byte	0xa
 1285 051b 3A       		.byte	0x3a
 1286 051c 20050000 		.4byte	0x520
 1287 0520 09       		.uleb128 0x9
 1288 0521 04       		.byte	0x4
 1289 0522 26050000 		.4byte	0x526
 1290 0526 11       		.uleb128 0x11
 1291 0527 01       		.byte	0x1
 1292 0528 32050000 		.4byte	0x532
 1293 052c 10       		.uleb128 0x10
 1294 052d 32050000 		.4byte	0x532
 1295 0531 00       		.byte	0
 1296 0532 09       		.uleb128 0x9
 1297 0533 04       		.byte	0x4
 1298 0534 8D040000 		.4byte	0x48d
 1299 0538 09       		.uleb128 0x9
 1300 0539 04       		.byte	0x4
 1301 053a 49000000 		.4byte	0x49
ARM GAS  C:\Users\3130\AppData\Local\Temp\ccJU1WQ2.s 			page 24


 1302 053e 03       		.uleb128 0x3
 1303 053f 6D020000 		.4byte	.LASF77
 1304 0543 0A       		.byte	0xa
 1305 0544 82       		.byte	0x82
 1306 0545 8D040000 		.4byte	0x48d
 1307 0549 03       		.uleb128 0x3
 1308 054a 4B020000 		.4byte	.LASF78
 1309 054e 0A       		.byte	0xa
 1310 054f F5       		.byte	0xf5
 1311 0550 8D040000 		.4byte	0x48d
 1312 0554 0F       		.uleb128 0xf
 1313 0555 01       		.byte	0x1
 1314 0556 30000000 		.4byte	0x30
 1315 055a 6E050000 		.4byte	0x56e
 1316 055e 10       		.uleb128 0x10
 1317 055f AE020000 		.4byte	0x2ae
 1318 0563 10       		.uleb128 0x10
 1319 0564 6E050000 		.4byte	0x56e
 1320 0568 10       		.uleb128 0x10
 1321 0569 30000000 		.4byte	0x30
 1322 056d 00       		.byte	0
 1323 056e 09       		.uleb128 0x9
 1324 056f 04       		.byte	0x4
 1325 0570 74050000 		.4byte	0x574
 1326 0574 0E       		.uleb128 0xe
 1327 0575 49000000 		.4byte	0x49
 1328 0579 09       		.uleb128 0x9
 1329 057a 04       		.byte	0x4
 1330 057b 54050000 		.4byte	0x554
 1331 057f 0F       		.uleb128 0xf
 1332 0580 01       		.byte	0x1
 1333 0581 30000000 		.4byte	0x30
 1334 0585 99050000 		.4byte	0x599
 1335 0589 10       		.uleb128 0x10
 1336 058a AE020000 		.4byte	0x2ae
 1337 058e 10       		.uleb128 0x10
 1338 058f 38050000 		.4byte	0x538
 1339 0593 10       		.uleb128 0x10
 1340 0594 30000000 		.4byte	0x30
 1341 0598 00       		.byte	0
 1342 0599 09       		.uleb128 0x9
 1343 059a 04       		.byte	0x4
 1344 059b 7F050000 		.4byte	0x57f
 1345 059f 0F       		.uleb128 0xf
 1346 05a0 01       		.byte	0x1
 1347 05a1 EF000000 		.4byte	0xef
 1348 05a5 B4050000 		.4byte	0x5b4
 1349 05a9 10       		.uleb128 0x10
 1350 05aa AE020000 		.4byte	0x2ae
 1351 05ae 10       		.uleb128 0x10
 1352 05af 49000000 		.4byte	0x49
 1353 05b3 00       		.byte	0
 1354 05b4 09       		.uleb128 0x9
 1355 05b5 04       		.byte	0x4
 1356 05b6 9F050000 		.4byte	0x59f
 1357 05ba 0B       		.uleb128 0xb
 1358 05bb 62000000 		.4byte	0x62
ARM GAS  C:\Users\3130\AppData\Local\Temp\ccJU1WQ2.s 			page 25


 1359 05bf 12       		.uleb128 0x12
 1360 05c0 2C       		.byte	0x2c
 1361 05c1 0B       		.byte	0xb
 1362 05c2 6F02     		.2byte	0x26f
 1363 05c4 B9060000 		.4byte	0x6b9
 1364 05c8 13       		.uleb128 0x13
 1365 05c9 43523100 		.ascii	"CR1\000"
 1366 05cd 0B       		.byte	0xb
 1367 05ce 7102     		.2byte	0x271
 1368 05d0 55030000 		.4byte	0x355
 1369 05d4 02       		.byte	0x2
 1370 05d5 23       		.byte	0x23
 1371 05d6 00       		.uleb128 0
 1372 05d7 13       		.uleb128 0x13
 1373 05d8 43523200 		.ascii	"CR2\000"
 1374 05dc 0B       		.byte	0xb
 1375 05dd 7202     		.2byte	0x272
 1376 05df 55030000 		.4byte	0x355
 1377 05e3 02       		.byte	0x2
 1378 05e4 23       		.byte	0x23
 1379 05e5 04       		.uleb128 0x4
 1380 05e6 13       		.uleb128 0x13
 1381 05e7 43523300 		.ascii	"CR3\000"
 1382 05eb 0B       		.byte	0xb
 1383 05ec 7302     		.2byte	0x273
 1384 05ee 55030000 		.4byte	0x355
 1385 05f2 02       		.byte	0x2
 1386 05f3 23       		.byte	0x23
 1387 05f4 08       		.uleb128 0x8
 1388 05f5 13       		.uleb128 0x13
 1389 05f6 42525200 		.ascii	"BRR\000"
 1390 05fa 0B       		.byte	0xb
 1391 05fb 7402     		.2byte	0x274
 1392 05fd BA050000 		.4byte	0x5ba
 1393 0601 02       		.byte	0x2
 1394 0602 23       		.byte	0x23
 1395 0603 0C       		.uleb128 0xc
 1396 0604 14       		.uleb128 0x14
 1397 0605 C3030000 		.4byte	.LASF79
 1398 0609 0B       		.byte	0xb
 1399 060a 7502     		.2byte	0x275
 1400 060c 62000000 		.4byte	0x62
 1401 0610 02       		.byte	0x2
 1402 0611 23       		.byte	0x23
 1403 0612 0E       		.uleb128 0xe
 1404 0613 14       		.uleb128 0x14
 1405 0614 43010000 		.4byte	.LASF80
 1406 0618 0B       		.byte	0xb
 1407 0619 7602     		.2byte	0x276
 1408 061b BA050000 		.4byte	0x5ba
 1409 061f 02       		.byte	0x2
 1410 0620 23       		.byte	0x23
 1411 0621 10       		.uleb128 0x10
 1412 0622 14       		.uleb128 0x14
 1413 0623 CD030000 		.4byte	.LASF81
 1414 0627 0B       		.byte	0xb
 1415 0628 7702     		.2byte	0x277
ARM GAS  C:\Users\3130\AppData\Local\Temp\ccJU1WQ2.s 			page 26


 1416 062a 62000000 		.4byte	0x62
 1417 062e 02       		.byte	0x2
 1418 062f 23       		.byte	0x23
 1419 0630 12       		.uleb128 0x12
 1420 0631 14       		.uleb128 0x14
 1421 0632 DB020000 		.4byte	.LASF82
 1422 0636 0B       		.byte	0xb
 1423 0637 7802     		.2byte	0x278
 1424 0639 55030000 		.4byte	0x355
 1425 063d 02       		.byte	0x2
 1426 063e 23       		.byte	0x23
 1427 063f 14       		.uleb128 0x14
 1428 0640 13       		.uleb128 0x13
 1429 0641 52515200 		.ascii	"RQR\000"
 1430 0645 0B       		.byte	0xb
 1431 0646 7902     		.2byte	0x279
 1432 0648 BA050000 		.4byte	0x5ba
 1433 064c 02       		.byte	0x2
 1434 064d 23       		.byte	0x23
 1435 064e 18       		.uleb128 0x18
 1436 064f 14       		.uleb128 0x14
 1437 0650 D7030000 		.4byte	.LASF83
 1438 0654 0B       		.byte	0xb
 1439 0655 7A02     		.2byte	0x27a
 1440 0657 62000000 		.4byte	0x62
 1441 065b 02       		.byte	0x2
 1442 065c 23       		.byte	0x23
 1443 065d 1A       		.uleb128 0x1a
 1444 065e 13       		.uleb128 0x13
 1445 065f 49535200 		.ascii	"ISR\000"
 1446 0663 0B       		.byte	0xb
 1447 0664 7B02     		.2byte	0x27b
 1448 0666 55030000 		.4byte	0x355
 1449 066a 02       		.byte	0x2
 1450 066b 23       		.byte	0x23
 1451 066c 1C       		.uleb128 0x1c
 1452 066d 13       		.uleb128 0x13
 1453 066e 49435200 		.ascii	"ICR\000"
 1454 0672 0B       		.byte	0xb
 1455 0673 7C02     		.2byte	0x27c
 1456 0675 55030000 		.4byte	0x355
 1457 0679 02       		.byte	0x2
 1458 067a 23       		.byte	0x23
 1459 067b 20       		.uleb128 0x20
 1460 067c 13       		.uleb128 0x13
 1461 067d 52445200 		.ascii	"RDR\000"
 1462 0681 0B       		.byte	0xb
 1463 0682 7D02     		.2byte	0x27d
 1464 0684 BA050000 		.4byte	0x5ba
 1465 0688 02       		.byte	0x2
 1466 0689 23       		.byte	0x23
 1467 068a 24       		.uleb128 0x24
 1468 068b 14       		.uleb128 0x14
 1469 068c E1030000 		.4byte	.LASF84
 1470 0690 0B       		.byte	0xb
 1471 0691 7E02     		.2byte	0x27e
 1472 0693 62000000 		.4byte	0x62
ARM GAS  C:\Users\3130\AppData\Local\Temp\ccJU1WQ2.s 			page 27


 1473 0697 02       		.byte	0x2
 1474 0698 23       		.byte	0x23
 1475 0699 26       		.uleb128 0x26
 1476 069a 13       		.uleb128 0x13
 1477 069b 54445200 		.ascii	"TDR\000"
 1478 069f 0B       		.byte	0xb
 1479 06a0 7F02     		.2byte	0x27f
 1480 06a2 BA050000 		.4byte	0x5ba
 1481 06a6 02       		.byte	0x2
 1482 06a7 23       		.byte	0x23
 1483 06a8 28       		.uleb128 0x28
 1484 06a9 14       		.uleb128 0x14
 1485 06aa EB030000 		.4byte	.LASF85
 1486 06ae 0B       		.byte	0xb
 1487 06af 8002     		.2byte	0x280
 1488 06b1 62000000 		.4byte	0x62
 1489 06b5 02       		.byte	0x2
 1490 06b6 23       		.byte	0x23
 1491 06b7 2A       		.uleb128 0x2a
 1492 06b8 00       		.byte	0
 1493 06b9 15       		.uleb128 0x15
 1494 06ba 26020000 		.4byte	.LASF86
 1495 06be 0B       		.byte	0xb
 1496 06bf 8102     		.2byte	0x281
 1497 06c1 BF050000 		.4byte	0x5bf
 1498 06c5 0F       		.uleb128 0xf
 1499 06c6 01       		.byte	0x1
 1500 06c7 EF000000 		.4byte	0xef
 1501 06cb DF060000 		.4byte	0x6df
 1502 06cf 10       		.uleb128 0x10
 1503 06d0 AE020000 		.4byte	0x2ae
 1504 06d4 10       		.uleb128 0x10
 1505 06d5 49000000 		.4byte	0x49
 1506 06d9 10       		.uleb128 0x10
 1507 06da 10010000 		.4byte	0x110
 1508 06de 00       		.byte	0
 1509 06df 09       		.uleb128 0x9
 1510 06e0 04       		.byte	0x4
 1511 06e1 C5060000 		.4byte	0x6c5
 1512 06e5 0F       		.uleb128 0xf
 1513 06e6 01       		.byte	0x1
 1514 06e7 EF000000 		.4byte	0xef
 1515 06eb FA060000 		.4byte	0x6fa
 1516 06ef 10       		.uleb128 0x10
 1517 06f0 AE020000 		.4byte	0x2ae
 1518 06f4 10       		.uleb128 0x10
 1519 06f5 10010000 		.4byte	0x110
 1520 06f9 00       		.byte	0
 1521 06fa 09       		.uleb128 0x9
 1522 06fb 04       		.byte	0x4
 1523 06fc E5060000 		.4byte	0x6e5
 1524 0700 0F       		.uleb128 0xf
 1525 0701 01       		.byte	0x1
 1526 0702 30000000 		.4byte	0x30
 1527 0706 1F070000 		.4byte	0x71f
 1528 070a 10       		.uleb128 0x10
 1529 070b AE020000 		.4byte	0x2ae
ARM GAS  C:\Users\3130\AppData\Local\Temp\ccJU1WQ2.s 			page 28


 1530 070f 10       		.uleb128 0x10
 1531 0710 6E050000 		.4byte	0x56e
 1532 0714 10       		.uleb128 0x10
 1533 0715 30000000 		.4byte	0x30
 1534 0719 10       		.uleb128 0x10
 1535 071a 10010000 		.4byte	0x110
 1536 071e 00       		.byte	0
 1537 071f 09       		.uleb128 0x9
 1538 0720 04       		.byte	0x4
 1539 0721 00070000 		.4byte	0x700
 1540 0725 0F       		.uleb128 0xf
 1541 0726 01       		.byte	0x1
 1542 0727 30000000 		.4byte	0x30
 1543 072b 44070000 		.4byte	0x744
 1544 072f 10       		.uleb128 0x10
 1545 0730 AE020000 		.4byte	0x2ae
 1546 0734 10       		.uleb128 0x10
 1547 0735 38050000 		.4byte	0x538
 1548 0739 10       		.uleb128 0x10
 1549 073a 30000000 		.4byte	0x30
 1550 073e 10       		.uleb128 0x10
 1551 073f 10010000 		.4byte	0x110
 1552 0743 00       		.byte	0
 1553 0744 09       		.uleb128 0x9
 1554 0745 04       		.byte	0x4
 1555 0746 25070000 		.4byte	0x725
 1556 074a 16       		.uleb128 0x16
 1557 074b 01       		.byte	0x1
 1558 074c 0C       		.byte	0xc
 1559 074d 64       		.byte	0x64
 1560 074e 65070000 		.4byte	0x765
 1561 0752 17       		.uleb128 0x17
 1562 0753 41040000 		.4byte	.LASF87
 1563 0757 00       		.sleb128 0
 1564 0758 17       		.uleb128 0x17
 1565 0759 1E020000 		.4byte	.LASF88
 1566 075d 01       		.sleb128 1
 1567 075e 17       		.uleb128 0x17
 1568 075f 98030000 		.4byte	.LASF89
 1569 0763 02       		.sleb128 2
 1570 0764 00       		.byte	0
 1571 0765 03       		.uleb128 0x3
 1572 0766 8B010000 		.4byte	.LASF90
 1573 076a 0C       		.byte	0xc
 1574 076b 68       		.byte	0x68
 1575 076c 4A070000 		.4byte	0x74a
 1576 0770 03       		.uleb128 0x3
 1577 0771 38000000 		.4byte	.LASF91
 1578 0775 0C       		.byte	0xc
 1579 0776 6D       		.byte	0x6d
 1580 0777 7B070000 		.4byte	0x77b
 1581 077b 05       		.uleb128 0x5
 1582 077c 38000000 		.4byte	.LASF91
 1583 0780 7C       		.byte	0x7c
 1584 0781 0C       		.byte	0xc
 1585 0782 87       		.byte	0x87
 1586 0783 04080000 		.4byte	0x804
ARM GAS  C:\Users\3130\AppData\Local\Temp\ccJU1WQ2.s 			page 29


 1587 0787 07       		.uleb128 0x7
 1588 0788 766D7400 		.ascii	"vmt\000"
 1589 078c 0C       		.byte	0xc
 1590 078d 89       		.byte	0x89
 1591 078e CD080000 		.4byte	0x8cd
 1592 0792 02       		.byte	0x2
 1593 0793 23       		.byte	0x23
 1594 0794 00       		.uleb128 0
 1595 0795 06       		.uleb128 0x6
 1596 0796 95010000 		.4byte	.LASF92
 1597 079a 0C       		.byte	0xc
 1598 079b 8A       		.byte	0x8a
 1599 079c 1F040000 		.4byte	0x41f
 1600 07a0 02       		.byte	0x2
 1601 07a1 23       		.byte	0x23
 1602 07a2 04       		.uleb128 0x4
 1603 07a3 06       		.uleb128 0x6
 1604 07a4 F0040000 		.4byte	.LASF93
 1605 07a8 0C       		.byte	0xc
 1606 07a9 8A       		.byte	0x8a
 1607 07aa 65070000 		.4byte	0x765
 1608 07ae 02       		.byte	0x2
 1609 07af 23       		.byte	0x23
 1610 07b0 08       		.uleb128 0x8
 1611 07b1 06       		.uleb128 0x6
 1612 07b2 48010000 		.4byte	.LASF94
 1613 07b6 0C       		.byte	0xc
 1614 07b7 8A       		.byte	0x8a
 1615 07b8 3E050000 		.4byte	0x53e
 1616 07bc 02       		.byte	0x2
 1617 07bd 23       		.byte	0x23
 1618 07be 0C       		.uleb128 0xc
 1619 07bf 06       		.uleb128 0x6
 1620 07c0 81030000 		.4byte	.LASF95
 1621 07c4 0C       		.byte	0xc
 1622 07c5 8A       		.byte	0x8a
 1623 07c6 49050000 		.4byte	0x549
 1624 07ca 02       		.byte	0x2
 1625 07cb 23       		.byte	0x23
 1626 07cc 30       		.uleb128 0x30
 1627 07cd 07       		.uleb128 0x7
 1628 07ce 696200   		.ascii	"ib\000"
 1629 07d1 0C       		.byte	0xc
 1630 07d2 8A       		.byte	0x8a
 1631 07d3 D8080000 		.4byte	0x8d8
 1632 07d7 02       		.byte	0x2
 1633 07d8 23       		.byte	0x23
 1634 07d9 54       		.uleb128 0x54
 1635 07da 07       		.uleb128 0x7
 1636 07db 6F6200   		.ascii	"ob\000"
 1637 07de 0C       		.byte	0xc
 1638 07df 8A       		.byte	0x8a
 1639 07e0 D8080000 		.4byte	0x8d8
 1640 07e4 02       		.byte	0x2
 1641 07e5 23       		.byte	0x23
 1642 07e6 64       		.uleb128 0x64
 1643 07e7 06       		.uleb128 0x6
ARM GAS  C:\Users\3130\AppData\Local\Temp\ccJU1WQ2.s 			page 30


 1644 07e8 F2020000 		.4byte	.LASF96
 1645 07ec 0C       		.byte	0xc
 1646 07ed 8A       		.byte	0x8a
 1647 07ee E8080000 		.4byte	0x8e8
 1648 07f2 02       		.byte	0x2
 1649 07f3 23       		.byte	0x23
 1650 07f4 74       		.uleb128 0x74
 1651 07f5 06       		.uleb128 0x6
 1652 07f6 60020000 		.4byte	.LASF97
 1653 07fa 0C       		.byte	0xc
 1654 07fb 8A       		.byte	0x8a
 1655 07fc 86000000 		.4byte	0x86
 1656 0800 02       		.byte	0x2
 1657 0801 23       		.byte	0x23
 1658 0802 78       		.uleb128 0x78
 1659 0803 00       		.byte	0
 1660 0804 08       		.uleb128 0x8
 1661 0805 10       		.byte	0x10
 1662 0806 0D       		.byte	0xd
 1663 0807 D7       		.byte	0xd7
 1664 0808 45080000 		.4byte	0x845
 1665 080c 06       		.uleb128 0x6
 1666 080d 36010000 		.4byte	.LASF98
 1667 0811 0D       		.byte	0xd
 1668 0812 DB       		.byte	0xdb
 1669 0813 86000000 		.4byte	0x86
 1670 0817 02       		.byte	0x2
 1671 0818 23       		.byte	0x23
 1672 0819 00       		.uleb128 0
 1673 081a 07       		.uleb128 0x7
 1674 081b 63723100 		.ascii	"cr1\000"
 1675 081f 0D       		.byte	0xd
 1676 0820 E0       		.byte	0xe0
 1677 0821 86000000 		.4byte	0x86
 1678 0825 02       		.byte	0x2
 1679 0826 23       		.byte	0x23
 1680 0827 04       		.uleb128 0x4
 1681 0828 07       		.uleb128 0x7
 1682 0829 63723200 		.ascii	"cr2\000"
 1683 082d 0D       		.byte	0xd
 1684 082e E4       		.byte	0xe4
 1685 082f 86000000 		.4byte	0x86
 1686 0833 02       		.byte	0x2
 1687 0834 23       		.byte	0x23
 1688 0835 08       		.uleb128 0x8
 1689 0836 07       		.uleb128 0x7
 1690 0837 63723300 		.ascii	"cr3\000"
 1691 083b 0D       		.byte	0xd
 1692 083c E8       		.byte	0xe8
 1693 083d 86000000 		.4byte	0x86
 1694 0841 02       		.byte	0x2
 1695 0842 23       		.byte	0x23
 1696 0843 0C       		.uleb128 0xc
 1697 0844 00       		.byte	0
 1698 0845 03       		.uleb128 0x3
 1699 0846 7E010000 		.4byte	.LASF99
 1700 084a 0D       		.byte	0xd
ARM GAS  C:\Users\3130\AppData\Local\Temp\ccJU1WQ2.s 			page 31


 1701 084b E9       		.byte	0xe9
 1702 084c 04080000 		.4byte	0x804
 1703 0850 05       		.uleb128 0x5
 1704 0851 A1030000 		.4byte	.LASF100
 1705 0855 20       		.byte	0x20
 1706 0856 0C       		.byte	0xc
 1707 0857 7C       		.byte	0x7c
 1708 0858 CD080000 		.4byte	0x8cd
 1709 085c 06       		.uleb128 0x6
 1710 085d 06030000 		.4byte	.LASF101
 1711 0861 0C       		.byte	0xc
 1712 0862 7D       		.byte	0x7d
 1713 0863 79050000 		.4byte	0x579
 1714 0867 02       		.byte	0x2
 1715 0868 23       		.byte	0x23
 1716 0869 00       		.uleb128 0
 1717 086a 06       		.uleb128 0x6
 1718 086b 30040000 		.4byte	.LASF102
 1719 086f 0C       		.byte	0xc
 1720 0870 7D       		.byte	0x7d
 1721 0871 99050000 		.4byte	0x599
 1722 0875 02       		.byte	0x2
 1723 0876 23       		.byte	0x23
 1724 0877 04       		.uleb128 0x4
 1725 0878 07       		.uleb128 0x7
 1726 0879 70757400 		.ascii	"put\000"
 1727 087d 0C       		.byte	0xc
 1728 087e 7D       		.byte	0x7d
 1729 087f B4050000 		.4byte	0x5b4
 1730 0883 02       		.byte	0x2
 1731 0884 23       		.byte	0x23
 1732 0885 08       		.uleb128 0x8
 1733 0886 07       		.uleb128 0x7
 1734 0887 67657400 		.ascii	"get\000"
 1735 088b 0C       		.byte	0xc
 1736 088c 7D       		.byte	0x7d
 1737 088d 77040000 		.4byte	0x477
 1738 0891 02       		.byte	0x2
 1739 0892 23       		.byte	0x23
 1740 0893 0C       		.uleb128 0xc
 1741 0894 06       		.uleb128 0x6
 1742 0895 EA010000 		.4byte	.LASF103
 1743 0899 0C       		.byte	0xc
 1744 089a 7D       		.byte	0x7d
 1745 089b DF060000 		.4byte	0x6df
 1746 089f 02       		.byte	0x2
 1747 08a0 23       		.byte	0x23
 1748 08a1 10       		.uleb128 0x10
 1749 08a2 06       		.uleb128 0x6
 1750 08a3 5E040000 		.4byte	.LASF104
 1751 08a7 0C       		.byte	0xc
 1752 08a8 7D       		.byte	0x7d
 1753 08a9 FA060000 		.4byte	0x6fa
 1754 08ad 02       		.byte	0x2
 1755 08ae 23       		.byte	0x23
 1756 08af 14       		.uleb128 0x14
 1757 08b0 06       		.uleb128 0x6
ARM GAS  C:\Users\3130\AppData\Local\Temp\ccJU1WQ2.s 			page 32


 1758 08b1 3C010000 		.4byte	.LASF105
 1759 08b5 0C       		.byte	0xc
 1760 08b6 7D       		.byte	0x7d
 1761 08b7 1F070000 		.4byte	0x71f
 1762 08bb 02       		.byte	0x2
 1763 08bc 23       		.byte	0x23
 1764 08bd 18       		.uleb128 0x18
 1765 08be 06       		.uleb128 0x6
 1766 08bf 09050000 		.4byte	.LASF106
 1767 08c3 0C       		.byte	0xc
 1768 08c4 7D       		.byte	0x7d
 1769 08c5 44070000 		.4byte	0x744
 1770 08c9 02       		.byte	0x2
 1771 08ca 23       		.byte	0x23
 1772 08cb 1C       		.uleb128 0x1c
 1773 08cc 00       		.byte	0
 1774 08cd 09       		.uleb128 0x9
 1775 08ce 04       		.byte	0x4
 1776 08cf D3080000 		.4byte	0x8d3
 1777 08d3 0E       		.uleb128 0xe
 1778 08d4 50080000 		.4byte	0x850
 1779 08d8 18       		.uleb128 0x18
 1780 08d9 49000000 		.4byte	0x49
 1781 08dd E8080000 		.4byte	0x8e8
 1782 08e1 19       		.uleb128 0x19
 1783 08e2 5A030000 		.4byte	0x35a
 1784 08e6 0F       		.byte	0xf
 1785 08e7 00       		.byte	0
 1786 08e8 09       		.uleb128 0x9
 1787 08e9 04       		.byte	0x4
 1788 08ea B9060000 		.4byte	0x6b9
 1789 08ee 1A       		.uleb128 0x1a
 1790 08ef 09050000 		.4byte	.LASF106
 1791 08f3 01       		.byte	0x1
 1792 08f4 63       		.byte	0x63
 1793 08f5 01       		.byte	0x1
 1794 08f6 30000000 		.4byte	0x30
 1795 08fa 00000000 		.4byte	.LFB47
 1796 08fe 0A000000 		.4byte	.LFE47
 1797 0902 00000000 		.4byte	.LLST0
 1798 0906 01       		.byte	0x1
 1799 0907 6C090000 		.4byte	0x96c
 1800 090b 1B       		.uleb128 0x1b
 1801 090c 697000   		.ascii	"ip\000"
 1802 090f 01       		.byte	0x1
 1803 0910 63       		.byte	0x63
 1804 0911 AE020000 		.4byte	0x2ae
 1805 0915 20000000 		.4byte	.LLST1
 1806 0919 1B       		.uleb128 0x1b
 1807 091a 627000   		.ascii	"bp\000"
 1808 091d 01       		.byte	0x1
 1809 091e 63       		.byte	0x63
 1810 091f 38050000 		.4byte	0x538
 1811 0923 4E000000 		.4byte	.LLST2
 1812 0927 1B       		.uleb128 0x1b
 1813 0928 6E00     		.ascii	"n\000"
 1814 092a 01       		.byte	0x1
ARM GAS  C:\Users\3130\AppData\Local\Temp\ccJU1WQ2.s 			page 33


 1815 092b 63       		.byte	0x63
 1816 092c 30000000 		.4byte	0x30
 1817 0930 6F000000 		.4byte	.LLST3
 1818 0934 1C       		.uleb128 0x1c
 1819 0935 D3010000 		.4byte	.LASF107
 1820 0939 01       		.byte	0x1
 1821 093a 63       		.byte	0x63
 1822 093b 10010000 		.4byte	0x110
 1823 093f 90000000 		.4byte	.LLST4
 1824 0943 1D       		.uleb128 0x1d
 1825 0944 08000000 		.4byte	.LVL2
 1826 0948 B60E0000 		.4byte	0xeb6
 1827 094c 1E       		.uleb128 0x1e
 1828 094d 01       		.byte	0x1
 1829 094e 53       		.byte	0x53
 1830 094f 03       		.byte	0x3
 1831 0950 F3       		.byte	0xf3
 1832 0951 01       		.uleb128 0x1
 1833 0952 53       		.byte	0x53
 1834 0953 1E       		.uleb128 0x1e
 1835 0954 01       		.byte	0x1
 1836 0955 52       		.byte	0x52
 1837 0956 03       		.byte	0x3
 1838 0957 F3       		.byte	0xf3
 1839 0958 01       		.uleb128 0x1
 1840 0959 52       		.byte	0x52
 1841 095a 1E       		.uleb128 0x1e
 1842 095b 01       		.byte	0x1
 1843 095c 51       		.byte	0x51
 1844 095d 03       		.byte	0x3
 1845 095e F3       		.byte	0xf3
 1846 095f 01       		.uleb128 0x1
 1847 0960 51       		.byte	0x51
 1848 0961 1E       		.uleb128 0x1e
 1849 0962 01       		.byte	0x1
 1850 0963 50       		.byte	0x50
 1851 0964 05       		.byte	0x5
 1852 0965 F3       		.byte	0xf3
 1853 0966 01       		.uleb128 0x1
 1854 0967 50       		.byte	0x50
 1855 0968 23       		.byte	0x23
 1856 0969 0C       		.uleb128 0xc
 1857 096a 00       		.byte	0
 1858 096b 00       		.byte	0
 1859 096c 1A       		.uleb128 0x1a
 1860 096d 30040000 		.4byte	.LASF102
 1861 0971 01       		.byte	0x1
 1862 0972 44       		.byte	0x44
 1863 0973 01       		.byte	0x1
 1864 0974 30000000 		.4byte	0x30
 1865 0978 00000000 		.4byte	.LFB41
 1866 097c 0E000000 		.4byte	.LFE41
 1867 0980 B1000000 		.4byte	.LLST5
 1868 0984 01       		.byte	0x1
 1869 0985 DA090000 		.4byte	0x9da
 1870 0989 1B       		.uleb128 0x1b
 1871 098a 697000   		.ascii	"ip\000"
ARM GAS  C:\Users\3130\AppData\Local\Temp\ccJU1WQ2.s 			page 34


 1872 098d 01       		.byte	0x1
 1873 098e 44       		.byte	0x44
 1874 098f AE020000 		.4byte	0x2ae
 1875 0993 D1000000 		.4byte	.LLST6
 1876 0997 1B       		.uleb128 0x1b
 1877 0998 627000   		.ascii	"bp\000"
 1878 099b 01       		.byte	0x1
 1879 099c 44       		.byte	0x44
 1880 099d 38050000 		.4byte	0x538
 1881 09a1 FF000000 		.4byte	.LLST7
 1882 09a5 1B       		.uleb128 0x1b
 1883 09a6 6E00     		.ascii	"n\000"
 1884 09a8 01       		.byte	0x1
 1885 09a9 44       		.byte	0x44
 1886 09aa 30000000 		.4byte	0x30
 1887 09ae 20010000 		.4byte	.LLST8
 1888 09b2 1D       		.uleb128 0x1d
 1889 09b3 0C000000 		.4byte	.LVL5
 1890 09b7 B60E0000 		.4byte	0xeb6
 1891 09bb 1E       		.uleb128 0x1e
 1892 09bc 01       		.byte	0x1
 1893 09bd 53       		.byte	0x53
 1894 09be 02       		.byte	0x2
 1895 09bf 09       		.byte	0x9
 1896 09c0 FF       		.byte	0xff
 1897 09c1 1E       		.uleb128 0x1e
 1898 09c2 01       		.byte	0x1
 1899 09c3 52       		.byte	0x52
 1900 09c4 03       		.byte	0x3
 1901 09c5 F3       		.byte	0xf3
 1902 09c6 01       		.uleb128 0x1
 1903 09c7 52       		.byte	0x52
 1904 09c8 1E       		.uleb128 0x1e
 1905 09c9 01       		.byte	0x1
 1906 09ca 51       		.byte	0x51
 1907 09cb 03       		.byte	0x3
 1908 09cc F3       		.byte	0xf3
 1909 09cd 01       		.uleb128 0x1
 1910 09ce 51       		.byte	0x51
 1911 09cf 1E       		.uleb128 0x1e
 1912 09d0 01       		.byte	0x1
 1913 09d1 50       		.byte	0x50
 1914 09d2 05       		.byte	0x5
 1915 09d3 F3       		.byte	0xf3
 1916 09d4 01       		.uleb128 0x1
 1917 09d5 50       		.byte	0x50
 1918 09d6 23       		.byte	0x23
 1919 09d7 0C       		.uleb128 0xc
 1920 09d8 00       		.byte	0
 1921 09d9 00       		.byte	0
 1922 09da 1A       		.uleb128 0x1a
 1923 09db 3C010000 		.4byte	.LASF105
 1924 09df 01       		.byte	0x1
 1925 09e0 5E       		.byte	0x5e
 1926 09e1 01       		.byte	0x1
 1927 09e2 30000000 		.4byte	0x30
 1928 09e6 00000000 		.4byte	.LFB46
ARM GAS  C:\Users\3130\AppData\Local\Temp\ccJU1WQ2.s 			page 35


 1929 09ea 0A000000 		.4byte	.LFE46
 1930 09ee 41010000 		.4byte	.LLST9
 1931 09f2 01       		.byte	0x1
 1932 09f3 580A0000 		.4byte	0xa58
 1933 09f7 1B       		.uleb128 0x1b
 1934 09f8 697000   		.ascii	"ip\000"
 1935 09fb 01       		.byte	0x1
 1936 09fc 5E       		.byte	0x5e
 1937 09fd AE020000 		.4byte	0x2ae
 1938 0a01 61010000 		.4byte	.LLST10
 1939 0a05 1B       		.uleb128 0x1b
 1940 0a06 627000   		.ascii	"bp\000"
 1941 0a09 01       		.byte	0x1
 1942 0a0a 5E       		.byte	0x5e
 1943 0a0b 6E050000 		.4byte	0x56e
 1944 0a0f 8F010000 		.4byte	.LLST11
 1945 0a13 1B       		.uleb128 0x1b
 1946 0a14 6E00     		.ascii	"n\000"
 1947 0a16 01       		.byte	0x1
 1948 0a17 5E       		.byte	0x5e
 1949 0a18 30000000 		.4byte	0x30
 1950 0a1c B0010000 		.4byte	.LLST12
 1951 0a20 1C       		.uleb128 0x1c
 1952 0a21 D3010000 		.4byte	.LASF107
 1953 0a25 01       		.byte	0x1
 1954 0a26 5E       		.byte	0x5e
 1955 0a27 10010000 		.4byte	0x110
 1956 0a2b D1010000 		.4byte	.LLST13
 1957 0a2f 1D       		.uleb128 0x1d
 1958 0a30 08000000 		.4byte	.LVL8
 1959 0a34 E40E0000 		.4byte	0xee4
 1960 0a38 1E       		.uleb128 0x1e
 1961 0a39 01       		.byte	0x1
 1962 0a3a 53       		.byte	0x53
 1963 0a3b 03       		.byte	0x3
 1964 0a3c F3       		.byte	0xf3
 1965 0a3d 01       		.uleb128 0x1
 1966 0a3e 53       		.byte	0x53
 1967 0a3f 1E       		.uleb128 0x1e
 1968 0a40 01       		.byte	0x1
 1969 0a41 52       		.byte	0x52
 1970 0a42 03       		.byte	0x3
 1971 0a43 F3       		.byte	0xf3
 1972 0a44 01       		.uleb128 0x1
 1973 0a45 52       		.byte	0x52
 1974 0a46 1E       		.uleb128 0x1e
 1975 0a47 01       		.byte	0x1
 1976 0a48 51       		.byte	0x51
 1977 0a49 03       		.byte	0x3
 1978 0a4a F3       		.byte	0xf3
 1979 0a4b 01       		.uleb128 0x1
 1980 0a4c 51       		.byte	0x51
 1981 0a4d 1E       		.uleb128 0x1e
 1982 0a4e 01       		.byte	0x1
 1983 0a4f 50       		.byte	0x50
 1984 0a50 05       		.byte	0x5
 1985 0a51 F3       		.byte	0xf3
ARM GAS  C:\Users\3130\AppData\Local\Temp\ccJU1WQ2.s 			page 36


 1986 0a52 01       		.uleb128 0x1
 1987 0a53 50       		.byte	0x50
 1988 0a54 23       		.byte	0x23
 1989 0a55 30       		.uleb128 0x30
 1990 0a56 00       		.byte	0
 1991 0a57 00       		.byte	0
 1992 0a58 1A       		.uleb128 0x1a
 1993 0a59 06030000 		.4byte	.LASF101
 1994 0a5d 01       		.byte	0x1
 1995 0a5e 3E       		.byte	0x3e
 1996 0a5f 01       		.byte	0x1
 1997 0a60 30000000 		.4byte	0x30
 1998 0a64 00000000 		.4byte	.LFB40
 1999 0a68 0E000000 		.4byte	.LFE40
 2000 0a6c F2010000 		.4byte	.LLST14
 2001 0a70 01       		.byte	0x1
 2002 0a71 C60A0000 		.4byte	0xac6
 2003 0a75 1B       		.uleb128 0x1b
 2004 0a76 697000   		.ascii	"ip\000"
 2005 0a79 01       		.byte	0x1
 2006 0a7a 3E       		.byte	0x3e
 2007 0a7b AE020000 		.4byte	0x2ae
 2008 0a7f 12020000 		.4byte	.LLST15
 2009 0a83 1B       		.uleb128 0x1b
 2010 0a84 627000   		.ascii	"bp\000"
 2011 0a87 01       		.byte	0x1
 2012 0a88 3E       		.byte	0x3e
 2013 0a89 6E050000 		.4byte	0x56e
 2014 0a8d 40020000 		.4byte	.LLST16
 2015 0a91 1B       		.uleb128 0x1b
 2016 0a92 6E00     		.ascii	"n\000"
 2017 0a94 01       		.byte	0x1
 2018 0a95 3E       		.byte	0x3e
 2019 0a96 30000000 		.4byte	0x30
 2020 0a9a 61020000 		.4byte	.LLST17
 2021 0a9e 1D       		.uleb128 0x1d
 2022 0a9f 0C000000 		.4byte	.LVL11
 2023 0aa3 E40E0000 		.4byte	0xee4
 2024 0aa7 1E       		.uleb128 0x1e
 2025 0aa8 01       		.byte	0x1
 2026 0aa9 53       		.byte	0x53
 2027 0aaa 02       		.byte	0x2
 2028 0aab 09       		.byte	0x9
 2029 0aac FF       		.byte	0xff
 2030 0aad 1E       		.uleb128 0x1e
 2031 0aae 01       		.byte	0x1
 2032 0aaf 52       		.byte	0x52
 2033 0ab0 03       		.byte	0x3
 2034 0ab1 F3       		.byte	0xf3
 2035 0ab2 01       		.uleb128 0x1
 2036 0ab3 52       		.byte	0x52
 2037 0ab4 1E       		.uleb128 0x1e
 2038 0ab5 01       		.byte	0x1
 2039 0ab6 51       		.byte	0x51
 2040 0ab7 03       		.byte	0x3
 2041 0ab8 F3       		.byte	0xf3
 2042 0ab9 01       		.uleb128 0x1
ARM GAS  C:\Users\3130\AppData\Local\Temp\ccJU1WQ2.s 			page 37


 2043 0aba 51       		.byte	0x51
 2044 0abb 1E       		.uleb128 0x1e
 2045 0abc 01       		.byte	0x1
 2046 0abd 50       		.byte	0x50
 2047 0abe 05       		.byte	0x5
 2048 0abf F3       		.byte	0xf3
 2049 0ac0 01       		.uleb128 0x1
 2050 0ac1 50       		.byte	0x50
 2051 0ac2 23       		.byte	0x23
 2052 0ac3 30       		.uleb128 0x30
 2053 0ac4 00       		.byte	0
 2054 0ac5 00       		.byte	0
 2055 0ac6 1A       		.uleb128 0x1a
 2056 0ac7 5E040000 		.4byte	.LASF104
 2057 0acb 01       		.byte	0x1
 2058 0acc 59       		.byte	0x59
 2059 0acd 01       		.byte	0x1
 2060 0ace EF000000 		.4byte	0xef
 2061 0ad2 00000000 		.4byte	.LFB45
 2062 0ad6 0A000000 		.4byte	.LFE45
 2063 0ada 82020000 		.4byte	.LLST18
 2064 0ade 01       		.byte	0x1
 2065 0adf 1B0B0000 		.4byte	0xb1b
 2066 0ae3 1B       		.uleb128 0x1b
 2067 0ae4 697000   		.ascii	"ip\000"
 2068 0ae7 01       		.byte	0x1
 2069 0ae8 59       		.byte	0x59
 2070 0ae9 AE020000 		.4byte	0x2ae
 2071 0aed A2020000 		.4byte	.LLST19
 2072 0af1 1C       		.uleb128 0x1c
 2073 0af2 C7040000 		.4byte	.LASF108
 2074 0af6 01       		.byte	0x1
 2075 0af7 59       		.byte	0x59
 2076 0af8 10010000 		.4byte	0x110
 2077 0afc D0020000 		.4byte	.LLST20
 2078 0b00 1D       		.uleb128 0x1d
 2079 0b01 08000000 		.4byte	.LVL14
 2080 0b05 120F0000 		.4byte	0xf12
 2081 0b09 1E       		.uleb128 0x1e
 2082 0b0a 01       		.byte	0x1
 2083 0b0b 51       		.byte	0x51
 2084 0b0c 03       		.byte	0x3
 2085 0b0d F3       		.byte	0xf3
 2086 0b0e 01       		.uleb128 0x1
 2087 0b0f 51       		.byte	0x51
 2088 0b10 1E       		.uleb128 0x1e
 2089 0b11 01       		.byte	0x1
 2090 0b12 50       		.byte	0x50
 2091 0b13 05       		.byte	0x5
 2092 0b14 F3       		.byte	0xf3
 2093 0b15 01       		.uleb128 0x1
 2094 0b16 50       		.byte	0x50
 2095 0b17 23       		.byte	0x23
 2096 0b18 0C       		.uleb128 0xc
 2097 0b19 00       		.byte	0
 2098 0b1a 00       		.byte	0
 2099 0b1b 1F       		.uleb128 0x1f
ARM GAS  C:\Users\3130\AppData\Local\Temp\ccJU1WQ2.s 			page 38


 2100 0b1c 67657400 		.ascii	"get\000"
 2101 0b20 01       		.byte	0x1
 2102 0b21 4F       		.byte	0x4f
 2103 0b22 01       		.byte	0x1
 2104 0b23 EF000000 		.4byte	0xef
 2105 0b27 00000000 		.4byte	.LFB43
 2106 0b2b 0E000000 		.4byte	.LFE43
 2107 0b2f F1020000 		.4byte	.LLST21
 2108 0b33 01       		.byte	0x1
 2109 0b34 600B0000 		.4byte	0xb60
 2110 0b38 1B       		.uleb128 0x1b
 2111 0b39 697000   		.ascii	"ip\000"
 2112 0b3c 01       		.byte	0x1
 2113 0b3d 4F       		.byte	0x4f
 2114 0b3e AE020000 		.4byte	0x2ae
 2115 0b42 11030000 		.4byte	.LLST22
 2116 0b46 1D       		.uleb128 0x1d
 2117 0b47 0C000000 		.4byte	.LVL17
 2118 0b4b 120F0000 		.4byte	0xf12
 2119 0b4f 1E       		.uleb128 0x1e
 2120 0b50 01       		.byte	0x1
 2121 0b51 51       		.byte	0x51
 2122 0b52 02       		.byte	0x2
 2123 0b53 09       		.byte	0x9
 2124 0b54 FF       		.byte	0xff
 2125 0b55 1E       		.uleb128 0x1e
 2126 0b56 01       		.byte	0x1
 2127 0b57 50       		.byte	0x50
 2128 0b58 05       		.byte	0x5
 2129 0b59 F3       		.byte	0xf3
 2130 0b5a 01       		.uleb128 0x1
 2131 0b5b 50       		.byte	0x50
 2132 0b5c 23       		.byte	0x23
 2133 0b5d 0C       		.uleb128 0xc
 2134 0b5e 00       		.byte	0
 2135 0b5f 00       		.byte	0
 2136 0b60 1A       		.uleb128 0x1a
 2137 0b61 EA010000 		.4byte	.LASF103
 2138 0b65 01       		.byte	0x1
 2139 0b66 54       		.byte	0x54
 2140 0b67 01       		.byte	0x1
 2141 0b68 EF000000 		.4byte	0xef
 2142 0b6c 00000000 		.4byte	.LFB44
 2143 0b70 0A000000 		.4byte	.LFE44
 2144 0b74 3F030000 		.4byte	.LLST23
 2145 0b78 01       		.byte	0x1
 2146 0b79 C20B0000 		.4byte	0xbc2
 2147 0b7d 1B       		.uleb128 0x1b
 2148 0b7e 697000   		.ascii	"ip\000"
 2149 0b81 01       		.byte	0x1
 2150 0b82 54       		.byte	0x54
 2151 0b83 AE020000 		.4byte	0x2ae
 2152 0b87 5F030000 		.4byte	.LLST24
 2153 0b8b 1B       		.uleb128 0x1b
 2154 0b8c 6200     		.ascii	"b\000"
 2155 0b8e 01       		.byte	0x1
 2156 0b8f 54       		.byte	0x54
ARM GAS  C:\Users\3130\AppData\Local\Temp\ccJU1WQ2.s 			page 39


 2157 0b90 49000000 		.4byte	0x49
 2158 0b94 8D030000 		.4byte	.LLST25
 2159 0b98 1C       		.uleb128 0x1c
 2160 0b99 C7040000 		.4byte	.LASF108
 2161 0b9d 01       		.byte	0x1
 2162 0b9e 54       		.byte	0x54
 2163 0b9f 10010000 		.4byte	0x110
 2164 0ba3 AE030000 		.4byte	.LLST26
 2165 0ba7 1D       		.uleb128 0x1d
 2166 0ba8 08000000 		.4byte	.LVL20
 2167 0bac 300F0000 		.4byte	0xf30
 2168 0bb0 1E       		.uleb128 0x1e
 2169 0bb1 01       		.byte	0x1
 2170 0bb2 52       		.byte	0x52
 2171 0bb3 03       		.byte	0x3
 2172 0bb4 F3       		.byte	0xf3
 2173 0bb5 01       		.uleb128 0x1
 2174 0bb6 52       		.byte	0x52
 2175 0bb7 1E       		.uleb128 0x1e
 2176 0bb8 01       		.byte	0x1
 2177 0bb9 50       		.byte	0x50
 2178 0bba 05       		.byte	0x5
 2179 0bbb F3       		.byte	0xf3
 2180 0bbc 01       		.uleb128 0x1
 2181 0bbd 50       		.byte	0x50
 2182 0bbe 23       		.byte	0x23
 2183 0bbf 30       		.uleb128 0x30
 2184 0bc0 00       		.byte	0
 2185 0bc1 00       		.byte	0
 2186 0bc2 1F       		.uleb128 0x1f
 2187 0bc3 70757400 		.ascii	"put\000"
 2188 0bc7 01       		.byte	0x1
 2189 0bc8 4A       		.byte	0x4a
 2190 0bc9 01       		.byte	0x1
 2191 0bca EF000000 		.4byte	0xef
 2192 0bce 00000000 		.4byte	.LFB42
 2193 0bd2 0E000000 		.4byte	.LFE42
 2194 0bd6 CF030000 		.4byte	.LLST27
 2195 0bda 01       		.byte	0x1
 2196 0bdb 140C0000 		.4byte	0xc14
 2197 0bdf 1B       		.uleb128 0x1b
 2198 0be0 697000   		.ascii	"ip\000"
 2199 0be3 01       		.byte	0x1
 2200 0be4 4A       		.byte	0x4a
 2201 0be5 AE020000 		.4byte	0x2ae
 2202 0be9 EF030000 		.4byte	.LLST28
 2203 0bed 1B       		.uleb128 0x1b
 2204 0bee 6200     		.ascii	"b\000"
 2205 0bf0 01       		.byte	0x1
 2206 0bf1 4A       		.byte	0x4a
 2207 0bf2 49000000 		.4byte	0x49
 2208 0bf6 1D040000 		.4byte	.LLST29
 2209 0bfa 1D       		.uleb128 0x1d
 2210 0bfb 0C000000 		.4byte	.LVL23
 2211 0bff 300F0000 		.4byte	0xf30
 2212 0c03 1E       		.uleb128 0x1e
 2213 0c04 01       		.byte	0x1
ARM GAS  C:\Users\3130\AppData\Local\Temp\ccJU1WQ2.s 			page 40


 2214 0c05 52       		.byte	0x52
 2215 0c06 02       		.byte	0x2
 2216 0c07 09       		.byte	0x9
 2217 0c08 FF       		.byte	0xff
 2218 0c09 1E       		.uleb128 0x1e
 2219 0c0a 01       		.byte	0x1
 2220 0c0b 50       		.byte	0x50
 2221 0c0c 05       		.byte	0x5
 2222 0c0d F3       		.byte	0xf3
 2223 0c0e 01       		.uleb128 0x1
 2224 0c0f 50       		.byte	0x50
 2225 0c10 23       		.byte	0x23
 2226 0c11 30       		.uleb128 0x30
 2227 0c12 00       		.byte	0
 2228 0c13 00       		.byte	0
 2229 0c14 20       		.uleb128 0x20
 2230 0c15 01       		.byte	0x1
 2231 0c16 45000000 		.4byte	.LASF109
 2232 0c1a 01       		.byte	0x1
 2233 0c1b 78       		.byte	0x78
 2234 0c1c 01       		.byte	0x1
 2235 0c1d 00000000 		.4byte	.LFB48
 2236 0c21 08000000 		.4byte	.LFE48
 2237 0c25 3E040000 		.4byte	.LLST30
 2238 0c29 01       		.byte	0x1
 2239 0c2a 380C0000 		.4byte	0xc38
 2240 0c2e 21       		.uleb128 0x21
 2241 0c2f 06000000 		.4byte	.LVL24
 2242 0c33 530F0000 		.4byte	0xf53
 2243 0c37 00       		.byte	0
 2244 0c38 20       		.uleb128 0x20
 2245 0c39 01       		.byte	0x1
 2246 0c3a 12010000 		.4byte	.LASF110
 2247 0c3e 01       		.byte	0x1
 2248 0c3f 8C       		.byte	0x8c
 2249 0c40 01       		.byte	0x1
 2250 0c41 00000000 		.4byte	.LFB49
 2251 0c45 40000000 		.4byte	.LFE49
 2252 0c49 5E040000 		.4byte	.LLST31
 2253 0c4d 01       		.byte	0x1
 2254 0c4e D70C0000 		.4byte	0xcd7
 2255 0c52 1B       		.uleb128 0x1b
 2256 0c53 73647000 		.ascii	"sdp\000"
 2257 0c57 01       		.byte	0x1
 2258 0c58 8C       		.byte	0x8c
 2259 0c59 D70C0000 		.4byte	0xcd7
 2260 0c5d 8A040000 		.4byte	.LLST32
 2261 0c61 1C       		.uleb128 0x1c
 2262 0c62 09020000 		.4byte	.LASF111
 2263 0c66 01       		.byte	0x1
 2264 0c67 8C       		.byte	0x8c
 2265 0c68 15050000 		.4byte	0x515
 2266 0c6c B6040000 		.4byte	.LLST33
 2267 0c70 1C       		.uleb128 0x1c
 2268 0c71 1B040000 		.4byte	.LASF112
 2269 0c75 01       		.byte	0x1
 2270 0c76 8C       		.byte	0x8c
ARM GAS  C:\Users\3130\AppData\Local\Temp\ccJU1WQ2.s 			page 41


 2271 0c77 15050000 		.4byte	0x515
 2272 0c7b E2040000 		.4byte	.LLST34
 2273 0c7f 22       		.uleb128 0x22
 2274 0c80 24000000 		.4byte	.LVL29
 2275 0c84 5E0F0000 		.4byte	0xf5e
 2276 0c88 AD0C0000 		.4byte	0xcad
 2277 0c8c 1E       		.uleb128 0x1e
 2278 0c8d 01       		.byte	0x1
 2279 0c8e 53       		.byte	0x53
 2280 0c8f 03       		.byte	0x3
 2281 0c90 F3       		.byte	0xf3
 2282 0c91 01       		.uleb128 0x1
 2283 0c92 51       		.byte	0x51
 2284 0c93 1E       		.uleb128 0x1e
 2285 0c94 01       		.byte	0x1
 2286 0c95 52       		.byte	0x52
 2287 0c96 01       		.byte	0x1
 2288 0c97 40       		.byte	0x40
 2289 0c98 1E       		.uleb128 0x1e
 2290 0c99 01       		.byte	0x1
 2291 0c9a 51       		.byte	0x51
 2292 0c9b 03       		.byte	0x3
 2293 0c9c 74       		.byte	0x74
 2294 0c9d D400     		.sleb128 84
 2295 0c9f 1E       		.uleb128 0x1e
 2296 0ca0 01       		.byte	0x1
 2297 0ca1 50       		.byte	0x50
 2298 0ca2 02       		.byte	0x2
 2299 0ca3 74       		.byte	0x74
 2300 0ca4 0C       		.sleb128 12
 2301 0ca5 1E       		.uleb128 0x1e
 2302 0ca6 02       		.byte	0x2
 2303 0ca7 7D       		.byte	0x7d
 2304 0ca8 00       		.sleb128 0
 2305 0ca9 02       		.byte	0x2
 2306 0caa 74       		.byte	0x74
 2307 0cab 00       		.sleb128 0
 2308 0cac 00       		.byte	0
 2309 0cad 1D       		.uleb128 0x1d
 2310 0cae 36000000 		.4byte	.LVL30
 2311 0cb2 870F0000 		.4byte	0xf87
 2312 0cb6 1E       		.uleb128 0x1e
 2313 0cb7 01       		.byte	0x1
 2314 0cb8 53       		.byte	0x53
 2315 0cb9 02       		.byte	0x2
 2316 0cba 75       		.byte	0x75
 2317 0cbb 00       		.sleb128 0
 2318 0cbc 1E       		.uleb128 0x1e
 2319 0cbd 01       		.byte	0x1
 2320 0cbe 52       		.byte	0x52
 2321 0cbf 01       		.byte	0x1
 2322 0cc0 40       		.byte	0x40
 2323 0cc1 1E       		.uleb128 0x1e
 2324 0cc2 01       		.byte	0x1
 2325 0cc3 51       		.byte	0x51
 2326 0cc4 03       		.byte	0x3
 2327 0cc5 74       		.byte	0x74
ARM GAS  C:\Users\3130\AppData\Local\Temp\ccJU1WQ2.s 			page 42


 2328 0cc6 E400     		.sleb128 100
 2329 0cc8 1E       		.uleb128 0x1e
 2330 0cc9 01       		.byte	0x1
 2331 0cca 50       		.byte	0x50
 2332 0ccb 02       		.byte	0x2
 2333 0ccc 74       		.byte	0x74
 2334 0ccd 30       		.sleb128 48
 2335 0cce 1E       		.uleb128 0x1e
 2336 0ccf 02       		.byte	0x2
 2337 0cd0 7D       		.byte	0x7d
 2338 0cd1 00       		.sleb128 0
 2339 0cd2 02       		.byte	0x2
 2340 0cd3 74       		.byte	0x74
 2341 0cd4 00       		.sleb128 0
 2342 0cd5 00       		.byte	0
 2343 0cd6 00       		.byte	0
 2344 0cd7 09       		.uleb128 0x9
 2345 0cd8 04       		.byte	0x4
 2346 0cd9 70070000 		.4byte	0x770
 2347 0cdd 20       		.uleb128 0x20
 2348 0cde 01       		.byte	0x1
 2349 0cdf CB010000 		.4byte	.LASF113
 2350 0ce3 01       		.byte	0x1
 2351 0ce4 9F       		.byte	0x9f
 2352 0ce5 01       		.byte	0x1
 2353 0ce6 00000000 		.4byte	.LFB50
 2354 0cea 12000000 		.4byte	.LFE50
 2355 0cee 0E050000 		.4byte	.LLST35
 2356 0cf2 01       		.byte	0x1
 2357 0cf3 2D0D0000 		.4byte	0xd2d
 2358 0cf7 1B       		.uleb128 0x1b
 2359 0cf8 73647000 		.ascii	"sdp\000"
 2360 0cfc 01       		.byte	0x1
 2361 0cfd 9F       		.byte	0x9f
 2362 0cfe D70C0000 		.4byte	0xcd7
 2363 0d02 2E050000 		.4byte	.LLST36
 2364 0d06 1C       		.uleb128 0x1c
 2365 0d07 B1030000 		.4byte	.LASF114
 2366 0d0b 01       		.byte	0x1
 2367 0d0c 9F       		.byte	0x9f
 2368 0d0d 2D0D0000 		.4byte	0xd2d
 2369 0d11 5A050000 		.4byte	.LLST37
 2370 0d15 1D       		.uleb128 0x1d
 2371 0d16 0A000000 		.4byte	.LVL34
 2372 0d1a B00F0000 		.4byte	0xfb0
 2373 0d1e 1E       		.uleb128 0x1e
 2374 0d1f 01       		.byte	0x1
 2375 0d20 51       		.byte	0x51
 2376 0d21 03       		.byte	0x3
 2377 0d22 F3       		.byte	0xf3
 2378 0d23 01       		.uleb128 0x1
 2379 0d24 51       		.byte	0x51
 2380 0d25 1E       		.uleb128 0x1e
 2381 0d26 01       		.byte	0x1
 2382 0d27 50       		.byte	0x50
 2383 0d28 02       		.byte	0x2
 2384 0d29 74       		.byte	0x74
ARM GAS  C:\Users\3130\AppData\Local\Temp\ccJU1WQ2.s 			page 43


 2385 0d2a 00       		.sleb128 0
 2386 0d2b 00       		.byte	0
 2387 0d2c 00       		.byte	0
 2388 0d2d 09       		.uleb128 0x9
 2389 0d2e 04       		.byte	0x4
 2390 0d2f 330D0000 		.4byte	0xd33
 2391 0d33 0E       		.uleb128 0xe
 2392 0d34 45080000 		.4byte	0x845
 2393 0d38 20       		.uleb128 0x20
 2394 0d39 01       		.byte	0x1
 2395 0d3a 37030000 		.4byte	.LASF115
 2396 0d3e 01       		.byte	0x1
 2397 0d3f B5       		.byte	0xb5
 2398 0d40 01       		.byte	0x1
 2399 0d41 00000000 		.4byte	.LFB51
 2400 0d45 26000000 		.4byte	.LFE51
 2401 0d49 7B050000 		.4byte	.LLST38
 2402 0d4d 01       		.byte	0x1
 2403 0d4e A70D0000 		.4byte	0xda7
 2404 0d52 1B       		.uleb128 0x1b
 2405 0d53 73647000 		.ascii	"sdp\000"
 2406 0d57 01       		.byte	0x1
 2407 0d58 B5       		.byte	0xb5
 2408 0d59 D70C0000 		.4byte	0xcd7
 2409 0d5d 9B050000 		.4byte	.LLST39
 2410 0d61 22       		.uleb128 0x22
 2411 0d62 0A000000 		.4byte	.LVL37
 2412 0d66 CA0F0000 		.4byte	0xfca
 2413 0d6a 750D0000 		.4byte	0xd75
 2414 0d6e 1E       		.uleb128 0x1e
 2415 0d6f 01       		.byte	0x1
 2416 0d70 50       		.byte	0x50
 2417 0d71 02       		.byte	0x2
 2418 0d72 74       		.byte	0x74
 2419 0d73 00       		.sleb128 0
 2420 0d74 00       		.byte	0
 2421 0d75 22       		.uleb128 0x22
 2422 0d76 16000000 		.4byte	.LVL38
 2423 0d7a DF0F0000 		.4byte	0xfdf
 2424 0d7e 890D0000 		.4byte	0xd89
 2425 0d82 1E       		.uleb128 0x1e
 2426 0d83 01       		.byte	0x1
 2427 0d84 50       		.byte	0x50
 2428 0d85 02       		.byte	0x2
 2429 0d86 74       		.byte	0x74
 2430 0d87 30       		.sleb128 48
 2431 0d88 00       		.byte	0
 2432 0d89 22       		.uleb128 0x22
 2433 0d8a 1E000000 		.4byte	.LVL39
 2434 0d8e F40F0000 		.4byte	0xff4
 2435 0d92 9D0D0000 		.4byte	0xd9d
 2436 0d96 1E       		.uleb128 0x1e
 2437 0d97 01       		.byte	0x1
 2438 0d98 50       		.byte	0x50
 2439 0d99 02       		.byte	0x2
 2440 0d9a 74       		.byte	0x74
 2441 0d9b 0C       		.sleb128 12
ARM GAS  C:\Users\3130\AppData\Local\Temp\ccJU1WQ2.s 			page 44


 2442 0d9c 00       		.byte	0
 2443 0d9d 21       		.uleb128 0x21
 2444 0d9e 22000000 		.4byte	.LVL40
 2445 0da2 09100000 		.4byte	0x1009
 2446 0da6 00       		.byte	0
 2447 0da7 20       		.uleb128 0x20
 2448 0da8 01       		.byte	0x1
 2449 0da9 26010000 		.4byte	.LASF116
 2450 0dad 01       		.byte	0x1
 2451 0dae D5       		.byte	0xd5
 2452 0daf 01       		.byte	0x1
 2453 0db0 00000000 		.4byte	.LFB52
 2454 0db4 3C000000 		.4byte	.LFE52
 2455 0db8 C7050000 		.4byte	.LLST40
 2456 0dbc 01       		.byte	0x1
 2457 0dbd 410E0000 		.4byte	0xe41
 2458 0dc1 1B       		.uleb128 0x1b
 2459 0dc2 73647000 		.ascii	"sdp\000"
 2460 0dc6 01       		.byte	0x1
 2461 0dc7 D5       		.byte	0xd5
 2462 0dc8 D70C0000 		.4byte	0xcd7
 2463 0dcc E7050000 		.4byte	.LLST41
 2464 0dd0 1B       		.uleb128 0x1b
 2465 0dd1 6200     		.ascii	"b\000"
 2466 0dd3 01       		.byte	0x1
 2467 0dd4 D5       		.byte	0xd5
 2468 0dd5 49000000 		.4byte	0x49
 2469 0dd9 29060000 		.4byte	.LLST42
 2470 0ddd 22       		.uleb128 0x22
 2471 0dde 16000000 		.4byte	.LVL45
 2472 0de2 13100000 		.4byte	0x1013
 2473 0de6 F70D0000 		.4byte	0xdf7
 2474 0dea 1E       		.uleb128 0x1e
 2475 0deb 01       		.byte	0x1
 2476 0dec 51       		.byte	0x51
 2477 0ded 02       		.byte	0x2
 2478 0dee 75       		.byte	0x75
 2479 0def 00       		.sleb128 0
 2480 0df0 1E       		.uleb128 0x1e
 2481 0df1 01       		.byte	0x1
 2482 0df2 50       		.byte	0x50
 2483 0df3 02       		.byte	0x2
 2484 0df4 74       		.byte	0x74
 2485 0df5 0C       		.sleb128 12
 2486 0df6 00       		.byte	0
 2487 0df7 22       		.uleb128 0x22
 2488 0df8 24000000 		.4byte	.LVL50
 2489 0dfc 31100000 		.4byte	0x1031
 2490 0e00 100E0000 		.4byte	0xe10
 2491 0e04 1E       		.uleb128 0x1e
 2492 0e05 01       		.byte	0x1
 2493 0e06 51       		.byte	0x51
 2494 0e07 01       		.byte	0x1
 2495 0e08 34       		.byte	0x34
 2496 0e09 1E       		.uleb128 0x1e
 2497 0e0a 01       		.byte	0x1
 2498 0e0b 50       		.byte	0x50
ARM GAS  C:\Users\3130\AppData\Local\Temp\ccJU1WQ2.s 			page 45


 2499 0e0c 02       		.byte	0x2
 2500 0e0d 74       		.byte	0x74
 2501 0e0e 04       		.sleb128 4
 2502 0e0f 00       		.byte	0
 2503 0e10 22       		.uleb128 0x22
 2504 0e11 2E000000 		.4byte	.LVL51
 2505 0e15 13100000 		.4byte	0x1013
 2506 0e19 2A0E0000 		.4byte	0xe2a
 2507 0e1d 1E       		.uleb128 0x1e
 2508 0e1e 01       		.byte	0x1
 2509 0e1f 51       		.byte	0x51
 2510 0e20 02       		.byte	0x2
 2511 0e21 75       		.byte	0x75
 2512 0e22 00       		.sleb128 0
 2513 0e23 1E       		.uleb128 0x1e
 2514 0e24 01       		.byte	0x1
 2515 0e25 50       		.byte	0x50
 2516 0e26 02       		.byte	0x2
 2517 0e27 74       		.byte	0x74
 2518 0e28 0C       		.sleb128 12
 2519 0e29 00       		.byte	0
 2520 0e2a 1D       		.uleb128 0x1d
 2521 0e2b 3A000000 		.4byte	.LVL52
 2522 0e2f 31100000 		.4byte	0x1031
 2523 0e33 1E       		.uleb128 0x1e
 2524 0e34 01       		.byte	0x1
 2525 0e35 51       		.byte	0x51
 2526 0e36 02       		.byte	0x2
 2527 0e37 08       		.byte	0x8
 2528 0e38 80       		.byte	0x80
 2529 0e39 1E       		.uleb128 0x1e
 2530 0e3a 01       		.byte	0x1
 2531 0e3b 50       		.byte	0x50
 2532 0e3c 02       		.byte	0x2
 2533 0e3d 74       		.byte	0x74
 2534 0e3e 04       		.sleb128 4
 2535 0e3f 00       		.byte	0
 2536 0e40 00       		.byte	0
 2537 0e41 23       		.uleb128 0x23
 2538 0e42 01       		.byte	0x1
 2539 0e43 63010000 		.4byte	.LASF135
 2540 0e47 01       		.byte	0x1
 2541 0e48 EF       		.byte	0xef
 2542 0e49 01       		.byte	0x1
 2543 0e4a EF000000 		.4byte	0xef
 2544 0e4e 00000000 		.4byte	.LFB53
 2545 0e52 1C000000 		.4byte	.LFE53
 2546 0e56 63060000 		.4byte	.LLST43
 2547 0e5a 01       		.byte	0x1
 2548 0e5b A50E0000 		.4byte	0xea5
 2549 0e5f 1B       		.uleb128 0x1b
 2550 0e60 73647000 		.ascii	"sdp\000"
 2551 0e64 01       		.byte	0x1
 2552 0e65 EF       		.byte	0xef
 2553 0e66 D70C0000 		.4byte	0xcd7
 2554 0e6a 83060000 		.4byte	.LLST44
 2555 0e6e 24       		.uleb128 0x24
ARM GAS  C:\Users\3130\AppData\Local\Temp\ccJU1WQ2.s 			page 46


 2556 0e6f 6200     		.ascii	"b\000"
 2557 0e71 01       		.byte	0x1
 2558 0e72 F0       		.byte	0xf0
 2559 0e73 EF000000 		.4byte	0xef
 2560 0e77 BA060000 		.4byte	.LLST45
 2561 0e7b 22       		.uleb128 0x22
 2562 0e7c 0A000000 		.4byte	.LVL55
 2563 0e80 50100000 		.4byte	0x1050
 2564 0e84 8F0E0000 		.4byte	0xe8f
 2565 0e88 1E       		.uleb128 0x1e
 2566 0e89 01       		.byte	0x1
 2567 0e8a 50       		.byte	0x50
 2568 0e8b 02       		.byte	0x2
 2569 0e8c 75       		.byte	0x75
 2570 0e8d 30       		.sleb128 48
 2571 0e8e 00       		.byte	0
 2572 0e8f 1D       		.uleb128 0x1d
 2573 0e90 1A000000 		.4byte	.LVL62
 2574 0e94 31100000 		.4byte	0x1031
 2575 0e98 1E       		.uleb128 0x1e
 2576 0e99 01       		.byte	0x1
 2577 0e9a 51       		.byte	0x51
 2578 0e9b 01       		.byte	0x1
 2579 0e9c 38       		.byte	0x38
 2580 0e9d 1E       		.uleb128 0x1e
 2581 0e9e 01       		.byte	0x1
 2582 0e9f 50       		.byte	0x50
 2583 0ea0 02       		.byte	0x2
 2584 0ea1 75       		.byte	0x75
 2585 0ea2 04       		.sleb128 4
 2586 0ea3 00       		.byte	0
 2587 0ea4 00       		.byte	0
 2588 0ea5 25       		.uleb128 0x25
 2589 0ea6 766D7400 		.ascii	"vmt\000"
 2590 0eaa 01       		.byte	0x1
 2591 0eab 68       		.byte	0x68
 2592 0eac D3080000 		.4byte	0x8d3
 2593 0eb0 05       		.byte	0x5
 2594 0eb1 03       		.byte	0x3
 2595 0eb2 00000000 		.4byte	vmt
 2596 0eb6 26       		.uleb128 0x26
 2597 0eb7 01       		.byte	0x1
 2598 0eb8 D1000000 		.4byte	.LASF117
 2599 0ebc 0A       		.byte	0xa
 2600 0ebd 6701     		.2byte	0x167
 2601 0ebf 01       		.byte	0x1
 2602 0ec0 30000000 		.4byte	0x30
 2603 0ec4 01       		.byte	0x1
 2604 0ec5 DE0E0000 		.4byte	0xede
 2605 0ec9 10       		.uleb128 0x10
 2606 0eca DE0E0000 		.4byte	0xede
 2607 0ece 10       		.uleb128 0x10
 2608 0ecf 38050000 		.4byte	0x538
 2609 0ed3 10       		.uleb128 0x10
 2610 0ed4 30000000 		.4byte	0x30
 2611 0ed8 10       		.uleb128 0x10
 2612 0ed9 10010000 		.4byte	0x110
ARM GAS  C:\Users\3130\AppData\Local\Temp\ccJU1WQ2.s 			page 47


 2613 0edd 00       		.byte	0
 2614 0ede 09       		.uleb128 0x9
 2615 0edf 04       		.byte	0x4
 2616 0ee0 3E050000 		.4byte	0x53e
 2617 0ee4 26       		.uleb128 0x26
 2618 0ee5 01       		.byte	0x1
 2619 0ee6 BA010000 		.4byte	.LASF118
 2620 0eea 0A       		.byte	0xa
 2621 0eeb 6F01     		.2byte	0x16f
 2622 0eed 01       		.byte	0x1
 2623 0eee 30000000 		.4byte	0x30
 2624 0ef2 01       		.byte	0x1
 2625 0ef3 0C0F0000 		.4byte	0xf0c
 2626 0ef7 10       		.uleb128 0x10
 2627 0ef8 0C0F0000 		.4byte	0xf0c
 2628 0efc 10       		.uleb128 0x10
 2629 0efd 6E050000 		.4byte	0x56e
 2630 0f01 10       		.uleb128 0x10
 2631 0f02 30000000 		.4byte	0x30
 2632 0f06 10       		.uleb128 0x10
 2633 0f07 10010000 		.4byte	0x110
 2634 0f0b 00       		.byte	0
 2635 0f0c 09       		.uleb128 0x9
 2636 0f0d 04       		.byte	0x4
 2637 0f0e 49050000 		.4byte	0x549
 2638 0f12 26       		.uleb128 0x26
 2639 0f13 01       		.byte	0x1
 2640 0f14 53000000 		.4byte	.LASF119
 2641 0f18 0A       		.byte	0xa
 2642 0f19 6601     		.2byte	0x166
 2643 0f1b 01       		.byte	0x1
 2644 0f1c EF000000 		.4byte	0xef
 2645 0f20 01       		.byte	0x1
 2646 0f21 300F0000 		.4byte	0xf30
 2647 0f25 10       		.uleb128 0x10
 2648 0f26 DE0E0000 		.4byte	0xede
 2649 0f2a 10       		.uleb128 0x10
 2650 0f2b 10010000 		.4byte	0x110
 2651 0f2f 00       		.byte	0
 2652 0f30 26       		.uleb128 0x26
 2653 0f31 01       		.byte	0x1
 2654 0f32 CF040000 		.4byte	.LASF120
 2655 0f36 0A       		.byte	0xa
 2656 0f37 6D01     		.2byte	0x16d
 2657 0f39 01       		.byte	0x1
 2658 0f3a EF000000 		.4byte	0xef
 2659 0f3e 01       		.byte	0x1
 2660 0f3f 530F0000 		.4byte	0xf53
 2661 0f43 10       		.uleb128 0x10
 2662 0f44 0C0F0000 		.4byte	0xf0c
 2663 0f48 10       		.uleb128 0x10
 2664 0f49 49000000 		.4byte	0x49
 2665 0f4d 10       		.uleb128 0x10
 2666 0f4e 10010000 		.4byte	0x110
 2667 0f52 00       		.byte	0
 2668 0f53 27       		.uleb128 0x27
 2669 0f54 01       		.byte	0x1
ARM GAS  C:\Users\3130\AppData\Local\Temp\ccJU1WQ2.s 			page 48


 2670 0f55 55050000 		.4byte	.LASF127
 2671 0f59 0D       		.byte	0xd
 2672 0f5a 2601     		.2byte	0x126
 2673 0f5c 01       		.byte	0x1
 2674 0f5d 01       		.byte	0x1
 2675 0f5e 28       		.uleb128 0x28
 2676 0f5f 01       		.byte	0x1
 2677 0f60 E1000000 		.4byte	.LASF121
 2678 0f64 0A       		.byte	0xa
 2679 0f65 6201     		.2byte	0x162
 2680 0f67 01       		.byte	0x1
 2681 0f68 01       		.byte	0x1
 2682 0f69 870F0000 		.4byte	0xf87
 2683 0f6d 10       		.uleb128 0x10
 2684 0f6e DE0E0000 		.4byte	0xede
 2685 0f72 10       		.uleb128 0x10
 2686 0f73 38050000 		.4byte	0x538
 2687 0f77 10       		.uleb128 0x10
 2688 0f78 30000000 		.4byte	0x30
 2689 0f7c 10       		.uleb128 0x10
 2690 0f7d 15050000 		.4byte	0x515
 2691 0f81 10       		.uleb128 0x10
 2692 0f82 AE020000 		.4byte	0x2ae
 2693 0f86 00       		.byte	0
 2694 0f87 28       		.uleb128 0x28
 2695 0f88 01       		.byte	0x1
 2696 0f89 A9040000 		.4byte	.LASF122
 2697 0f8d 0A       		.byte	0xa
 2698 0f8e 6A01     		.2byte	0x16a
 2699 0f90 01       		.byte	0x1
 2700 0f91 01       		.byte	0x1
 2701 0f92 B00F0000 		.4byte	0xfb0
 2702 0f96 10       		.uleb128 0x10
 2703 0f97 0C0F0000 		.4byte	0xf0c
 2704 0f9b 10       		.uleb128 0x10
 2705 0f9c 38050000 		.4byte	0x538
 2706 0fa0 10       		.uleb128 0x10
 2707 0fa1 30000000 		.4byte	0x30
 2708 0fa5 10       		.uleb128 0x10
 2709 0fa6 15050000 		.4byte	0x515
 2710 0faa 10       		.uleb128 0x10
 2711 0fab AE020000 		.4byte	0x2ae
 2712 0faf 00       		.byte	0
 2713 0fb0 28       		.uleb128 0x28
 2714 0fb1 01       		.byte	0x1
 2715 0fb2 51030000 		.4byte	.LASF123
 2716 0fb6 0D       		.byte	0xd
 2717 0fb7 2701     		.2byte	0x127
 2718 0fb9 01       		.byte	0x1
 2719 0fba 01       		.byte	0x1
 2720 0fbb CA0F0000 		.4byte	0xfca
 2721 0fbf 10       		.uleb128 0x10
 2722 0fc0 D70C0000 		.4byte	0xcd7
 2723 0fc4 10       		.uleb128 0x10
 2724 0fc5 2D0D0000 		.4byte	0xd2d
 2725 0fc9 00       		.byte	0
 2726 0fca 28       		.uleb128 0x28
ARM GAS  C:\Users\3130\AppData\Local\Temp\ccJU1WQ2.s 			page 49


 2727 0fcb 01       		.byte	0x1
 2728 0fcc 1B030000 		.4byte	.LASF124
 2729 0fd0 0D       		.byte	0xd
 2730 0fd1 2801     		.2byte	0x128
 2731 0fd3 01       		.byte	0x1
 2732 0fd4 01       		.byte	0x1
 2733 0fd5 DF0F0000 		.4byte	0xfdf
 2734 0fd9 10       		.uleb128 0x10
 2735 0fda D70C0000 		.4byte	0xcd7
 2736 0fde 00       		.byte	0
 2737 0fdf 28       		.uleb128 0x28
 2738 0fe0 01       		.byte	0x1
 2739 0fe1 4A050000 		.4byte	.LASF125
 2740 0fe5 0A       		.byte	0xa
 2741 0fe6 6C01     		.2byte	0x16c
 2742 0fe8 01       		.byte	0x1
 2743 0fe9 01       		.byte	0x1
 2744 0fea F40F0000 		.4byte	0xff4
 2745 0fee 10       		.uleb128 0x10
 2746 0fef 0C0F0000 		.4byte	0xf0c
 2747 0ff3 00       		.byte	0
 2748 0ff4 28       		.uleb128 0x28
 2749 0ff5 01       		.byte	0x1
 2750 0ff6 58010000 		.4byte	.LASF126
 2751 0ffa 0A       		.byte	0xa
 2752 0ffb 6401     		.2byte	0x164
 2753 0ffd 01       		.byte	0x1
 2754 0ffe 01       		.byte	0x1
 2755 0fff 09100000 		.4byte	0x1009
 2756 1003 10       		.uleb128 0x10
 2757 1004 DE0E0000 		.4byte	0xede
 2758 1008 00       		.byte	0
 2759 1009 29       		.uleb128 0x29
 2760 100a 01       		.byte	0x1
 2761 100b 34020000 		.4byte	.LASF128
 2762 100f 0E       		.byte	0xe
 2763 1010 9C       		.byte	0x9c
 2764 1011 01       		.byte	0x1
 2765 1012 01       		.byte	0x1
 2766 1013 26       		.uleb128 0x26
 2767 1014 01       		.byte	0x1
 2768 1015 48030000 		.4byte	.LASF129
 2769 1019 0A       		.byte	0xa
 2770 101a 6501     		.2byte	0x165
 2771 101c 01       		.byte	0x1
 2772 101d EF000000 		.4byte	0xef
 2773 1021 01       		.byte	0x1
 2774 1022 31100000 		.4byte	0x1031
 2775 1026 10       		.uleb128 0x10
 2776 1027 DE0E0000 		.4byte	0xede
 2777 102b 10       		.uleb128 0x10
 2778 102c 49000000 		.4byte	0x49
 2779 1030 00       		.byte	0
 2780 1031 2A       		.uleb128 0x2a
 2781 1032 01       		.byte	0x1
 2782 1033 A2020000 		.4byte	.LASF130
 2783 1037 09       		.byte	0x9
ARM GAS  C:\Users\3130\AppData\Local\Temp\ccJU1WQ2.s 			page 50


 2784 1038 BA       		.byte	0xba
 2785 1039 01       		.byte	0x1
 2786 103a 01       		.byte	0x1
 2787 103b 4A100000 		.4byte	0x104a
 2788 103f 10       		.uleb128 0x10
 2789 1040 4A100000 		.4byte	0x104a
 2790 1044 10       		.uleb128 0x10
 2791 1045 05010000 		.4byte	0x105
 2792 1049 00       		.byte	0
 2793 104a 09       		.uleb128 0x9
 2794 104b 04       		.byte	0x4
 2795 104c 1F040000 		.4byte	0x41f
 2796 1050 2B       		.uleb128 0x2b
 2797 1051 01       		.byte	0x1
 2798 1052 4B040000 		.4byte	.LASF131
 2799 1056 0A       		.byte	0xa
 2800 1057 6E01     		.2byte	0x16e
 2801 1059 01       		.byte	0x1
 2802 105a EF000000 		.4byte	0xef
 2803 105e 01       		.byte	0x1
 2804 105f 10       		.uleb128 0x10
 2805 1060 0C0F0000 		.4byte	0xf0c
 2806 1064 00       		.byte	0
 2807 1065 00       		.byte	0
 2808              		.section	.debug_abbrev,"",%progbits
 2809              	.Ldebug_abbrev0:
 2810 0000 01       		.uleb128 0x1
 2811 0001 11       		.uleb128 0x11
 2812 0002 01       		.byte	0x1
 2813 0003 25       		.uleb128 0x25
 2814 0004 0E       		.uleb128 0xe
 2815 0005 13       		.uleb128 0x13
 2816 0006 0B       		.uleb128 0xb
 2817 0007 03       		.uleb128 0x3
 2818 0008 0E       		.uleb128 0xe
 2819 0009 1B       		.uleb128 0x1b
 2820 000a 0E       		.uleb128 0xe
 2821 000b 55       		.uleb128 0x55
 2822 000c 06       		.uleb128 0x6
 2823 000d 11       		.uleb128 0x11
 2824 000e 01       		.uleb128 0x1
 2825 000f 52       		.uleb128 0x52
 2826 0010 01       		.uleb128 0x1
 2827 0011 10       		.uleb128 0x10
 2828 0012 06       		.uleb128 0x6
 2829 0013 00       		.byte	0
 2830 0014 00       		.byte	0
 2831 0015 02       		.uleb128 0x2
 2832 0016 24       		.uleb128 0x24
 2833 0017 00       		.byte	0
 2834 0018 0B       		.uleb128 0xb
 2835 0019 0B       		.uleb128 0xb
 2836 001a 3E       		.uleb128 0x3e
 2837 001b 0B       		.uleb128 0xb
 2838 001c 03       		.uleb128 0x3
 2839 001d 08       		.uleb128 0x8
 2840 001e 00       		.byte	0
ARM GAS  C:\Users\3130\AppData\Local\Temp\ccJU1WQ2.s 			page 51


 2841 001f 00       		.byte	0
 2842 0020 03       		.uleb128 0x3
 2843 0021 16       		.uleb128 0x16
 2844 0022 00       		.byte	0
 2845 0023 03       		.uleb128 0x3
 2846 0024 0E       		.uleb128 0xe
 2847 0025 3A       		.uleb128 0x3a
 2848 0026 0B       		.uleb128 0xb
 2849 0027 3B       		.uleb128 0x3b
 2850 0028 0B       		.uleb128 0xb
 2851 0029 49       		.uleb128 0x49
 2852 002a 13       		.uleb128 0x13
 2853 002b 00       		.byte	0
 2854 002c 00       		.byte	0
 2855 002d 04       		.uleb128 0x4
 2856 002e 24       		.uleb128 0x24
 2857 002f 00       		.byte	0
 2858 0030 0B       		.uleb128 0xb
 2859 0031 0B       		.uleb128 0xb
 2860 0032 3E       		.uleb128 0x3e
 2861 0033 0B       		.uleb128 0xb
 2862 0034 03       		.uleb128 0x3
 2863 0035 0E       		.uleb128 0xe
 2864 0036 00       		.byte	0
 2865 0037 00       		.byte	0
 2866 0038 05       		.uleb128 0x5
 2867 0039 13       		.uleb128 0x13
 2868 003a 01       		.byte	0x1
 2869 003b 03       		.uleb128 0x3
 2870 003c 0E       		.uleb128 0xe
 2871 003d 0B       		.uleb128 0xb
 2872 003e 0B       		.uleb128 0xb
 2873 003f 3A       		.uleb128 0x3a
 2874 0040 0B       		.uleb128 0xb
 2875 0041 3B       		.uleb128 0x3b
 2876 0042 0B       		.uleb128 0xb
 2877 0043 01       		.uleb128 0x1
 2878 0044 13       		.uleb128 0x13
 2879 0045 00       		.byte	0
 2880 0046 00       		.byte	0
 2881 0047 06       		.uleb128 0x6
 2882 0048 0D       		.uleb128 0xd
 2883 0049 00       		.byte	0
 2884 004a 03       		.uleb128 0x3
 2885 004b 0E       		.uleb128 0xe
 2886 004c 3A       		.uleb128 0x3a
 2887 004d 0B       		.uleb128 0xb
 2888 004e 3B       		.uleb128 0x3b
 2889 004f 0B       		.uleb128 0xb
 2890 0050 49       		.uleb128 0x49
 2891 0051 13       		.uleb128 0x13
 2892 0052 38       		.uleb128 0x38
 2893 0053 0A       		.uleb128 0xa
 2894 0054 00       		.byte	0
 2895 0055 00       		.byte	0
 2896 0056 07       		.uleb128 0x7
 2897 0057 0D       		.uleb128 0xd
ARM GAS  C:\Users\3130\AppData\Local\Temp\ccJU1WQ2.s 			page 52


 2898 0058 00       		.byte	0
 2899 0059 03       		.uleb128 0x3
 2900 005a 08       		.uleb128 0x8
 2901 005b 3A       		.uleb128 0x3a
 2902 005c 0B       		.uleb128 0xb
 2903 005d 3B       		.uleb128 0x3b
 2904 005e 0B       		.uleb128 0xb
 2905 005f 49       		.uleb128 0x49
 2906 0060 13       		.uleb128 0x13
 2907 0061 38       		.uleb128 0x38
 2908 0062 0A       		.uleb128 0xa
 2909 0063 00       		.byte	0
 2910 0064 00       		.byte	0
 2911 0065 08       		.uleb128 0x8
 2912 0066 13       		.uleb128 0x13
 2913 0067 01       		.byte	0x1
 2914 0068 0B       		.uleb128 0xb
 2915 0069 0B       		.uleb128 0xb
 2916 006a 3A       		.uleb128 0x3a
 2917 006b 0B       		.uleb128 0xb
 2918 006c 3B       		.uleb128 0x3b
 2919 006d 0B       		.uleb128 0xb
 2920 006e 01       		.uleb128 0x1
 2921 006f 13       		.uleb128 0x13
 2922 0070 00       		.byte	0
 2923 0071 00       		.byte	0
 2924 0072 09       		.uleb128 0x9
 2925 0073 0F       		.uleb128 0xf
 2926 0074 00       		.byte	0
 2927 0075 0B       		.uleb128 0xb
 2928 0076 0B       		.uleb128 0xb
 2929 0077 49       		.uleb128 0x49
 2930 0078 13       		.uleb128 0x13
 2931 0079 00       		.byte	0
 2932 007a 00       		.byte	0
 2933 007b 0A       		.uleb128 0xa
 2934 007c 0F       		.uleb128 0xf
 2935 007d 00       		.byte	0
 2936 007e 0B       		.uleb128 0xb
 2937 007f 0B       		.uleb128 0xb
 2938 0080 00       		.byte	0
 2939 0081 00       		.byte	0
 2940 0082 0B       		.uleb128 0xb
 2941 0083 35       		.uleb128 0x35
 2942 0084 00       		.byte	0
 2943 0085 49       		.uleb128 0x49
 2944 0086 13       		.uleb128 0x13
 2945 0087 00       		.byte	0
 2946 0088 00       		.byte	0
 2947 0089 0C       		.uleb128 0xc
 2948 008a 17       		.uleb128 0x17
 2949 008b 01       		.byte	0x1
 2950 008c 0B       		.uleb128 0xb
 2951 008d 0B       		.uleb128 0xb
 2952 008e 3A       		.uleb128 0x3a
 2953 008f 0B       		.uleb128 0xb
 2954 0090 3B       		.uleb128 0x3b
ARM GAS  C:\Users\3130\AppData\Local\Temp\ccJU1WQ2.s 			page 53


 2955 0091 0B       		.uleb128 0xb
 2956 0092 01       		.uleb128 0x1
 2957 0093 13       		.uleb128 0x13
 2958 0094 00       		.byte	0
 2959 0095 00       		.byte	0
 2960 0096 0D       		.uleb128 0xd
 2961 0097 0D       		.uleb128 0xd
 2962 0098 00       		.byte	0
 2963 0099 03       		.uleb128 0x3
 2964 009a 0E       		.uleb128 0xe
 2965 009b 3A       		.uleb128 0x3a
 2966 009c 0B       		.uleb128 0xb
 2967 009d 3B       		.uleb128 0x3b
 2968 009e 0B       		.uleb128 0xb
 2969 009f 49       		.uleb128 0x49
 2970 00a0 13       		.uleb128 0x13
 2971 00a1 00       		.byte	0
 2972 00a2 00       		.byte	0
 2973 00a3 0E       		.uleb128 0xe
 2974 00a4 26       		.uleb128 0x26
 2975 00a5 00       		.byte	0
 2976 00a6 49       		.uleb128 0x49
 2977 00a7 13       		.uleb128 0x13
 2978 00a8 00       		.byte	0
 2979 00a9 00       		.byte	0
 2980 00aa 0F       		.uleb128 0xf
 2981 00ab 15       		.uleb128 0x15
 2982 00ac 01       		.byte	0x1
 2983 00ad 27       		.uleb128 0x27
 2984 00ae 0C       		.uleb128 0xc
 2985 00af 49       		.uleb128 0x49
 2986 00b0 13       		.uleb128 0x13
 2987 00b1 01       		.uleb128 0x1
 2988 00b2 13       		.uleb128 0x13
 2989 00b3 00       		.byte	0
 2990 00b4 00       		.byte	0
 2991 00b5 10       		.uleb128 0x10
 2992 00b6 05       		.uleb128 0x5
 2993 00b7 00       		.byte	0
 2994 00b8 49       		.uleb128 0x49
 2995 00b9 13       		.uleb128 0x13
 2996 00ba 00       		.byte	0
 2997 00bb 00       		.byte	0
 2998 00bc 11       		.uleb128 0x11
 2999 00bd 15       		.uleb128 0x15
 3000 00be 01       		.byte	0x1
 3001 00bf 27       		.uleb128 0x27
 3002 00c0 0C       		.uleb128 0xc
 3003 00c1 01       		.uleb128 0x1
 3004 00c2 13       		.uleb128 0x13
 3005 00c3 00       		.byte	0
 3006 00c4 00       		.byte	0
 3007 00c5 12       		.uleb128 0x12
 3008 00c6 13       		.uleb128 0x13
 3009 00c7 01       		.byte	0x1
 3010 00c8 0B       		.uleb128 0xb
 3011 00c9 0B       		.uleb128 0xb
ARM GAS  C:\Users\3130\AppData\Local\Temp\ccJU1WQ2.s 			page 54


 3012 00ca 3A       		.uleb128 0x3a
 3013 00cb 0B       		.uleb128 0xb
 3014 00cc 3B       		.uleb128 0x3b
 3015 00cd 05       		.uleb128 0x5
 3016 00ce 01       		.uleb128 0x1
 3017 00cf 13       		.uleb128 0x13
 3018 00d0 00       		.byte	0
 3019 00d1 00       		.byte	0
 3020 00d2 13       		.uleb128 0x13
 3021 00d3 0D       		.uleb128 0xd
 3022 00d4 00       		.byte	0
 3023 00d5 03       		.uleb128 0x3
 3024 00d6 08       		.uleb128 0x8
 3025 00d7 3A       		.uleb128 0x3a
 3026 00d8 0B       		.uleb128 0xb
 3027 00d9 3B       		.uleb128 0x3b
 3028 00da 05       		.uleb128 0x5
 3029 00db 49       		.uleb128 0x49
 3030 00dc 13       		.uleb128 0x13
 3031 00dd 38       		.uleb128 0x38
 3032 00de 0A       		.uleb128 0xa
 3033 00df 00       		.byte	0
 3034 00e0 00       		.byte	0
 3035 00e1 14       		.uleb128 0x14
 3036 00e2 0D       		.uleb128 0xd
 3037 00e3 00       		.byte	0
 3038 00e4 03       		.uleb128 0x3
 3039 00e5 0E       		.uleb128 0xe
 3040 00e6 3A       		.uleb128 0x3a
 3041 00e7 0B       		.uleb128 0xb
 3042 00e8 3B       		.uleb128 0x3b
 3043 00e9 05       		.uleb128 0x5
 3044 00ea 49       		.uleb128 0x49
 3045 00eb 13       		.uleb128 0x13
 3046 00ec 38       		.uleb128 0x38
 3047 00ed 0A       		.uleb128 0xa
 3048 00ee 00       		.byte	0
 3049 00ef 00       		.byte	0
 3050 00f0 15       		.uleb128 0x15
 3051 00f1 16       		.uleb128 0x16
 3052 00f2 00       		.byte	0
 3053 00f3 03       		.uleb128 0x3
 3054 00f4 0E       		.uleb128 0xe
 3055 00f5 3A       		.uleb128 0x3a
 3056 00f6 0B       		.uleb128 0xb
 3057 00f7 3B       		.uleb128 0x3b
 3058 00f8 05       		.uleb128 0x5
 3059 00f9 49       		.uleb128 0x49
 3060 00fa 13       		.uleb128 0x13
 3061 00fb 00       		.byte	0
 3062 00fc 00       		.byte	0
 3063 00fd 16       		.uleb128 0x16
 3064 00fe 04       		.uleb128 0x4
 3065 00ff 01       		.byte	0x1
 3066 0100 0B       		.uleb128 0xb
 3067 0101 0B       		.uleb128 0xb
 3068 0102 3A       		.uleb128 0x3a
ARM GAS  C:\Users\3130\AppData\Local\Temp\ccJU1WQ2.s 			page 55


 3069 0103 0B       		.uleb128 0xb
 3070 0104 3B       		.uleb128 0x3b
 3071 0105 0B       		.uleb128 0xb
 3072 0106 01       		.uleb128 0x1
 3073 0107 13       		.uleb128 0x13
 3074 0108 00       		.byte	0
 3075 0109 00       		.byte	0
 3076 010a 17       		.uleb128 0x17
 3077 010b 28       		.uleb128 0x28
 3078 010c 00       		.byte	0
 3079 010d 03       		.uleb128 0x3
 3080 010e 0E       		.uleb128 0xe
 3081 010f 1C       		.uleb128 0x1c
 3082 0110 0D       		.uleb128 0xd
 3083 0111 00       		.byte	0
 3084 0112 00       		.byte	0
 3085 0113 18       		.uleb128 0x18
 3086 0114 01       		.uleb128 0x1
 3087 0115 01       		.byte	0x1
 3088 0116 49       		.uleb128 0x49
 3089 0117 13       		.uleb128 0x13
 3090 0118 01       		.uleb128 0x1
 3091 0119 13       		.uleb128 0x13
 3092 011a 00       		.byte	0
 3093 011b 00       		.byte	0
 3094 011c 19       		.uleb128 0x19
 3095 011d 21       		.uleb128 0x21
 3096 011e 00       		.byte	0
 3097 011f 49       		.uleb128 0x49
 3098 0120 13       		.uleb128 0x13
 3099 0121 2F       		.uleb128 0x2f
 3100 0122 0B       		.uleb128 0xb
 3101 0123 00       		.byte	0
 3102 0124 00       		.byte	0
 3103 0125 1A       		.uleb128 0x1a
 3104 0126 2E       		.uleb128 0x2e
 3105 0127 01       		.byte	0x1
 3106 0128 03       		.uleb128 0x3
 3107 0129 0E       		.uleb128 0xe
 3108 012a 3A       		.uleb128 0x3a
 3109 012b 0B       		.uleb128 0xb
 3110 012c 3B       		.uleb128 0x3b
 3111 012d 0B       		.uleb128 0xb
 3112 012e 27       		.uleb128 0x27
 3113 012f 0C       		.uleb128 0xc
 3114 0130 49       		.uleb128 0x49
 3115 0131 13       		.uleb128 0x13
 3116 0132 11       		.uleb128 0x11
 3117 0133 01       		.uleb128 0x1
 3118 0134 12       		.uleb128 0x12
 3119 0135 01       		.uleb128 0x1
 3120 0136 40       		.uleb128 0x40
 3121 0137 06       		.uleb128 0x6
 3122 0138 9742     		.uleb128 0x2117
 3123 013a 0C       		.uleb128 0xc
 3124 013b 01       		.uleb128 0x1
 3125 013c 13       		.uleb128 0x13
ARM GAS  C:\Users\3130\AppData\Local\Temp\ccJU1WQ2.s 			page 56


 3126 013d 00       		.byte	0
 3127 013e 00       		.byte	0
 3128 013f 1B       		.uleb128 0x1b
 3129 0140 05       		.uleb128 0x5
 3130 0141 00       		.byte	0
 3131 0142 03       		.uleb128 0x3
 3132 0143 08       		.uleb128 0x8
 3133 0144 3A       		.uleb128 0x3a
 3134 0145 0B       		.uleb128 0xb
 3135 0146 3B       		.uleb128 0x3b
 3136 0147 0B       		.uleb128 0xb
 3137 0148 49       		.uleb128 0x49
 3138 0149 13       		.uleb128 0x13
 3139 014a 02       		.uleb128 0x2
 3140 014b 06       		.uleb128 0x6
 3141 014c 00       		.byte	0
 3142 014d 00       		.byte	0
 3143 014e 1C       		.uleb128 0x1c
 3144 014f 05       		.uleb128 0x5
 3145 0150 00       		.byte	0
 3146 0151 03       		.uleb128 0x3
 3147 0152 0E       		.uleb128 0xe
 3148 0153 3A       		.uleb128 0x3a
 3149 0154 0B       		.uleb128 0xb
 3150 0155 3B       		.uleb128 0x3b
 3151 0156 0B       		.uleb128 0xb
 3152 0157 49       		.uleb128 0x49
 3153 0158 13       		.uleb128 0x13
 3154 0159 02       		.uleb128 0x2
 3155 015a 06       		.uleb128 0x6
 3156 015b 00       		.byte	0
 3157 015c 00       		.byte	0
 3158 015d 1D       		.uleb128 0x1d
 3159 015e 898201   		.uleb128 0x4109
 3160 0161 01       		.byte	0x1
 3161 0162 11       		.uleb128 0x11
 3162 0163 01       		.uleb128 0x1
 3163 0164 31       		.uleb128 0x31
 3164 0165 13       		.uleb128 0x13
 3165 0166 00       		.byte	0
 3166 0167 00       		.byte	0
 3167 0168 1E       		.uleb128 0x1e
 3168 0169 8A8201   		.uleb128 0x410a
 3169 016c 00       		.byte	0
 3170 016d 02       		.uleb128 0x2
 3171 016e 0A       		.uleb128 0xa
 3172 016f 9142     		.uleb128 0x2111
 3173 0171 0A       		.uleb128 0xa
 3174 0172 00       		.byte	0
 3175 0173 00       		.byte	0
 3176 0174 1F       		.uleb128 0x1f
 3177 0175 2E       		.uleb128 0x2e
 3178 0176 01       		.byte	0x1
 3179 0177 03       		.uleb128 0x3
 3180 0178 08       		.uleb128 0x8
 3181 0179 3A       		.uleb128 0x3a
 3182 017a 0B       		.uleb128 0xb
ARM GAS  C:\Users\3130\AppData\Local\Temp\ccJU1WQ2.s 			page 57


 3183 017b 3B       		.uleb128 0x3b
 3184 017c 0B       		.uleb128 0xb
 3185 017d 27       		.uleb128 0x27
 3186 017e 0C       		.uleb128 0xc
 3187 017f 49       		.uleb128 0x49
 3188 0180 13       		.uleb128 0x13
 3189 0181 11       		.uleb128 0x11
 3190 0182 01       		.uleb128 0x1
 3191 0183 12       		.uleb128 0x12
 3192 0184 01       		.uleb128 0x1
 3193 0185 40       		.uleb128 0x40
 3194 0186 06       		.uleb128 0x6
 3195 0187 9742     		.uleb128 0x2117
 3196 0189 0C       		.uleb128 0xc
 3197 018a 01       		.uleb128 0x1
 3198 018b 13       		.uleb128 0x13
 3199 018c 00       		.byte	0
 3200 018d 00       		.byte	0
 3201 018e 20       		.uleb128 0x20
 3202 018f 2E       		.uleb128 0x2e
 3203 0190 01       		.byte	0x1
 3204 0191 3F       		.uleb128 0x3f
 3205 0192 0C       		.uleb128 0xc
 3206 0193 03       		.uleb128 0x3
 3207 0194 0E       		.uleb128 0xe
 3208 0195 3A       		.uleb128 0x3a
 3209 0196 0B       		.uleb128 0xb
 3210 0197 3B       		.uleb128 0x3b
 3211 0198 0B       		.uleb128 0xb
 3212 0199 27       		.uleb128 0x27
 3213 019a 0C       		.uleb128 0xc
 3214 019b 11       		.uleb128 0x11
 3215 019c 01       		.uleb128 0x1
 3216 019d 12       		.uleb128 0x12
 3217 019e 01       		.uleb128 0x1
 3218 019f 40       		.uleb128 0x40
 3219 01a0 06       		.uleb128 0x6
 3220 01a1 9742     		.uleb128 0x2117
 3221 01a3 0C       		.uleb128 0xc
 3222 01a4 01       		.uleb128 0x1
 3223 01a5 13       		.uleb128 0x13
 3224 01a6 00       		.byte	0
 3225 01a7 00       		.byte	0
 3226 01a8 21       		.uleb128 0x21
 3227 01a9 898201   		.uleb128 0x4109
 3228 01ac 00       		.byte	0
 3229 01ad 11       		.uleb128 0x11
 3230 01ae 01       		.uleb128 0x1
 3231 01af 31       		.uleb128 0x31
 3232 01b0 13       		.uleb128 0x13
 3233 01b1 00       		.byte	0
 3234 01b2 00       		.byte	0
 3235 01b3 22       		.uleb128 0x22
 3236 01b4 898201   		.uleb128 0x4109
 3237 01b7 01       		.byte	0x1
 3238 01b8 11       		.uleb128 0x11
 3239 01b9 01       		.uleb128 0x1
ARM GAS  C:\Users\3130\AppData\Local\Temp\ccJU1WQ2.s 			page 58


 3240 01ba 31       		.uleb128 0x31
 3241 01bb 13       		.uleb128 0x13
 3242 01bc 01       		.uleb128 0x1
 3243 01bd 13       		.uleb128 0x13
 3244 01be 00       		.byte	0
 3245 01bf 00       		.byte	0
 3246 01c0 23       		.uleb128 0x23
 3247 01c1 2E       		.uleb128 0x2e
 3248 01c2 01       		.byte	0x1
 3249 01c3 3F       		.uleb128 0x3f
 3250 01c4 0C       		.uleb128 0xc
 3251 01c5 03       		.uleb128 0x3
 3252 01c6 0E       		.uleb128 0xe
 3253 01c7 3A       		.uleb128 0x3a
 3254 01c8 0B       		.uleb128 0xb
 3255 01c9 3B       		.uleb128 0x3b
 3256 01ca 0B       		.uleb128 0xb
 3257 01cb 27       		.uleb128 0x27
 3258 01cc 0C       		.uleb128 0xc
 3259 01cd 49       		.uleb128 0x49
 3260 01ce 13       		.uleb128 0x13
 3261 01cf 11       		.uleb128 0x11
 3262 01d0 01       		.uleb128 0x1
 3263 01d1 12       		.uleb128 0x12
 3264 01d2 01       		.uleb128 0x1
 3265 01d3 40       		.uleb128 0x40
 3266 01d4 06       		.uleb128 0x6
 3267 01d5 9742     		.uleb128 0x2117
 3268 01d7 0C       		.uleb128 0xc
 3269 01d8 01       		.uleb128 0x1
 3270 01d9 13       		.uleb128 0x13
 3271 01da 00       		.byte	0
 3272 01db 00       		.byte	0
 3273 01dc 24       		.uleb128 0x24
 3274 01dd 34       		.uleb128 0x34
 3275 01de 00       		.byte	0
 3276 01df 03       		.uleb128 0x3
 3277 01e0 08       		.uleb128 0x8
 3278 01e1 3A       		.uleb128 0x3a
 3279 01e2 0B       		.uleb128 0xb
 3280 01e3 3B       		.uleb128 0x3b
 3281 01e4 0B       		.uleb128 0xb
 3282 01e5 49       		.uleb128 0x49
 3283 01e6 13       		.uleb128 0x13
 3284 01e7 02       		.uleb128 0x2
 3285 01e8 06       		.uleb128 0x6
 3286 01e9 00       		.byte	0
 3287 01ea 00       		.byte	0
 3288 01eb 25       		.uleb128 0x25
 3289 01ec 34       		.uleb128 0x34
 3290 01ed 00       		.byte	0
 3291 01ee 03       		.uleb128 0x3
 3292 01ef 08       		.uleb128 0x8
 3293 01f0 3A       		.uleb128 0x3a
 3294 01f1 0B       		.uleb128 0xb
 3295 01f2 3B       		.uleb128 0x3b
 3296 01f3 0B       		.uleb128 0xb
ARM GAS  C:\Users\3130\AppData\Local\Temp\ccJU1WQ2.s 			page 59


 3297 01f4 49       		.uleb128 0x49
 3298 01f5 13       		.uleb128 0x13
 3299 01f6 02       		.uleb128 0x2
 3300 01f7 0A       		.uleb128 0xa
 3301 01f8 00       		.byte	0
 3302 01f9 00       		.byte	0
 3303 01fa 26       		.uleb128 0x26
 3304 01fb 2E       		.uleb128 0x2e
 3305 01fc 01       		.byte	0x1
 3306 01fd 3F       		.uleb128 0x3f
 3307 01fe 0C       		.uleb128 0xc
 3308 01ff 03       		.uleb128 0x3
 3309 0200 0E       		.uleb128 0xe
 3310 0201 3A       		.uleb128 0x3a
 3311 0202 0B       		.uleb128 0xb
 3312 0203 3B       		.uleb128 0x3b
 3313 0204 05       		.uleb128 0x5
 3314 0205 27       		.uleb128 0x27
 3315 0206 0C       		.uleb128 0xc
 3316 0207 49       		.uleb128 0x49
 3317 0208 13       		.uleb128 0x13
 3318 0209 3C       		.uleb128 0x3c
 3319 020a 0C       		.uleb128 0xc
 3320 020b 01       		.uleb128 0x1
 3321 020c 13       		.uleb128 0x13
 3322 020d 00       		.byte	0
 3323 020e 00       		.byte	0
 3324 020f 27       		.uleb128 0x27
 3325 0210 2E       		.uleb128 0x2e
 3326 0211 00       		.byte	0
 3327 0212 3F       		.uleb128 0x3f
 3328 0213 0C       		.uleb128 0xc
 3329 0214 03       		.uleb128 0x3
 3330 0215 0E       		.uleb128 0xe
 3331 0216 3A       		.uleb128 0x3a
 3332 0217 0B       		.uleb128 0xb
 3333 0218 3B       		.uleb128 0x3b
 3334 0219 05       		.uleb128 0x5
 3335 021a 27       		.uleb128 0x27
 3336 021b 0C       		.uleb128 0xc
 3337 021c 3C       		.uleb128 0x3c
 3338 021d 0C       		.uleb128 0xc
 3339 021e 00       		.byte	0
 3340 021f 00       		.byte	0
 3341 0220 28       		.uleb128 0x28
 3342 0221 2E       		.uleb128 0x2e
 3343 0222 01       		.byte	0x1
 3344 0223 3F       		.uleb128 0x3f
 3345 0224 0C       		.uleb128 0xc
 3346 0225 03       		.uleb128 0x3
 3347 0226 0E       		.uleb128 0xe
 3348 0227 3A       		.uleb128 0x3a
 3349 0228 0B       		.uleb128 0xb
 3350 0229 3B       		.uleb128 0x3b
 3351 022a 05       		.uleb128 0x5
 3352 022b 27       		.uleb128 0x27
 3353 022c 0C       		.uleb128 0xc
ARM GAS  C:\Users\3130\AppData\Local\Temp\ccJU1WQ2.s 			page 60


 3354 022d 3C       		.uleb128 0x3c
 3355 022e 0C       		.uleb128 0xc
 3356 022f 01       		.uleb128 0x1
 3357 0230 13       		.uleb128 0x13
 3358 0231 00       		.byte	0
 3359 0232 00       		.byte	0
 3360 0233 29       		.uleb128 0x29
 3361 0234 2E       		.uleb128 0x2e
 3362 0235 00       		.byte	0
 3363 0236 3F       		.uleb128 0x3f
 3364 0237 0C       		.uleb128 0xc
 3365 0238 03       		.uleb128 0x3
 3366 0239 0E       		.uleb128 0xe
 3367 023a 3A       		.uleb128 0x3a
 3368 023b 0B       		.uleb128 0xb
 3369 023c 3B       		.uleb128 0x3b
 3370 023d 0B       		.uleb128 0xb
 3371 023e 27       		.uleb128 0x27
 3372 023f 0C       		.uleb128 0xc
 3373 0240 3C       		.uleb128 0x3c
 3374 0241 0C       		.uleb128 0xc
 3375 0242 00       		.byte	0
 3376 0243 00       		.byte	0
 3377 0244 2A       		.uleb128 0x2a
 3378 0245 2E       		.uleb128 0x2e
 3379 0246 01       		.byte	0x1
 3380 0247 3F       		.uleb128 0x3f
 3381 0248 0C       		.uleb128 0xc
 3382 0249 03       		.uleb128 0x3
 3383 024a 0E       		.uleb128 0xe
 3384 024b 3A       		.uleb128 0x3a
 3385 024c 0B       		.uleb128 0xb
 3386 024d 3B       		.uleb128 0x3b
 3387 024e 0B       		.uleb128 0xb
 3388 024f 27       		.uleb128 0x27
 3389 0250 0C       		.uleb128 0xc
 3390 0251 3C       		.uleb128 0x3c
 3391 0252 0C       		.uleb128 0xc
 3392 0253 01       		.uleb128 0x1
 3393 0254 13       		.uleb128 0x13
 3394 0255 00       		.byte	0
 3395 0256 00       		.byte	0
 3396 0257 2B       		.uleb128 0x2b
 3397 0258 2E       		.uleb128 0x2e
 3398 0259 01       		.byte	0x1
 3399 025a 3F       		.uleb128 0x3f
 3400 025b 0C       		.uleb128 0xc
 3401 025c 03       		.uleb128 0x3
 3402 025d 0E       		.uleb128 0xe
 3403 025e 3A       		.uleb128 0x3a
 3404 025f 0B       		.uleb128 0xb
 3405 0260 3B       		.uleb128 0x3b
 3406 0261 05       		.uleb128 0x5
 3407 0262 27       		.uleb128 0x27
 3408 0263 0C       		.uleb128 0xc
 3409 0264 49       		.uleb128 0x49
 3410 0265 13       		.uleb128 0x13
ARM GAS  C:\Users\3130\AppData\Local\Temp\ccJU1WQ2.s 			page 61


 3411 0266 3C       		.uleb128 0x3c
 3412 0267 0C       		.uleb128 0xc
 3413 0268 00       		.byte	0
 3414 0269 00       		.byte	0
 3415 026a 00       		.byte	0
 3416              		.section	.debug_loc,"",%progbits
 3417              	.Ldebug_loc0:
 3418              	.LLST0:
 3419 0000 00000000 		.4byte	.LFB47
 3420 0004 02000000 		.4byte	.LCFI0
 3421 0008 0200     		.2byte	0x2
 3422 000a 7D       		.byte	0x7d
 3423 000b 00       		.sleb128 0
 3424 000c 02000000 		.4byte	.LCFI0
 3425 0010 0A000000 		.4byte	.LFE47
 3426 0014 0200     		.2byte	0x2
 3427 0016 7D       		.byte	0x7d
 3428 0017 08       		.sleb128 8
 3429 0018 00000000 		.4byte	0
 3430 001c 00000000 		.4byte	0
 3431              	.LLST1:
 3432 0020 00000000 		.4byte	.LVL0
 3433 0024 04000000 		.4byte	.LVL1
 3434 0028 0100     		.2byte	0x1
 3435 002a 50       		.byte	0x50
 3436 002b 04000000 		.4byte	.LVL1
 3437 002f 07000000 		.4byte	.LVL2-1
 3438 0033 0300     		.2byte	0x3
 3439 0035 70       		.byte	0x70
 3440 0036 74       		.sleb128 -12
 3441 0037 9F       		.byte	0x9f
 3442 0038 07000000 		.4byte	.LVL2-1
 3443 003c 0A000000 		.4byte	.LFE47
 3444 0040 0400     		.2byte	0x4
 3445 0042 F3       		.byte	0xf3
 3446 0043 01       		.uleb128 0x1
 3447 0044 50       		.byte	0x50
 3448 0045 9F       		.byte	0x9f
 3449 0046 00000000 		.4byte	0
 3450 004a 00000000 		.4byte	0
 3451              	.LLST2:
 3452 004e 00000000 		.4byte	.LVL0
 3453 0052 07000000 		.4byte	.LVL2-1
 3454 0056 0100     		.2byte	0x1
 3455 0058 51       		.byte	0x51
 3456 0059 07000000 		.4byte	.LVL2-1
 3457 005d 0A000000 		.4byte	.LFE47
 3458 0061 0400     		.2byte	0x4
 3459 0063 F3       		.byte	0xf3
 3460 0064 01       		.uleb128 0x1
 3461 0065 51       		.byte	0x51
 3462 0066 9F       		.byte	0x9f
 3463 0067 00000000 		.4byte	0
 3464 006b 00000000 		.4byte	0
 3465              	.LLST3:
 3466 006f 00000000 		.4byte	.LVL0
 3467 0073 07000000 		.4byte	.LVL2-1
ARM GAS  C:\Users\3130\AppData\Local\Temp\ccJU1WQ2.s 			page 62


 3468 0077 0100     		.2byte	0x1
 3469 0079 52       		.byte	0x52
 3470 007a 07000000 		.4byte	.LVL2-1
 3471 007e 0A000000 		.4byte	.LFE47
 3472 0082 0400     		.2byte	0x4
 3473 0084 F3       		.byte	0xf3
 3474 0085 01       		.uleb128 0x1
 3475 0086 52       		.byte	0x52
 3476 0087 9F       		.byte	0x9f
 3477 0088 00000000 		.4byte	0
 3478 008c 00000000 		.4byte	0
 3479              	.LLST4:
 3480 0090 00000000 		.4byte	.LVL0
 3481 0094 07000000 		.4byte	.LVL2-1
 3482 0098 0100     		.2byte	0x1
 3483 009a 53       		.byte	0x53
 3484 009b 07000000 		.4byte	.LVL2-1
 3485 009f 0A000000 		.4byte	.LFE47
 3486 00a3 0400     		.2byte	0x4
 3487 00a5 F3       		.byte	0xf3
 3488 00a6 01       		.uleb128 0x1
 3489 00a7 53       		.byte	0x53
 3490 00a8 9F       		.byte	0x9f
 3491 00a9 00000000 		.4byte	0
 3492 00ad 00000000 		.4byte	0
 3493              	.LLST5:
 3494 00b1 00000000 		.4byte	.LFB41
 3495 00b5 02000000 		.4byte	.LCFI1
 3496 00b9 0200     		.2byte	0x2
 3497 00bb 7D       		.byte	0x7d
 3498 00bc 00       		.sleb128 0
 3499 00bd 02000000 		.4byte	.LCFI1
 3500 00c1 0E000000 		.4byte	.LFE41
 3501 00c5 0200     		.2byte	0x2
 3502 00c7 7D       		.byte	0x7d
 3503 00c8 08       		.sleb128 8
 3504 00c9 00000000 		.4byte	0
 3505 00cd 00000000 		.4byte	0
 3506              	.LLST6:
 3507 00d1 00000000 		.4byte	.LVL3
 3508 00d5 06000000 		.4byte	.LVL4
 3509 00d9 0100     		.2byte	0x1
 3510 00db 50       		.byte	0x50
 3511 00dc 06000000 		.4byte	.LVL4
 3512 00e0 0B000000 		.4byte	.LVL5-1
 3513 00e4 0300     		.2byte	0x3
 3514 00e6 70       		.byte	0x70
 3515 00e7 74       		.sleb128 -12
 3516 00e8 9F       		.byte	0x9f
 3517 00e9 0B000000 		.4byte	.LVL5-1
 3518 00ed 0E000000 		.4byte	.LFE41
 3519 00f1 0400     		.2byte	0x4
 3520 00f3 F3       		.byte	0xf3
 3521 00f4 01       		.uleb128 0x1
 3522 00f5 50       		.byte	0x50
 3523 00f6 9F       		.byte	0x9f
 3524 00f7 00000000 		.4byte	0
ARM GAS  C:\Users\3130\AppData\Local\Temp\ccJU1WQ2.s 			page 63


 3525 00fb 00000000 		.4byte	0
 3526              	.LLST7:
 3527 00ff 00000000 		.4byte	.LVL3
 3528 0103 0B000000 		.4byte	.LVL5-1
 3529 0107 0100     		.2byte	0x1
 3530 0109 51       		.byte	0x51
 3531 010a 0B000000 		.4byte	.LVL5-1
 3532 010e 0E000000 		.4byte	.LFE41
 3533 0112 0400     		.2byte	0x4
 3534 0114 F3       		.byte	0xf3
 3535 0115 01       		.uleb128 0x1
 3536 0116 51       		.byte	0x51
 3537 0117 9F       		.byte	0x9f
 3538 0118 00000000 		.4byte	0
 3539 011c 00000000 		.4byte	0
 3540              	.LLST8:
 3541 0120 00000000 		.4byte	.LVL3
 3542 0124 0B000000 		.4byte	.LVL5-1
 3543 0128 0100     		.2byte	0x1
 3544 012a 52       		.byte	0x52
 3545 012b 0B000000 		.4byte	.LVL5-1
 3546 012f 0E000000 		.4byte	.LFE41
 3547 0133 0400     		.2byte	0x4
 3548 0135 F3       		.byte	0xf3
 3549 0136 01       		.uleb128 0x1
 3550 0137 52       		.byte	0x52
 3551 0138 9F       		.byte	0x9f
 3552 0139 00000000 		.4byte	0
 3553 013d 00000000 		.4byte	0
 3554              	.LLST9:
 3555 0141 00000000 		.4byte	.LFB46
 3556 0145 02000000 		.4byte	.LCFI2
 3557 0149 0200     		.2byte	0x2
 3558 014b 7D       		.byte	0x7d
 3559 014c 00       		.sleb128 0
 3560 014d 02000000 		.4byte	.LCFI2
 3561 0151 0A000000 		.4byte	.LFE46
 3562 0155 0200     		.2byte	0x2
 3563 0157 7D       		.byte	0x7d
 3564 0158 08       		.sleb128 8
 3565 0159 00000000 		.4byte	0
 3566 015d 00000000 		.4byte	0
 3567              	.LLST10:
 3568 0161 00000000 		.4byte	.LVL6
 3569 0165 04000000 		.4byte	.LVL7
 3570 0169 0100     		.2byte	0x1
 3571 016b 50       		.byte	0x50
 3572 016c 04000000 		.4byte	.LVL7
 3573 0170 07000000 		.4byte	.LVL8-1
 3574 0174 0300     		.2byte	0x3
 3575 0176 70       		.byte	0x70
 3576 0177 50       		.sleb128 -48
 3577 0178 9F       		.byte	0x9f
 3578 0179 07000000 		.4byte	.LVL8-1
 3579 017d 0A000000 		.4byte	.LFE46
 3580 0181 0400     		.2byte	0x4
 3581 0183 F3       		.byte	0xf3
ARM GAS  C:\Users\3130\AppData\Local\Temp\ccJU1WQ2.s 			page 64


 3582 0184 01       		.uleb128 0x1
 3583 0185 50       		.byte	0x50
 3584 0186 9F       		.byte	0x9f
 3585 0187 00000000 		.4byte	0
 3586 018b 00000000 		.4byte	0
 3587              	.LLST11:
 3588 018f 00000000 		.4byte	.LVL6
 3589 0193 07000000 		.4byte	.LVL8-1
 3590 0197 0100     		.2byte	0x1
 3591 0199 51       		.byte	0x51
 3592 019a 07000000 		.4byte	.LVL8-1
 3593 019e 0A000000 		.4byte	.LFE46
 3594 01a2 0400     		.2byte	0x4
 3595 01a4 F3       		.byte	0xf3
 3596 01a5 01       		.uleb128 0x1
 3597 01a6 51       		.byte	0x51
 3598 01a7 9F       		.byte	0x9f
 3599 01a8 00000000 		.4byte	0
 3600 01ac 00000000 		.4byte	0
 3601              	.LLST12:
 3602 01b0 00000000 		.4byte	.LVL6
 3603 01b4 07000000 		.4byte	.LVL8-1
 3604 01b8 0100     		.2byte	0x1
 3605 01ba 52       		.byte	0x52
 3606 01bb 07000000 		.4byte	.LVL8-1
 3607 01bf 0A000000 		.4byte	.LFE46
 3608 01c3 0400     		.2byte	0x4
 3609 01c5 F3       		.byte	0xf3
 3610 01c6 01       		.uleb128 0x1
 3611 01c7 52       		.byte	0x52
 3612 01c8 9F       		.byte	0x9f
 3613 01c9 00000000 		.4byte	0
 3614 01cd 00000000 		.4byte	0
 3615              	.LLST13:
 3616 01d1 00000000 		.4byte	.LVL6
 3617 01d5 07000000 		.4byte	.LVL8-1
 3618 01d9 0100     		.2byte	0x1
 3619 01db 53       		.byte	0x53
 3620 01dc 07000000 		.4byte	.LVL8-1
 3621 01e0 0A000000 		.4byte	.LFE46
 3622 01e4 0400     		.2byte	0x4
 3623 01e6 F3       		.byte	0xf3
 3624 01e7 01       		.uleb128 0x1
 3625 01e8 53       		.byte	0x53
 3626 01e9 9F       		.byte	0x9f
 3627 01ea 00000000 		.4byte	0
 3628 01ee 00000000 		.4byte	0
 3629              	.LLST14:
 3630 01f2 00000000 		.4byte	.LFB40
 3631 01f6 02000000 		.4byte	.LCFI3
 3632 01fa 0200     		.2byte	0x2
 3633 01fc 7D       		.byte	0x7d
 3634 01fd 00       		.sleb128 0
 3635 01fe 02000000 		.4byte	.LCFI3
 3636 0202 0E000000 		.4byte	.LFE40
 3637 0206 0200     		.2byte	0x2
 3638 0208 7D       		.byte	0x7d
ARM GAS  C:\Users\3130\AppData\Local\Temp\ccJU1WQ2.s 			page 65


 3639 0209 08       		.sleb128 8
 3640 020a 00000000 		.4byte	0
 3641 020e 00000000 		.4byte	0
 3642              	.LLST15:
 3643 0212 00000000 		.4byte	.LVL9
 3644 0216 06000000 		.4byte	.LVL10
 3645 021a 0100     		.2byte	0x1
 3646 021c 50       		.byte	0x50
 3647 021d 06000000 		.4byte	.LVL10
 3648 0221 0B000000 		.4byte	.LVL11-1
 3649 0225 0300     		.2byte	0x3
 3650 0227 70       		.byte	0x70
 3651 0228 50       		.sleb128 -48
 3652 0229 9F       		.byte	0x9f
 3653 022a 0B000000 		.4byte	.LVL11-1
 3654 022e 0E000000 		.4byte	.LFE40
 3655 0232 0400     		.2byte	0x4
 3656 0234 F3       		.byte	0xf3
 3657 0235 01       		.uleb128 0x1
 3658 0236 50       		.byte	0x50
 3659 0237 9F       		.byte	0x9f
 3660 0238 00000000 		.4byte	0
 3661 023c 00000000 		.4byte	0
 3662              	.LLST16:
 3663 0240 00000000 		.4byte	.LVL9
 3664 0244 0B000000 		.4byte	.LVL11-1
 3665 0248 0100     		.2byte	0x1
 3666 024a 51       		.byte	0x51
 3667 024b 0B000000 		.4byte	.LVL11-1
 3668 024f 0E000000 		.4byte	.LFE40
 3669 0253 0400     		.2byte	0x4
 3670 0255 F3       		.byte	0xf3
 3671 0256 01       		.uleb128 0x1
 3672 0257 51       		.byte	0x51
 3673 0258 9F       		.byte	0x9f
 3674 0259 00000000 		.4byte	0
 3675 025d 00000000 		.4byte	0
 3676              	.LLST17:
 3677 0261 00000000 		.4byte	.LVL9
 3678 0265 0B000000 		.4byte	.LVL11-1
 3679 0269 0100     		.2byte	0x1
 3680 026b 52       		.byte	0x52
 3681 026c 0B000000 		.4byte	.LVL11-1
 3682 0270 0E000000 		.4byte	.LFE40
 3683 0274 0400     		.2byte	0x4
 3684 0276 F3       		.byte	0xf3
 3685 0277 01       		.uleb128 0x1
 3686 0278 52       		.byte	0x52
 3687 0279 9F       		.byte	0x9f
 3688 027a 00000000 		.4byte	0
 3689 027e 00000000 		.4byte	0
 3690              	.LLST18:
 3691 0282 00000000 		.4byte	.LFB45
 3692 0286 02000000 		.4byte	.LCFI4
 3693 028a 0200     		.2byte	0x2
 3694 028c 7D       		.byte	0x7d
 3695 028d 00       		.sleb128 0
ARM GAS  C:\Users\3130\AppData\Local\Temp\ccJU1WQ2.s 			page 66


 3696 028e 02000000 		.4byte	.LCFI4
 3697 0292 0A000000 		.4byte	.LFE45
 3698 0296 0200     		.2byte	0x2
 3699 0298 7D       		.byte	0x7d
 3700 0299 08       		.sleb128 8
 3701 029a 00000000 		.4byte	0
 3702 029e 00000000 		.4byte	0
 3703              	.LLST19:
 3704 02a2 00000000 		.4byte	.LVL12
 3705 02a6 04000000 		.4byte	.LVL13
 3706 02aa 0100     		.2byte	0x1
 3707 02ac 50       		.byte	0x50
 3708 02ad 04000000 		.4byte	.LVL13
 3709 02b1 07000000 		.4byte	.LVL14-1
 3710 02b5 0300     		.2byte	0x3
 3711 02b7 70       		.byte	0x70
 3712 02b8 74       		.sleb128 -12
 3713 02b9 9F       		.byte	0x9f
 3714 02ba 07000000 		.4byte	.LVL14-1
 3715 02be 0A000000 		.4byte	.LFE45
 3716 02c2 0400     		.2byte	0x4
 3717 02c4 F3       		.byte	0xf3
 3718 02c5 01       		.uleb128 0x1
 3719 02c6 50       		.byte	0x50
 3720 02c7 9F       		.byte	0x9f
 3721 02c8 00000000 		.4byte	0
 3722 02cc 00000000 		.4byte	0
 3723              	.LLST20:
 3724 02d0 00000000 		.4byte	.LVL12
 3725 02d4 07000000 		.4byte	.LVL14-1
 3726 02d8 0100     		.2byte	0x1
 3727 02da 51       		.byte	0x51
 3728 02db 07000000 		.4byte	.LVL14-1
 3729 02df 0A000000 		.4byte	.LFE45
 3730 02e3 0400     		.2byte	0x4
 3731 02e5 F3       		.byte	0xf3
 3732 02e6 01       		.uleb128 0x1
 3733 02e7 51       		.byte	0x51
 3734 02e8 9F       		.byte	0x9f
 3735 02e9 00000000 		.4byte	0
 3736 02ed 00000000 		.4byte	0
 3737              	.LLST21:
 3738 02f1 00000000 		.4byte	.LFB43
 3739 02f5 02000000 		.4byte	.LCFI5
 3740 02f9 0200     		.2byte	0x2
 3741 02fb 7D       		.byte	0x7d
 3742 02fc 00       		.sleb128 0
 3743 02fd 02000000 		.4byte	.LCFI5
 3744 0301 0E000000 		.4byte	.LFE43
 3745 0305 0200     		.2byte	0x2
 3746 0307 7D       		.byte	0x7d
 3747 0308 08       		.sleb128 8
 3748 0309 00000000 		.4byte	0
 3749 030d 00000000 		.4byte	0
 3750              	.LLST22:
 3751 0311 00000000 		.4byte	.LVL15
 3752 0315 06000000 		.4byte	.LVL16
ARM GAS  C:\Users\3130\AppData\Local\Temp\ccJU1WQ2.s 			page 67


 3753 0319 0100     		.2byte	0x1
 3754 031b 50       		.byte	0x50
 3755 031c 06000000 		.4byte	.LVL16
 3756 0320 0B000000 		.4byte	.LVL17-1
 3757 0324 0300     		.2byte	0x3
 3758 0326 70       		.byte	0x70
 3759 0327 74       		.sleb128 -12
 3760 0328 9F       		.byte	0x9f
 3761 0329 0B000000 		.4byte	.LVL17-1
 3762 032d 0E000000 		.4byte	.LFE43
 3763 0331 0400     		.2byte	0x4
 3764 0333 F3       		.byte	0xf3
 3765 0334 01       		.uleb128 0x1
 3766 0335 50       		.byte	0x50
 3767 0336 9F       		.byte	0x9f
 3768 0337 00000000 		.4byte	0
 3769 033b 00000000 		.4byte	0
 3770              	.LLST23:
 3771 033f 00000000 		.4byte	.LFB44
 3772 0343 02000000 		.4byte	.LCFI6
 3773 0347 0200     		.2byte	0x2
 3774 0349 7D       		.byte	0x7d
 3775 034a 00       		.sleb128 0
 3776 034b 02000000 		.4byte	.LCFI6
 3777 034f 0A000000 		.4byte	.LFE44
 3778 0353 0200     		.2byte	0x2
 3779 0355 7D       		.byte	0x7d
 3780 0356 08       		.sleb128 8
 3781 0357 00000000 		.4byte	0
 3782 035b 00000000 		.4byte	0
 3783              	.LLST24:
 3784 035f 00000000 		.4byte	.LVL18
 3785 0363 04000000 		.4byte	.LVL19
 3786 0367 0100     		.2byte	0x1
 3787 0369 50       		.byte	0x50
 3788 036a 04000000 		.4byte	.LVL19
 3789 036e 07000000 		.4byte	.LVL20-1
 3790 0372 0300     		.2byte	0x3
 3791 0374 70       		.byte	0x70
 3792 0375 50       		.sleb128 -48
 3793 0376 9F       		.byte	0x9f
 3794 0377 07000000 		.4byte	.LVL20-1
 3795 037b 0A000000 		.4byte	.LFE44
 3796 037f 0400     		.2byte	0x4
 3797 0381 F3       		.byte	0xf3
 3798 0382 01       		.uleb128 0x1
 3799 0383 50       		.byte	0x50
 3800 0384 9F       		.byte	0x9f
 3801 0385 00000000 		.4byte	0
 3802 0389 00000000 		.4byte	0
 3803              	.LLST25:
 3804 038d 00000000 		.4byte	.LVL18
 3805 0391 07000000 		.4byte	.LVL20-1
 3806 0395 0100     		.2byte	0x1
 3807 0397 51       		.byte	0x51
 3808 0398 07000000 		.4byte	.LVL20-1
 3809 039c 0A000000 		.4byte	.LFE44
ARM GAS  C:\Users\3130\AppData\Local\Temp\ccJU1WQ2.s 			page 68


 3810 03a0 0400     		.2byte	0x4
 3811 03a2 F3       		.byte	0xf3
 3812 03a3 01       		.uleb128 0x1
 3813 03a4 51       		.byte	0x51
 3814 03a5 9F       		.byte	0x9f
 3815 03a6 00000000 		.4byte	0
 3816 03aa 00000000 		.4byte	0
 3817              	.LLST26:
 3818 03ae 00000000 		.4byte	.LVL18
 3819 03b2 07000000 		.4byte	.LVL20-1
 3820 03b6 0100     		.2byte	0x1
 3821 03b8 52       		.byte	0x52
 3822 03b9 07000000 		.4byte	.LVL20-1
 3823 03bd 0A000000 		.4byte	.LFE44
 3824 03c1 0400     		.2byte	0x4
 3825 03c3 F3       		.byte	0xf3
 3826 03c4 01       		.uleb128 0x1
 3827 03c5 52       		.byte	0x52
 3828 03c6 9F       		.byte	0x9f
 3829 03c7 00000000 		.4byte	0
 3830 03cb 00000000 		.4byte	0
 3831              	.LLST27:
 3832 03cf 00000000 		.4byte	.LFB42
 3833 03d3 02000000 		.4byte	.LCFI7
 3834 03d7 0200     		.2byte	0x2
 3835 03d9 7D       		.byte	0x7d
 3836 03da 00       		.sleb128 0
 3837 03db 02000000 		.4byte	.LCFI7
 3838 03df 0E000000 		.4byte	.LFE42
 3839 03e3 0200     		.2byte	0x2
 3840 03e5 7D       		.byte	0x7d
 3841 03e6 08       		.sleb128 8
 3842 03e7 00000000 		.4byte	0
 3843 03eb 00000000 		.4byte	0
 3844              	.LLST28:
 3845 03ef 00000000 		.4byte	.LVL21
 3846 03f3 06000000 		.4byte	.LVL22
 3847 03f7 0100     		.2byte	0x1
 3848 03f9 50       		.byte	0x50
 3849 03fa 06000000 		.4byte	.LVL22
 3850 03fe 0B000000 		.4byte	.LVL23-1
 3851 0402 0300     		.2byte	0x3
 3852 0404 70       		.byte	0x70
 3853 0405 50       		.sleb128 -48
 3854 0406 9F       		.byte	0x9f
 3855 0407 0B000000 		.4byte	.LVL23-1
 3856 040b 0E000000 		.4byte	.LFE42
 3857 040f 0400     		.2byte	0x4
 3858 0411 F3       		.byte	0xf3
 3859 0412 01       		.uleb128 0x1
 3860 0413 50       		.byte	0x50
 3861 0414 9F       		.byte	0x9f
 3862 0415 00000000 		.4byte	0
 3863 0419 00000000 		.4byte	0
 3864              	.LLST29:
 3865 041d 00000000 		.4byte	.LVL21
 3866 0421 0B000000 		.4byte	.LVL23-1
ARM GAS  C:\Users\3130\AppData\Local\Temp\ccJU1WQ2.s 			page 69


 3867 0425 0100     		.2byte	0x1
 3868 0427 51       		.byte	0x51
 3869 0428 0B000000 		.4byte	.LVL23-1
 3870 042c 0E000000 		.4byte	.LFE42
 3871 0430 0400     		.2byte	0x4
 3872 0432 F3       		.byte	0xf3
 3873 0433 01       		.uleb128 0x1
 3874 0434 51       		.byte	0x51
 3875 0435 9F       		.byte	0x9f
 3876 0436 00000000 		.4byte	0
 3877 043a 00000000 		.4byte	0
 3878              	.LLST30:
 3879 043e 00000000 		.4byte	.LFB48
 3880 0442 02000000 		.4byte	.LCFI8
 3881 0446 0200     		.2byte	0x2
 3882 0448 7D       		.byte	0x7d
 3883 0449 00       		.sleb128 0
 3884 044a 02000000 		.4byte	.LCFI8
 3885 044e 08000000 		.4byte	.LFE48
 3886 0452 0200     		.2byte	0x2
 3887 0454 7D       		.byte	0x7d
 3888 0455 08       		.sleb128 8
 3889 0456 00000000 		.4byte	0
 3890 045a 00000000 		.4byte	0
 3891              	.LLST31:
 3892 045e 00000000 		.4byte	.LFB49
 3893 0462 02000000 		.4byte	.LCFI9
 3894 0466 0200     		.2byte	0x2
 3895 0468 7D       		.byte	0x7d
 3896 0469 00       		.sleb128 0
 3897 046a 02000000 		.4byte	.LCFI9
 3898 046e 10000000 		.4byte	.LCFI10
 3899 0472 0200     		.2byte	0x2
 3900 0474 7D       		.byte	0x7d
 3901 0475 0C       		.sleb128 12
 3902 0476 10000000 		.4byte	.LCFI10
 3903 047a 40000000 		.4byte	.LFE49
 3904 047e 0200     		.2byte	0x2
 3905 0480 7D       		.byte	0x7d
 3906 0481 18       		.sleb128 24
 3907 0482 00000000 		.4byte	0
 3908 0486 00000000 		.4byte	0
 3909              	.LLST32:
 3910 048a 00000000 		.4byte	.LVL25
 3911 048e 0C000000 		.4byte	.LVL27
 3912 0492 0100     		.2byte	0x1
 3913 0494 50       		.byte	0x50
 3914 0495 0C000000 		.4byte	.LVL27
 3915 0499 38000000 		.4byte	.LVL31
 3916 049d 0100     		.2byte	0x1
 3917 049f 54       		.byte	0x54
 3918 04a0 38000000 		.4byte	.LVL31
 3919 04a4 40000000 		.4byte	.LFE49
 3920 04a8 0400     		.2byte	0x4
 3921 04aa F3       		.byte	0xf3
 3922 04ab 01       		.uleb128 0x1
 3923 04ac 50       		.byte	0x50
ARM GAS  C:\Users\3130\AppData\Local\Temp\ccJU1WQ2.s 			page 70


 3924 04ad 9F       		.byte	0x9f
 3925 04ae 00000000 		.4byte	0
 3926 04b2 00000000 		.4byte	0
 3927              	.LLST33:
 3928 04b6 00000000 		.4byte	.LVL25
 3929 04ba 0E000000 		.4byte	.LVL28
 3930 04be 0100     		.2byte	0x1
 3931 04c0 51       		.byte	0x51
 3932 04c1 0E000000 		.4byte	.LVL28
 3933 04c5 23000000 		.4byte	.LVL29-1
 3934 04c9 0100     		.2byte	0x1
 3935 04cb 53       		.byte	0x53
 3936 04cc 23000000 		.4byte	.LVL29-1
 3937 04d0 40000000 		.4byte	.LFE49
 3938 04d4 0400     		.2byte	0x4
 3939 04d6 F3       		.byte	0xf3
 3940 04d7 01       		.uleb128 0x1
 3941 04d8 51       		.byte	0x51
 3942 04d9 9F       		.byte	0x9f
 3943 04da 00000000 		.4byte	0
 3944 04de 00000000 		.4byte	0
 3945              	.LLST34:
 3946 04e2 00000000 		.4byte	.LVL25
 3947 04e6 06000000 		.4byte	.LVL26
 3948 04ea 0100     		.2byte	0x1
 3949 04ec 52       		.byte	0x52
 3950 04ed 06000000 		.4byte	.LVL26
 3951 04f1 38000000 		.4byte	.LVL32
 3952 04f5 0100     		.2byte	0x1
 3953 04f7 55       		.byte	0x55
 3954 04f8 38000000 		.4byte	.LVL32
 3955 04fc 40000000 		.4byte	.LFE49
 3956 0500 0400     		.2byte	0x4
 3957 0502 F3       		.byte	0xf3
 3958 0503 01       		.uleb128 0x1
 3959 0504 52       		.byte	0x52
 3960 0505 9F       		.byte	0x9f
 3961 0506 00000000 		.4byte	0
 3962 050a 00000000 		.4byte	0
 3963              	.LLST35:
 3964 050e 00000000 		.4byte	.LFB50
 3965 0512 02000000 		.4byte	.LCFI11
 3966 0516 0200     		.2byte	0x2
 3967 0518 7D       		.byte	0x7d
 3968 0519 00       		.sleb128 0
 3969 051a 02000000 		.4byte	.LCFI11
 3970 051e 12000000 		.4byte	.LFE50
 3971 0522 0200     		.2byte	0x2
 3972 0524 7D       		.byte	0x7d
 3973 0525 08       		.sleb128 8
 3974 0526 00000000 		.4byte	0
 3975 052a 00000000 		.4byte	0
 3976              	.LLST36:
 3977 052e 00000000 		.4byte	.LVL33
 3978 0532 09000000 		.4byte	.LVL34-1
 3979 0536 0100     		.2byte	0x1
 3980 0538 50       		.byte	0x50
ARM GAS  C:\Users\3130\AppData\Local\Temp\ccJU1WQ2.s 			page 71


 3981 0539 09000000 		.4byte	.LVL34-1
 3982 053d 10000000 		.4byte	.LVL35
 3983 0541 0100     		.2byte	0x1
 3984 0543 54       		.byte	0x54
 3985 0544 10000000 		.4byte	.LVL35
 3986 0548 12000000 		.4byte	.LFE50
 3987 054c 0400     		.2byte	0x4
 3988 054e F3       		.byte	0xf3
 3989 054f 01       		.uleb128 0x1
 3990 0550 50       		.byte	0x50
 3991 0551 9F       		.byte	0x9f
 3992 0552 00000000 		.4byte	0
 3993 0556 00000000 		.4byte	0
 3994              	.LLST37:
 3995 055a 00000000 		.4byte	.LVL33
 3996 055e 09000000 		.4byte	.LVL34-1
 3997 0562 0100     		.2byte	0x1
 3998 0564 51       		.byte	0x51
 3999 0565 09000000 		.4byte	.LVL34-1
 4000 0569 12000000 		.4byte	.LFE50
 4001 056d 0400     		.2byte	0x4
 4002 056f F3       		.byte	0xf3
 4003 0570 01       		.uleb128 0x1
 4004 0571 51       		.byte	0x51
 4005 0572 9F       		.byte	0x9f
 4006 0573 00000000 		.4byte	0
 4007 0577 00000000 		.4byte	0
 4008              	.LLST38:
 4009 057b 00000000 		.4byte	.LFB51
 4010 057f 02000000 		.4byte	.LCFI12
 4011 0583 0200     		.2byte	0x2
 4012 0585 7D       		.byte	0x7d
 4013 0586 00       		.sleb128 0
 4014 0587 02000000 		.4byte	.LCFI12
 4015 058b 26000000 		.4byte	.LFE51
 4016 058f 0200     		.2byte	0x2
 4017 0591 7D       		.byte	0x7d
 4018 0592 08       		.sleb128 8
 4019 0593 00000000 		.4byte	0
 4020 0597 00000000 		.4byte	0
 4021              	.LLST39:
 4022 059b 00000000 		.4byte	.LVL36
 4023 059f 09000000 		.4byte	.LVL37-1
 4024 05a3 0100     		.2byte	0x1
 4025 05a5 50       		.byte	0x50
 4026 05a6 09000000 		.4byte	.LVL37-1
 4027 05aa 24000000 		.4byte	.LVL41
 4028 05ae 0100     		.2byte	0x1
 4029 05b0 54       		.byte	0x54
 4030 05b1 24000000 		.4byte	.LVL41
 4031 05b5 26000000 		.4byte	.LFE51
 4032 05b9 0400     		.2byte	0x4
 4033 05bb F3       		.byte	0xf3
 4034 05bc 01       		.uleb128 0x1
 4035 05bd 50       		.byte	0x50
 4036 05be 9F       		.byte	0x9f
 4037 05bf 00000000 		.4byte	0
ARM GAS  C:\Users\3130\AppData\Local\Temp\ccJU1WQ2.s 			page 72


 4038 05c3 00000000 		.4byte	0
 4039              	.LLST40:
 4040 05c7 00000000 		.4byte	.LFB52
 4041 05cb 02000000 		.4byte	.LCFI13
 4042 05cf 0200     		.2byte	0x2
 4043 05d1 7D       		.byte	0x7d
 4044 05d2 00       		.sleb128 0
 4045 05d3 02000000 		.4byte	.LCFI13
 4046 05d7 3C000000 		.4byte	.LFE52
 4047 05db 0200     		.2byte	0x2
 4048 05dd 7D       		.byte	0x7d
 4049 05de 10       		.sleb128 16
 4050 05df 00000000 		.4byte	0
 4051 05e3 00000000 		.4byte	0
 4052              	.LLST41:
 4053 05e7 00000000 		.4byte	.LVL42
 4054 05eb 10000000 		.4byte	.LVL43
 4055 05ef 0100     		.2byte	0x1
 4056 05f1 50       		.byte	0x50
 4057 05f2 10000000 		.4byte	.LVL43
 4058 05f6 1A000000 		.4byte	.LVL46
 4059 05fa 0100     		.2byte	0x1
 4060 05fc 54       		.byte	0x54
 4061 05fd 1A000000 		.4byte	.LVL46
 4062 0601 1C000000 		.4byte	.LVL47
 4063 0605 0400     		.2byte	0x4
 4064 0607 F3       		.byte	0xf3
 4065 0608 01       		.uleb128 0x1
 4066 0609 50       		.byte	0x50
 4067 060a 9F       		.byte	0x9f
 4068 060b 1C000000 		.4byte	.LVL47
 4069 060f 1E000000 		.4byte	.LVL48
 4070 0613 0100     		.2byte	0x1
 4071 0615 50       		.byte	0x50
 4072 0616 1E000000 		.4byte	.LVL48
 4073 061a 3C000000 		.4byte	.LFE52
 4074 061e 0100     		.2byte	0x1
 4075 0620 54       		.byte	0x54
 4076 0621 00000000 		.4byte	0
 4077 0625 00000000 		.4byte	0
 4078              	.LLST42:
 4079 0629 00000000 		.4byte	.LVL42
 4080 062d 12000000 		.4byte	.LVL44
 4081 0631 0100     		.2byte	0x1
 4082 0633 51       		.byte	0x51
 4083 0634 12000000 		.4byte	.LVL44
 4084 0638 1C000000 		.4byte	.LVL47
 4085 063c 0400     		.2byte	0x4
 4086 063e F3       		.byte	0xf3
 4087 063f 01       		.uleb128 0x1
 4088 0640 51       		.byte	0x51
 4089 0641 9F       		.byte	0x9f
 4090 0642 1C000000 		.4byte	.LVL47
 4091 0646 20000000 		.4byte	.LVL49
 4092 064a 0100     		.2byte	0x1
 4093 064c 51       		.byte	0x51
 4094 064d 20000000 		.4byte	.LVL49
ARM GAS  C:\Users\3130\AppData\Local\Temp\ccJU1WQ2.s 			page 73


 4095 0651 3C000000 		.4byte	.LFE52
 4096 0655 0400     		.2byte	0x4
 4097 0657 F3       		.byte	0xf3
 4098 0658 01       		.uleb128 0x1
 4099 0659 51       		.byte	0x51
 4100 065a 9F       		.byte	0x9f
 4101 065b 00000000 		.4byte	0
 4102 065f 00000000 		.4byte	0
 4103              	.LLST43:
 4104 0663 00000000 		.4byte	.LFB53
 4105 0667 02000000 		.4byte	.LCFI14
 4106 066b 0200     		.2byte	0x2
 4107 066d 7D       		.byte	0x7d
 4108 066e 00       		.sleb128 0
 4109 066f 02000000 		.4byte	.LCFI14
 4110 0673 1C000000 		.4byte	.LFE53
 4111 0677 0200     		.2byte	0x2
 4112 0679 7D       		.byte	0x7d
 4113 067a 10       		.sleb128 16
 4114 067b 00000000 		.4byte	0
 4115 067f 00000000 		.4byte	0
 4116              	.LLST44:
 4117 0683 00000000 		.4byte	.LVL53
 4118 0687 06000000 		.4byte	.LVL54
 4119 068b 0100     		.2byte	0x1
 4120 068d 50       		.byte	0x50
 4121 068e 06000000 		.4byte	.LVL54
 4122 0692 10000000 		.4byte	.LVL59
 4123 0696 0100     		.2byte	0x1
 4124 0698 55       		.byte	0x55
 4125 0699 10000000 		.4byte	.LVL59
 4126 069d 12000000 		.4byte	.LVL60
 4127 06a1 0400     		.2byte	0x4
 4128 06a3 F3       		.byte	0xf3
 4129 06a4 01       		.uleb128 0x1
 4130 06a5 50       		.byte	0x50
 4131 06a6 9F       		.byte	0x9f
 4132 06a7 12000000 		.4byte	.LVL60
 4133 06ab 1C000000 		.4byte	.LFE53
 4134 06af 0100     		.2byte	0x1
 4135 06b1 55       		.byte	0x55
 4136 06b2 00000000 		.4byte	0
 4137 06b6 00000000 		.4byte	0
 4138              	.LLST45:
 4139 06ba 0C000000 		.4byte	.LVL56
 4140 06be 0E000000 		.4byte	.LVL57
 4141 06c2 0100     		.2byte	0x1
 4142 06c4 50       		.byte	0x50
 4143 06c5 0E000000 		.4byte	.LVL57
 4144 06c9 10000000 		.4byte	.LVL58
 4145 06cd 0100     		.2byte	0x1
 4146 06cf 54       		.byte	0x54
 4147 06d0 10000000 		.4byte	.LVL58
 4148 06d4 14000000 		.4byte	.LVL61
 4149 06d8 0100     		.2byte	0x1
 4150 06da 50       		.byte	0x50
 4151 06db 14000000 		.4byte	.LVL61
ARM GAS  C:\Users\3130\AppData\Local\Temp\ccJU1WQ2.s 			page 74


 4152 06df 1C000000 		.4byte	.LFE53
 4153 06e3 0100     		.2byte	0x1
 4154 06e5 54       		.byte	0x54
 4155 06e6 00000000 		.4byte	0
 4156 06ea 00000000 		.4byte	0
 4157              		.section	.debug_aranges,"",%progbits
 4158 0000 84000000 		.4byte	0x84
 4159 0004 0200     		.2byte	0x2
 4160 0006 00000000 		.4byte	.Ldebug_info0
 4161 000a 04       		.byte	0x4
 4162 000b 00       		.byte	0
 4163 000c 0000     		.2byte	0
 4164 000e 0000     		.2byte	0
 4165 0010 00000000 		.4byte	.LFB47
 4166 0014 0A000000 		.4byte	.LFE47-.LFB47
 4167 0018 00000000 		.4byte	.LFB41
 4168 001c 0E000000 		.4byte	.LFE41-.LFB41
 4169 0020 00000000 		.4byte	.LFB46
 4170 0024 0A000000 		.4byte	.LFE46-.LFB46
 4171 0028 00000000 		.4byte	.LFB40
 4172 002c 0E000000 		.4byte	.LFE40-.LFB40
 4173 0030 00000000 		.4byte	.LFB45
 4174 0034 0A000000 		.4byte	.LFE45-.LFB45
 4175 0038 00000000 		.4byte	.LFB43
 4176 003c 0E000000 		.4byte	.LFE43-.LFB43
 4177 0040 00000000 		.4byte	.LFB44
 4178 0044 0A000000 		.4byte	.LFE44-.LFB44
 4179 0048 00000000 		.4byte	.LFB42
 4180 004c 0E000000 		.4byte	.LFE42-.LFB42
 4181 0050 00000000 		.4byte	.LFB48
 4182 0054 08000000 		.4byte	.LFE48-.LFB48
 4183 0058 00000000 		.4byte	.LFB49
 4184 005c 40000000 		.4byte	.LFE49-.LFB49
 4185 0060 00000000 		.4byte	.LFB50
 4186 0064 12000000 		.4byte	.LFE50-.LFB50
 4187 0068 00000000 		.4byte	.LFB51
 4188 006c 26000000 		.4byte	.LFE51-.LFB51
 4189 0070 00000000 		.4byte	.LFB52
 4190 0074 3C000000 		.4byte	.LFE52-.LFB52
 4191 0078 00000000 		.4byte	.LFB53
 4192 007c 1C000000 		.4byte	.LFE53-.LFB53
 4193 0080 00000000 		.4byte	0
 4194 0084 00000000 		.4byte	0
 4195              		.section	.debug_ranges,"",%progbits
 4196              	.Ldebug_ranges0:
 4197 0000 00000000 		.4byte	.LFB47
 4198 0004 0A000000 		.4byte	.LFE47
 4199 0008 00000000 		.4byte	.LFB41
 4200 000c 0E000000 		.4byte	.LFE41
 4201 0010 00000000 		.4byte	.LFB46
 4202 0014 0A000000 		.4byte	.LFE46
 4203 0018 00000000 		.4byte	.LFB40
 4204 001c 0E000000 		.4byte	.LFE40
 4205 0020 00000000 		.4byte	.LFB45
 4206 0024 0A000000 		.4byte	.LFE45
 4207 0028 00000000 		.4byte	.LFB43
 4208 002c 0E000000 		.4byte	.LFE43
ARM GAS  C:\Users\3130\AppData\Local\Temp\ccJU1WQ2.s 			page 75


 4209 0030 00000000 		.4byte	.LFB44
 4210 0034 0A000000 		.4byte	.LFE44
 4211 0038 00000000 		.4byte	.LFB42
 4212 003c 0E000000 		.4byte	.LFE42
 4213 0040 00000000 		.4byte	.LFB48
 4214 0044 08000000 		.4byte	.LFE48
 4215 0048 00000000 		.4byte	.LFB49
 4216 004c 40000000 		.4byte	.LFE49
 4217 0050 00000000 		.4byte	.LFB50
 4218 0054 12000000 		.4byte	.LFE50
 4219 0058 00000000 		.4byte	.LFB51
 4220 005c 26000000 		.4byte	.LFE51
 4221 0060 00000000 		.4byte	.LFB52
 4222 0064 3C000000 		.4byte	.LFE52
 4223 0068 00000000 		.4byte	.LFB53
 4224 006c 1C000000 		.4byte	.LFE53
 4225 0070 00000000 		.4byte	0
 4226 0074 00000000 		.4byte	0
 4227              		.section	.debug_line,"",%progbits
 4228              	.Ldebug_line0:
 4229 0000 A9030000 		.section	.debug_str,"MS",%progbits,1
 4229      02008A02 
 4229      00000201 
 4229      FB0E0D00 
 4229      01010101 
 4230              	.LASF46:
 4231 0000 54687265 		.ascii	"ThreadsList\000"
 4231      6164734C 
 4231      69737400 
 4232              	.LASF38:
 4233 000c 705F7761 		.ascii	"p_waiting\000"
 4233      6974696E 
 4233      6700
 4234              	.LASF132:
 4235 0016 474E5520 		.ascii	"GNU C 4.7.4 20130913 (prerelease)\000"
 4235      4320342E 
 4235      372E3420 
 4235      32303133 
 4235      30393133 
 4236              	.LASF91:
 4237 0038 53657269 		.ascii	"SerialDriver\000"
 4237      616C4472 
 4237      69766572 
 4237      00
 4238              	.LASF109:
 4239 0045 7364496E 		.ascii	"sdInit\000"
 4239      697400
 4240              	.LASF37:
 4241 004c 705F7469 		.ascii	"p_time\000"
 4241      6D6500
 4242              	.LASF119:
 4243 0053 63684951 		.ascii	"chIQGetTimeout\000"
 4243      47657454 
 4243      696D656F 
 4243      757400
 4244              	.LASF47:
 4245 0062 72656761 		.ascii	"regarm_t\000"
ARM GAS  C:\Users\3130\AppData\Local\Temp\ccJU1WQ2.s 			page 76


 4245      726D5F74 
 4245      00
 4246              	.LASF28:
 4247 006b 705F7072 		.ascii	"p_prio\000"
 4247      696F00
 4248              	.LASF24:
 4249 0072 73797374 		.ascii	"systime_t\000"
 4249      696D655F 
 4249      7400
 4250              	.LASF53:
 4251 007c 6D5F6F77 		.ascii	"m_owner\000"
 4251      6E657200 
 4252              	.LASF39:
 4253 0084 705F6D73 		.ascii	"p_msgqueue\000"
 4253      67717565 
 4253      756500
 4254              	.LASF0:
 4255 008f 756E7369 		.ascii	"unsigned int\000"
 4255      676E6564 
 4255      20696E74 
 4255      00
 4256              	.LASF134:
 4257 009c 433A5C73 		.ascii	"C:\\stm32f0-Discovery_Tools\\Projects\\ChibiOS_Temp"
 4257      746D3332 
 4257      66302D44 
 4257      6973636F 
 4257      76657279 
 4258 00cc 6C617465 		.ascii	"late\000"
 4258      00
 4259              	.LASF117:
 4260 00d1 63684951 		.ascii	"chIQReadTimeout\000"
 4260      52656164 
 4260      54696D65 
 4260      6F757400 
 4261              	.LASF121:
 4262 00e1 63684951 		.ascii	"chIQInit\000"
 4262      496E6974 
 4262      00
 4263              	.LASF73:
 4264 00ea 715F7264 		.ascii	"q_rdptr\000"
 4264      70747200 
 4265              	.LASF76:
 4266 00f2 716E6F74 		.ascii	"qnotify_t\000"
 4266      6966795F 
 4266      7400
 4267              	.LASF58:
 4268 00fc 656C5F6D 		.ascii	"el_mask\000"
 4268      61736B00 
 4269              	.LASF64:
 4270 0104 77746F62 		.ascii	"wtobjp\000"
 4270      6A7000
 4271              	.LASF75:
 4272 010b 715F6C69 		.ascii	"q_link\000"
 4272      6E6B00
 4273              	.LASF110:
 4274 0112 73644F62 		.ascii	"sdObjectInit\000"
 4274      6A656374 
ARM GAS  C:\Users\3130\AppData\Local\Temp\ccJU1WQ2.s 			page 77


 4274      496E6974 
 4274      00
 4275              	.LASF65:
 4276 011f 65776D61 		.ascii	"ewmask\000"
 4276      736B00
 4277              	.LASF116:
 4278 0126 7364496E 		.ascii	"sdIncomingDataI\000"
 4278      636F6D69 
 4278      6E674461 
 4278      74614900 
 4279              	.LASF98:
 4280 0136 73706565 		.ascii	"speed\000"
 4280      6400
 4281              	.LASF105:
 4282 013c 77726974 		.ascii	"writet\000"
 4282      657400
 4283              	.LASF80:
 4284 0143 47545052 		.ascii	"GTPR\000"
 4284      00
 4285              	.LASF94:
 4286 0148 69717565 		.ascii	"iqueue\000"
 4286      756500
 4287              	.LASF10:
 4288 014f 75696E74 		.ascii	"uint32_t\000"
 4288      33325F74 
 4288      00
 4289              	.LASF126:
 4290 0158 63684951 		.ascii	"chIQResetI\000"
 4290      52657365 
 4290      744900
 4291              	.LASF135:
 4292 0163 73645265 		.ascii	"sdRequestDataI\000"
 4292      71756573 
 4292      74446174 
 4292      614900
 4293              	.LASF22:
 4294 0172 6576656E 		.ascii	"eventmask_t\000"
 4294      746D6173 
 4294      6B5F7400 
 4295              	.LASF99:
 4296 017e 53657269 		.ascii	"SerialConfig\000"
 4296      616C436F 
 4296      6E666967 
 4296      00
 4297              	.LASF90:
 4298 018b 73647374 		.ascii	"sdstate_t\000"
 4298      6174655F 
 4298      7400
 4299              	.LASF92:
 4300 0195 6576656E 		.ascii	"event\000"
 4300      7400
 4301              	.LASF20:
 4302 019b 74707269 		.ascii	"tprio_t\000"
 4302      6F5F7400 
 4303              	.LASF13:
 4304 01a3 6C6F6E67 		.ascii	"long long unsigned int\000"
 4304      206C6F6E 
ARM GAS  C:\Users\3130\AppData\Local\Temp\ccJU1WQ2.s 			page 78


 4304      6720756E 
 4304      7369676E 
 4304      65642069 
 4305              	.LASF118:
 4306 01ba 63684F51 		.ascii	"chOQWriteTimeout\000"
 4306      57726974 
 4306      6554696D 
 4306      656F7574 
 4306      00
 4307              	.LASF113:
 4308 01cb 73645374 		.ascii	"sdStart\000"
 4308      61727400 
 4309              	.LASF107:
 4310 01d3 74696D65 		.ascii	"time\000"
 4310      00
 4311              	.LASF30:
 4312 01d8 705F6E65 		.ascii	"p_newer\000"
 4312      77657200 
 4313              	.LASF68:
 4314 01e0 715F7761 		.ascii	"q_waiting\000"
 4314      6974696E 
 4314      6700
 4315              	.LASF103:
 4316 01ea 70757474 		.ascii	"putt\000"
 4316      00
 4317              	.LASF60:
 4318 01ef 4576656E 		.ascii	"EventSource\000"
 4318      74536F75 
 4318      72636500 
 4319              	.LASF2:
 4320 01fb 73697A65 		.ascii	"size_t\000"
 4320      5F7400
 4321              	.LASF62:
 4322 0202 7264796D 		.ascii	"rdymsg\000"
 4322      736700
 4323              	.LASF111:
 4324 0209 696E6F74 		.ascii	"inotify\000"
 4324      69667900 
 4325              	.LASF14:
 4326 0211 626F6F6C 		.ascii	"bool_t\000"
 4326      5F7400
 4327              	.LASF15:
 4328 0218 5F426F6F 		.ascii	"_Bool\000"
 4328      6C00
 4329              	.LASF88:
 4330 021e 53445F53 		.ascii	"SD_STOP\000"
 4330      544F5000 
 4331              	.LASF86:
 4332 0226 55534152 		.ascii	"USART_TypeDef\000"
 4332      545F5479 
 4332      70654465 
 4332      6600
 4333              	.LASF128:
 4334 0234 63685363 		.ascii	"chSchRescheduleS\000"
 4334      68526573 
 4334      63686564 
 4334      756C6553 
ARM GAS  C:\Users\3130\AppData\Local\Temp\ccJU1WQ2.s 			page 79


 4334      00
 4335              	.LASF51:
 4336 0245 4D757465 		.ascii	"Mutex\000"
 4336      7800
 4337              	.LASF78:
 4338 024b 4F757470 		.ascii	"OutputQueue\000"
 4338      75745175 
 4338      65756500 
 4339              	.LASF74:
 4340 0257 715F6E6F 		.ascii	"q_notify\000"
 4340      74696679 
 4340      00
 4341              	.LASF97:
 4342 0260 636C6F63 		.ascii	"clock\000"
 4342      6B00
 4343              	.LASF32:
 4344 0266 705F6E61 		.ascii	"p_name\000"
 4344      6D6500
 4345              	.LASF77:
 4346 026d 496E7075 		.ascii	"InputQueue\000"
 4346      74517565 
 4346      756500
 4347              	.LASF45:
 4348 0278 54687265 		.ascii	"ThreadsQueue\000"
 4348      61647351 
 4348      75657565 
 4348      00
 4349              	.LASF66:
 4350 0285 63686172 		.ascii	"char\000"
 4350      00
 4351              	.LASF72:
 4352 028a 715F7772 		.ascii	"q_wrptr\000"
 4352      70747200 
 4353              	.LASF25:
 4354 0292 54687265 		.ascii	"Thread\000"
 4354      616400
 4355              	.LASF17:
 4356 0299 74737461 		.ascii	"tstate_t\000"
 4356      74655F74 
 4356      00
 4357              	.LASF130:
 4358 02a2 63684576 		.ascii	"chEvtBroadcastFlagsI\000"
 4358      7442726F 
 4358      61646361 
 4358      7374466C 
 4358      61677349 
 4359              	.LASF31:
 4360 02b7 705F6F6C 		.ascii	"p_older\000"
 4360      64657200 
 4361              	.LASF33:
 4362 02bf 705F7374 		.ascii	"p_state\000"
 4362      61746500 
 4363              	.LASF3:
 4364 02c7 75696E74 		.ascii	"uint8_t\000"
 4364      385F7400 
 4365              	.LASF23:
 4366 02cf 666C6167 		.ascii	"flagsmask_t\000"
ARM GAS  C:\Users\3130\AppData\Local\Temp\ccJU1WQ2.s 			page 80


 4366      736D6173 
 4366      6B5F7400 
 4367              	.LASF82:
 4368 02db 52544F52 		.ascii	"RTOR\000"
 4368      00
 4369              	.LASF44:
 4370 02e0 705F6D70 		.ascii	"p_mpool\000"
 4370      6F6F6C00 
 4371              	.LASF42:
 4372 02e8 705F6D74 		.ascii	"p_mtxlist\000"
 4372      786C6973 
 4372      7400
 4373              	.LASF96:
 4374 02f2 75736172 		.ascii	"usart\000"
 4374      7400
 4375              	.LASF12:
 4376 02f8 6C6F6E67 		.ascii	"long long int\000"
 4376      206C6F6E 
 4376      6720696E 
 4376      7400
 4377              	.LASF101:
 4378 0306 77726974 		.ascii	"write\000"
 4378      6500
 4379              	.LASF70:
 4380 030c 715F6275 		.ascii	"q_buffer\000"
 4380      66666572 
 4380      00
 4381              	.LASF21:
 4382 0315 6D73675F 		.ascii	"msg_t\000"
 4382      7400
 4383              	.LASF124:
 4384 031b 73645F6C 		.ascii	"sd_lld_stop\000"
 4384      6C645F73 
 4384      746F7000 
 4385              	.LASF49:
 4386 0327 636F6E74 		.ascii	"context\000"
 4386      65787400 
 4387              	.LASF34:
 4388 032f 705F666C 		.ascii	"p_flags\000"
 4388      61677300 
 4389              	.LASF115:
 4390 0337 73645374 		.ascii	"sdStop\000"
 4390      6F7000
 4391              	.LASF19:
 4392 033e 74736C69 		.ascii	"tslices_t\000"
 4392      6365735F 
 4392      7400
 4393              	.LASF129:
 4394 0348 63684951 		.ascii	"chIQPutI\000"
 4394      50757449 
 4394      00
 4395              	.LASF123:
 4396 0351 73645F6C 		.ascii	"sd_lld_start\000"
 4396      6C645F73 
 4396      74617274 
 4396      00
 4397              	.LASF56:
ARM GAS  C:\Users\3130\AppData\Local\Temp\ccJU1WQ2.s 			page 81


 4398 035e 656C5F6E 		.ascii	"el_next\000"
 4398      65787400 
 4399              	.LASF40:
 4400 0366 705F6D73 		.ascii	"p_msg\000"
 4400      6700
 4401              	.LASF16:
 4402 036c 746D6F64 		.ascii	"tmode_t\000"
 4402      655F7400 
 4403              	.LASF67:
 4404 0374 47656E65 		.ascii	"GenericQueue\000"
 4404      72696351 
 4404      75657565 
 4404      00
 4405              	.LASF95:
 4406 0381 6F717565 		.ascii	"oqueue\000"
 4406      756500
 4407              	.LASF6:
 4408 0388 75696E74 		.ascii	"uint16_t\000"
 4408      31365F74 
 4408      00
 4409              	.LASF48:
 4410 0391 696E7463 		.ascii	"intctx\000"
 4410      747800
 4411              	.LASF89:
 4412 0398 53445F52 		.ascii	"SD_READY\000"
 4412      45414459 
 4412      00
 4413              	.LASF100:
 4414 03a1 53657269 		.ascii	"SerialDriverVMT\000"
 4414      616C4472 
 4414      69766572 
 4414      564D5400 
 4415              	.LASF114:
 4416 03b1 636F6E66 		.ascii	"config\000"
 4416      696700
 4417              	.LASF43:
 4418 03b8 705F7265 		.ascii	"p_realprio\000"
 4418      616C7072 
 4418      696F00
 4419              	.LASF79:
 4420 03c3 52455345 		.ascii	"RESERVED1\000"
 4420      52564544 
 4420      3100
 4421              	.LASF81:
 4422 03cd 52455345 		.ascii	"RESERVED2\000"
 4422      52564544 
 4422      3200
 4423              	.LASF83:
 4424 03d7 52455345 		.ascii	"RESERVED3\000"
 4424      52564544 
 4424      3300
 4425              	.LASF84:
 4426 03e1 52455345 		.ascii	"RESERVED4\000"
 4426      52564544 
 4426      3400
 4427              	.LASF85:
 4428 03eb 52455345 		.ascii	"RESERVED5\000"
ARM GAS  C:\Users\3130\AppData\Local\Temp\ccJU1WQ2.s 			page 82


 4428      52564544 
 4428      3500
 4429              	.LASF5:
 4430 03f5 73686F72 		.ascii	"short int\000"
 4430      7420696E 
 4430      7400
 4431              	.LASF41:
 4432 03ff 705F6570 		.ascii	"p_epending\000"
 4432      656E6469 
 4432      6E6700
 4433              	.LASF52:
 4434 040a 6D5F7175 		.ascii	"m_queue\000"
 4434      65756500 
 4435              	.LASF9:
 4436 0412 6C6F6E67 		.ascii	"long int\000"
 4436      20696E74 
 4436      00
 4437              	.LASF112:
 4438 041b 6F6E6F74 		.ascii	"onotify\000"
 4438      69667900 
 4439              	.LASF26:
 4440 0423 705F6E65 		.ascii	"p_next\000"
 4440      787400
 4441              	.LASF29:
 4442 042a 705F6374 		.ascii	"p_ctx\000"
 4442      7800
 4443              	.LASF102:
 4444 0430 72656164 		.ascii	"read\000"
 4444      00
 4445              	.LASF57:
 4446 0435 656C5F6C 		.ascii	"el_listener\000"
 4446      69737465 
 4446      6E657200 
 4447              	.LASF87:
 4448 0441 53445F55 		.ascii	"SD_UNINIT\000"
 4448      4E494E49 
 4448      5400
 4449              	.LASF131:
 4450 044b 63684F51 		.ascii	"chOQGetI\000"
 4450      47657449 
 4450      00
 4451              	.LASF69:
 4452 0454 715F636F 		.ascii	"q_counter\000"
 4452      756E7465 
 4452      7200
 4453              	.LASF104:
 4454 045e 67657474 		.ascii	"gett\000"
 4454      00
 4455              	.LASF71:
 4456 0463 715F746F 		.ascii	"q_top\000"
 4456      7000
 4457              	.LASF27:
 4458 0469 705F7072 		.ascii	"p_prev\000"
 4458      657600
 4459              	.LASF50:
 4460 0470 73697A65 		.ascii	"sizetype\000"
 4460      74797065 
ARM GAS  C:\Users\3130\AppData\Local\Temp\ccJU1WQ2.s 			page 83


 4460      00
 4461              	.LASF18:
 4462 0479 74726566 		.ascii	"trefs_t\000"
 4462      735F7400 
 4463              	.LASF55:
 4464 0481 4576656E 		.ascii	"EventListener\000"
 4464      744C6973 
 4464      74656E65 
 4464      7200
 4465              	.LASF11:
 4466 048f 6C6F6E67 		.ascii	"long unsigned int\000"
 4466      20756E73 
 4466      69676E65 
 4466      6420696E 
 4466      7400
 4467              	.LASF8:
 4468 04a1 696E7433 		.ascii	"int32_t\000"
 4468      325F7400 
 4469              	.LASF122:
 4470 04a9 63684F51 		.ascii	"chOQInit\000"
 4470      496E6974 
 4470      00
 4471              	.LASF4:
 4472 04b2 756E7369 		.ascii	"unsigned char\000"
 4472      676E6564 
 4472      20636861 
 4472      7200
 4473              	.LASF35:
 4474 04c0 705F7265 		.ascii	"p_refs\000"
 4474      667300
 4475              	.LASF108:
 4476 04c7 74696D65 		.ascii	"timeout\000"
 4476      6F757400 
 4477              	.LASF120:
 4478 04cf 63684F51 		.ascii	"chOQPutTimeout\000"
 4478      50757454 
 4478      696D656F 
 4478      757400
 4479              	.LASF36:
 4480 04de 705F7072 		.ascii	"p_preempt\000"
 4480      65656D70 
 4480      7400
 4481              	.LASF61:
 4482 04e8 65735F6E 		.ascii	"es_next\000"
 4482      65787400 
 4483              	.LASF93:
 4484 04f0 73746174 		.ascii	"state\000"
 4484      6500
 4485              	.LASF54:
 4486 04f6 6D5F6E65 		.ascii	"m_next\000"
 4486      787400
 4487              	.LASF1:
 4488 04fd 7369676E 		.ascii	"signed char\000"
 4488      65642063 
 4488      68617200 
 4489              	.LASF106:
 4490 0509 72656164 		.ascii	"readt\000"
ARM GAS  C:\Users\3130\AppData\Local\Temp\ccJU1WQ2.s 			page 84


 4490      7400
 4491              	.LASF7:
 4492 050f 73686F72 		.ascii	"short unsigned int\000"
 4492      7420756E 
 4492      7369676E 
 4492      65642069 
 4492      6E7400
 4493              	.LASF133:
 4494 0522 2E2E2F2E 		.ascii	"../../ChibiOS_2.6.1/os/hal/src/serial.c\000"
 4494      2E2F4368 
 4494      6962694F 
 4494      535F322E 
 4494      362E312F 
 4495              	.LASF125:
 4496 054a 63684F51 		.ascii	"chOQResetI\000"
 4496      52657365 
 4496      744900
 4497              	.LASF127:
 4498 0555 73645F6C 		.ascii	"sd_lld_init\000"
 4498      6C645F69 
 4498      6E697400 
 4499              	.LASF59:
 4500 0561 656C5F66 		.ascii	"el_flags\000"
 4500      6C616773 
 4500      00
 4501              	.LASF63:
 4502 056a 65786974 		.ascii	"exitcode\000"
 4502      636F6465 
 4502      00
 4503              		.ident	"GCC: (GNU Tools for ARM Embedded Processors / bleeding-edge-toolchain-131005) 4.7.4 201309
ARM GAS  C:\Users\3130\AppData\Local\Temp\ccJU1WQ2.s 			page 85


DEFINED SYMBOLS
                            *ABS*:00000000 serial.c
C:\Users\3130\AppData\Local\Temp\ccJU1WQ2.s:18     .text.readt:00000000 $t
C:\Users\3130\AppData\Local\Temp\ccJU1WQ2.s:23     .text.readt:00000000 readt
C:\Users\3130\AppData\Local\Temp\ccJU1WQ2.s:46     .text.read:00000000 $t
C:\Users\3130\AppData\Local\Temp\ccJU1WQ2.s:51     .text.read:00000000 read
C:\Users\3130\AppData\Local\Temp\ccJU1WQ2.s:75     .text.writet:00000000 $t
C:\Users\3130\AppData\Local\Temp\ccJU1WQ2.s:80     .text.writet:00000000 writet
C:\Users\3130\AppData\Local\Temp\ccJU1WQ2.s:102    .text.write:00000000 $t
C:\Users\3130\AppData\Local\Temp\ccJU1WQ2.s:107    .text.write:00000000 write
C:\Users\3130\AppData\Local\Temp\ccJU1WQ2.s:131    .text.gett:00000000 $t
C:\Users\3130\AppData\Local\Temp\ccJU1WQ2.s:136    .text.gett:00000000 gett
C:\Users\3130\AppData\Local\Temp\ccJU1WQ2.s:158    .text.get:00000000 $t
C:\Users\3130\AppData\Local\Temp\ccJU1WQ2.s:163    .text.get:00000000 get
C:\Users\3130\AppData\Local\Temp\ccJU1WQ2.s:187    .text.putt:00000000 $t
C:\Users\3130\AppData\Local\Temp\ccJU1WQ2.s:192    .text.putt:00000000 putt
C:\Users\3130\AppData\Local\Temp\ccJU1WQ2.s:214    .text.put:00000000 $t
C:\Users\3130\AppData\Local\Temp\ccJU1WQ2.s:219    .text.put:00000000 put
C:\Users\3130\AppData\Local\Temp\ccJU1WQ2.s:243    .text.sdInit:00000000 $t
C:\Users\3130\AppData\Local\Temp\ccJU1WQ2.s:249    .text.sdInit:00000000 sdInit
C:\Users\3130\AppData\Local\Temp\ccJU1WQ2.s:268    .text.sdObjectInit:00000000 $t
C:\Users\3130\AppData\Local\Temp\ccJU1WQ2.s:274    .text.sdObjectInit:00000000 sdObjectInit
C:\Users\3130\AppData\Local\Temp\ccJU1WQ2.s:334    .text.sdObjectInit:0000003c $d
C:\Users\3130\AppData\Local\Temp\ccJU1WQ2.s:339    .text.sdStart:00000000 $t
C:\Users\3130\AppData\Local\Temp\ccJU1WQ2.s:345    .text.sdStart:00000000 sdStart
C:\Users\3130\AppData\Local\Temp\ccJU1WQ2.s:381    .text.sdStop:00000000 $t
C:\Users\3130\AppData\Local\Temp\ccJU1WQ2.s:387    .text.sdStop:00000000 sdStop
C:\Users\3130\AppData\Local\Temp\ccJU1WQ2.s:438    .text.sdIncomingDataI:00000000 $t
C:\Users\3130\AppData\Local\Temp\ccJU1WQ2.s:444    .text.sdIncomingDataI:00000000 sdIncomingDataI
C:\Users\3130\AppData\Local\Temp\ccJU1WQ2.s:507    .text.sdRequestDataI:00000000 $t
C:\Users\3130\AppData\Local\Temp\ccJU1WQ2.s:513    .text.sdRequestDataI:00000000 sdRequestDataI
C:\Users\3130\AppData\Local\Temp\ccJU1WQ2.s:557    .rodata.vmt:00000000 $d
C:\Users\3130\AppData\Local\Temp\ccJU1WQ2.s:561    .rodata.vmt:00000000 vmt
                     .debug_frame:00000010 $d

UNDEFINED SYMBOLS
chIQReadTimeout
chOQWriteTimeout
chIQGetTimeout
chOQPutTimeout
sd_lld_init
chIQInit
chOQInit
sd_lld_start
sd_lld_stop
chOQResetI
chIQResetI
chSchRescheduleS
chIQPutI
chEvtBroadcastFlagsI
chOQGetI
