ARM GAS  C:\Users\3130\AppData\Local\Temp\ccaeTRwP.s 			page 1


   1              		.cpu cortex-m0
   2              		.fpu softvfp
   3              		.eabi_attribute 20, 1
   4              		.eabi_attribute 21, 1
   5              		.eabi_attribute 23, 3
   6              		.eabi_attribute 24, 1
   7              		.eabi_attribute 25, 1
   8              		.eabi_attribute 26, 1
   9              		.eabi_attribute 30, 2
  10              		.eabi_attribute 34, 0
  11              		.eabi_attribute 18, 4
  12              		.code	16
  13              		.file	"testthd.c"
  14              		.text
  15              	.Ltext0:
  16              		.cfi_sections	.debug_frame
  17              		.section	.text.thd3_execute,"ax",%progbits
  18              		.align	2
  19              		.p2align 4,,15
  20              		.code	16
  21              		.thumb_func
  22              		.type	thd3_execute, %function
  23              	thd3_execute:
  24              	.LFB10:
  25              		.file 1 "../../ChibiOS_2.6.1/test/testthd.c"
  26              		.loc 1 126 0
  27              		.cfi_startproc
  28 0000 F8B5     		push	{r3, r4, r5, r6, r7, lr}
  29              	.LCFI0:
  30              		.cfi_def_cfa_offset 24
  31              		.cfi_offset 3, -24
  32              		.cfi_offset 4, -20
  33              		.cfi_offset 5, -16
  34              		.cfi_offset 6, -12
  35              		.cfi_offset 7, -8
  36              		.cfi_offset 14, -4
  37              		.loc 1 129 0
  38 0002 434E     		ldr	r6, .L7
  39 0004 B369     		ldr	r3, [r6, #24]
  40 0006 9C68     		ldr	r4, [r3, #8]
  41              	.LVL0:
  42              		.loc 1 130 0
  43 0008 651C     		add	r5, r4, #1
  44 000a 281C     		mov	r0, r5
  45 000c FFF7FEFF 		bl	chThdSetPriority
  46              	.LVL1:
  47              		.loc 1 131 0
  48 0010 011B     		sub	r1, r0, r4
  49              		.loc 1 130 0
  50 0012 071C     		mov	r7, r0
  51              	.LVL2:
  52              		.loc 1 131 0
  53 0014 4B42     		neg	r3, r1
  54 0016 5941     		adc	r1, r1, r3
  55 0018 0120     		mov	r0, #1
  56              	.LVL3:
  57 001a FFF7FEFF 		bl	_test_assert
ARM GAS  C:\Users\3130\AppData\Local\Temp\ccaeTRwP.s 			page 2


  58              	.LVL4:
  59 001e 0028     		cmp	r0, #0
  60 0020 00D0     		beq	.L6
  61              	.LVL5:
  62              	.L1:
  63              		.loc 1 172 0
  64              		@ sp needed for prologue
  65              	.LVL6:
  66 0022 F8BD     		pop	{r3, r4, r5, r6, r7, pc}
  67              	.LVL7:
  68              	.L6:
  69              		.loc 1 133 0
  70 0024 B069     		ldr	r0, [r6, #24]
  71 0026 8168     		ldr	r1, [r0, #8]
  72 0028 0220     		mov	r0, #2
  73 002a 691A     		sub	r1, r5, r1
  74 002c 4B42     		neg	r3, r1
  75 002e 5941     		adc	r1, r1, r3
  76 0030 FFF7FEFF 		bl	_test_assert
  77              	.LVL8:
  78 0034 0028     		cmp	r0, #0
  79 0036 F4D1     		bne	.L1
  80              		.loc 1 135 0
  81 0038 381C     		mov	r0, r7
  82 003a FFF7FEFF 		bl	chThdSetPriority
  83              	.LVL9:
  84              		.loc 1 136 0
  85 003e 291A     		sub	r1, r5, r0
  86 0040 4B42     		neg	r3, r1
  87 0042 5941     		adc	r1, r1, r3
  88 0044 0320     		mov	r0, #3
  89              	.LVL10:
  90 0046 FFF7FEFF 		bl	_test_assert
  91              	.LVL11:
  92 004a 0028     		cmp	r0, #0
  93 004c E9D1     		bne	.L1
  94              		.loc 1 138 0
  95 004e B269     		ldr	r2, [r6, #24]
  96 0050 0420     		mov	r0, #4
  97 0052 9368     		ldr	r3, [r2, #8]
  98 0054 191B     		sub	r1, r3, r4
  99 0056 4B42     		neg	r3, r1
 100 0058 5941     		adc	r1, r1, r3
 101 005a FFF7FEFF 		bl	_test_assert
 102              	.LVL12:
 103 005e 0028     		cmp	r0, #0
 104 0060 DFD1     		bne	.L1
 105              		.loc 1 143 0
 106              	@ 143 "../../ChibiOS_2.6.1/test/testthd.c" 1
 107 0062 72B6     		cpsid   i
 108              	@ 0 "" 2
 109              		.loc 1 144 0
 110              		.code	16
 111 0064 B769     		ldr	r7, [r6, #24]
 112 0066 B868     		ldr	r0, [r7, #8]
 113 0068 0230     		add	r0, r0, #2
 114 006a B860     		str	r0, [r7, #8]
ARM GAS  C:\Users\3130\AppData\Local\Temp\ccaeTRwP.s 			page 3


 115              		.loc 1 145 0
 116              	@ 145 "../../ChibiOS_2.6.1/test/testthd.c" 1
 117 006c 62B6     		cpsie   i
 118              	@ 0 "" 2
 119              		.loc 1 146 0
 120              		.code	16
 121 006e B169     		ldr	r1, [r6, #24]
 122 0070 A71C     		add	r7, r4, #2
 123 0072 8A68     		ldr	r2, [r1, #8]
 124 0074 0520     		mov	r0, #5
 125 0076 D11B     		sub	r1, r2, r7
 126 0078 4B42     		neg	r3, r1
 127 007a 5941     		adc	r1, r1, r3
 128 007c FFF7FEFF 		bl	_test_assert
 129              	.LVL13:
 130 0080 0028     		cmp	r0, #0
 131 0082 CED1     		bne	.L1
 132              		.loc 1 150 0
 133 0084 281C     		mov	r0, r5
 134 0086 FFF7FEFF 		bl	chThdSetPriority
 135              	.LVL14:
 136              		.loc 1 151 0
 137 008a 011B     		sub	r1, r0, r4
 138 008c 4B42     		neg	r3, r1
 139 008e 5941     		adc	r1, r1, r3
 140 0090 0620     		mov	r0, #6
 141              	.LVL15:
 142 0092 FFF7FEFF 		bl	_test_assert
 143              	.LVL16:
 144 0096 0028     		cmp	r0, #0
 145 0098 C3D1     		bne	.L1
 146              		.loc 1 153 0
 147 009a B369     		ldr	r3, [r6, #24]
 148 009c 9868     		ldr	r0, [r3, #8]
 149 009e 391A     		sub	r1, r7, r0
 150 00a0 4F42     		neg	r7, r1
 151 00a2 7941     		adc	r1, r1, r7
 152 00a4 0720     		mov	r0, #7
 153 00a6 FFF7FEFF 		bl	_test_assert
 154              	.LVL17:
 155 00aa 0028     		cmp	r0, #0
 156 00ac B9D1     		bne	.L1
 157              		.loc 1 155 0
 158 00ae B769     		ldr	r7, [r6, #24]
 159 00b0 0820     		mov	r0, #8
 160 00b2 396C     		ldr	r1, [r7, #64]
 161 00b4 691A     		sub	r1, r5, r1
 162 00b6 4B42     		neg	r3, r1
 163 00b8 5941     		adc	r1, r1, r3
 164 00ba FFF7FEFF 		bl	_test_assert
 165              	.LVL18:
 166 00be 0028     		cmp	r0, #0
 167 00c0 AFD1     		bne	.L1
 168              		.loc 1 159 0
 169 00c2 E71C     		add	r7, r4, #3
 170 00c4 381C     		mov	r0, r7
 171 00c6 FFF7FEFF 		bl	chThdSetPriority
ARM GAS  C:\Users\3130\AppData\Local\Temp\ccaeTRwP.s 			page 4


 172              	.LVL19:
 173              		.loc 1 160 0
 174 00ca 291A     		sub	r1, r5, r0
 175 00cc 4D42     		neg	r5, r1
 176 00ce 6941     		adc	r1, r1, r5
 177 00d0 0920     		mov	r0, #9
 178              	.LVL20:
 179 00d2 FFF7FEFF 		bl	_test_assert
 180              	.LVL21:
 181 00d6 0028     		cmp	r0, #0
 182 00d8 A3D1     		bne	.L1
 183              		.loc 1 162 0
 184 00da B569     		ldr	r5, [r6, #24]
 185 00dc 0A20     		mov	r0, #10
 186 00de AA68     		ldr	r2, [r5, #8]
 187 00e0 B91A     		sub	r1, r7, r2
 188 00e2 4B42     		neg	r3, r1
 189 00e4 5941     		adc	r1, r1, r3
 190 00e6 FFF7FEFF 		bl	_test_assert
 191              	.LVL22:
 192 00ea 0028     		cmp	r0, #0
 193 00ec 99D1     		bne	.L1
 194              		.loc 1 164 0
 195 00ee B369     		ldr	r3, [r6, #24]
 196 00f0 186C     		ldr	r0, [r3, #64]
 197 00f2 391A     		sub	r1, r7, r0
 198 00f4 4F42     		neg	r7, r1
 199 00f6 7941     		adc	r1, r1, r7
 200 00f8 0B20     		mov	r0, #11
 201 00fa FFF7FEFF 		bl	_test_assert
 202              	.LVL23:
 203 00fe 0028     		cmp	r0, #0
 204 0100 00D0     		beq	.LCB175
 205 0102 8EE7     		b	.L1	@long jump
 206              	.LCB175:
 207              		.loc 1 167 0
 208              	@ 167 "../../ChibiOS_2.6.1/test/testthd.c" 1
 209 0104 72B6     		cpsid   i
 210              	@ 0 "" 2
 211              		.loc 1 168 0
 212              		.code	16
 213 0106 B669     		ldr	r6, [r6, #24]
 214 0108 B460     		str	r4, [r6, #8]
 215              		.loc 1 169 0
 216 010a 3464     		str	r4, [r6, #64]
 217              		.loc 1 170 0
 218              	@ 170 "../../ChibiOS_2.6.1/test/testthd.c" 1
 219 010c 62B6     		cpsie   i
 220              	@ 0 "" 2
 221              		.code	16
 222 010e 88E7     		b	.L1
 223              	.L8:
 224              		.align	2
 225              	.L7:
 226 0110 00000000 		.word	rlist
 227              		.cfi_endproc
 228              	.LFE10:
ARM GAS  C:\Users\3130\AppData\Local\Temp\ccaeTRwP.s 			page 5


 229              		.size	thd3_execute, .-thd3_execute
 230 0114 C046C046 		.section	.text.thd2_execute,"ax",%progbits
 230      C046C046 
 230      C046C046 
 231              		.align	2
 232              		.p2align 4,,15
 233              		.code	16
 234              		.thumb_func
 235              		.type	thd2_execute, %function
 236              	thd2_execute:
 237              	.LFB9:
 238              		.loc 1 94 0
 239              		.cfi_startproc
 240 0000 F0B5     		push	{r4, r5, r6, r7, lr}
 241              	.LCFI1:
 242              		.cfi_def_cfa_offset 20
 243              		.cfi_offset 4, -20
 244              		.cfi_offset 5, -16
 245              		.cfi_offset 6, -12
 246              		.cfi_offset 7, -8
 247              		.cfi_offset 14, -4
 248 0002 4746     		mov	r7, r8
 249 0004 80B4     		push	{r7}
 250              	.LCFI2:
 251              		.cfi_def_cfa_offset 24
 252              		.cfi_offset 8, -24
 253              		.loc 1 96 0
 254 0006 294F     		ldr	r7, .L10
 255 0008 294A     		ldr	r2, .L10+4
 256 000a BB69     		ldr	r3, [r7, #24]
 257 000c 9046     		mov	r8, r2
 258 000e 294D     		ldr	r5, .L10+8
 259 0010 9A68     		ldr	r2, [r3, #8]
 260 0012 2948     		ldr	r0, .L10+12
 261 0014 9826     		mov	r6, #152
 262              		.loc 1 94 0
 263 0016 82B0     		sub	sp, sp, #8
 264              	.LCFI3:
 265              		.cfi_def_cfa_offset 32
 266              		.loc 1 96 0
 267 0018 7600     		lsl	r6, r6, #1
 268 001a 4146     		mov	r1, r8
 269 001c 0090     		str	r0, [sp]
 270 001e 2B1C     		mov	r3, r5
 271 0020 043A     		sub	r2, r2, #4
 272 0022 4868     		ldr	r0, [r1, #4]
 273 0024 311C     		mov	r1, r6
 274 0026 FFF7FEFF 		bl	chThdCreateStatic
 275              	.LVL24:
 276              		.loc 1 97 0
 277 002a BA69     		ldr	r2, [r7, #24]
 278              		.loc 1 96 0
 279 002c 234C     		ldr	r4, .L10+16
 280              		.loc 1 97 0
 281 002e 9268     		ldr	r2, [r2, #8]
 282 0030 234B     		ldr	r3, .L10+20
 283              		.loc 1 96 0
ARM GAS  C:\Users\3130\AppData\Local\Temp\ccaeTRwP.s 			page 6


 284 0032 6060     		str	r0, [r4, #4]
 285              		.loc 1 97 0
 286 0034 4046     		mov	r0, r8
 287 0036 0093     		str	r3, [sp]
 288 0038 311C     		mov	r1, r6
 289 003a 2B1C     		mov	r3, r5
 290 003c 053A     		sub	r2, r2, #5
 291 003e 0068     		ldr	r0, [r0]
 292 0040 FFF7FEFF 		bl	chThdCreateStatic
 293              	.LVL25:
 294              		.loc 1 98 0
 295 0044 B969     		ldr	r1, [r7, #24]
 296 0046 1F4B     		ldr	r3, .L10+24
 297 0048 8A68     		ldr	r2, [r1, #8]
 298              		.loc 1 97 0
 299 004a 2060     		str	r0, [r4]
 300              		.loc 1 98 0
 301 004c 4046     		mov	r0, r8
 302 004e 0093     		str	r3, [sp]
 303 0050 311C     		mov	r1, r6
 304 0052 2B1C     		mov	r3, r5
 305 0054 013A     		sub	r2, r2, #1
 306 0056 0069     		ldr	r0, [r0, #16]
 307 0058 FFF7FEFF 		bl	chThdCreateStatic
 308              	.LVL26:
 309              		.loc 1 99 0
 310 005c BA69     		ldr	r2, [r7, #24]
 311 005e 1A49     		ldr	r1, .L10+28
 312 0060 9268     		ldr	r2, [r2, #8]
 313 0062 4346     		mov	r3, r8
 314              		.loc 1 98 0
 315 0064 2061     		str	r0, [r4, #16]
 316              		.loc 1 99 0
 317 0066 023A     		sub	r2, r2, #2
 318 0068 0091     		str	r1, [sp]
 319 006a D868     		ldr	r0, [r3, #12]
 320 006c 311C     		mov	r1, r6
 321 006e 2B1C     		mov	r3, r5
 322 0070 FFF7FEFF 		bl	chThdCreateStatic
 323              	.LVL27:
 324 0074 E060     		str	r0, [r4, #12]
 325              		.loc 1 101 0
 326              	@ 101 "../../ChibiOS_2.6.1/test/testthd.c" 1
 327 0076 72B6     		cpsid   i
 328              	@ 0 "" 2
 329              		.loc 1 102 0
 330              		.code	16
 331 0078 BF69     		ldr	r7, [r7, #24]
 332 007a 1449     		ldr	r1, .L10+32
 333 007c BA68     		ldr	r2, [r7, #8]
 334 007e 4046     		mov	r0, r8
 335 0080 0091     		str	r1, [sp]
 336 0082 033A     		sub	r2, r2, #3
 337 0084 311C     		mov	r1, r6
 338 0086 2B1C     		mov	r3, r5
 339 0088 8068     		ldr	r0, [r0, #8]
 340 008a FFF7FEFF 		bl	chThdCreateI
ARM GAS  C:\Users\3130\AppData\Local\Temp\ccaeTRwP.s 			page 7


 341              	.LVL28:
 342 008e A060     		str	r0, [r4, #8]
 343              		.loc 1 103 0
 344              	@ 103 "../../ChibiOS_2.6.1/test/testthd.c" 1
 345 0090 62B6     		cpsie   i
 346              	@ 0 "" 2
 347              		.loc 1 104 0
 348              		.code	16
 349 0092 A068     		ldr	r0, [r4, #8]
 350 0094 FFF7FEFF 		bl	chThdResume
 351              	.LVL29:
 352              		.loc 1 105 0
 353 0098 FFF7FEFF 		bl	test_wait_threads
 354              	.LVL30:
 355              		.loc 1 106 0
 356 009c 0C49     		ldr	r1, .L10+36
 357 009e 0120     		mov	r0, #1
 358 00a0 FFF7FEFF 		bl	_test_assert_sequence
 359              	.LVL31:
 360              		.loc 1 107 0
 361 00a4 02B0     		add	sp, sp, #8
 362              		@ sp needed for prologue
 363 00a6 04BC     		pop	{r2}
 364 00a8 9046     		mov	r8, r2
 365 00aa F0BD     		pop	{r4, r5, r6, r7, pc}
 366              	.L11:
 367              		.align	2
 368              	.L10:
 369 00ac 00000000 		.word	rlist
 370 00b0 00000000 		.word	wa
 371 00b4 00000000 		.word	thread
 372 00b8 00000000 		.word	.LC4
 373 00bc 00000000 		.word	threads
 374 00c0 04000000 		.word	.LC7
 375 00c4 08000000 		.word	.LC9
 376 00c8 0C000000 		.word	.LC11
 377 00cc 10000000 		.word	.LC13
 378 00d0 14000000 		.word	.LC15
 379              		.cfi_endproc
 380              	.LFE9:
 381              		.size	thd2_execute, .-thd2_execute
 382 00d4 C046C046 		.section	.text.thd1_execute,"ax",%progbits
 382      C046C046 
 382      C046C046 
 383              		.align	2
 384              		.p2align 4,,15
 385              		.code	16
 386              		.thumb_func
 387              		.type	thd1_execute, %function
 388              	thd1_execute:
 389              	.LFB8:
 390              		.loc 1 66 0
 391              		.cfi_startproc
 392 0000 F0B5     		push	{r4, r5, r6, r7, lr}
 393              	.LCFI4:
 394              		.cfi_def_cfa_offset 20
 395              		.cfi_offset 4, -20
ARM GAS  C:\Users\3130\AppData\Local\Temp\ccaeTRwP.s 			page 8


 396              		.cfi_offset 5, -16
 397              		.cfi_offset 6, -12
 398              		.cfi_offset 7, -8
 399              		.cfi_offset 14, -4
 400 0002 4746     		mov	r7, r8
 401 0004 80B4     		push	{r7}
 402              	.LCFI5:
 403              		.cfi_def_cfa_offset 24
 404              		.cfi_offset 8, -24
 405              		.loc 1 68 0
 406 0006 274F     		ldr	r7, .L13
 407 0008 274A     		ldr	r2, .L13+4
 408 000a BB69     		ldr	r3, [r7, #24]
 409 000c 9046     		mov	r8, r2
 410 000e 274D     		ldr	r5, .L13+8
 411 0010 9A68     		ldr	r2, [r3, #8]
 412 0012 2748     		ldr	r0, .L13+12
 413 0014 9826     		mov	r6, #152
 414              		.loc 1 66 0
 415 0016 82B0     		sub	sp, sp, #8
 416              	.LCFI6:
 417              		.cfi_def_cfa_offset 32
 418              		.loc 1 68 0
 419 0018 7600     		lsl	r6, r6, #1
 420 001a 4146     		mov	r1, r8
 421 001c 0090     		str	r0, [sp]
 422 001e 2B1C     		mov	r3, r5
 423 0020 053A     		sub	r2, r2, #5
 424 0022 0868     		ldr	r0, [r1]
 425 0024 311C     		mov	r1, r6
 426 0026 FFF7FEFF 		bl	chThdCreateStatic
 427              	.LVL32:
 428              		.loc 1 69 0
 429 002a BA69     		ldr	r2, [r7, #24]
 430              		.loc 1 68 0
 431 002c 214C     		ldr	r4, .L13+16
 432              		.loc 1 69 0
 433 002e 9268     		ldr	r2, [r2, #8]
 434 0030 214B     		ldr	r3, .L13+20
 435              		.loc 1 68 0
 436 0032 2060     		str	r0, [r4]
 437              		.loc 1 69 0
 438 0034 4046     		mov	r0, r8
 439 0036 0093     		str	r3, [sp]
 440 0038 311C     		mov	r1, r6
 441 003a 2B1C     		mov	r3, r5
 442 003c 043A     		sub	r2, r2, #4
 443 003e 4068     		ldr	r0, [r0, #4]
 444 0040 FFF7FEFF 		bl	chThdCreateStatic
 445              	.LVL33:
 446              		.loc 1 70 0
 447 0044 B969     		ldr	r1, [r7, #24]
 448 0046 1D4B     		ldr	r3, .L13+24
 449 0048 8A68     		ldr	r2, [r1, #8]
 450              		.loc 1 69 0
 451 004a 6060     		str	r0, [r4, #4]
 452              		.loc 1 70 0
ARM GAS  C:\Users\3130\AppData\Local\Temp\ccaeTRwP.s 			page 9


 453 004c 4046     		mov	r0, r8
 454 004e 0093     		str	r3, [sp]
 455 0050 311C     		mov	r1, r6
 456 0052 2B1C     		mov	r3, r5
 457 0054 033A     		sub	r2, r2, #3
 458 0056 8068     		ldr	r0, [r0, #8]
 459 0058 FFF7FEFF 		bl	chThdCreateStatic
 460              	.LVL34:
 461              		.loc 1 71 0
 462 005c BA69     		ldr	r2, [r7, #24]
 463 005e 1849     		ldr	r1, .L13+28
 464 0060 9268     		ldr	r2, [r2, #8]
 465 0062 4346     		mov	r3, r8
 466              		.loc 1 70 0
 467 0064 A060     		str	r0, [r4, #8]
 468              		.loc 1 71 0
 469 0066 023A     		sub	r2, r2, #2
 470 0068 0091     		str	r1, [sp]
 471 006a D868     		ldr	r0, [r3, #12]
 472 006c 311C     		mov	r1, r6
 473 006e 2B1C     		mov	r3, r5
 474 0070 FFF7FEFF 		bl	chThdCreateStatic
 475              	.LVL35:
 476              		.loc 1 72 0
 477 0074 BF69     		ldr	r7, [r7, #24]
 478 0076 1349     		ldr	r1, .L13+32
 479 0078 BA68     		ldr	r2, [r7, #8]
 480              		.loc 1 71 0
 481 007a E060     		str	r0, [r4, #12]
 482              		.loc 1 72 0
 483 007c 4046     		mov	r0, r8
 484 007e 013A     		sub	r2, r2, #1
 485 0080 2B1C     		mov	r3, r5
 486 0082 0091     		str	r1, [sp]
 487 0084 0069     		ldr	r0, [r0, #16]
 488 0086 311C     		mov	r1, r6
 489 0088 FFF7FEFF 		bl	chThdCreateStatic
 490              	.LVL36:
 491 008c 2061     		str	r0, [r4, #16]
 492              		.loc 1 73 0
 493 008e FFF7FEFF 		bl	test_wait_threads
 494              	.LVL37:
 495              		.loc 1 74 0
 496 0092 0D49     		ldr	r1, .L13+36
 497 0094 0120     		mov	r0, #1
 498 0096 FFF7FEFF 		bl	_test_assert_sequence
 499              	.LVL38:
 500              		.loc 1 75 0
 501 009a 02B0     		add	sp, sp, #8
 502              		@ sp needed for prologue
 503 009c 04BC     		pop	{r2}
 504 009e 9046     		mov	r8, r2
 505 00a0 F0BD     		pop	{r4, r5, r6, r7, pc}
 506              	.L14:
 507 00a2 C046     		.align	2
 508              	.L13:
 509 00a4 00000000 		.word	rlist
ARM GAS  C:\Users\3130\AppData\Local\Temp\ccaeTRwP.s 			page 10


 510 00a8 00000000 		.word	wa
 511 00ac 00000000 		.word	thread
 512 00b0 04000000 		.word	.LC7
 513 00b4 00000000 		.word	threads
 514 00b8 00000000 		.word	.LC4
 515 00bc 10000000 		.word	.LC13
 516 00c0 0C000000 		.word	.LC11
 517 00c4 08000000 		.word	.LC9
 518 00c8 14000000 		.word	.LC15
 519              		.cfi_endproc
 520              	.LFE8:
 521              		.size	thd1_execute, .-thd1_execute
 522 00cc C046C046 		.section	.text.thread,"ax",%progbits
 523              		.align	2
 524              		.p2align 4,,15
 525              		.code	16
 526              		.thumb_func
 527              		.type	thread, %function
 528              	thread:
 529              	.LFB7:
 530              		.loc 1 60 0
 531              		.cfi_startproc
 532              	.LVL39:
 533 0000 08B5     		push	{r3, lr}
 534              	.LCFI7:
 535              		.cfi_def_cfa_offset 8
 536              		.cfi_offset 3, -8
 537              		.cfi_offset 14, -4
 538              		.loc 1 62 0
 539 0002 0078     		ldrb	r0, [r0]
 540              	.LVL40:
 541 0004 FFF7FEFF 		bl	test_emit_token
 542              	.LVL41:
 543              		.loc 1 64 0
 544              		@ sp needed for prologue
 545 0008 0020     		mov	r0, #0
 546 000a 08BD     		pop	{r3, pc}
 547              		.cfi_endproc
 548              	.LFE7:
 549              		.size	thread, .-thread
 550 000c C046C046 		.section	.text.thd4_execute,"ax",%progbits
 551              		.align	2
 552              		.p2align 4,,15
 553              		.code	16
 554              		.thumb_func
 555              		.type	thd4_execute, %function
 556              	thd4_execute:
 557              	.LFB11:
 558              		.loc 1 189 0
 559              		.cfi_startproc
 560 0000 38B5     		push	{r3, r4, r5, lr}
 561              	.LCFI8:
 562              		.cfi_def_cfa_offset 16
 563              		.cfi_offset 3, -16
 564              		.cfi_offset 4, -12
 565              		.cfi_offset 5, -8
 566              		.cfi_offset 14, -4
ARM GAS  C:\Users\3130\AppData\Local\Temp\ccaeTRwP.s 			page 11


 567              		.loc 1 192 0
 568 0002 FFF7FEFF 		bl	test_wait_tick
 569              	.LVL42:
 570              		.loc 1 195 0
 571 0006 1C4D     		ldr	r5, .L21
 572              		.loc 1 196 0
 573 0008 6420     		mov	r0, #100
 574              		.loc 1 195 0
 575 000a EC68     		ldr	r4, [r5, #12]
 576              	.LVL43:
 577              		.loc 1 196 0
 578 000c FFF7FEFF 		bl	chThdSleep
 579              	.LVL44:
 580              		.loc 1 197 0
 581 0010 211C     		mov	r1, r4
 582 0012 221C     		mov	r2, r4
 583 0014 6431     		add	r1, r1, #100
 584 0016 6532     		add	r2, r2, #101
 585 0018 0120     		mov	r0, #1
 586 001a FFF7FEFF 		bl	_test_assert_time_window
 587              	.LVL45:
 588 001e 0028     		cmp	r0, #0
 589 0020 00D0     		beq	.L20
 590              	.LVL46:
 591              	.L16:
 592              		.loc 1 213 0
 593              		@ sp needed for prologue
 594 0022 38BD     		pop	{r3, r4, r5, pc}
 595              	.LVL47:
 596              	.L20:
 597              		.loc 1 200 0
 598 0024 EC68     		ldr	r4, [r5, #12]
 599              	.LVL48:
 600              		.loc 1 201 0
 601 0026 6420     		mov	r0, #100
 602 0028 FFF7FEFF 		bl	chThdSleep
 603              	.LVL49:
 604              		.loc 1 202 0
 605 002c 211C     		mov	r1, r4
 606 002e 221C     		mov	r2, r4
 607 0030 6431     		add	r1, r1, #100
 608 0032 6532     		add	r2, r2, #101
 609 0034 0220     		mov	r0, #2
 610 0036 FFF7FEFF 		bl	_test_assert_time_window
 611              	.LVL50:
 612 003a 0028     		cmp	r0, #0
 613 003c F1D1     		bne	.L16
 614              	.LBB4:
 615              	.LBB5:
 616              		.loc 1 206 0
 617 003e FA20     		mov	r0, #250
 618 0040 8000     		lsl	r0, r0, #2
 619              		.loc 1 205 0
 620 0042 EC68     		ldr	r4, [r5, #12]
 621              	.LVL51:
 622              		.loc 1 206 0
 623 0044 FFF7FEFF 		bl	chThdSleep
ARM GAS  C:\Users\3130\AppData\Local\Temp\ccaeTRwP.s 			page 12


 624              	.LVL52:
 625              		.loc 1 207 0
 626 0048 FA23     		mov	r3, #250
 627 004a 0C4A     		ldr	r2, .L21+4
 628 004c 9900     		lsl	r1, r3, #2
 629 004e 6118     		add	r1, r4, r1
 630 0050 A218     		add	r2, r4, r2
 631 0052 0320     		mov	r0, #3
 632 0054 FFF7FEFF 		bl	_test_assert_time_window
 633              	.LVL53:
 634 0058 0028     		cmp	r0, #0
 635 005a E2D1     		bne	.L16
 636              		.loc 1 210 0
 637 005c ED68     		ldr	r5, [r5, #12]
 638 005e 2C1C     		mov	r4, r5
 639              	.LVL54:
 640 0060 6434     		add	r4, r4, #100
 641              	.LVL55:
 642              		.loc 1 211 0
 643 0062 201C     		mov	r0, r4
 644 0064 FFF7FEFF 		bl	chThdSleepUntil
 645              	.LVL56:
 646              		.loc 1 212 0
 647 0068 2A1C     		mov	r2, r5
 648 006a 6532     		add	r2, r2, #101
 649 006c 211C     		mov	r1, r4
 650 006e 0420     		mov	r0, #4
 651 0070 FFF7FEFF 		bl	_test_assert_time_window
 652              	.LVL57:
 653 0074 D5E7     		b	.L16
 654              	.L22:
 655 0076 C046     		.align	2
 656              	.L21:
 657 0078 00000000 		.word	vtlist
 658 007c E9030000 		.word	1001
 659              	.LBE5:
 660              	.LBE4:
 661              		.cfi_endproc
 662              	.LFE11:
 663              		.size	thd4_execute, .-thd4_execute
 664              		.global	patternthd
 665              		.global	testthd4
 666              		.global	testthd3
 667              		.global	testthd2
 668              		.global	testthd1
 669              		.section	.rodata.testthd1,"a",%progbits
 670              		.align	2
 671              		.type	testthd1, %object
 672              		.size	testthd1, 16
 673              	testthd1:
 674 0000 64000000 		.word	.LC31
 675 0004 00000000 		.word	0
 676 0008 00000000 		.word	0
 677 000c 00000000 		.word	thd1_execute
 678              		.section	.rodata.testthd2,"a",%progbits
 679              		.align	2
 680              		.type	testthd2, %object
ARM GAS  C:\Users\3130\AppData\Local\Temp\ccaeTRwP.s 			page 13


 681              		.size	testthd2, 16
 682              	testthd2:
 683 0000 48000000 		.word	.LC30
 684 0004 00000000 		.word	0
 685 0008 00000000 		.word	0
 686 000c 00000000 		.word	thd2_execute
 687              		.section	.rodata.testthd3,"a",%progbits
 688              		.align	2
 689              		.type	testthd3, %object
 690              		.size	testthd3, 16
 691              	testthd3:
 692 0000 2C000000 		.word	.LC29
 693 0004 00000000 		.word	0
 694 0008 00000000 		.word	0
 695 000c 00000000 		.word	thd3_execute
 696              		.section	.rodata.testthd4,"a",%progbits
 697              		.align	2
 698              		.type	testthd4, %object
 699              		.size	testthd4, 16
 700              	testthd4:
 701 0000 1C000000 		.word	.LC28
 702 0004 00000000 		.word	0
 703 0008 00000000 		.word	0
 704 000c 00000000 		.word	thd4_execute
 705              		.section	.rodata.patternthd,"a",%progbits
 706              		.align	2
 707              		.type	patternthd, %object
 708              		.size	patternthd, 20
 709              	patternthd:
 710 0000 00000000 		.word	testthd1
 711 0004 00000000 		.word	testthd2
 712 0008 00000000 		.word	testthd3
 713 000c 00000000 		.word	testthd4
 714 0010 00000000 		.word	0
 715              		.section	.rodata.str1.4,"aMS",%progbits,1
 716              		.align	2
 717              	.LC4:
 718 0000 4400     		.ascii	"D\000"
 719 0002 0000     		.space	2
 720              	.LC7:
 721 0004 4500     		.ascii	"E\000"
 722 0006 0000     		.space	2
 723              	.LC9:
 724 0008 4100     		.ascii	"A\000"
 725 000a 0000     		.space	2
 726              	.LC11:
 727 000c 4200     		.ascii	"B\000"
 728 000e 0000     		.space	2
 729              	.LC13:
 730 0010 4300     		.ascii	"C\000"
 731 0012 0000     		.space	2
 732              	.LC15:
 733 0014 41424344 		.ascii	"ABCDE\000"
 733      4500
 734 001a 0000     		.space	2
 735              	.LC28:
 736 001c 54687265 		.ascii	"Threads, delays\000"
ARM GAS  C:\Users\3130\AppData\Local\Temp\ccaeTRwP.s 			page 14


 736      6164732C 
 736      2064656C 
 736      61797300 
 737              	.LC29:
 738 002c 54687265 		.ascii	"Threads, priority change\000"
 738      6164732C 
 738      20707269 
 738      6F726974 
 738      79206368 
 739 0045 000000   		.space	3
 740              	.LC30:
 741 0048 54687265 		.ascii	"Threads, enqueuing test #2\000"
 741      6164732C 
 741      20656E71 
 741      75657569 
 741      6E672074 
 742 0063 00       		.space	1
 743              	.LC31:
 744 0064 54687265 		.ascii	"Threads, enqueuing test #1\000"
 744      6164732C 
 744      20656E71 
 744      75657569 
 744      6E672074 
 745 007f 00       		.text
 746              	.Letext0:
 747              		.file 2 "c:\\stm32f0-discovery_tools\\gcc-arm-none-eabi\\bin\\../lib/gcc/arm-none-eabi/4.7.4/inclu
 748              		.file 3 "c:\\stm32f0-discovery_tools\\gcc-arm-none-eabi\\bin\\../lib/gcc/arm-none-eabi/4.7.4/../..
 749              		.file 4 "../../ChibiOS_2.6.1/os/ports/GCC/ARMCMx/chtypes.h"
 750              		.file 5 "../../ChibiOS_2.6.1/os/kernel/include/chlists.h"
 751              		.file 6 "../../ChibiOS_2.6.1/os/kernel/include/chthreads.h"
 752              		.file 7 "../../ChibiOS_2.6.1/os/ports/GCC/ARMCMx/chcore_v6m.h"
 753              		.file 8 "../../ChibiOS_2.6.1/os/kernel/include/chvt.h"
 754              		.file 9 "../../ChibiOS_2.6.1/os/kernel/include/chschd.h"
 755              		.file 10 "../../ChibiOS_2.6.1/os/kernel/include/chmtx.h"
 756              		.file 11 "../../ChibiOS_2.6.1/test/test.h"