ARM GAS  C:\Users\3130\AppData\Local\Temp\ccPAZpBF.s 			page 1


   1              		.cpu cortex-m0
   2              		.fpu softvfp
   3              		.eabi_attribute 20, 1
   4              		.eabi_attribute 21, 1
   5              		.eabi_attribute 23, 3
   6              		.eabi_attribute 24, 1
   7              		.eabi_attribute 25, 1
   8              		.eabi_attribute 26, 1
   9              		.eabi_attribute 30, 2
  10              		.eabi_attribute 34, 0
  11              		.eabi_attribute 18, 4
  12              		.code	16
  13              		.file	"testevt.c"
  14              		.text
  15              	.Ltext0:
  16              		.cfi_sections	.debug_frame
  17              		.section	.text.evt3_setup,"ax",%progbits
  18              		.align	2
  19              		.p2align 4,,15
  20              		.code	16
  21              		.thumb_func
  22              		.type	evt3_setup, %function
  23              	evt3_setup:
  24              	.LFB16:
  25              		.file 1 "../../ChibiOS_2.6.1/test/testevt.c"
  26              		.loc 1 247 0
  27              		.cfi_startproc
  28 0000 08B5     		push	{r3, lr}
  29              	.LCFI0:
  30              		.cfi_def_cfa_offset 8
  31              		.cfi_offset 3, -8
  32              		.cfi_offset 14, -4
  33              		.loc 1 249 0
  34 0002 0120     		mov	r0, #1
  35 0004 4042     		neg	r0, r0
  36 0006 FFF7FEFF 		bl	chEvtGetAndClearEvents
  37              	.LVL0:
  38              		.loc 1 250 0
  39              		@ sp needed for prologue
  40 000a 08BD     		pop	{r3, pc}
  41              		.cfi_endproc
  42              	.LFE16:
  43              		.size	evt3_setup, .-evt3_setup
  44 000c C046C046 		.section	.text.evt2_setup,"ax",%progbits
  45              		.align	2
  46              		.p2align 4,,15
  47              		.code	16
  48              		.thumb_func
  49              		.type	evt2_setup, %function
  50              	evt2_setup:
  51              	.LFB12:
  52              		.loc 1 128 0
  53              		.cfi_startproc
  54 0000 08B5     		push	{r3, lr}
  55              	.LCFI1:
  56              		.cfi_def_cfa_offset 8
  57              		.cfi_offset 3, -8
ARM GAS  C:\Users\3130\AppData\Local\Temp\ccPAZpBF.s 			page 2


  58              		.cfi_offset 14, -4
  59              		.loc 1 130 0
  60 0002 0120     		mov	r0, #1
  61 0004 4042     		neg	r0, r0
  62 0006 FFF7FEFF 		bl	chEvtGetAndClearEvents
  63              	.LVL1:
  64              		.loc 1 131 0
  65              		@ sp needed for prologue
  66 000a 08BD     		pop	{r3, pc}
  67              		.cfi_endproc
  68              	.LFE12:
  69              		.size	evt2_setup, .-evt2_setup
  70 000c C046C046 		.section	.text.evt1_setup,"ax",%progbits
  71              		.align	2
  72              		.p2align 4,,15
  73              		.code	16
  74              		.thumb_func
  75              		.type	evt1_setup, %function
  76              	evt1_setup:
  77              	.LFB7:
  78              		.loc 1 75 0
  79              		.cfi_startproc
  80 0000 08B5     		push	{r3, lr}
  81              	.LCFI2:
  82              		.cfi_def_cfa_offset 8
  83              		.cfi_offset 3, -8
  84              		.cfi_offset 14, -4
  85              		.loc 1 77 0
  86 0002 0120     		mov	r0, #1
  87 0004 4042     		neg	r0, r0
  88 0006 FFF7FEFF 		bl	chEvtGetAndClearEvents
  89              	.LVL2:
  90              		.loc 1 78 0
  91              		@ sp needed for prologue
  92 000a 08BD     		pop	{r3, pc}
  93              		.cfi_endproc
  94              	.LFE7:
  95              		.size	evt1_setup, .-evt1_setup
  96 000c C046C046 		.section	.text.evt2_execute,"ax",%progbits
  97              		.align	2
  98              		.p2align 4,,15
  99              		.code	16
 100              		.thumb_func
 101              		.type	evt2_execute, %function
 102              	evt2_execute:
 103              	.LFB15:
 104              		.loc 1 149 0
 105              		.cfi_startproc
 106 0000 F0B5     		push	{r4, r5, r6, r7, lr}
 107              	.LCFI3:
 108              		.cfi_def_cfa_offset 20
 109              		.cfi_offset 4, -20
 110              		.cfi_offset 5, -16
 111              		.cfi_offset 6, -12
 112              		.cfi_offset 7, -8
 113              		.cfi_offset 14, -4
 114 0002 4F46     		mov	r7, r9
ARM GAS  C:\Users\3130\AppData\Local\Temp\ccPAZpBF.s 			page 3


 115 0004 4646     		mov	r6, r8
 116 0006 C0B4     		push	{r6, r7}
 117              	.LCFI4:
 118              		.cfi_def_cfa_offset 28
 119              		.cfi_offset 8, -28
 120              		.cfi_offset 9, -24
 121              		.loc 1 157 0
 122 0008 0520     		mov	r0, #5
 123              		.loc 1 149 0
 124 000a 8DB0     		sub	sp, sp, #52
 125              	.LCFI5:
 126              		.cfi_def_cfa_offset 80
 127              		.loc 1 157 0
 128 000c FFF7FEFF 		bl	chEvtAddEvents
 129              	.LVL3:
 130              		.loc 1 158 0
 131 0010 0120     		mov	r0, #1
 132 0012 4042     		neg	r0, r0
 133 0014 FFF7FEFF 		bl	chEvtWaitOne
 134              	.LVL4:
 135              		.loc 1 159 0
 136 0018 411E     		sub	r1, r0, #1
 137 001a 4B42     		neg	r3, r1
 138 001c 5941     		adc	r1, r1, r3
 139 001e 0120     		mov	r0, #1
 140              	.LVL5:
 141 0020 FFF7FEFF 		bl	_test_assert
 142              	.LVL6:
 143 0024 0028     		cmp	r0, #0
 144 0026 04D0     		beq	.L8
 145              	.L4:
 146              		.loc 1 222 0
 147 0028 0DB0     		add	sp, sp, #52
 148              		@ sp needed for prologue
 149 002a 0CBC     		pop	{r2, r3}
 150 002c 9046     		mov	r8, r2
 151 002e 9946     		mov	r9, r3
 152 0030 F0BD     		pop	{r4, r5, r6, r7, pc}
 153              	.L8:
 154              		.loc 1 160 0
 155 0032 0121     		mov	r1, #1
 156 0034 4842     		neg	r0, r1
 157 0036 FFF7FEFF 		bl	chEvtWaitOne
 158              	.LVL7:
 159              		.loc 1 161 0
 160 003a 011F     		sub	r1, r0, #4
 161 003c 4B42     		neg	r3, r1
 162 003e 5941     		adc	r1, r1, r3
 163 0040 0220     		mov	r0, #2
 164              	.LVL8:
 165 0042 FFF7FEFF 		bl	_test_assert
 166              	.LVL9:
 167 0046 0028     		cmp	r0, #0
 168 0048 EED1     		bne	.L4
 169              		.loc 1 162 0
 170 004a 0122     		mov	r2, #1
 171 004c 5042     		neg	r0, r2
ARM GAS  C:\Users\3130\AppData\Local\Temp\ccPAZpBF.s 			page 4


 172 004e FFF7FEFF 		bl	chEvtGetAndClearEvents
 173              	.LVL10:
 174              		.loc 1 163 0
 175 0052 4142     		neg	r1, r0
 176 0054 4141     		adc	r1, r1, r0
 177              	.LVL11:
 178 0056 0320     		mov	r0, #3
 179 0058 FFF7FEFF 		bl	_test_assert
 180              	.LVL12:
 181 005c 0028     		cmp	r0, #0
 182 005e E3D1     		bne	.L4
 183              		.loc 1 168 0
 184 0060 FFF7FEFF 		bl	test_wait_tick
 185              	.LVL13:
 186              		.loc 1 170 0
 187 0064 6D4E     		ldr	r6, .L9
 188 0066 6E4B     		ldr	r3, .L9+4
 189 0068 B069     		ldr	r0, [r6, #24]
 190 006a 1D68     		ldr	r5, [r3]
 191 006c 8268     		ldr	r2, [r0, #8]
 192              		.loc 1 169 0
 193 006e 6D4F     		ldr	r7, .L9+8
 194              		.loc 1 170 0
 195 0070 0395     		str	r5, [sp, #12]
 196 0072 6D4B     		ldr	r3, .L9+12
 197 0074 9821     		mov	r1, #152
 198              		.loc 1 169 0
 199 0076 FC68     		ldr	r4, [r7, #12]
 200              	.LVL14:
 201              		.loc 1 170 0
 202 0078 4900     		lsl	r1, r1, #1
 203 007a 013A     		sub	r2, r2, #1
 204 007c 0090     		str	r0, [sp]
 205 007e 0398     		ldr	r0, [sp, #12]
 206 0080 9846     		mov	r8, r3
 207 0082 FFF7FEFF 		bl	chThdCreateStatic
 208              	.LVL15:
 209 0086 694D     		ldr	r5, .L9+16
 210              		.loc 1 172 0
 211 0088 0122     		mov	r2, #1
 212              		.loc 1 170 0
 213 008a 2860     		str	r0, [r5]
 214              		.loc 1 172 0
 215 008c 5042     		neg	r0, r2
 216 008e FFF7FEFF 		bl	chEvtWaitOne
 217              	.LVL16:
 218              		.loc 1 169 0
 219 0092 211C     		mov	r1, r4
 220              		.loc 1 173 0
 221 0094 221C     		mov	r2, r4
 222              		.loc 1 172 0
 223 0096 8146     		mov	r9, r0
 224              	.LVL17:
 225              		.loc 1 169 0
 226 0098 3231     		add	r1, r1, #50
 227              	.LVL18:
 228              		.loc 1 173 0
ARM GAS  C:\Users\3130\AppData\Local\Temp\ccPAZpBF.s 			page 5


 229 009a 3732     		add	r2, r2, #55
 230 009c 0420     		mov	r0, #4
 231              	.LVL19:
 232 009e FFF7FEFF 		bl	_test_assert_time_window
 233              	.LVL20:
 234 00a2 0028     		cmp	r0, #0
 235 00a4 C0D1     		bne	.L4
 236              		.loc 1 174 0
 237 00a6 4946     		mov	r1, r9
 238 00a8 0139     		sub	r1, r1, #1
 239 00aa 4B42     		neg	r3, r1
 240 00ac 5941     		adc	r1, r1, r3
 241 00ae 0520     		mov	r0, #5
 242 00b0 FFF7FEFF 		bl	_test_assert
 243              	.LVL21:
 244 00b4 0028     		cmp	r0, #0
 245 00b6 B7D1     		bne	.L4
 246              		.loc 1 175 0
 247 00b8 0124     		mov	r4, #1
 248              	.LVL22:
 249 00ba 6042     		neg	r0, r4
 250 00bc FFF7FEFF 		bl	chEvtGetAndClearEvents
 251              	.LVL23:
 252              		.loc 1 176 0
 253 00c0 4142     		neg	r1, r0
 254 00c2 4141     		adc	r1, r1, r0
 255              	.LVL24:
 256 00c4 0620     		mov	r0, #6
 257 00c6 FFF7FEFF 		bl	_test_assert
 258              	.LVL25:
 259 00ca 0028     		cmp	r0, #0
 260 00cc ACD1     		bne	.L4
 261              		.loc 1 177 0
 262 00ce FFF7FEFF 		bl	test_wait_threads
 263              	.LVL26:
 264              		.loc 1 182 0
 265 00d2 0520     		mov	r0, #5
 266 00d4 FFF7FEFF 		bl	chEvtAddEvents
 267              	.LVL27:
 268              		.loc 1 183 0
 269 00d8 0123     		mov	r3, #1
 270 00da 5842     		neg	r0, r3
 271 00dc FFF7FEFF 		bl	chEvtWaitAny
 272              	.LVL28:
 273              		.loc 1 184 0
 274 00e0 411F     		sub	r1, r0, #5
 275 00e2 4B42     		neg	r3, r1
 276 00e4 5941     		adc	r1, r1, r3
 277 00e6 0720     		mov	r0, #7
 278              	.LVL29:
 279 00e8 FFF7FEFF 		bl	_test_assert
 280              	.LVL30:
 281 00ec 0028     		cmp	r0, #0
 282 00ee 9BD1     		bne	.L4
 283              		.loc 1 185 0
 284 00f0 0120     		mov	r0, #1
 285 00f2 4042     		neg	r0, r0
ARM GAS  C:\Users\3130\AppData\Local\Temp\ccPAZpBF.s 			page 6


 286 00f4 FFF7FEFF 		bl	chEvtGetAndClearEvents
 287              	.LVL31:
 288              		.loc 1 186 0
 289 00f8 4142     		neg	r1, r0
 290 00fa 4141     		adc	r1, r1, r0
 291              	.LVL32:
 292 00fc 0820     		mov	r0, #8
 293 00fe FFF7FEFF 		bl	_test_assert
 294              	.LVL33:
 295 0102 0028     		cmp	r0, #0
 296 0104 00D0     		beq	.LCB239
 297 0106 8FE7     		b	.L4	@long jump
 298              	.LCB239:
 299              		.loc 1 191 0
 300 0108 FFF7FEFF 		bl	test_wait_tick
 301              	.LVL34:
 302              		.loc 1 193 0
 303 010c B169     		ldr	r1, [r6, #24]
 304 010e 9823     		mov	r3, #152
 305 0110 8A68     		ldr	r2, [r1, #8]
 306              		.loc 1 192 0
 307 0112 FC68     		ldr	r4, [r7, #12]
 308              	.LVL35:
 309              		.loc 1 193 0
 310 0114 013A     		sub	r2, r2, #1
 311 0116 0091     		str	r1, [sp]
 312 0118 0398     		ldr	r0, [sp, #12]
 313 011a 5900     		lsl	r1, r3, #1
 314 011c 4346     		mov	r3, r8
 315 011e FFF7FEFF 		bl	chThdCreateStatic
 316              	.LVL36:
 317              		.loc 1 195 0
 318 0122 0122     		mov	r2, #1
 319              		.loc 1 193 0
 320 0124 2860     		str	r0, [r5]
 321              		.loc 1 195 0
 322 0126 5042     		neg	r0, r2
 323 0128 FFF7FEFF 		bl	chEvtWaitAny
 324              	.LVL37:
 325              		.loc 1 192 0
 326 012c 211C     		mov	r1, r4
 327              		.loc 1 196 0
 328 012e 221C     		mov	r2, r4
 329              		.loc 1 195 0
 330 0130 8046     		mov	r8, r0
 331              	.LVL38:
 332              		.loc 1 192 0
 333 0132 3231     		add	r1, r1, #50
 334              	.LVL39:
 335              		.loc 1 196 0
 336 0134 3732     		add	r2, r2, #55
 337 0136 0920     		mov	r0, #9
 338              	.LVL40:
 339 0138 FFF7FEFF 		bl	_test_assert_time_window
 340              	.LVL41:
 341 013c 0028     		cmp	r0, #0
 342 013e 00D0     		beq	.LCB273
ARM GAS  C:\Users\3130\AppData\Local\Temp\ccPAZpBF.s 			page 7


 343 0140 72E7     		b	.L4	@long jump
 344              	.LCB273:
 345              		.loc 1 197 0
 346 0142 4146     		mov	r1, r8
 347 0144 0139     		sub	r1, r1, #1
 348 0146 4B42     		neg	r3, r1
 349 0148 5941     		adc	r1, r1, r3
 350 014a 0A20     		mov	r0, #10
 351 014c FFF7FEFF 		bl	_test_assert
 352              	.LVL42:
 353 0150 0028     		cmp	r0, #0
 354 0152 00D0     		beq	.LCB283
 355 0154 68E7     		b	.L4	@long jump
 356              	.LCB283:
 357              		.loc 1 198 0
 358 0156 0120     		mov	r0, #1
 359 0158 4042     		neg	r0, r0
 360 015a FFF7FEFF 		bl	chEvtGetAndClearEvents
 361              	.LVL43:
 362              		.loc 1 199 0
 363 015e 4142     		neg	r1, r0
 364 0160 4141     		adc	r1, r1, r0
 365              	.LVL44:
 366 0162 0B20     		mov	r0, #11
 367 0164 FFF7FEFF 		bl	_test_assert
 368              	.LVL45:
 369 0168 0028     		cmp	r0, #0
 370 016a 00D0     		beq	.LCB297
 371 016c 5CE7     		b	.L4	@long jump
 372              	.LCB297:
 373              		.loc 1 200 0
 374 016e FFF7FEFF 		bl	test_wait_threads
 375              	.LVL46:
 376              		.loc 1 205 0
 377 0172 2F4C     		ldr	r4, .L9+20
 378              	.LVL47:
 379              		.loc 1 207 0
 380 0174 0122     		mov	r2, #1
 381              		.loc 1 205 0
 382 0176 211C     		mov	r1, r4
 383 0178 0C60     		str	r4, [r1]
 384 017a A146     		mov	r9, r4
 385              		.loc 1 206 0
 386 017c 2D4C     		ldr	r4, .L9+24
 387              		.loc 1 207 0
 388 017e 4846     		mov	r0, r9
 389 0180 04A9     		add	r1, sp, #16
 390              		.loc 1 206 0
 391 0182 2460     		str	r4, [r4]
 392              		.loc 1 207 0
 393 0184 FFF7FEFF 		bl	chEvtRegisterMask
 394              	.LVL48:
 395              		.loc 1 208 0
 396 0188 08A9     		add	r1, sp, #32
 397 018a 0422     		mov	r2, #4
 398 018c 201C     		mov	r0, r4
 399 018e FFF7FEFF 		bl	chEvtRegisterMask
ARM GAS  C:\Users\3130\AppData\Local\Temp\ccPAZpBF.s 			page 8


 400              	.LVL49:
 401              		.loc 1 209 0
 402 0192 FFF7FEFF 		bl	test_wait_tick
 403              	.LVL50:
 404              		.loc 1 211 0
 405 0196 B669     		ldr	r6, [r6, #24]
 406 0198 274B     		ldr	r3, .L9+28
 407 019a B268     		ldr	r2, [r6, #8]
 408 019c 9821     		mov	r1, #152
 409              		.loc 1 210 0
 410 019e FF68     		ldr	r7, [r7, #12]
 411              	.LVL51:
 412              		.loc 1 211 0
 413 01a0 013A     		sub	r2, r2, #1
 414 01a2 4900     		lsl	r1, r1, #1
 415 01a4 0093     		str	r3, [sp]
 416 01a6 0398     		ldr	r0, [sp, #12]
 417 01a8 244B     		ldr	r3, .L9+32
 418 01aa FFF7FEFF 		bl	chThdCreateStatic
 419              	.LVL52:
 420 01ae 2860     		str	r0, [r5]
 421              		.loc 1 213 0
 422 01b0 0520     		mov	r0, #5
 423 01b2 FFF7FEFF 		bl	chEvtWaitAll
 424              	.LVL53:
 425              		.loc 1 210 0
 426 01b6 391C     		mov	r1, r7
 427              		.loc 1 214 0
 428 01b8 3A1C     		mov	r2, r7
 429              		.loc 1 210 0
 430 01ba 3231     		add	r1, r1, #50
 431              	.LVL54:
 432              		.loc 1 214 0
 433 01bc 3732     		add	r2, r2, #55
 434 01be 0C20     		mov	r0, #12
 435 01c0 FFF7FEFF 		bl	_test_assert_time_window
 436              	.LVL55:
 437 01c4 0028     		cmp	r0, #0
 438 01c6 00D0     		beq	.LCB349
 439 01c8 2EE7     		b	.L4	@long jump
 440              	.LCB349:
 441              		.loc 1 215 0
 442 01ca 0125     		mov	r5, #1
 443 01cc 6842     		neg	r0, r5
 444 01ce FFF7FEFF 		bl	chEvtGetAndClearEvents
 445              	.LVL56:
 446              		.loc 1 216 0
 447 01d2 4142     		neg	r1, r0
 448 01d4 4141     		adc	r1, r1, r0
 449              	.LVL57:
 450 01d6 0D20     		mov	r0, #13
 451 01d8 FFF7FEFF 		bl	_test_assert
 452              	.LVL58:
 453 01dc 0028     		cmp	r0, #0
 454 01de 00D0     		beq	.LCB363
 455 01e0 22E7     		b	.L4	@long jump
 456              	.LCB363:
ARM GAS  C:\Users\3130\AppData\Local\Temp\ccPAZpBF.s 			page 9


 457              		.loc 1 217 0
 458 01e2 FFF7FEFF 		bl	test_wait_threads
 459              	.LVL59:
 460              		.loc 1 218 0
 461 01e6 4846     		mov	r0, r9
 462 01e8 04A9     		add	r1, sp, #16
 463 01ea FFF7FEFF 		bl	chEvtUnregister
 464              	.LVL60:
 465              		.loc 1 219 0
 466 01ee 201C     		mov	r0, r4
 467 01f0 08A9     		add	r1, sp, #32
 468 01f2 FFF7FEFF 		bl	chEvtUnregister
 469              	.LVL61:
 470              		.loc 1 220 0
 471 01f6 4A46     		mov	r2, r9
 472 01f8 1068     		ldr	r0, [r2]
 473 01fa 811A     		sub	r1, r0, r2
 474 01fc 4B42     		neg	r3, r1
 475 01fe 5941     		adc	r1, r1, r3
 476 0200 0E20     		mov	r0, #14
 477 0202 FFF7FEFF 		bl	_test_assert
 478              	.LVL62:
 479 0206 0028     		cmp	r0, #0
 480 0208 00D0     		beq	.LCB385
 481 020a 0DE7     		b	.L4	@long jump
 482              	.LCB385:
 483              		.loc 1 221 0
 484 020c 2668     		ldr	r6, [r4]
 485 020e 0F20     		mov	r0, #15
 486 0210 311B     		sub	r1, r6, r4
 487 0212 4C42     		neg	r4, r1
 488 0214 6141     		adc	r1, r1, r4
 489 0216 FFF7FEFF 		bl	_test_assert
 490              	.LVL63:
 491 021a 05E7     		b	.L4
 492              	.L10:
 493              		.align	2
 494              	.L9:
 495 021c 00000000 		.word	rlist
 496 0220 00000000 		.word	wa
 497 0224 00000000 		.word	vtlist
 498 0228 00000000 		.word	thread1
 499 022c 00000000 		.word	threads
 500 0230 00000000 		.word	.LANCHOR0
 501 0234 00000000 		.word	.LANCHOR1
 502 0238 00000000 		.word	.LC8
 503 023c 00000000 		.word	thread2
 504              		.cfi_endproc
 505              	.LFE15:
 506              		.size	evt2_execute, .-evt2_execute
 507              		.section	.text.thread2,"ax",%progbits
 508              		.align	2
 509              		.p2align 4,,15
 510              		.code	16
 511              		.thumb_func
 512              		.type	thread2, %function
 513              	thread2:
ARM GAS  C:\Users\3130\AppData\Local\Temp\ccPAZpBF.s 			page 10


 514              	.LFB14:
 515              		.loc 1 140 0
 516              		.cfi_startproc
 517              	.LVL64:
 518 0000 08B5     		push	{r3, lr}
 519              	.LCFI6:
 520              		.cfi_def_cfa_offset 8
 521              		.cfi_offset 3, -8
 522              		.cfi_offset 14, -4
 523              		.loc 1 143 0
 524 0002 0021     		mov	r1, #0
 525 0004 0548     		ldr	r0, .L12
 526              	.LVL65:
 527 0006 FFF7FEFF 		bl	chEvtBroadcastFlags
 528              	.LVL66:
 529              		.loc 1 144 0
 530 000a 3220     		mov	r0, #50
 531 000c FFF7FEFF 		bl	chThdSleep
 532              	.LVL67:
 533              		.loc 1 145 0
 534 0010 0348     		ldr	r0, .L12+4
 535 0012 0021     		mov	r1, #0
 536 0014 FFF7FEFF 		bl	chEvtBroadcastFlags
 537              	.LVL68:
 538              		.loc 1 147 0
 539              		@ sp needed for prologue
 540 0018 0020     		mov	r0, #0
 541 001a 08BD     		pop	{r3, pc}
 542              	.L13:
 543              		.align	2
 544              	.L12:
 545 001c 00000000 		.word	.LANCHOR0
 546 0020 00000000 		.word	.LANCHOR1
 547              		.cfi_endproc
 548              	.LFE14:
 549              		.size	thread2, .-thread2
 550 0024 C046C046 		.section	.text.thread1,"ax",%progbits
 550      C046C046 
 550      C046C046 
 551              		.align	2
 552              		.p2align 4,,15
 553              		.code	16
 554              		.thumb_func
 555              		.type	thread1, %function
 556              	thread1:
 557              	.LFB13:
 558              		.loc 1 133 0
 559              		.cfi_startproc
 560              	.LVL69:
 561 0000 10B5     		push	{r4, lr}
 562              	.LCFI7:
 563              		.cfi_def_cfa_offset 8
 564              		.cfi_offset 4, -8
 565              		.cfi_offset 14, -4
 566              		.loc 1 133 0
 567 0002 041C     		mov	r4, r0
 568              		.loc 1 135 0
ARM GAS  C:\Users\3130\AppData\Local\Temp\ccPAZpBF.s 			page 11


 569 0004 3220     		mov	r0, #50
 570              	.LVL70:
 571 0006 FFF7FEFF 		bl	chThdSleep
 572              	.LVL71:
 573              		.loc 1 136 0
 574 000a 201C     		mov	r0, r4
 575 000c 0121     		mov	r1, #1
 576 000e FFF7FEFF 		bl	chEvtSignal
 577              	.LVL72:
 578              		.loc 1 138 0
 579              		@ sp needed for prologue
 580 0012 0020     		mov	r0, #0
 581              	.LVL73:
 582 0014 10BD     		pop	{r4, pc}
 583              		.cfi_endproc
 584              	.LFE13:
 585              		.size	thread1, .-thread1
 586 0016 C046C046 		.section	.text.evt1_execute,"ax",%progbits
 586      C046C046 
 586      C046
 587              		.align	2
 588              		.p2align 4,,15
 589              		.code	16
 590              		.thumb_func
 591              		.type	evt1_execute, %function
 592              	evt1_execute:
 593              	.LFB11:
 594              		.loc 1 85 0
 595              		.cfi_startproc
 596 0000 10B5     		push	{r4, lr}
 597              	.LCFI8:
 598              		.cfi_def_cfa_offset 8
 599              		.cfi_offset 4, -8
 600              		.cfi_offset 14, -4
 601              		.loc 1 91 0
 602 0002 1D4C     		ldr	r4, .L19
 603              		.loc 1 85 0
 604 0004 88B0     		sub	sp, sp, #32
 605              	.LCFI9:
 606              		.cfi_def_cfa_offset 40
 607              		.loc 1 92 0
 608 0006 201C     		mov	r0, r4
 609 0008 6946     		mov	r1, sp
 610 000a 0122     		mov	r2, #1
 611              		.loc 1 91 0
 612 000c 2460     		str	r4, [r4]
 613              		.loc 1 92 0
 614 000e FFF7FEFF 		bl	chEvtRegisterMask
 615              	.LVL74:
 616              		.loc 1 93 0
 617 0012 201C     		mov	r0, r4
 618 0014 04A9     		add	r1, sp, #16
 619 0016 0222     		mov	r2, #2
 620 0018 FFF7FEFF 		bl	chEvtRegisterMask
 621              	.LVL75:
 622              		.loc 1 94 0
 623 001c 2368     		ldr	r3, [r4]
ARM GAS  C:\Users\3130\AppData\Local\Temp\ccPAZpBF.s 			page 12


 624 001e 0120     		mov	r0, #1
 625 0020 191B     		sub	r1, r3, r4
 626 0022 4B1E     		sub	r3, r1, #1
 627 0024 9941     		sbc	r1, r1, r3
 628 0026 FFF7FEFF 		bl	_test_assert
 629              	.LVL76:
 630 002a 0028     		cmp	r0, #0
 631 002c 01D0     		beq	.L18
 632              	.L15:
 633              		.loc 1 105 0
 634 002e 08B0     		add	sp, sp, #32
 635              		@ sp needed for prologue
 636 0030 10BD     		pop	{r4, pc}
 637              	.L18:
 638              		.loc 1 95 0
 639 0032 201C     		mov	r0, r4
 640 0034 6946     		mov	r1, sp
 641 0036 FFF7FEFF 		bl	chEvtUnregister
 642              	.LVL77:
 643              		.loc 1 96 0
 644 003a 2068     		ldr	r0, [r4]
 645 003c 011B     		sub	r1, r0, r4
 646 003e 4B1E     		sub	r3, r1, #1
 647 0040 9941     		sbc	r1, r1, r3
 648 0042 0220     		mov	r0, #2
 649 0044 FFF7FEFF 		bl	_test_assert
 650              	.LVL78:
 651 0048 0028     		cmp	r0, #0
 652 004a F0D1     		bne	.L15
 653              		.loc 1 97 0
 654 004c 201C     		mov	r0, r4
 655 004e 04A9     		add	r1, sp, #16
 656 0050 FFF7FEFF 		bl	chEvtUnregister
 657              	.LVL79:
 658              		.loc 1 98 0
 659 0054 2168     		ldr	r1, [r4]
 660 0056 0320     		mov	r0, #3
 661 0058 0A1B     		sub	r2, r1, r4
 662 005a 5142     		neg	r1, r2
 663 005c 5141     		adc	r1, r1, r2
 664 005e FFF7FEFF 		bl	_test_assert
 665              	.LVL80:
 666 0062 0028     		cmp	r0, #0
 667 0064 E3D1     		bne	.L15
 668              		.loc 1 103 0
 669 0066 0548     		ldr	r0, .L19+4
 670 0068 0721     		mov	r1, #7
 671 006a FFF7FEFF 		bl	chEvtDispatch
 672              	.LVL81:
 673              		.loc 1 104 0
 674 006e 0449     		ldr	r1, .L19+8
 675 0070 0420     		mov	r0, #4
 676 0072 FFF7FEFF 		bl	_test_assert_sequence
 677              	.LVL82:
 678 0076 DAE7     		b	.L15
 679              	.L20:
 680              		.align	2
ARM GAS  C:\Users\3130\AppData\Local\Temp\ccPAZpBF.s 			page 13


 681              	.L19:
 682 0078 00000000 		.word	.LANCHOR0
 683 007c 00000000 		.word	.LANCHOR2
 684 0080 04000000 		.word	.LC14
 685              		.cfi_endproc
 686              	.LFE11:
 687              		.size	evt1_execute, .-evt1_execute
 688 0084 C046C046 		.section	.text.h3,"ax",%progbits
 688      C046C046 
 688      C046C046 
 689              		.align	2
 690              		.p2align 4,,15
 691              		.code	16
 692              		.thumb_func
 693              		.type	h3, %function
 694              	h3:
 695              	.LFB10:
 696              		.loc 1 82 0
 697              		.cfi_startproc
 698              	.LVL83:
 699 0000 08B5     		push	{r3, lr}
 700              	.LCFI10:
 701              		.cfi_def_cfa_offset 8
 702              		.cfi_offset 3, -8
 703              		.cfi_offset 14, -4
 704              		.loc 1 82 0
 705 0002 4320     		mov	r0, #67
 706              	.LVL84:
 707 0004 FFF7FEFF 		bl	test_emit_token
 708              	.LVL85:
 709              		@ sp needed for prologue
 710 0008 08BD     		pop	{r3, pc}
 711              		.cfi_endproc
 712              	.LFE10:
 713              		.size	h3, .-h3
 714 000a C046C046 		.section	.text.h2,"ax",%progbits
 714      C046
 715              		.align	2
 716              		.p2align 4,,15
 717              		.code	16
 718              		.thumb_func
 719              		.type	h2, %function
 720              	h2:
 721              	.LFB9:
 722              		.loc 1 81 0
 723              		.cfi_startproc
 724              	.LVL86:
 725 0000 08B5     		push	{r3, lr}
 726              	.LCFI11:
 727              		.cfi_def_cfa_offset 8
 728              		.cfi_offset 3, -8
 729              		.cfi_offset 14, -4
 730              		.loc 1 81 0
 731 0002 4220     		mov	r0, #66
 732              	.LVL87:
 733 0004 FFF7FEFF 		bl	test_emit_token
 734              	.LVL88:
ARM GAS  C:\Users\3130\AppData\Local\Temp\ccPAZpBF.s 			page 14


 735              		@ sp needed for prologue
 736 0008 08BD     		pop	{r3, pc}
 737              		.cfi_endproc
 738              	.LFE9:
 739              		.size	h2, .-h2
 740 000a C046C046 		.section	.text.h1,"ax",%progbits
 740      C046
 741              		.align	2
 742              		.p2align 4,,15
 743              		.code	16
 744              		.thumb_func
 745              		.type	h1, %function
 746              	h1:
 747              	.LFB8:
 748              		.loc 1 80 0
 749              		.cfi_startproc
 750              	.LVL89:
 751 0000 08B5     		push	{r3, lr}
 752              	.LCFI12:
 753              		.cfi_def_cfa_offset 8
 754              		.cfi_offset 3, -8
 755              		.cfi_offset 14, -4
 756              		.loc 1 80 0
 757 0002 4120     		mov	r0, #65
 758              	.LVL90:
 759 0004 FFF7FEFF 		bl	test_emit_token
 760              	.LVL91:
 761              		@ sp needed for prologue
 762 0008 08BD     		pop	{r3, pc}
 763              		.cfi_endproc
 764              	.LFE8:
 765              		.size	h1, .-h1
 766 000a C046C046 		.section	.text.evt3_execute,"ax",%progbits
 766      C046
 767              		.align	2
 768              		.p2align 4,,15
 769              		.code	16
 770              		.thumb_func
 771              		.type	evt3_execute, %function
 772              	evt3_execute:
 773              	.LFB17:
 774              		.loc 1 252 0
 775              		.cfi_startproc
 776              		.loc 1 258 0
 777 0000 0120     		mov	r0, #1
 778              		.loc 1 252 0
 779 0002 08B5     		push	{r3, lr}
 780              	.LCFI13:
 781              		.cfi_def_cfa_offset 8
 782              		.cfi_offset 3, -8
 783              		.cfi_offset 14, -4
 784              		.loc 1 258 0
 785 0004 0021     		mov	r1, #0
 786 0006 4042     		neg	r0, r0
 787 0008 FFF7FEFF 		bl	chEvtWaitOneTimeout
 788              	.LVL92:
 789              		.loc 1 259 0
ARM GAS  C:\Users\3130\AppData\Local\Temp\ccPAZpBF.s 			page 15


 790 000c 4142     		neg	r1, r0
 791 000e 4141     		adc	r1, r1, r0
 792              	.LVL93:
 793 0010 0120     		mov	r0, #1
 794 0012 FFF7FEFF 		bl	_test_assert
 795              	.LVL94:
 796 0016 0028     		cmp	r0, #0
 797 0018 00D0     		beq	.L28
 798              	.L24:
 799              		.loc 1 270 0
 800              		@ sp needed for prologue
 801 001a 08BD     		pop	{r3, pc}
 802              	.L28:
 803              		.loc 1 260 0
 804 001c 0121     		mov	r1, #1
 805 001e 4842     		neg	r0, r1
 806 0020 0021     		mov	r1, #0
 807 0022 FFF7FEFF 		bl	chEvtWaitAnyTimeout
 808              	.LVL95:
 809              		.loc 1 261 0
 810 0026 4142     		neg	r1, r0
 811 0028 4141     		adc	r1, r1, r0
 812              	.LVL96:
 813 002a 0220     		mov	r0, #2
 814 002c FFF7FEFF 		bl	_test_assert
 815              	.LVL97:
 816 0030 0028     		cmp	r0, #0
 817 0032 F2D1     		bne	.L24
 818              		.loc 1 262 0
 819 0034 0122     		mov	r2, #1
 820 0036 0021     		mov	r1, #0
 821 0038 5042     		neg	r0, r2
 822 003a FFF7FEFF 		bl	chEvtWaitAllTimeout
 823              	.LVL98:
 824              		.loc 1 263 0
 825 003e 4142     		neg	r1, r0
 826 0040 4141     		adc	r1, r1, r0
 827              	.LVL99:
 828 0042 0320     		mov	r0, #3
 829 0044 FFF7FEFF 		bl	_test_assert
 830              	.LVL100:
 831 0048 0028     		cmp	r0, #0
 832 004a E6D1     		bne	.L24
 833              	.LBB4:
 834              	.LBB5:
 835              		.loc 1 264 0
 836 004c 0123     		mov	r3, #1
 837 004e 0A21     		mov	r1, #10
 838 0050 5842     		neg	r0, r3
 839 0052 FFF7FEFF 		bl	chEvtWaitOneTimeout
 840              	.LVL101:
 841              		.loc 1 265 0
 842 0056 4142     		neg	r1, r0
 843 0058 4141     		adc	r1, r1, r0
 844              	.LVL102:
 845 005a 0420     		mov	r0, #4
 846 005c FFF7FEFF 		bl	_test_assert
ARM GAS  C:\Users\3130\AppData\Local\Temp\ccPAZpBF.s 			page 16


 847              	.LVL103:
 848 0060 0028     		cmp	r0, #0
 849 0062 DAD1     		bne	.L24
 850              		.loc 1 266 0
 851 0064 0120     		mov	r0, #1
 852 0066 0A21     		mov	r1, #10
 853 0068 4042     		neg	r0, r0
 854 006a FFF7FEFF 		bl	chEvtWaitAnyTimeout
 855              	.LVL104:
 856              		.loc 1 267 0
 857 006e 4142     		neg	r1, r0
 858 0070 4141     		adc	r1, r1, r0
 859              	.LVL105:
 860 0072 0520     		mov	r0, #5
 861 0074 FFF7FEFF 		bl	_test_assert
 862              	.LVL106:
 863 0078 0028     		cmp	r0, #0
 864 007a CED1     		bne	.L24
 865              		.loc 1 268 0
 866 007c 0121     		mov	r1, #1
 867 007e 4842     		neg	r0, r1
 868 0080 0A21     		mov	r1, #10
 869 0082 FFF7FEFF 		bl	chEvtWaitAllTimeout
 870              	.LVL107:
 871              		.loc 1 269 0
 872 0086 4142     		neg	r1, r0
 873 0088 4141     		adc	r1, r1, r0
 874              	.LVL108:
 875 008a 0620     		mov	r0, #6
 876 008c FFF7FEFF 		bl	_test_assert
 877              	.LVL109:
 878 0090 C3E7     		b	.L24
 879              	.LBE5:
 880              	.LBE4:
 881              		.cfi_endproc
 882              	.LFE17:
 883              		.size	evt3_execute, .-evt3_execute
 884              		.global	patternevt
 885              		.global	testevt3
 886              		.global	testevt2
 887              		.global	testevt1
 888 0092 C046C046 		.section	.rodata.patternevt,"a",%progbits
 888      C046C046 
 888      C046C046 
 888      C046
 889              		.align	2
 890              		.type	patternevt, %object
 891              		.size	patternevt, 16
 892              	patternevt:
 893 0000 00000000 		.word	testevt1
 894 0004 00000000 		.word	testevt2
 895 0008 00000000 		.word	testevt3
 896 000c 00000000 		.word	0
 897              		.section	.rodata.testevt2,"a",%progbits
 898              		.align	2
 899              		.type	testevt2, %object
 900              		.size	testevt2, 16
ARM GAS  C:\Users\3130\AppData\Local\Temp\ccPAZpBF.s 			page 17


 901              	testevt2:
 902 0000 1C000000 		.word	.LC17
 903 0004 00000000 		.word	evt2_setup
 904 0008 00000000 		.word	0
 905 000c 00000000 		.word	evt2_execute
 906              		.section	.rodata.str1.4,"aMS",%progbits,1
 907              		.align	2
 908              	.LC8:
 909 0000 4100     		.ascii	"A\000"
 910 0002 0000     		.space	2
 911              	.LC14:
 912 0004 41424300 		.ascii	"ABC\000"
 913              	.LC16:
 914 0008 4576656E 		.ascii	"Events, timeouts\000"
 914      74732C20 
 914      74696D65 
 914      6F757473 
 914      00
 915 0019 000000   		.space	3
 916              	.LC17:
 917 001c 4576656E 		.ascii	"Events, wait and broadcast\000"
 917      74732C20 
 917      77616974 
 917      20616E64 
 917      2062726F 
 918 0037 00       		.space	1
 919              	.LC18:
 920 0038 4576656E 		.ascii	"Events, registration and dispatch\000"
 920      74732C20 
 920      72656769 
 920      73747261 
 920      74696F6E 
 921 005a 0000     		.section	.rodata.testevt1,"a",%progbits
 922              		.align	2
 923              		.type	testevt1, %object
 924              		.size	testevt1, 16
 925              	testevt1:
 926 0000 38000000 		.word	.LC18
 927 0004 00000000 		.word	evt1_setup
 928 0008 00000000 		.word	0
 929 000c 00000000 		.word	evt1_execute
 930              		.section	.rodata.evhndl,"a",%progbits
 931              		.align	2
 932              		.set	.LANCHOR2,. + 0
 933              		.type	evhndl, %object
 934              		.size	evhndl, 12
 935              	evhndl:
 936 0000 00000000 		.word	h1
 937 0004 00000000 		.word	h2
 938 0008 00000000 		.word	h3
 939              		.section	.rodata.testevt3,"a",%progbits
 940              		.align	2
 941              		.type	testevt3, %object
 942              		.size	testevt3, 16
 943              	testevt3:
 944 0000 08000000 		.word	.LC16
 945 0004 00000000 		.word	evt3_setup
ARM GAS  C:\Users\3130\AppData\Local\Temp\ccPAZpBF.s 			page 18


 946 0008 00000000 		.word	0
 947 000c 00000000 		.word	evt3_execute
 948              		.section	.data.es1,"aw",%progbits
 949              		.align	2
 950              		.set	.LANCHOR0,. + 0
 951              		.type	es1, %object
 952              		.size	es1, 4
 953              	es1:
 954 0000 00000000 		.word	es1
 955              		.section	.data.es2,"aw",%progbits
 956              		.align	2
 957              		.set	.LANCHOR1,. + 0
 958              		.type	es2, %object
 959              		.size	es2, 4
 960              	es2:
 961 0000 00000000 		.word	es2
 962              		.text
 963              	.Letext0:
 964              		.file 2 "c:\\stm32f0-discovery_tools\\gcc-arm-none-eabi\\bin\\../lib/gcc/arm-none-eabi/4.7.4/inclu
 965              		.file 3 "c:\\stm32f0-discovery_tools\\gcc-arm-none-eabi\\bin\\../lib/gcc/arm-none-eabi/4.7.4/../..
 966              		.file 4 "../../ChibiOS_2.6.1/os/ports/GCC/ARMCMx/chtypes.h"
 967              		.file 5 "../../ChibiOS_2.6.1/os/kernel/include/chlists.h"
 968              		.file 6 "../../ChibiOS_2.6.1/os/kernel/include/chthreads.h"
 969              		.file 7 "../../ChibiOS_2.6.1/os/ports/GCC/ARMCMx/chcore_v6m.h"
 970              		.file 8 "../../ChibiOS_2.6.1/os/kernel/include/chvt.h"
 971              		.file 9 "../../ChibiOS_2.6.1/os/kernel/include/chschd.h"
 972              		.file 10 "../../ChibiOS_2.6.1/os/kernel/include/chmtx.h"
 973              		.file 11 "../../ChibiOS_2.6.1/os/kernel/include/chevents.h"
 974              		.file 12 "../../ChibiOS_2.6.1/test/test.h"
 975              		.section	.debug_info,"",%progbits
 976              	.Ldebug_info0:
 977 0000 8B110000 		.4byte	0x118b
 978 0004 0200     		.2byte	0x2
 979 0006 00000000 		.4byte	.Ldebug_abbrev0
 980 000a 04       		.byte	0x4
 981 000b 01       		.uleb128 0x1
 982 000c 18050000 		.4byte	.LASF125
 983 0010 01       		.byte	0x1
 984 0011 0F020000 		.4byte	.LASF126
 985 0015 86040000 		.4byte	.LASF127
 986 0019 00000000 		.4byte	.Ldebug_ranges0+0
 987 001d 00000000 		.4byte	0
 988 0021 00000000 		.4byte	0
 989 0025 00000000 		.4byte	.Ldebug_line0
 990 0029 02       		.uleb128 0x2
 991 002a 04       		.byte	0x4
 992 002b 05       		.byte	0x5
 993 002c 696E7400 		.ascii	"int\000"
 994 0030 03       		.uleb128 0x3
 995 0031 19000000 		.4byte	.LASF2
 996 0035 02       		.byte	0x2
 997 0036 D5       		.byte	0xd5
 998 0037 3B000000 		.4byte	0x3b
 999 003b 04       		.uleb128 0x4
 1000 003c 04       		.byte	0x4
 1001 003d 07       		.byte	0x7
 1002 003e 9D010000 		.4byte	.LASF0
ARM GAS  C:\Users\3130\AppData\Local\Temp\ccPAZpBF.s 			page 19


 1003 0042 04       		.uleb128 0x4
 1004 0043 01       		.byte	0x1
 1005 0044 06       		.byte	0x6
 1006 0045 9F000000 		.4byte	.LASF1
 1007 0049 03       		.uleb128 0x3
 1008 004a 10050000 		.4byte	.LASF3
 1009 004e 03       		.byte	0x3
 1010 004f 2A       		.byte	0x2a
 1011 0050 54000000 		.4byte	0x54
 1012 0054 04       		.uleb128 0x4
 1013 0055 01       		.byte	0x1
 1014 0056 08       		.byte	0x8
 1015 0057 84030000 		.4byte	.LASF4
 1016 005b 04       		.uleb128 0x4
 1017 005c 02       		.byte	0x2
 1018 005d 05       		.byte	0x5
 1019 005e CB030000 		.4byte	.LASF5
 1020 0062 04       		.uleb128 0x4
 1021 0063 02       		.byte	0x2
 1022 0064 07       		.byte	0x7
 1023 0065 FC010000 		.4byte	.LASF6
 1024 0069 03       		.uleb128 0x3
 1025 006a 7C030000 		.4byte	.LASF7
 1026 006e 03       		.byte	0x3
 1027 006f 4F       		.byte	0x4f
 1028 0070 74000000 		.4byte	0x74
 1029 0074 04       		.uleb128 0x4
 1030 0075 04       		.byte	0x4
 1031 0076 05       		.byte	0x5
 1032 0077 F0000000 		.4byte	.LASF8
 1033 007b 03       		.uleb128 0x3
 1034 007c 37040000 		.4byte	.LASF9
 1035 0080 03       		.byte	0x3
 1036 0081 50       		.byte	0x50
 1037 0082 86000000 		.4byte	0x86
 1038 0086 04       		.uleb128 0x4
 1039 0087 04       		.byte	0x4
 1040 0088 07       		.byte	0x7
 1041 0089 B2010000 		.4byte	.LASF10
 1042 008d 04       		.uleb128 0x4
 1043 008e 08       		.byte	0x8
 1044 008f 05       		.byte	0x5
 1045 0090 91000000 		.4byte	.LASF11
 1046 0094 04       		.uleb128 0x4
 1047 0095 08       		.byte	0x8
 1048 0096 07       		.byte	0x7
 1049 0097 3A000000 		.4byte	.LASF12
 1050 009b 03       		.uleb128 0x3
 1051 009c C7000000 		.4byte	.LASF13
 1052 00a0 04       		.byte	0x4
 1053 00a1 2B       		.byte	0x2b
 1054 00a2 A6000000 		.4byte	0xa6
 1055 00a6 04       		.uleb128 0x4
 1056 00a7 01       		.byte	0x1
 1057 00a8 02       		.byte	0x2
 1058 00a9 76030000 		.4byte	.LASF14
 1059 00ad 03       		.uleb128 0x3
ARM GAS  C:\Users\3130\AppData\Local\Temp\ccPAZpBF.s 			page 20


 1060 00ae 62020000 		.4byte	.LASF15
 1061 00b2 04       		.byte	0x4
 1062 00b3 2C       		.byte	0x2c
 1063 00b4 49000000 		.4byte	0x49
 1064 00b8 03       		.uleb128 0x3
 1065 00b9 05010000 		.4byte	.LASF16
 1066 00bd 04       		.byte	0x4
 1067 00be 2D       		.byte	0x2d
 1068 00bf 49000000 		.4byte	0x49
 1069 00c3 03       		.uleb128 0x3
 1070 00c4 57030000 		.4byte	.LASF17
 1071 00c8 04       		.byte	0x4
 1072 00c9 2E       		.byte	0x2e
 1073 00ca 49000000 		.4byte	0x49
 1074 00ce 03       		.uleb128 0x3
 1075 00cf E6000000 		.4byte	.LASF18
 1076 00d3 04       		.byte	0x4
 1077 00d4 2F       		.byte	0x2f
 1078 00d5 49000000 		.4byte	0x49
 1079 00d9 03       		.uleb128 0x3
 1080 00da 6E030000 		.4byte	.LASF19
 1081 00de 04       		.byte	0x4
 1082 00df 30       		.byte	0x30
 1083 00e0 7B000000 		.4byte	0x7b
 1084 00e4 03       		.uleb128 0x3
 1085 00e5 44020000 		.4byte	.LASF20
 1086 00e9 04       		.byte	0x4
 1087 00ea 31       		.byte	0x31
 1088 00eb 69000000 		.4byte	0x69
 1089 00ef 03       		.uleb128 0x3
 1090 00f0 7B010000 		.4byte	.LASF21
 1091 00f4 04       		.byte	0x4
 1092 00f5 32       		.byte	0x32
 1093 00f6 69000000 		.4byte	0x69
 1094 00fa 03       		.uleb128 0x3
 1095 00fb 76020000 		.4byte	.LASF22
 1096 00ff 04       		.byte	0x4
 1097 0100 33       		.byte	0x33
 1098 0101 7B000000 		.4byte	0x7b
 1099 0105 03       		.uleb128 0x3
 1100 0106 E2040000 		.4byte	.LASF23
 1101 010a 04       		.byte	0x4
 1102 010b 34       		.byte	0x34
 1103 010c 7B000000 		.4byte	0x7b
 1104 0110 03       		.uleb128 0x3
 1105 0111 61040000 		.4byte	.LASF24
 1106 0115 04       		.byte	0x4
 1107 0116 35       		.byte	0x35
 1108 0117 7B000000 		.4byte	0x7b
 1109 011b 03       		.uleb128 0x3
 1110 011c 0C040000 		.4byte	.LASF25
 1111 0120 05       		.byte	0x5
 1112 0121 2A       		.byte	0x2a
 1113 0122 26010000 		.4byte	0x126
 1114 0126 05       		.uleb128 0x5
 1115 0127 0C040000 		.4byte	.LASF25
 1116 012b 48       		.byte	0x48
ARM GAS  C:\Users\3130\AppData\Local\Temp\ccPAZpBF.s 			page 21


 1117 012c 06       		.byte	0x6
 1118 012d 5E       		.byte	0x5e
 1119 012e 4B020000 		.4byte	0x24b
 1120 0132 06       		.uleb128 0x6
 1121 0133 FD030000 		.4byte	.LASF26
 1122 0137 06       		.byte	0x6
 1123 0138 5F       		.byte	0x5f
 1124 0139 70020000 		.4byte	0x270
 1125 013d 02       		.byte	0x2
 1126 013e 23       		.byte	0x23
 1127 013f 00       		.uleb128 0
 1128 0140 06       		.uleb128 0x6
 1129 0141 5F030000 		.4byte	.LASF27
 1130 0145 06       		.byte	0x6
 1131 0146 61       		.byte	0x61
 1132 0147 70020000 		.4byte	0x270
 1133 014b 02       		.byte	0x2
 1134 014c 23       		.byte	0x23
 1135 014d 04       		.uleb128 0x4
 1136 014e 06       		.uleb128 0x6
 1137 014f 7D000000 		.4byte	.LASF28
 1138 0153 06       		.byte	0x6
 1139 0154 63       		.byte	0x63
 1140 0155 D9000000 		.4byte	0xd9
 1141 0159 02       		.byte	0x2
 1142 015a 23       		.byte	0x23
 1143 015b 08       		.uleb128 0x8
 1144 015c 06       		.uleb128 0x6
 1145 015d A7050000 		.4byte	.LASF29
 1146 0161 06       		.byte	0x6
 1147 0162 64       		.byte	0x64
 1148 0163 34030000 		.4byte	0x334
 1149 0167 02       		.byte	0x2
 1150 0168 23       		.byte	0x23
 1151 0169 0C       		.uleb128 0xc
 1152 016a 06       		.uleb128 0x6
 1153 016b 46010000 		.4byte	.LASF30
 1154 016f 06       		.byte	0x6
 1155 0170 66       		.byte	0x66
 1156 0171 70020000 		.4byte	0x270
 1157 0175 02       		.byte	0x2
 1158 0176 23       		.byte	0x23
 1159 0177 10       		.uleb128 0x10
 1160 0178 06       		.uleb128 0x6
 1161 0179 E9020000 		.4byte	.LASF31
 1162 017d 06       		.byte	0x6
 1163 017e 67       		.byte	0x67
 1164 017f 70020000 		.4byte	0x270
 1165 0183 02       		.byte	0x2
 1166 0184 23       		.byte	0x23
 1167 0185 14       		.uleb128 0x14
 1168 0186 06       		.uleb128 0x6
 1169 0187 55050000 		.4byte	.LASF32
 1170 018b 06       		.byte	0x6
 1171 018c 6E       		.byte	0x6e
 1172 018d AC050000 		.4byte	0x5ac
 1173 0191 02       		.byte	0x2
ARM GAS  C:\Users\3130\AppData\Local\Temp\ccPAZpBF.s 			page 22


 1174 0192 23       		.byte	0x23
 1175 0193 18       		.uleb128 0x18
 1176 0194 06       		.uleb128 0x6
 1177 0195 D5030000 		.4byte	.LASF33
 1178 0199 06       		.byte	0x6
 1179 019a 79       		.byte	0x79
 1180 019b B8000000 		.4byte	0xb8
 1181 019f 02       		.byte	0x2
 1182 01a0 23       		.byte	0x23
 1183 01a1 1C       		.uleb128 0x1c
 1184 01a2 06       		.uleb128 0x6
 1185 01a3 04040000 		.4byte	.LASF34
 1186 01a7 06       		.byte	0x6
 1187 01a8 7D       		.byte	0x7d
 1188 01a9 AD000000 		.4byte	0xad
 1189 01ad 02       		.byte	0x2
 1190 01ae 23       		.byte	0x23
 1191 01af 1D       		.uleb128 0x1d
 1192 01b0 06       		.uleb128 0x6
 1193 01b1 F9040000 		.4byte	.LASF35
 1194 01b5 06       		.byte	0x6
 1195 01b6 82       		.byte	0x82
 1196 01b7 C3000000 		.4byte	0xc3
 1197 01bb 02       		.byte	0x2
 1198 01bc 23       		.byte	0x23
 1199 01bd 1E       		.uleb128 0x1e
 1200 01be 06       		.uleb128 0x6
 1201 01bf DD030000 		.4byte	.LASF36
 1202 01c3 06       		.byte	0x6
 1203 01c4 88       		.byte	0x88
 1204 01c5 CE000000 		.4byte	0xce
 1205 01c9 02       		.byte	0x2
 1206 01ca 23       		.byte	0x23
 1207 01cb 1F       		.uleb128 0x1f
 1208 01cc 06       		.uleb128 0x6
 1209 01cd 7F040000 		.4byte	.LASF37
 1210 01d1 06       		.byte	0x6
 1211 01d2 8F       		.byte	0x8f
 1212 01d3 1E040000 		.4byte	0x41e
 1213 01d7 02       		.byte	0x2
 1214 01d8 23       		.byte	0x23
 1215 01d9 20       		.uleb128 0x20
 1216 01da 07       		.uleb128 0x7
 1217 01db 705F7500 		.ascii	"p_u\000"
 1218 01df 06       		.byte	0x6
 1219 01e0 B4       		.byte	0xb4
 1220 01e1 77050000 		.4byte	0x577
 1221 01e5 02       		.byte	0x2
 1222 01e6 23       		.byte	0x23
 1223 01e7 24       		.uleb128 0x24
 1224 01e8 06       		.uleb128 0x6
 1225 01e9 AD050000 		.4byte	.LASF38
 1226 01ed 06       		.byte	0x6
 1227 01ee B9       		.byte	0xb9
 1228 01ef 98020000 		.4byte	0x298
 1229 01f3 02       		.byte	0x2
 1230 01f4 23       		.byte	0x23
ARM GAS  C:\Users\3130\AppData\Local\Temp\ccPAZpBF.s 			page 23


 1231 01f5 28       		.uleb128 0x28
 1232 01f6 06       		.uleb128 0x6
 1233 01f7 D0040000 		.4byte	.LASF39
 1234 01fb 06       		.byte	0x6
 1235 01fc BF       		.byte	0xbf
 1236 01fd 76020000 		.4byte	0x276
 1237 0201 02       		.byte	0x2
 1238 0202 23       		.byte	0x23
 1239 0203 2C       		.uleb128 0x2c
 1240 0204 06       		.uleb128 0x6
 1241 0205 13000000 		.4byte	.LASF40
 1242 0209 06       		.byte	0x6
 1243 020a C3       		.byte	0xc3
 1244 020b E4000000 		.4byte	0xe4
 1245 020f 02       		.byte	0x2
 1246 0210 23       		.byte	0x23
 1247 0211 34       		.uleb128 0x34
 1248 0212 06       		.uleb128 0x6
 1249 0213 1C040000 		.4byte	.LASF41
 1250 0217 06       		.byte	0x6
 1251 0218 C9       		.byte	0xc9
 1252 0219 FA000000 		.4byte	0xfa
 1253 021d 02       		.byte	0x2
 1254 021e 23       		.byte	0x23
 1255 021f 38       		.uleb128 0x38
 1256 0220 06       		.uleb128 0x6
 1257 0221 C1030000 		.4byte	.LASF42
 1258 0225 06       		.byte	0x6
 1259 0226 D0       		.byte	0xd0
 1260 0227 BE050000 		.4byte	0x5be
 1261 022b 02       		.byte	0x2
 1262 022c 23       		.byte	0x23
 1263 022d 3C       		.uleb128 0x3c
 1264 022e 06       		.uleb128 0x6
 1265 022f 6B040000 		.4byte	.LASF43
 1266 0233 06       		.byte	0x6
 1267 0234 D4       		.byte	0xd4
 1268 0235 D9000000 		.4byte	0xd9
 1269 0239 02       		.byte	0x2
 1270 023a 23       		.byte	0x23
 1271 023b 40       		.uleb128 0x40
 1272 023c 06       		.uleb128 0x6
 1273 023d BF000000 		.4byte	.LASF44
 1274 0241 06       		.byte	0x6
 1275 0242 DA       		.byte	0xda
 1276 0243 AE020000 		.4byte	0x2ae
 1277 0247 02       		.byte	0x2
 1278 0248 23       		.byte	0x23
 1279 0249 44       		.uleb128 0x44
 1280 024a 00       		.byte	0
 1281 024b 08       		.uleb128 0x8
 1282 024c 08       		.byte	0x8
 1283 024d 05       		.byte	0x5
 1284 024e 61       		.byte	0x61
 1285 024f 70020000 		.4byte	0x270
 1286 0253 06       		.uleb128 0x6
 1287 0254 FD030000 		.4byte	.LASF26
ARM GAS  C:\Users\3130\AppData\Local\Temp\ccPAZpBF.s 			page 24


 1288 0258 05       		.byte	0x5
 1289 0259 62       		.byte	0x62
 1290 025a 70020000 		.4byte	0x270
 1291 025e 02       		.byte	0x2
 1292 025f 23       		.byte	0x23
 1293 0260 00       		.uleb128 0
 1294 0261 06       		.uleb128 0x6
 1295 0262 5F030000 		.4byte	.LASF27
 1296 0266 05       		.byte	0x5
 1297 0267 64       		.byte	0x64
 1298 0268 70020000 		.4byte	0x270
 1299 026c 02       		.byte	0x2
 1300 026d 23       		.byte	0x23
 1301 026e 04       		.uleb128 0x4
 1302 026f 00       		.byte	0
 1303 0270 09       		.uleb128 0x9
 1304 0271 04       		.byte	0x4
 1305 0272 1B010000 		.4byte	0x11b
 1306 0276 03       		.uleb128 0x3
 1307 0277 07030000 		.4byte	.LASF45
 1308 027b 05       		.byte	0x5
 1309 027c 66       		.byte	0x66
 1310 027d 4B020000 		.4byte	0x24b
 1311 0281 08       		.uleb128 0x8
 1312 0282 04       		.byte	0x4
 1313 0283 05       		.byte	0x5
 1314 0284 6B       		.byte	0x6b
 1315 0285 98020000 		.4byte	0x298
 1316 0289 06       		.uleb128 0x6
 1317 028a FD030000 		.4byte	.LASF26
 1318 028e 05       		.byte	0x5
 1319 028f 6D       		.byte	0x6d
 1320 0290 70020000 		.4byte	0x270
 1321 0294 02       		.byte	0x2
 1322 0295 23       		.byte	0x23
 1323 0296 00       		.uleb128 0
 1324 0297 00       		.byte	0
 1325 0298 03       		.uleb128 0x3
 1326 0299 6A020000 		.4byte	.LASF46
 1327 029d 05       		.byte	0x5
 1328 029e 70       		.byte	0x70
 1329 029f 81020000 		.4byte	0x281
 1330 02a3 03       		.uleb128 0x3
 1331 02a4 56010000 		.4byte	.LASF47
 1332 02a8 07       		.byte	0x7
 1333 02a9 A7       		.byte	0xa7
 1334 02aa AE020000 		.4byte	0x2ae
 1335 02ae 0A       		.uleb128 0xa
 1336 02af 04       		.byte	0x4
 1337 02b0 05       		.uleb128 0x5
 1338 02b1 C9040000 		.4byte	.LASF48
 1339 02b5 24       		.byte	0x24
 1340 02b6 07       		.byte	0x7
 1341 02b7 BA       		.byte	0xba
 1342 02b8 34030000 		.4byte	0x334
 1343 02bc 07       		.uleb128 0x7
 1344 02bd 723800   		.ascii	"r8\000"
ARM GAS  C:\Users\3130\AppData\Local\Temp\ccPAZpBF.s 			page 25


 1345 02c0 07       		.byte	0x7
 1346 02c1 BB       		.byte	0xbb
 1347 02c2 A3020000 		.4byte	0x2a3
 1348 02c6 02       		.byte	0x2
 1349 02c7 23       		.byte	0x23
 1350 02c8 00       		.uleb128 0
 1351 02c9 07       		.uleb128 0x7
 1352 02ca 723900   		.ascii	"r9\000"
 1353 02cd 07       		.byte	0x7
 1354 02ce BC       		.byte	0xbc
 1355 02cf A3020000 		.4byte	0x2a3
 1356 02d3 02       		.byte	0x2
 1357 02d4 23       		.byte	0x23
 1358 02d5 04       		.uleb128 0x4
 1359 02d6 07       		.uleb128 0x7
 1360 02d7 72313000 		.ascii	"r10\000"
 1361 02db 07       		.byte	0x7
 1362 02dc BD       		.byte	0xbd
 1363 02dd A3020000 		.4byte	0x2a3
 1364 02e1 02       		.byte	0x2
 1365 02e2 23       		.byte	0x23
 1366 02e3 08       		.uleb128 0x8
 1367 02e4 07       		.uleb128 0x7
 1368 02e5 72313100 		.ascii	"r11\000"
 1369 02e9 07       		.byte	0x7
 1370 02ea BE       		.byte	0xbe
 1371 02eb A3020000 		.4byte	0x2a3
 1372 02ef 02       		.byte	0x2
 1373 02f0 23       		.byte	0x23
 1374 02f1 0C       		.uleb128 0xc
 1375 02f2 07       		.uleb128 0x7
 1376 02f3 723400   		.ascii	"r4\000"
 1377 02f6 07       		.byte	0x7
 1378 02f7 BF       		.byte	0xbf
 1379 02f8 A3020000 		.4byte	0x2a3
 1380 02fc 02       		.byte	0x2
 1381 02fd 23       		.byte	0x23
 1382 02fe 10       		.uleb128 0x10
 1383 02ff 07       		.uleb128 0x7
 1384 0300 723500   		.ascii	"r5\000"
 1385 0303 07       		.byte	0x7
 1386 0304 C0       		.byte	0xc0
 1387 0305 A3020000 		.4byte	0x2a3
 1388 0309 02       		.byte	0x2
 1389 030a 23       		.byte	0x23
 1390 030b 14       		.uleb128 0x14
 1391 030c 07       		.uleb128 0x7
 1392 030d 723600   		.ascii	"r6\000"
 1393 0310 07       		.byte	0x7
 1394 0311 C1       		.byte	0xc1
 1395 0312 A3020000 		.4byte	0x2a3
 1396 0316 02       		.byte	0x2
 1397 0317 23       		.byte	0x23
 1398 0318 18       		.uleb128 0x18
 1399 0319 07       		.uleb128 0x7
 1400 031a 723700   		.ascii	"r7\000"
 1401 031d 07       		.byte	0x7
ARM GAS  C:\Users\3130\AppData\Local\Temp\ccPAZpBF.s 			page 26


 1402 031e C2       		.byte	0xc2
 1403 031f A3020000 		.4byte	0x2a3
 1404 0323 02       		.byte	0x2
 1405 0324 23       		.byte	0x23
 1406 0325 1C       		.uleb128 0x1c
 1407 0326 07       		.uleb128 0x7
 1408 0327 6C7200   		.ascii	"lr\000"
 1409 032a 07       		.byte	0x7
 1410 032b C3       		.byte	0xc3
 1411 032c A3020000 		.4byte	0x2a3
 1412 0330 02       		.byte	0x2
 1413 0331 23       		.byte	0x23
 1414 0332 20       		.uleb128 0x20
 1415 0333 00       		.byte	0
 1416 0334 05       		.uleb128 0x5
 1417 0335 F4010000 		.4byte	.LASF49
 1418 0339 04       		.byte	0x4
 1419 033a 07       		.byte	0x7
 1420 033b CD       		.byte	0xcd
 1421 033c 4F030000 		.4byte	0x34f
 1422 0340 07       		.uleb128 0x7
 1423 0341 72313300 		.ascii	"r13\000"
 1424 0345 07       		.byte	0x7
 1425 0346 CE       		.byte	0xce
 1426 0347 4F030000 		.4byte	0x34f
 1427 034b 02       		.byte	0x2
 1428 034c 23       		.byte	0x23
 1429 034d 00       		.uleb128 0
 1430 034e 00       		.byte	0
 1431 034f 09       		.uleb128 0x9
 1432 0350 04       		.byte	0x4
 1433 0351 B0020000 		.4byte	0x2b0
 1434 0355 04       		.uleb128 0x4
 1435 0356 04       		.byte	0x4
 1436 0357 07       		.byte	0x7
 1437 0358 AD020000 		.4byte	.LASF50
 1438 035c 03       		.uleb128 0x3
 1439 035d 76040000 		.4byte	.LASF51
 1440 0361 08       		.byte	0x8
 1441 0362 58       		.byte	0x58
 1442 0363 67030000 		.4byte	0x367
 1443 0367 09       		.uleb128 0x9
 1444 0368 04       		.byte	0x4
 1445 0369 6D030000 		.4byte	0x36d
 1446 036d 0B       		.uleb128 0xb
 1447 036e 01       		.byte	0x1
 1448 036f 79030000 		.4byte	0x379
 1449 0373 0C       		.uleb128 0xc
 1450 0374 AE020000 		.4byte	0x2ae
 1451 0378 00       		.byte	0
 1452 0379 03       		.uleb128 0x3
 1453 037a 48040000 		.4byte	.LASF52
 1454 037e 08       		.byte	0x8
 1455 037f 5D       		.byte	0x5d
 1456 0380 84030000 		.4byte	0x384
 1457 0384 05       		.uleb128 0x5
 1458 0385 48040000 		.4byte	.LASF52
ARM GAS  C:\Users\3130\AppData\Local\Temp\ccPAZpBF.s 			page 27


 1459 0389 14       		.byte	0x14
 1460 038a 08       		.byte	0x8
 1461 038b 64       		.byte	0x64
 1462 038c D7030000 		.4byte	0x3d7
 1463 0390 06       		.uleb128 0x6
 1464 0391 AA010000 		.4byte	.LASF53
 1465 0395 08       		.byte	0x8
 1466 0396 65       		.byte	0x65
 1467 0397 D7030000 		.4byte	0x3d7
 1468 039b 02       		.byte	0x2
 1469 039c 23       		.byte	0x23
 1470 039d 00       		.uleb128 0
 1471 039e 06       		.uleb128 0x6
 1472 039f 5F010000 		.4byte	.LASF54
 1473 03a3 08       		.byte	0x8
 1474 03a4 67       		.byte	0x67
 1475 03a5 D7030000 		.4byte	0x3d7
 1476 03a9 02       		.byte	0x2
 1477 03aa 23       		.byte	0x23
 1478 03ab 04       		.uleb128 0x4
 1479 03ac 06       		.uleb128 0x6
 1480 03ad 9A020000 		.4byte	.LASF55
 1481 03b1 08       		.byte	0x8
 1482 03b2 69       		.byte	0x69
 1483 03b3 10010000 		.4byte	0x110
 1484 03b7 02       		.byte	0x2
 1485 03b8 23       		.byte	0x23
 1486 03b9 08       		.uleb128 0x8
 1487 03ba 06       		.uleb128 0x6
 1488 03bb B6020000 		.4byte	.LASF56
 1489 03bf 08       		.byte	0x8
 1490 03c0 6A       		.byte	0x6a
 1491 03c1 5C030000 		.4byte	0x35c
 1492 03c5 02       		.byte	0x2
 1493 03c6 23       		.byte	0x23
 1494 03c7 0C       		.uleb128 0xc
 1495 03c8 06       		.uleb128 0x6
 1496 03c9 DB040000 		.4byte	.LASF57
 1497 03cd 08       		.byte	0x8
 1498 03ce 6C       		.byte	0x6c
 1499 03cf AE020000 		.4byte	0x2ae
 1500 03d3 02       		.byte	0x2
 1501 03d4 23       		.byte	0x23
 1502 03d5 10       		.uleb128 0x10
 1503 03d6 00       		.byte	0
 1504 03d7 09       		.uleb128 0x9
 1505 03d8 04       		.byte	0x4
 1506 03d9 79030000 		.4byte	0x379
 1507 03dd 08       		.uleb128 0x8
 1508 03de 10       		.byte	0x10
 1509 03df 08       		.byte	0x8
 1510 03e0 76       		.byte	0x76
 1511 03e1 1E040000 		.4byte	0x41e
 1512 03e5 06       		.uleb128 0x6
 1513 03e6 AA010000 		.4byte	.LASF53
 1514 03ea 08       		.byte	0x8
 1515 03eb 77       		.byte	0x77
ARM GAS  C:\Users\3130\AppData\Local\Temp\ccPAZpBF.s 			page 28


 1516 03ec D7030000 		.4byte	0x3d7
 1517 03f0 02       		.byte	0x2
 1518 03f1 23       		.byte	0x23
 1519 03f2 00       		.uleb128 0
 1520 03f3 06       		.uleb128 0x6
 1521 03f4 5F010000 		.4byte	.LASF54
 1522 03f8 08       		.byte	0x8
 1523 03f9 79       		.byte	0x79
 1524 03fa D7030000 		.4byte	0x3d7
 1525 03fe 02       		.byte	0x2
 1526 03ff 23       		.byte	0x23
 1527 0400 04       		.uleb128 0x4
 1528 0401 06       		.uleb128 0x6
 1529 0402 9A020000 		.4byte	.LASF55
 1530 0406 08       		.byte	0x8
 1531 0407 7B       		.byte	0x7b
 1532 0408 10010000 		.4byte	0x110
 1533 040c 02       		.byte	0x2
 1534 040d 23       		.byte	0x23
 1535 040e 08       		.uleb128 0x8
 1536 040f 06       		.uleb128 0x6
 1537 0410 69050000 		.4byte	.LASF58
 1538 0414 08       		.byte	0x8
 1539 0415 7C       		.byte	0x7c
 1540 0416 1E040000 		.4byte	0x41e
 1541 041a 02       		.byte	0x2
 1542 041b 23       		.byte	0x23
 1543 041c 0C       		.uleb128 0xc
 1544 041d 00       		.byte	0
 1545 041e 0D       		.uleb128 0xd
 1546 041f 10010000 		.4byte	0x110
 1547 0423 03       		.uleb128 0x3
 1548 0424 7C050000 		.4byte	.LASF59
 1549 0428 08       		.byte	0x8
 1550 0429 7D       		.byte	0x7d
 1551 042a DD030000 		.4byte	0x3dd
 1552 042e 08       		.uleb128 0x8
 1553 042f 1C       		.byte	0x1c
 1554 0430 09       		.byte	0x9
 1555 0431 5E       		.byte	0x5e
 1556 0432 8B040000 		.4byte	0x48b
 1557 0436 06       		.uleb128 0x6
 1558 0437 40040000 		.4byte	.LASF60
 1559 043b 09       		.byte	0x9
 1560 043c 5F       		.byte	0x5f
 1561 043d 76020000 		.4byte	0x276
 1562 0441 02       		.byte	0x2
 1563 0442 23       		.byte	0x23
 1564 0443 00       		.uleb128 0
 1565 0444 06       		.uleb128 0x6
 1566 0445 EF030000 		.4byte	.LASF61
 1567 0449 09       		.byte	0x9
 1568 044a 60       		.byte	0x60
 1569 044b D9000000 		.4byte	0xd9
 1570 044f 02       		.byte	0x2
 1571 0450 23       		.byte	0x23
 1572 0451 08       		.uleb128 0x8
ARM GAS  C:\Users\3130\AppData\Local\Temp\ccPAZpBF.s 			page 29


 1573 0452 06       		.uleb128 0x6
 1574 0453 01030000 		.4byte	.LASF62
 1575 0457 09       		.byte	0x9
 1576 0458 62       		.byte	0x62
 1577 0459 34030000 		.4byte	0x334
 1578 045d 02       		.byte	0x2
 1579 045e 23       		.byte	0x23
 1580 045f 0C       		.uleb128 0xc
 1581 0460 06       		.uleb128 0x6
 1582 0461 4E010000 		.4byte	.LASF63
 1583 0465 09       		.byte	0x9
 1584 0466 65       		.byte	0x65
 1585 0467 70020000 		.4byte	0x270
 1586 046b 02       		.byte	0x2
 1587 046c 23       		.byte	0x23
 1588 046d 10       		.uleb128 0x10
 1589 046e 06       		.uleb128 0x6
 1590 046f 47030000 		.4byte	.LASF64
 1591 0473 09       		.byte	0x9
 1592 0474 66       		.byte	0x66
 1593 0475 70020000 		.4byte	0x270
 1594 0479 02       		.byte	0x2
 1595 047a 23       		.byte	0x23
 1596 047b 14       		.uleb128 0x14
 1597 047c 06       		.uleb128 0x6
 1598 047d 3D030000 		.4byte	.LASF65
 1599 0481 09       		.byte	0x9
 1600 0482 69       		.byte	0x69
 1601 0483 70020000 		.4byte	0x270
 1602 0487 02       		.byte	0x2
 1603 0488 23       		.byte	0x23
 1604 0489 18       		.uleb128 0x18
 1605 048a 00       		.byte	0
 1606 048b 03       		.uleb128 0x3
 1607 048c 00050000 		.4byte	.LASF66
 1608 0490 09       		.byte	0x9
 1609 0491 6B       		.byte	0x6b
 1610 0492 2E040000 		.4byte	0x42e
 1611 0496 05       		.uleb128 0x5
 1612 0497 82020000 		.4byte	.LASF67
 1613 049b 10       		.byte	0x10
 1614 049c 0A       		.byte	0xa
 1615 049d 2C       		.byte	0x2c
 1616 049e CD040000 		.4byte	0x4cd
 1617 04a2 06       		.uleb128 0x6
 1618 04a3 CE000000 		.4byte	.LASF68
 1619 04a7 0A       		.byte	0xa
 1620 04a8 2D       		.byte	0x2d
 1621 04a9 76020000 		.4byte	0x276
 1622 04ad 02       		.byte	0x2
 1623 04ae 23       		.byte	0x23
 1624 04af 00       		.uleb128 0
 1625 04b0 06       		.uleb128 0x6
 1626 04b1 83050000 		.4byte	.LASF69
 1627 04b5 0A       		.byte	0xa
 1628 04b6 2F       		.byte	0x2f
 1629 04b7 70020000 		.4byte	0x270
ARM GAS  C:\Users\3130\AppData\Local\Temp\ccPAZpBF.s 			page 30


 1630 04bb 02       		.byte	0x2
 1631 04bc 23       		.byte	0x23
 1632 04bd 08       		.uleb128 0x8
 1633 04be 06       		.uleb128 0x6
 1634 04bf 5A040000 		.4byte	.LASF70
 1635 04c3 0A       		.byte	0xa
 1636 04c4 31       		.byte	0x31
 1637 04c5 CD040000 		.4byte	0x4cd
 1638 04c9 02       		.byte	0x2
 1639 04ca 23       		.byte	0x23
 1640 04cb 0C       		.uleb128 0xc
 1641 04cc 00       		.byte	0
 1642 04cd 09       		.uleb128 0x9
 1643 04ce 04       		.byte	0x4
 1644 04cf 96040000 		.4byte	0x496
 1645 04d3 03       		.uleb128 0x3
 1646 04d4 82020000 		.4byte	.LASF67
 1647 04d8 0A       		.byte	0xa
 1648 04d9 33       		.byte	0x33
 1649 04da 96040000 		.4byte	0x496
 1650 04de 03       		.uleb128 0x3
 1651 04df BB040000 		.4byte	.LASF71
 1652 04e3 0B       		.byte	0xb
 1653 04e4 2C       		.byte	0x2c
 1654 04e5 E9040000 		.4byte	0x4e9
 1655 04e9 05       		.uleb128 0x5
 1656 04ea BB040000 		.4byte	.LASF71
 1657 04ee 10       		.byte	0x10
 1658 04ef 0B       		.byte	0xb
 1659 04f0 31       		.byte	0x31
 1660 04f1 2E050000 		.4byte	0x52e
 1661 04f5 06       		.uleb128 0x6
 1662 04f6 4A020000 		.4byte	.LASF72
 1663 04fa 0B       		.byte	0xb
 1664 04fb 32       		.byte	0x32
 1665 04fc 2E050000 		.4byte	0x52e
 1666 0500 02       		.byte	0x2
 1667 0501 23       		.byte	0x23
 1668 0502 00       		.uleb128 0
 1669 0503 06       		.uleb128 0x6
 1670 0504 9F030000 		.4byte	.LASF73
 1671 0508 0B       		.byte	0xb
 1672 0509 35       		.byte	0x35
 1673 050a 70020000 		.4byte	0x270
 1674 050e 02       		.byte	0x2
 1675 050f 23       		.byte	0x23
 1676 0510 04       		.uleb128 0x4
 1677 0511 06       		.uleb128 0x6
 1678 0512 4F030000 		.4byte	.LASF74
 1679 0516 0B       		.byte	0xb
 1680 0517 37       		.byte	0x37
 1681 0518 FA000000 		.4byte	0xfa
 1682 051c 02       		.byte	0x2
 1683 051d 23       		.byte	0x23
 1684 051e 08       		.uleb128 0x8
 1685 051f 06       		.uleb128 0x6
 1686 0520 B8030000 		.4byte	.LASF75
ARM GAS  C:\Users\3130\AppData\Local\Temp\ccPAZpBF.s 			page 31


 1687 0524 0B       		.byte	0xb
 1688 0525 3A       		.byte	0x3a
 1689 0526 05010000 		.4byte	0x105
 1690 052a 02       		.byte	0x2
 1691 052b 23       		.byte	0x23
 1692 052c 0C       		.uleb128 0xc
 1693 052d 00       		.byte	0
 1694 052e 09       		.uleb128 0x9
 1695 052f 04       		.byte	0x4
 1696 0530 DE040000 		.4byte	0x4de
 1697 0534 05       		.uleb128 0x5
 1698 0535 85010000 		.4byte	.LASF76
 1699 0539 04       		.byte	0x4
 1700 053a 0B       		.byte	0xb
 1701 053b 41       		.byte	0x41
 1702 053c 4F050000 		.4byte	0x54f
 1703 0540 06       		.uleb128 0x6
 1704 0541 74050000 		.4byte	.LASF77
 1705 0545 0B       		.byte	0xb
 1706 0546 42       		.byte	0x42
 1707 0547 2E050000 		.4byte	0x52e
 1708 054b 02       		.byte	0x2
 1709 054c 23       		.byte	0x23
 1710 054d 00       		.uleb128 0
 1711 054e 00       		.byte	0
 1712 054f 03       		.uleb128 0x3
 1713 0550 85010000 		.4byte	.LASF76
 1714 0554 0B       		.byte	0xb
 1715 0555 45       		.byte	0x45
 1716 0556 34050000 		.4byte	0x534
 1717 055a 03       		.uleb128 0x3
 1718 055b 91010000 		.4byte	.LASF78
 1719 055f 0B       		.byte	0xb
 1720 0560 4A       		.byte	0x4a
 1721 0561 65050000 		.4byte	0x565
 1722 0565 09       		.uleb128 0x9
 1723 0566 04       		.byte	0x4
 1724 0567 6B050000 		.4byte	0x56b
 1725 056b 0B       		.uleb128 0xb
 1726 056c 01       		.byte	0x1
 1727 056d 77050000 		.4byte	0x577
 1728 0571 0C       		.uleb128 0xc
 1729 0572 EF000000 		.4byte	0xef
 1730 0576 00       		.byte	0
 1731 0577 0E       		.uleb128 0xe
 1732 0578 04       		.byte	0x4
 1733 0579 06       		.byte	0x6
 1734 057a 96       		.byte	0x96
 1735 057b AC050000 		.4byte	0x5ac
 1736 057f 0F       		.uleb128 0xf
 1737 0580 20000000 		.4byte	.LASF79
 1738 0584 06       		.byte	0x6
 1739 0585 9D       		.byte	0x9d
 1740 0586 E4000000 		.4byte	0xe4
 1741 058a 0F       		.uleb128 0xf
 1742 058b 60000000 		.4byte	.LASF80
 1743 058f 06       		.byte	0x6
ARM GAS  C:\Users\3130\AppData\Local\Temp\ccPAZpBF.s 			page 32


 1744 0590 A4       		.byte	0xa4
 1745 0591 E4000000 		.4byte	0xe4
 1746 0595 0F       		.uleb128 0xf
 1747 0596 4E050000 		.4byte	.LASF81
 1748 059a 06       		.byte	0x6
 1749 059b AB       		.byte	0xab
 1750 059c AE020000 		.4byte	0x2ae
 1751 05a0 0F       		.uleb128 0xf
 1752 05a1 F6030000 		.4byte	.LASF82
 1753 05a5 06       		.byte	0x6
 1754 05a6 B2       		.byte	0xb2
 1755 05a7 FA000000 		.4byte	0xfa
 1756 05ab 00       		.byte	0
 1757 05ac 09       		.uleb128 0x9
 1758 05ad 04       		.byte	0x4
 1759 05ae B2050000 		.4byte	0x5b2
 1760 05b2 10       		.uleb128 0x10
 1761 05b3 B7050000 		.4byte	0x5b7
 1762 05b7 04       		.uleb128 0x4
 1763 05b8 01       		.byte	0x1
 1764 05b9 08       		.byte	0x8
 1765 05ba 55040000 		.4byte	.LASF83
 1766 05be 09       		.uleb128 0x9
 1767 05bf 04       		.byte	0x4
 1768 05c0 D3040000 		.4byte	0x4d3
 1769 05c4 03       		.uleb128 0x3
 1770 05c5 00000000 		.4byte	.LASF84
 1771 05c9 06       		.byte	0x6
 1772 05ca E5       		.byte	0xe5
 1773 05cb CF050000 		.4byte	0x5cf
 1774 05cf 09       		.uleb128 0x9
 1775 05d0 04       		.byte	0x4
 1776 05d1 D5050000 		.4byte	0x5d5
 1777 05d5 11       		.uleb128 0x11
 1778 05d6 01       		.byte	0x1
 1779 05d7 E4000000 		.4byte	0xe4
 1780 05db E5050000 		.4byte	0x5e5
 1781 05df 0C       		.uleb128 0xc
 1782 05e0 AE020000 		.4byte	0x2ae
 1783 05e4 00       		.byte	0
 1784 05e5 05       		.uleb128 0x5
 1785 05e6 13040000 		.4byte	.LASF85
 1786 05ea 10       		.byte	0x10
 1787 05eb 0C       		.byte	0xc
 1788 05ec 3B       		.byte	0x3b
 1789 05ed 2A060000 		.4byte	0x62a
 1790 05f1 06       		.uleb128 0x6
 1791 05f2 EF010000 		.4byte	.LASF86
 1792 05f6 0C       		.byte	0xc
 1793 05f7 3C       		.byte	0x3c
 1794 05f8 AC050000 		.4byte	0x5ac
 1795 05fc 02       		.byte	0x2
 1796 05fd 23       		.byte	0x23
 1797 05fe 00       		.uleb128 0
 1798 05ff 06       		.uleb128 0x6
 1799 0600 14030000 		.4byte	.LASF87
 1800 0604 0C       		.byte	0xc
ARM GAS  C:\Users\3130\AppData\Local\Temp\ccPAZpBF.s 			page 33


 1801 0605 3D       		.byte	0x3d
 1802 0606 2C060000 		.4byte	0x62c
 1803 060a 02       		.byte	0x2
 1804 060b 23       		.byte	0x23
 1805 060c 04       		.uleb128 0x4
 1806 060d 06       		.uleb128 0x6
 1807 060e DB010000 		.4byte	.LASF88
 1808 0612 0C       		.byte	0xc
 1809 0613 3E       		.byte	0x3e
 1810 0614 2C060000 		.4byte	0x62c
 1811 0618 02       		.byte	0x2
 1812 0619 23       		.byte	0x23
 1813 061a 08       		.uleb128 0x8
 1814 061b 06       		.uleb128 0x6
 1815 061c 66030000 		.4byte	.LASF89
 1816 0620 0C       		.byte	0xc
 1817 0621 3F       		.byte	0x3f
 1818 0622 2C060000 		.4byte	0x62c
 1819 0626 02       		.byte	0x2
 1820 0627 23       		.byte	0x23
 1821 0628 0C       		.uleb128 0xc
 1822 0629 00       		.byte	0
 1823 062a 12       		.uleb128 0x12
 1824 062b 01       		.byte	0x1
 1825 062c 09       		.uleb128 0x9
 1826 062d 04       		.byte	0x4
 1827 062e 2A060000 		.4byte	0x62a
 1828 0632 13       		.uleb128 0x13
 1829 0633 AB030000 		.4byte	.LASF128
 1830 0637 01       		.byte	0x1
 1831 0638 FC       		.byte	0xfc
 1832 0639 01       		.byte	0x1
 1833 063a 01       		.byte	0x1
 1834 063b 49060000 		.4byte	0x649
 1835 063f 14       		.uleb128 0x14
 1836 0640 6D00     		.ascii	"m\000"
 1837 0642 01       		.byte	0x1
 1838 0643 FD       		.byte	0xfd
 1839 0644 FA000000 		.4byte	0xfa
 1840 0648 00       		.byte	0
 1841 0649 15       		.uleb128 0x15
 1842 064a CC020000 		.4byte	.LASF90
 1843 064e 01       		.byte	0x1
 1844 064f F7       		.byte	0xf7
 1845 0650 01       		.byte	0x1
 1846 0651 00000000 		.4byte	.LFB16
 1847 0655 0C000000 		.4byte	.LFE16
 1848 0659 00000000 		.4byte	.LLST0
 1849 065d 01       		.byte	0x1
 1850 065e 73060000 		.4byte	0x673
 1851 0662 16       		.uleb128 0x16
 1852 0663 0A000000 		.4byte	.LVL0
 1853 0667 600F0000 		.4byte	0xf60
 1854 066b 17       		.uleb128 0x17
 1855 066c 01       		.byte	0x1
 1856 066d 50       		.byte	0x50
 1857 066e 02       		.byte	0x2
ARM GAS  C:\Users\3130\AppData\Local\Temp\ccPAZpBF.s 			page 34


 1858 066f 09       		.byte	0x9
 1859 0670 FF       		.byte	0xff
 1860 0671 00       		.byte	0
 1861 0672 00       		.byte	0
 1862 0673 15       		.uleb128 0x15
 1863 0674 08000000 		.4byte	.LASF91
 1864 0678 01       		.byte	0x1
 1865 0679 80       		.byte	0x80
 1866 067a 01       		.byte	0x1
 1867 067b 00000000 		.4byte	.LFB12
 1868 067f 0C000000 		.4byte	.LFE12
 1869 0683 20000000 		.4byte	.LLST1
 1870 0687 01       		.byte	0x1
 1871 0688 9D060000 		.4byte	0x69d
 1872 068c 16       		.uleb128 0x16
 1873 068d 0A000000 		.4byte	.LVL1
 1874 0691 600F0000 		.4byte	0xf60
 1875 0695 17       		.uleb128 0x17
 1876 0696 01       		.byte	0x1
 1877 0697 50       		.byte	0x50
 1878 0698 02       		.byte	0x2
 1879 0699 09       		.byte	0x9
 1880 069a FF       		.byte	0xff
 1881 069b 00       		.byte	0
 1882 069c 00       		.byte	0
 1883 069d 15       		.uleb128 0x15
 1884 069e A2020000 		.4byte	.LASF92
 1885 06a2 01       		.byte	0x1
 1886 06a3 4B       		.byte	0x4b
 1887 06a4 01       		.byte	0x1
 1888 06a5 00000000 		.4byte	.LFB7
 1889 06a9 0C000000 		.4byte	.LFE7
 1890 06ad 40000000 		.4byte	.LLST2
 1891 06b1 01       		.byte	0x1
 1892 06b2 C7060000 		.4byte	0x6c7
 1893 06b6 16       		.uleb128 0x16
 1894 06b7 0A000000 		.4byte	.LVL2
 1895 06bb 600F0000 		.4byte	0xf60
 1896 06bf 17       		.uleb128 0x17
 1897 06c0 01       		.byte	0x1
 1898 06c1 50       		.byte	0x50
 1899 06c2 02       		.byte	0x2
 1900 06c3 09       		.byte	0x9
 1901 06c4 FF       		.byte	0xff
 1902 06c5 00       		.byte	0
 1903 06c6 00       		.byte	0
 1904 06c7 15       		.uleb128 0x15
 1905 06c8 84000000 		.4byte	.LASF93
 1906 06cc 01       		.byte	0x1
 1907 06cd 95       		.byte	0x95
 1908 06ce 01       		.byte	0x1
 1909 06cf 00000000 		.4byte	.LFB15
 1910 06d3 40020000 		.4byte	.LFE15
 1911 06d7 60000000 		.4byte	.LLST3
 1912 06db 01       		.byte	0x1
 1913 06dc 930A0000 		.4byte	0xa93
 1914 06e0 18       		.uleb128 0x18
ARM GAS  C:\Users\3130\AppData\Local\Temp\ccPAZpBF.s 			page 35


 1915 06e1 6D00     		.ascii	"m\000"
 1916 06e3 01       		.byte	0x1
 1917 06e4 96       		.byte	0x96
 1918 06e5 FA000000 		.4byte	0xfa
 1919 06e9 99000000 		.4byte	.LLST4
 1920 06ed 19       		.uleb128 0x19
 1921 06ee 656C3100 		.ascii	"el1\000"
 1922 06f2 01       		.byte	0x1
 1923 06f3 97       		.byte	0x97
 1924 06f4 DE040000 		.4byte	0x4de
 1925 06f8 02       		.byte	0x2
 1926 06f9 91       		.byte	0x91
 1927 06fa 40       		.sleb128 -64
 1928 06fb 19       		.uleb128 0x19
 1929 06fc 656C3200 		.ascii	"el2\000"
 1930 0700 01       		.byte	0x1
 1931 0701 97       		.byte	0x97
 1932 0702 DE040000 		.4byte	0x4de
 1933 0706 02       		.byte	0x2
 1934 0707 91       		.byte	0x91
 1935 0708 50       		.sleb128 -48
 1936 0709 1A       		.uleb128 0x1a
 1937 070a F9000000 		.4byte	.LASF94
 1938 070e 01       		.byte	0x1
 1939 070f 98       		.byte	0x98
 1940 0710 10010000 		.4byte	0x110
 1941 0714 25010000 		.4byte	.LLST5
 1942 0718 1B       		.uleb128 0x1b
 1943 0719 10000000 		.4byte	.LVL3
 1944 071d 780F0000 		.4byte	0xf78
 1945 0721 2B070000 		.4byte	0x72b
 1946 0725 17       		.uleb128 0x17
 1947 0726 01       		.byte	0x1
 1948 0727 50       		.byte	0x50
 1949 0728 01       		.byte	0x1
 1950 0729 35       		.byte	0x35
 1951 072a 00       		.byte	0
 1952 072b 1B       		.uleb128 0x1b
 1953 072c 18000000 		.4byte	.LVL4
 1954 0730 900F0000 		.4byte	0xf90
 1955 0734 3F070000 		.4byte	0x73f
 1956 0738 17       		.uleb128 0x17
 1957 0739 01       		.byte	0x1
 1958 073a 50       		.byte	0x50
 1959 073b 02       		.byte	0x2
 1960 073c 09       		.byte	0x9
 1961 073d FF       		.byte	0xff
 1962 073e 00       		.byte	0
 1963 073f 1B       		.uleb128 0x1b
 1964 0740 24000000 		.4byte	.LVL6
 1965 0744 A80F0000 		.4byte	0xfa8
 1966 0748 52070000 		.4byte	0x752
 1967 074c 17       		.uleb128 0x17
 1968 074d 01       		.byte	0x1
 1969 074e 50       		.byte	0x50
 1970 074f 01       		.byte	0x1
 1971 0750 31       		.byte	0x31
ARM GAS  C:\Users\3130\AppData\Local\Temp\ccPAZpBF.s 			page 36


 1972 0751 00       		.byte	0
 1973 0752 1B       		.uleb128 0x1b
 1974 0753 3A000000 		.4byte	.LVL7
 1975 0757 900F0000 		.4byte	0xf90
 1976 075b 66070000 		.4byte	0x766
 1977 075f 17       		.uleb128 0x17
 1978 0760 01       		.byte	0x1
 1979 0761 50       		.byte	0x50
 1980 0762 02       		.byte	0x2
 1981 0763 09       		.byte	0x9
 1982 0764 FF       		.byte	0xff
 1983 0765 00       		.byte	0
 1984 0766 1B       		.uleb128 0x1b
 1985 0767 46000000 		.4byte	.LVL9
 1986 076b A80F0000 		.4byte	0xfa8
 1987 076f 79070000 		.4byte	0x779
 1988 0773 17       		.uleb128 0x17
 1989 0774 01       		.byte	0x1
 1990 0775 50       		.byte	0x50
 1991 0776 01       		.byte	0x1
 1992 0777 32       		.byte	0x32
 1993 0778 00       		.byte	0
 1994 0779 1B       		.uleb128 0x1b
 1995 077a 52000000 		.4byte	.LVL10
 1996 077e 600F0000 		.4byte	0xf60
 1997 0782 8D070000 		.4byte	0x78d
 1998 0786 17       		.uleb128 0x17
 1999 0787 01       		.byte	0x1
 2000 0788 50       		.byte	0x50
 2001 0789 02       		.byte	0x2
 2002 078a 09       		.byte	0x9
 2003 078b FF       		.byte	0xff
 2004 078c 00       		.byte	0
 2005 078d 1B       		.uleb128 0x1b
 2006 078e 5C000000 		.4byte	.LVL12
 2007 0792 A80F0000 		.4byte	0xfa8
 2008 0796 A0070000 		.4byte	0x7a0
 2009 079a 17       		.uleb128 0x17
 2010 079b 01       		.byte	0x1
 2011 079c 50       		.byte	0x50
 2012 079d 01       		.byte	0x1
 2013 079e 33       		.byte	0x33
 2014 079f 00       		.byte	0
 2015 07a0 1C       		.uleb128 0x1c
 2016 07a1 64000000 		.4byte	.LVL13
 2017 07a5 C50F0000 		.4byte	0xfc5
 2018 07a9 1B       		.uleb128 0x1b
 2019 07aa 86000000 		.4byte	.LVL15
 2020 07ae D30F0000 		.4byte	0xfd3
 2021 07b2 CA070000 		.4byte	0x7ca
 2022 07b6 17       		.uleb128 0x17
 2023 07b7 01       		.byte	0x1
 2024 07b8 53       		.byte	0x53
 2025 07b9 02       		.byte	0x2
 2026 07ba 78       		.byte	0x78
 2027 07bb 00       		.sleb128 0
 2028 07bc 17       		.uleb128 0x17
ARM GAS  C:\Users\3130\AppData\Local\Temp\ccPAZpBF.s 			page 37


 2029 07bd 01       		.byte	0x1
 2030 07be 51       		.byte	0x51
 2031 07bf 03       		.byte	0x3
 2032 07c0 0A       		.byte	0xa
 2033 07c1 3001     		.2byte	0x130
 2034 07c3 17       		.uleb128 0x17
 2035 07c4 01       		.byte	0x1
 2036 07c5 50       		.byte	0x50
 2037 07c6 02       		.byte	0x2
 2038 07c7 75       		.byte	0x75
 2039 07c8 00       		.sleb128 0
 2040 07c9 00       		.byte	0
 2041 07ca 1B       		.uleb128 0x1b
 2042 07cb 92000000 		.4byte	.LVL16
 2043 07cf 900F0000 		.4byte	0xf90
 2044 07d3 DE070000 		.4byte	0x7de
 2045 07d7 17       		.uleb128 0x17
 2046 07d8 01       		.byte	0x1
 2047 07d9 50       		.byte	0x50
 2048 07da 02       		.byte	0x2
 2049 07db 09       		.byte	0x9
 2050 07dc FF       		.byte	0xff
 2051 07dd 00       		.byte	0
 2052 07de 1B       		.uleb128 0x1b
 2053 07df A2000000 		.4byte	.LVL20
 2054 07e3 00100000 		.4byte	0x1000
 2055 07e7 FD070000 		.4byte	0x7fd
 2056 07eb 17       		.uleb128 0x17
 2057 07ec 01       		.byte	0x1
 2058 07ed 52       		.byte	0x52
 2059 07ee 02       		.byte	0x2
 2060 07ef 74       		.byte	0x74
 2061 07f0 37       		.sleb128 55
 2062 07f1 17       		.uleb128 0x17
 2063 07f2 01       		.byte	0x1
 2064 07f3 51       		.byte	0x51
 2065 07f4 02       		.byte	0x2
 2066 07f5 74       		.byte	0x74
 2067 07f6 32       		.sleb128 50
 2068 07f7 17       		.uleb128 0x17
 2069 07f8 01       		.byte	0x1
 2070 07f9 50       		.byte	0x50
 2071 07fa 01       		.byte	0x1
 2072 07fb 34       		.byte	0x34
 2073 07fc 00       		.byte	0
 2074 07fd 1B       		.uleb128 0x1b
 2075 07fe B4000000 		.4byte	.LVL21
 2076 0802 A80F0000 		.4byte	0xfa8
 2077 0806 18080000 		.4byte	0x818
 2078 080a 17       		.uleb128 0x17
 2079 080b 01       		.byte	0x1
 2080 080c 51       		.byte	0x51
 2081 080d 04       		.byte	0x4
 2082 080e 79       		.byte	0x79
 2083 080f 00       		.sleb128 0
 2084 0810 31       		.byte	0x31
 2085 0811 29       		.byte	0x29
ARM GAS  C:\Users\3130\AppData\Local\Temp\ccPAZpBF.s 			page 38


 2086 0812 17       		.uleb128 0x17
 2087 0813 01       		.byte	0x1
 2088 0814 50       		.byte	0x50
 2089 0815 01       		.byte	0x1
 2090 0816 35       		.byte	0x35
 2091 0817 00       		.byte	0
 2092 0818 1B       		.uleb128 0x1b
 2093 0819 C0000000 		.4byte	.LVL23
 2094 081d 600F0000 		.4byte	0xf60
 2095 0821 2D080000 		.4byte	0x82d
 2096 0825 17       		.uleb128 0x17
 2097 0826 01       		.byte	0x1
 2098 0827 50       		.byte	0x50
 2099 0828 03       		.byte	0x3
 2100 0829 74       		.byte	0x74
 2101 082a 00       		.sleb128 0
 2102 082b 1F       		.byte	0x1f
 2103 082c 00       		.byte	0
 2104 082d 1B       		.uleb128 0x1b
 2105 082e CA000000 		.4byte	.LVL25
 2106 0832 A80F0000 		.4byte	0xfa8
 2107 0836 40080000 		.4byte	0x840
 2108 083a 17       		.uleb128 0x17
 2109 083b 01       		.byte	0x1
 2110 083c 50       		.byte	0x50
 2111 083d 01       		.byte	0x1
 2112 083e 36       		.byte	0x36
 2113 083f 00       		.byte	0
 2114 0840 1C       		.uleb128 0x1c
 2115 0841 D2000000 		.4byte	.LVL26
 2116 0845 22100000 		.4byte	0x1022
 2117 0849 1B       		.uleb128 0x1b
 2118 084a D8000000 		.4byte	.LVL27
 2119 084e 780F0000 		.4byte	0xf78
 2120 0852 5C080000 		.4byte	0x85c
 2121 0856 17       		.uleb128 0x17
 2122 0857 01       		.byte	0x1
 2123 0858 50       		.byte	0x50
 2124 0859 01       		.byte	0x1
 2125 085a 35       		.byte	0x35
 2126 085b 00       		.byte	0
 2127 085c 1B       		.uleb128 0x1b
 2128 085d E0000000 		.4byte	.LVL28
 2129 0861 2C100000 		.4byte	0x102c
 2130 0865 71080000 		.4byte	0x871
 2131 0869 17       		.uleb128 0x17
 2132 086a 01       		.byte	0x1
 2133 086b 50       		.byte	0x50
 2134 086c 03       		.byte	0x3
 2135 086d 74       		.byte	0x74
 2136 086e 00       		.sleb128 0
 2137 086f 1F       		.byte	0x1f
 2138 0870 00       		.byte	0
 2139 0871 1B       		.uleb128 0x1b
 2140 0872 EC000000 		.4byte	.LVL30
 2141 0876 A80F0000 		.4byte	0xfa8
 2142 087a 84080000 		.4byte	0x884
ARM GAS  C:\Users\3130\AppData\Local\Temp\ccPAZpBF.s 			page 39


 2143 087e 17       		.uleb128 0x17
 2144 087f 01       		.byte	0x1
 2145 0880 50       		.byte	0x50
 2146 0881 01       		.byte	0x1
 2147 0882 37       		.byte	0x37
 2148 0883 00       		.byte	0
 2149 0884 1B       		.uleb128 0x1b
 2150 0885 F8000000 		.4byte	.LVL31
 2151 0889 600F0000 		.4byte	0xf60
 2152 088d 99080000 		.4byte	0x899
 2153 0891 17       		.uleb128 0x17
 2154 0892 01       		.byte	0x1
 2155 0893 50       		.byte	0x50
 2156 0894 03       		.byte	0x3
 2157 0895 74       		.byte	0x74
 2158 0896 00       		.sleb128 0
 2159 0897 1F       		.byte	0x1f
 2160 0898 00       		.byte	0
 2161 0899 1B       		.uleb128 0x1b
 2162 089a 02010000 		.4byte	.LVL33
 2163 089e A80F0000 		.4byte	0xfa8
 2164 08a2 AC080000 		.4byte	0x8ac
 2165 08a6 17       		.uleb128 0x17
 2166 08a7 01       		.byte	0x1
 2167 08a8 50       		.byte	0x50
 2168 08a9 01       		.byte	0x1
 2169 08aa 38       		.byte	0x38
 2170 08ab 00       		.byte	0
 2171 08ac 1C       		.uleb128 0x1c
 2172 08ad 0C010000 		.4byte	.LVL34
 2173 08b1 C50F0000 		.4byte	0xfc5
 2174 08b5 1B       		.uleb128 0x1b
 2175 08b6 22010000 		.4byte	.LVL36
 2176 08ba D30F0000 		.4byte	0xfd3
 2177 08be D8080000 		.4byte	0x8d8
 2178 08c2 17       		.uleb128 0x17
 2179 08c3 01       		.byte	0x1
 2180 08c4 53       		.byte	0x53
 2181 08c5 02       		.byte	0x2
 2182 08c6 78       		.byte	0x78
 2183 08c7 00       		.sleb128 0
 2184 08c8 17       		.uleb128 0x17
 2185 08c9 01       		.byte	0x1
 2186 08ca 51       		.byte	0x51
 2187 08cb 03       		.byte	0x3
 2188 08cc 0A       		.byte	0xa
 2189 08cd 3001     		.2byte	0x130
 2190 08cf 17       		.uleb128 0x17
 2191 08d0 01       		.byte	0x1
 2192 08d1 50       		.byte	0x50
 2193 08d2 04       		.byte	0x4
 2194 08d3 91       		.byte	0x91
 2195 08d4 BC7F     		.sleb128 -68
 2196 08d6 06       		.byte	0x6
 2197 08d7 00       		.byte	0
 2198 08d8 1B       		.uleb128 0x1b
 2199 08d9 2C010000 		.4byte	.LVL37
ARM GAS  C:\Users\3130\AppData\Local\Temp\ccPAZpBF.s 			page 40


 2200 08dd 2C100000 		.4byte	0x102c
 2201 08e1 EC080000 		.4byte	0x8ec
 2202 08e5 17       		.uleb128 0x17
 2203 08e6 01       		.byte	0x1
 2204 08e7 50       		.byte	0x50
 2205 08e8 02       		.byte	0x2
 2206 08e9 09       		.byte	0x9
 2207 08ea FF       		.byte	0xff
 2208 08eb 00       		.byte	0
 2209 08ec 1B       		.uleb128 0x1b
 2210 08ed 3C010000 		.4byte	.LVL41
 2211 08f1 00100000 		.4byte	0x1000
 2212 08f5 0B090000 		.4byte	0x90b
 2213 08f9 17       		.uleb128 0x17
 2214 08fa 01       		.byte	0x1
 2215 08fb 52       		.byte	0x52
 2216 08fc 02       		.byte	0x2
 2217 08fd 74       		.byte	0x74
 2218 08fe 37       		.sleb128 55
 2219 08ff 17       		.uleb128 0x17
 2220 0900 01       		.byte	0x1
 2221 0901 51       		.byte	0x51
 2222 0902 02       		.byte	0x2
 2223 0903 74       		.byte	0x74
 2224 0904 32       		.sleb128 50
 2225 0905 17       		.uleb128 0x17
 2226 0906 01       		.byte	0x1
 2227 0907 50       		.byte	0x50
 2228 0908 01       		.byte	0x1
 2229 0909 39       		.byte	0x39
 2230 090a 00       		.byte	0
 2231 090b 1B       		.uleb128 0x1b
 2232 090c 50010000 		.4byte	.LVL42
 2233 0910 A80F0000 		.4byte	0xfa8
 2234 0914 26090000 		.4byte	0x926
 2235 0918 17       		.uleb128 0x17
 2236 0919 01       		.byte	0x1
 2237 091a 51       		.byte	0x51
 2238 091b 04       		.byte	0x4
 2239 091c 78       		.byte	0x78
 2240 091d 00       		.sleb128 0
 2241 091e 31       		.byte	0x31
 2242 091f 29       		.byte	0x29
 2243 0920 17       		.uleb128 0x17
 2244 0921 01       		.byte	0x1
 2245 0922 50       		.byte	0x50
 2246 0923 01       		.byte	0x1
 2247 0924 3A       		.byte	0x3a
 2248 0925 00       		.byte	0
 2249 0926 1B       		.uleb128 0x1b
 2250 0927 5E010000 		.4byte	.LVL43
 2251 092b 600F0000 		.4byte	0xf60
 2252 092f 3A090000 		.4byte	0x93a
 2253 0933 17       		.uleb128 0x17
 2254 0934 01       		.byte	0x1
 2255 0935 50       		.byte	0x50
 2256 0936 02       		.byte	0x2
ARM GAS  C:\Users\3130\AppData\Local\Temp\ccPAZpBF.s 			page 41


 2257 0937 09       		.byte	0x9
 2258 0938 FF       		.byte	0xff
 2259 0939 00       		.byte	0
 2260 093a 1B       		.uleb128 0x1b
 2261 093b 68010000 		.4byte	.LVL45
 2262 093f A80F0000 		.4byte	0xfa8
 2263 0943 4D090000 		.4byte	0x94d
 2264 0947 17       		.uleb128 0x17
 2265 0948 01       		.byte	0x1
 2266 0949 50       		.byte	0x50
 2267 094a 01       		.byte	0x1
 2268 094b 3B       		.byte	0x3b
 2269 094c 00       		.byte	0
 2270 094d 1C       		.uleb128 0x1c
 2271 094e 72010000 		.4byte	.LVL46
 2272 0952 22100000 		.4byte	0x1022
 2273 0956 1B       		.uleb128 0x1b
 2274 0957 88010000 		.4byte	.LVL48
 2275 095b 44100000 		.4byte	0x1044
 2276 095f 75090000 		.4byte	0x975
 2277 0963 17       		.uleb128 0x17
 2278 0964 01       		.byte	0x1
 2279 0965 52       		.byte	0x52
 2280 0966 01       		.byte	0x1
 2281 0967 31       		.byte	0x31
 2282 0968 17       		.uleb128 0x17
 2283 0969 01       		.byte	0x1
 2284 096a 51       		.byte	0x51
 2285 096b 02       		.byte	0x2
 2286 096c 91       		.byte	0x91
 2287 096d 40       		.sleb128 -64
 2288 096e 17       		.uleb128 0x17
 2289 096f 01       		.byte	0x1
 2290 0970 50       		.byte	0x50
 2291 0971 02       		.byte	0x2
 2292 0972 79       		.byte	0x79
 2293 0973 00       		.sleb128 0
 2294 0974 00       		.byte	0
 2295 0975 1B       		.uleb128 0x1b
 2296 0976 92010000 		.4byte	.LVL49
 2297 097a 44100000 		.4byte	0x1044
 2298 097e 94090000 		.4byte	0x994
 2299 0982 17       		.uleb128 0x17
 2300 0983 01       		.byte	0x1
 2301 0984 52       		.byte	0x52
 2302 0985 01       		.byte	0x1
 2303 0986 34       		.byte	0x34
 2304 0987 17       		.uleb128 0x17
 2305 0988 01       		.byte	0x1
 2306 0989 51       		.byte	0x51
 2307 098a 02       		.byte	0x2
 2308 098b 91       		.byte	0x91
 2309 098c 50       		.sleb128 -48
 2310 098d 17       		.uleb128 0x17
 2311 098e 01       		.byte	0x1
 2312 098f 50       		.byte	0x50
 2313 0990 02       		.byte	0x2
ARM GAS  C:\Users\3130\AppData\Local\Temp\ccPAZpBF.s 			page 42


 2314 0991 74       		.byte	0x74
 2315 0992 00       		.sleb128 0
 2316 0993 00       		.byte	0
 2317 0994 1C       		.uleb128 0x1c
 2318 0995 96010000 		.4byte	.LVL50
 2319 0999 C50F0000 		.4byte	0xfc5
 2320 099d 1B       		.uleb128 0x1b
 2321 099e AE010000 		.4byte	.LVL52
 2322 09a2 D30F0000 		.4byte	0xfd3
 2323 09a6 CD090000 		.4byte	0x9cd
 2324 09aa 17       		.uleb128 0x17
 2325 09ab 01       		.byte	0x1
 2326 09ac 53       		.byte	0x53
 2327 09ad 05       		.byte	0x5
 2328 09ae 03       		.byte	0x3
 2329 09af 00000000 		.4byte	thread2
 2330 09b3 17       		.uleb128 0x17
 2331 09b4 01       		.byte	0x1
 2332 09b5 51       		.byte	0x51
 2333 09b6 03       		.byte	0x3
 2334 09b7 0A       		.byte	0xa
 2335 09b8 3001     		.2byte	0x130
 2336 09ba 17       		.uleb128 0x17
 2337 09bb 01       		.byte	0x1
 2338 09bc 50       		.byte	0x50
 2339 09bd 04       		.byte	0x4
 2340 09be 91       		.byte	0x91
 2341 09bf BC7F     		.sleb128 -68
 2342 09c1 06       		.byte	0x6
 2343 09c2 17       		.uleb128 0x17
 2344 09c3 02       		.byte	0x2
 2345 09c4 7D       		.byte	0x7d
 2346 09c5 00       		.sleb128 0
 2347 09c6 05       		.byte	0x5
 2348 09c7 03       		.byte	0x3
 2349 09c8 00000000 		.4byte	.LC8
 2350 09cc 00       		.byte	0
 2351 09cd 1B       		.uleb128 0x1b
 2352 09ce B6010000 		.4byte	.LVL53
 2353 09d2 68100000 		.4byte	0x1068
 2354 09d6 E0090000 		.4byte	0x9e0
 2355 09da 17       		.uleb128 0x17
 2356 09db 01       		.byte	0x1
 2357 09dc 50       		.byte	0x50
 2358 09dd 01       		.byte	0x1
 2359 09de 35       		.byte	0x35
 2360 09df 00       		.byte	0
 2361 09e0 1B       		.uleb128 0x1b
 2362 09e1 C4010000 		.4byte	.LVL55
 2363 09e5 00100000 		.4byte	0x1000
 2364 09e9 FF090000 		.4byte	0x9ff
 2365 09ed 17       		.uleb128 0x17
 2366 09ee 01       		.byte	0x1
 2367 09ef 52       		.byte	0x52
 2368 09f0 02       		.byte	0x2
 2369 09f1 77       		.byte	0x77
 2370 09f2 37       		.sleb128 55
ARM GAS  C:\Users\3130\AppData\Local\Temp\ccPAZpBF.s 			page 43


 2371 09f3 17       		.uleb128 0x17
 2372 09f4 01       		.byte	0x1
 2373 09f5 51       		.byte	0x51
 2374 09f6 02       		.byte	0x2
 2375 09f7 77       		.byte	0x77
 2376 09f8 32       		.sleb128 50
 2377 09f9 17       		.uleb128 0x17
 2378 09fa 01       		.byte	0x1
 2379 09fb 50       		.byte	0x50
 2380 09fc 01       		.byte	0x1
 2381 09fd 3C       		.byte	0x3c
 2382 09fe 00       		.byte	0
 2383 09ff 1B       		.uleb128 0x1b
 2384 0a00 D2010000 		.4byte	.LVL56
 2385 0a04 600F0000 		.4byte	0xf60
 2386 0a08 140A0000 		.4byte	0xa14
 2387 0a0c 17       		.uleb128 0x17
 2388 0a0d 01       		.byte	0x1
 2389 0a0e 50       		.byte	0x50
 2390 0a0f 03       		.byte	0x3
 2391 0a10 75       		.byte	0x75
 2392 0a11 00       		.sleb128 0
 2393 0a12 1F       		.byte	0x1f
 2394 0a13 00       		.byte	0
 2395 0a14 1B       		.uleb128 0x1b
 2396 0a15 DC010000 		.4byte	.LVL58
 2397 0a19 A80F0000 		.4byte	0xfa8
 2398 0a1d 270A0000 		.4byte	0xa27
 2399 0a21 17       		.uleb128 0x17
 2400 0a22 01       		.byte	0x1
 2401 0a23 50       		.byte	0x50
 2402 0a24 01       		.byte	0x1
 2403 0a25 3D       		.byte	0x3d
 2404 0a26 00       		.byte	0
 2405 0a27 1C       		.uleb128 0x1c
 2406 0a28 E6010000 		.4byte	.LVL59
 2407 0a2c 22100000 		.4byte	0x1022
 2408 0a30 1B       		.uleb128 0x1b
 2409 0a31 EE010000 		.4byte	.LVL60
 2410 0a35 80100000 		.4byte	0x1080
 2411 0a39 4A0A0000 		.4byte	0xa4a
 2412 0a3d 17       		.uleb128 0x17
 2413 0a3e 01       		.byte	0x1
 2414 0a3f 51       		.byte	0x51
 2415 0a40 02       		.byte	0x2
 2416 0a41 91       		.byte	0x91
 2417 0a42 40       		.sleb128 -64
 2418 0a43 17       		.uleb128 0x17
 2419 0a44 01       		.byte	0x1
 2420 0a45 50       		.byte	0x50
 2421 0a46 02       		.byte	0x2
 2422 0a47 79       		.byte	0x79
 2423 0a48 00       		.sleb128 0
 2424 0a49 00       		.byte	0
 2425 0a4a 1B       		.uleb128 0x1b
 2426 0a4b F6010000 		.4byte	.LVL61
 2427 0a4f 80100000 		.4byte	0x1080
ARM GAS  C:\Users\3130\AppData\Local\Temp\ccPAZpBF.s 			page 44


 2428 0a53 640A0000 		.4byte	0xa64
 2429 0a57 17       		.uleb128 0x17
 2430 0a58 01       		.byte	0x1
 2431 0a59 51       		.byte	0x51
 2432 0a5a 02       		.byte	0x2
 2433 0a5b 91       		.byte	0x91
 2434 0a5c 50       		.sleb128 -48
 2435 0a5d 17       		.uleb128 0x17
 2436 0a5e 01       		.byte	0x1
 2437 0a5f 50       		.byte	0x50
 2438 0a60 02       		.byte	0x2
 2439 0a61 74       		.byte	0x74
 2440 0a62 00       		.sleb128 0
 2441 0a63 00       		.byte	0
 2442 0a64 1B       		.uleb128 0x1b
 2443 0a65 06020000 		.4byte	.LVL62
 2444 0a69 A80F0000 		.4byte	0xfa8
 2445 0a6d 770A0000 		.4byte	0xa77
 2446 0a71 17       		.uleb128 0x17
 2447 0a72 01       		.byte	0x1
 2448 0a73 50       		.byte	0x50
 2449 0a74 01       		.byte	0x1
 2450 0a75 3E       		.byte	0x3e
 2451 0a76 00       		.byte	0
 2452 0a77 16       		.uleb128 0x16
 2453 0a78 1A020000 		.4byte	.LVL63
 2454 0a7c A80F0000 		.4byte	0xfa8
 2455 0a80 17       		.uleb128 0x17
 2456 0a81 01       		.byte	0x1
 2457 0a82 51       		.byte	0x51
 2458 0a83 08       		.byte	0x8
 2459 0a84 76       		.byte	0x76
 2460 0a85 00       		.sleb128 0
 2461 0a86 03       		.byte	0x3
 2462 0a87 00000000 		.4byte	.LANCHOR1
 2463 0a8b 29       		.byte	0x29
 2464 0a8c 17       		.uleb128 0x17
 2465 0a8d 01       		.byte	0x1
 2466 0a8e 50       		.byte	0x50
 2467 0a8f 01       		.byte	0x1
 2468 0a90 3F       		.byte	0x3f
 2469 0a91 00       		.byte	0
 2470 0a92 00       		.byte	0
 2471 0a93 1D       		.uleb128 0x1d
 2472 0a94 F9020000 		.4byte	.LASF95
 2473 0a98 01       		.byte	0x1
 2474 0a99 8C       		.byte	0x8c
 2475 0a9a 01       		.byte	0x1
 2476 0a9b E4000000 		.4byte	0xe4
 2477 0a9f 00000000 		.4byte	.LFB14
 2478 0aa3 24000000 		.4byte	.LFE14
 2479 0aa7 9C010000 		.4byte	.LLST6
 2480 0aab 01       		.byte	0x1
 2481 0aac 060B0000 		.4byte	0xb06
 2482 0ab0 1E       		.uleb128 0x1e
 2483 0ab1 7000     		.ascii	"p\000"
 2484 0ab3 01       		.byte	0x1
ARM GAS  C:\Users\3130\AppData\Local\Temp\ccPAZpBF.s 			page 45


 2485 0ab4 8C       		.byte	0x8c
 2486 0ab5 AE020000 		.4byte	0x2ae
 2487 0ab9 BC010000 		.4byte	.LLST7
 2488 0abd 1B       		.uleb128 0x1b
 2489 0abe 0A000000 		.4byte	.LVL66
 2490 0ac2 99100000 		.4byte	0x1099
 2491 0ac6 D90A0000 		.4byte	0xad9
 2492 0aca 17       		.uleb128 0x17
 2493 0acb 01       		.byte	0x1
 2494 0acc 51       		.byte	0x51
 2495 0acd 01       		.byte	0x1
 2496 0ace 30       		.byte	0x30
 2497 0acf 17       		.uleb128 0x17
 2498 0ad0 01       		.byte	0x1
 2499 0ad1 50       		.byte	0x50
 2500 0ad2 05       		.byte	0x5
 2501 0ad3 03       		.byte	0x3
 2502 0ad4 00000000 		.4byte	.LANCHOR0
 2503 0ad8 00       		.byte	0
 2504 0ad9 1B       		.uleb128 0x1b
 2505 0ada 10000000 		.4byte	.LVL67
 2506 0ade B2100000 		.4byte	0x10b2
 2507 0ae2 ED0A0000 		.4byte	0xaed
 2508 0ae6 17       		.uleb128 0x17
 2509 0ae7 01       		.byte	0x1
 2510 0ae8 50       		.byte	0x50
 2511 0ae9 02       		.byte	0x2
 2512 0aea 08       		.byte	0x8
 2513 0aeb 32       		.byte	0x32
 2514 0aec 00       		.byte	0
 2515 0aed 16       		.uleb128 0x16
 2516 0aee 18000000 		.4byte	.LVL68
 2517 0af2 99100000 		.4byte	0x1099
 2518 0af6 17       		.uleb128 0x17
 2519 0af7 01       		.byte	0x1
 2520 0af8 51       		.byte	0x51
 2521 0af9 01       		.byte	0x1
 2522 0afa 30       		.byte	0x30
 2523 0afb 17       		.uleb128 0x17
 2524 0afc 01       		.byte	0x1
 2525 0afd 50       		.byte	0x50
 2526 0afe 05       		.byte	0x5
 2527 0aff 03       		.byte	0x3
 2528 0b00 00000000 		.4byte	.LANCHOR1
 2529 0b04 00       		.byte	0
 2530 0b05 00       		.byte	0
 2531 0b06 1D       		.uleb128 0x1d
 2532 0b07 F1020000 		.4byte	.LASF96
 2533 0b0b 01       		.byte	0x1
 2534 0b0c 85       		.byte	0x85
 2535 0b0d 01       		.byte	0x1
 2536 0b0e E4000000 		.4byte	0xe4
 2537 0b12 00000000 		.4byte	.LFB13
 2538 0b16 16000000 		.4byte	.LFE13
 2539 0b1a DD010000 		.4byte	.LLST8
 2540 0b1e 01       		.byte	0x1
 2541 0b1f 5A0B0000 		.4byte	0xb5a
ARM GAS  C:\Users\3130\AppData\Local\Temp\ccPAZpBF.s 			page 46


 2542 0b23 1E       		.uleb128 0x1e
 2543 0b24 7000     		.ascii	"p\000"
 2544 0b26 01       		.byte	0x1
 2545 0b27 85       		.byte	0x85
 2546 0b28 AE020000 		.4byte	0x2ae
 2547 0b2c FD010000 		.4byte	.LLST9
 2548 0b30 1B       		.uleb128 0x1b
 2549 0b31 0A000000 		.4byte	.LVL71
 2550 0b35 B2100000 		.4byte	0x10b2
 2551 0b39 440B0000 		.4byte	0xb44
 2552 0b3d 17       		.uleb128 0x17
 2553 0b3e 01       		.byte	0x1
 2554 0b3f 50       		.byte	0x50
 2555 0b40 02       		.byte	0x2
 2556 0b41 08       		.byte	0x8
 2557 0b42 32       		.byte	0x32
 2558 0b43 00       		.byte	0
 2559 0b44 16       		.uleb128 0x16
 2560 0b45 12000000 		.4byte	.LVL72
 2561 0b49 C7100000 		.4byte	0x10c7
 2562 0b4d 17       		.uleb128 0x17
 2563 0b4e 01       		.byte	0x1
 2564 0b4f 51       		.byte	0x51
 2565 0b50 01       		.byte	0x1
 2566 0b51 31       		.byte	0x31
 2567 0b52 17       		.uleb128 0x17
 2568 0b53 01       		.byte	0x1
 2569 0b54 50       		.byte	0x50
 2570 0b55 02       		.byte	0x2
 2571 0b56 74       		.byte	0x74
 2572 0b57 00       		.sleb128 0
 2573 0b58 00       		.byte	0
 2574 0b59 00       		.byte	0
 2575 0b5a 15       		.uleb128 0x15
 2576 0b5b 9A050000 		.4byte	.LASF97
 2577 0b5f 01       		.byte	0x1
 2578 0b60 55       		.byte	0x55
 2579 0b61 01       		.byte	0x1
 2580 0b62 00000000 		.4byte	.LFB11
 2581 0b66 84000000 		.4byte	.LFE11
 2582 0b6a 29020000 		.4byte	.LLST10
 2583 0b6e 01       		.byte	0x1
 2584 0b6f 6F0C0000 		.4byte	0xc6f
 2585 0b73 19       		.uleb128 0x19
 2586 0b74 656C3100 		.ascii	"el1\000"
 2587 0b78 01       		.byte	0x1
 2588 0b79 56       		.byte	0x56
 2589 0b7a DE040000 		.4byte	0x4de
 2590 0b7e 02       		.byte	0x2
 2591 0b7f 91       		.byte	0x91
 2592 0b80 58       		.sleb128 -40
 2593 0b81 19       		.uleb128 0x19
 2594 0b82 656C3200 		.ascii	"el2\000"
 2595 0b86 01       		.byte	0x1
 2596 0b87 56       		.byte	0x56
 2597 0b88 DE040000 		.4byte	0x4de
 2598 0b8c 02       		.byte	0x2
ARM GAS  C:\Users\3130\AppData\Local\Temp\ccPAZpBF.s 			page 47


 2599 0b8d 91       		.byte	0x91
 2600 0b8e 68       		.sleb128 -24
 2601 0b8f 1B       		.uleb128 0x1b
 2602 0b90 12000000 		.4byte	.LVL74
 2603 0b94 44100000 		.4byte	0x1044
 2604 0b98 AE0B0000 		.4byte	0xbae
 2605 0b9c 17       		.uleb128 0x17
 2606 0b9d 01       		.byte	0x1
 2607 0b9e 52       		.byte	0x52
 2608 0b9f 01       		.byte	0x1
 2609 0ba0 31       		.byte	0x31
 2610 0ba1 17       		.uleb128 0x17
 2611 0ba2 01       		.byte	0x1
 2612 0ba3 51       		.byte	0x51
 2613 0ba4 02       		.byte	0x2
 2614 0ba5 7D       		.byte	0x7d
 2615 0ba6 00       		.sleb128 0
 2616 0ba7 17       		.uleb128 0x17
 2617 0ba8 01       		.byte	0x1
 2618 0ba9 50       		.byte	0x50
 2619 0baa 02       		.byte	0x2
 2620 0bab 74       		.byte	0x74
 2621 0bac 00       		.sleb128 0
 2622 0bad 00       		.byte	0
 2623 0bae 1B       		.uleb128 0x1b
 2624 0baf 1C000000 		.4byte	.LVL75
 2625 0bb3 44100000 		.4byte	0x1044
 2626 0bb7 CD0B0000 		.4byte	0xbcd
 2627 0bbb 17       		.uleb128 0x17
 2628 0bbc 01       		.byte	0x1
 2629 0bbd 52       		.byte	0x52
 2630 0bbe 01       		.byte	0x1
 2631 0bbf 32       		.byte	0x32
 2632 0bc0 17       		.uleb128 0x17
 2633 0bc1 01       		.byte	0x1
 2634 0bc2 51       		.byte	0x51
 2635 0bc3 02       		.byte	0x2
 2636 0bc4 91       		.byte	0x91
 2637 0bc5 68       		.sleb128 -24
 2638 0bc6 17       		.uleb128 0x17
 2639 0bc7 01       		.byte	0x1
 2640 0bc8 50       		.byte	0x50
 2641 0bc9 02       		.byte	0x2
 2642 0bca 74       		.byte	0x74
 2643 0bcb 00       		.sleb128 0
 2644 0bcc 00       		.byte	0
 2645 0bcd 1B       		.uleb128 0x1b
 2646 0bce 2A000000 		.4byte	.LVL76
 2647 0bd2 A80F0000 		.4byte	0xfa8
 2648 0bd6 E00B0000 		.4byte	0xbe0
 2649 0bda 17       		.uleb128 0x17
 2650 0bdb 01       		.byte	0x1
 2651 0bdc 50       		.byte	0x50
 2652 0bdd 01       		.byte	0x1
 2653 0bde 31       		.byte	0x31
 2654 0bdf 00       		.byte	0
 2655 0be0 1B       		.uleb128 0x1b
ARM GAS  C:\Users\3130\AppData\Local\Temp\ccPAZpBF.s 			page 48


 2656 0be1 3A000000 		.4byte	.LVL77
 2657 0be5 80100000 		.4byte	0x1080
 2658 0be9 FA0B0000 		.4byte	0xbfa
 2659 0bed 17       		.uleb128 0x17
 2660 0bee 01       		.byte	0x1
 2661 0bef 51       		.byte	0x51
 2662 0bf0 02       		.byte	0x2
 2663 0bf1 7D       		.byte	0x7d
 2664 0bf2 00       		.sleb128 0
 2665 0bf3 17       		.uleb128 0x17
 2666 0bf4 01       		.byte	0x1
 2667 0bf5 50       		.byte	0x50
 2668 0bf6 02       		.byte	0x2
 2669 0bf7 74       		.byte	0x74
 2670 0bf8 00       		.sleb128 0
 2671 0bf9 00       		.byte	0
 2672 0bfa 1B       		.uleb128 0x1b
 2673 0bfb 48000000 		.4byte	.LVL78
 2674 0bff A80F0000 		.4byte	0xfa8
 2675 0c03 0D0C0000 		.4byte	0xc0d
 2676 0c07 17       		.uleb128 0x17
 2677 0c08 01       		.byte	0x1
 2678 0c09 50       		.byte	0x50
 2679 0c0a 01       		.byte	0x1
 2680 0c0b 32       		.byte	0x32
 2681 0c0c 00       		.byte	0
 2682 0c0d 1B       		.uleb128 0x1b
 2683 0c0e 54000000 		.4byte	.LVL79
 2684 0c12 80100000 		.4byte	0x1080
 2685 0c16 270C0000 		.4byte	0xc27
 2686 0c1a 17       		.uleb128 0x17
 2687 0c1b 01       		.byte	0x1
 2688 0c1c 51       		.byte	0x51
 2689 0c1d 02       		.byte	0x2
 2690 0c1e 91       		.byte	0x91
 2691 0c1f 68       		.sleb128 -24
 2692 0c20 17       		.uleb128 0x17
 2693 0c21 01       		.byte	0x1
 2694 0c22 50       		.byte	0x50
 2695 0c23 02       		.byte	0x2
 2696 0c24 74       		.byte	0x74
 2697 0c25 00       		.sleb128 0
 2698 0c26 00       		.byte	0
 2699 0c27 1B       		.uleb128 0x1b
 2700 0c28 62000000 		.4byte	.LVL80
 2701 0c2c A80F0000 		.4byte	0xfa8
 2702 0c30 3A0C0000 		.4byte	0xc3a
 2703 0c34 17       		.uleb128 0x17
 2704 0c35 01       		.byte	0x1
 2705 0c36 50       		.byte	0x50
 2706 0c37 01       		.byte	0x1
 2707 0c38 33       		.byte	0x33
 2708 0c39 00       		.byte	0
 2709 0c3a 1B       		.uleb128 0x1b
 2710 0c3b 6E000000 		.4byte	.LVL81
 2711 0c3f E0100000 		.4byte	0x10e0
 2712 0c43 560C0000 		.4byte	0xc56
ARM GAS  C:\Users\3130\AppData\Local\Temp\ccPAZpBF.s 			page 49


 2713 0c47 17       		.uleb128 0x17
 2714 0c48 01       		.byte	0x1
 2715 0c49 51       		.byte	0x51
 2716 0c4a 01       		.byte	0x1
 2717 0c4b 37       		.byte	0x37
 2718 0c4c 17       		.uleb128 0x17
 2719 0c4d 01       		.byte	0x1
 2720 0c4e 50       		.byte	0x50
 2721 0c4f 05       		.byte	0x5
 2722 0c50 03       		.byte	0x3
 2723 0c51 00000000 		.4byte	.LANCHOR2
 2724 0c55 00       		.byte	0
 2725 0c56 16       		.uleb128 0x16
 2726 0c57 76000000 		.4byte	.LVL82
 2727 0c5b 04110000 		.4byte	0x1104
 2728 0c5f 17       		.uleb128 0x17
 2729 0c60 01       		.byte	0x1
 2730 0c61 51       		.byte	0x51
 2731 0c62 05       		.byte	0x5
 2732 0c63 03       		.byte	0x3
 2733 0c64 04000000 		.4byte	.LC14
 2734 0c68 17       		.uleb128 0x17
 2735 0c69 01       		.byte	0x1
 2736 0c6a 50       		.byte	0x50
 2737 0c6b 01       		.byte	0x1
 2738 0c6c 34       		.byte	0x34
 2739 0c6d 00       		.byte	0
 2740 0c6e 00       		.byte	0
 2741 0c6f 1F       		.uleb128 0x1f
 2742 0c70 683300   		.ascii	"h3\000"
 2743 0c73 01       		.byte	0x1
 2744 0c74 52       		.byte	0x52
 2745 0c75 01       		.byte	0x1
 2746 0c76 00000000 		.4byte	.LFB10
 2747 0c7a 0A000000 		.4byte	.LFE10
 2748 0c7e 55020000 		.4byte	.LLST11
 2749 0c82 01       		.byte	0x1
 2750 0c83 A60C0000 		.4byte	0xca6
 2751 0c87 1E       		.uleb128 0x1e
 2752 0c88 696400   		.ascii	"id\000"
 2753 0c8b 01       		.byte	0x1
 2754 0c8c 52       		.byte	0x52
 2755 0c8d EF000000 		.4byte	0xef
 2756 0c91 75020000 		.4byte	.LLST12
 2757 0c95 16       		.uleb128 0x16
 2758 0c96 08000000 		.4byte	.LVL85
 2759 0c9a 27110000 		.4byte	0x1127
 2760 0c9e 17       		.uleb128 0x17
 2761 0c9f 01       		.byte	0x1
 2762 0ca0 50       		.byte	0x50
 2763 0ca1 02       		.byte	0x2
 2764 0ca2 08       		.byte	0x8
 2765 0ca3 43       		.byte	0x43
 2766 0ca4 00       		.byte	0
 2767 0ca5 00       		.byte	0
 2768 0ca6 1F       		.uleb128 0x1f
 2769 0ca7 683200   		.ascii	"h2\000"
ARM GAS  C:\Users\3130\AppData\Local\Temp\ccPAZpBF.s 			page 50


 2770 0caa 01       		.byte	0x1
 2771 0cab 51       		.byte	0x51
 2772 0cac 01       		.byte	0x1
 2773 0cad 00000000 		.4byte	.LFB9
 2774 0cb1 0A000000 		.4byte	.LFE9
 2775 0cb5 96020000 		.4byte	.LLST13
 2776 0cb9 01       		.byte	0x1
 2777 0cba DD0C0000 		.4byte	0xcdd
 2778 0cbe 1E       		.uleb128 0x1e
 2779 0cbf 696400   		.ascii	"id\000"
 2780 0cc2 01       		.byte	0x1
 2781 0cc3 51       		.byte	0x51
 2782 0cc4 EF000000 		.4byte	0xef
 2783 0cc8 B6020000 		.4byte	.LLST14
 2784 0ccc 16       		.uleb128 0x16
 2785 0ccd 08000000 		.4byte	.LVL88
 2786 0cd1 27110000 		.4byte	0x1127
 2787 0cd5 17       		.uleb128 0x17
 2788 0cd6 01       		.byte	0x1
 2789 0cd7 50       		.byte	0x50
 2790 0cd8 02       		.byte	0x2
 2791 0cd9 08       		.byte	0x8
 2792 0cda 42       		.byte	0x42
 2793 0cdb 00       		.byte	0
 2794 0cdc 00       		.byte	0
 2795 0cdd 1F       		.uleb128 0x1f
 2796 0cde 683100   		.ascii	"h1\000"
 2797 0ce1 01       		.byte	0x1
 2798 0ce2 50       		.byte	0x50
 2799 0ce3 01       		.byte	0x1
 2800 0ce4 00000000 		.4byte	.LFB8
 2801 0ce8 0A000000 		.4byte	.LFE8
 2802 0cec D7020000 		.4byte	.LLST15
 2803 0cf0 01       		.byte	0x1
 2804 0cf1 140D0000 		.4byte	0xd14
 2805 0cf5 1E       		.uleb128 0x1e
 2806 0cf6 696400   		.ascii	"id\000"
 2807 0cf9 01       		.byte	0x1
 2808 0cfa 50       		.byte	0x50
 2809 0cfb EF000000 		.4byte	0xef
 2810 0cff F7020000 		.4byte	.LLST16
 2811 0d03 16       		.uleb128 0x16
 2812 0d04 08000000 		.4byte	.LVL91
 2813 0d08 27110000 		.4byte	0x1127
 2814 0d0c 17       		.uleb128 0x17
 2815 0d0d 01       		.byte	0x1
 2816 0d0e 50       		.byte	0x50
 2817 0d0f 02       		.byte	0x2
 2818 0d10 08       		.byte	0x8
 2819 0d11 41       		.byte	0x41
 2820 0d12 00       		.byte	0
 2821 0d13 00       		.byte	0
 2822 0d14 20       		.uleb128 0x20
 2823 0d15 32060000 		.4byte	0x632
 2824 0d19 00000000 		.4byte	.LFB17
 2825 0d1d 92000000 		.4byte	.LFE17
 2826 0d21 18030000 		.4byte	.LLST17
ARM GAS  C:\Users\3130\AppData\Local\Temp\ccPAZpBF.s 			page 51


 2827 0d25 01       		.byte	0x1
 2828 0d26 5B0E0000 		.4byte	0xe5b
 2829 0d2a 21       		.uleb128 0x21
 2830 0d2b 3F060000 		.4byte	0x63f
 2831 0d2f 38030000 		.4byte	.LLST18
 2832 0d33 22       		.uleb128 0x22
 2833 0d34 32060000 		.4byte	0x632
 2834 0d38 4C000000 		.4byte	.LBB4
 2835 0d3c 92000000 		.4byte	.LBE4
 2836 0d40 01       		.byte	0x1
 2837 0d41 FC       		.byte	0xfc
 2838 0d42 DA0D0000 		.4byte	0xdda
 2839 0d46 23       		.uleb128 0x23
 2840 0d47 4C000000 		.4byte	.LBB5
 2841 0d4b 92000000 		.4byte	.LBE5
 2842 0d4f 21       		.uleb128 0x21
 2843 0d50 3F060000 		.4byte	0x63f
 2844 0d54 61030000 		.4byte	.LLST19
 2845 0d58 1B       		.uleb128 0x1b
 2846 0d59 56000000 		.4byte	.LVL101
 2847 0d5d 3B110000 		.4byte	0x113b
 2848 0d61 710D0000 		.4byte	0xd71
 2849 0d65 17       		.uleb128 0x17
 2850 0d66 01       		.byte	0x1
 2851 0d67 51       		.byte	0x51
 2852 0d68 01       		.byte	0x1
 2853 0d69 3A       		.byte	0x3a
 2854 0d6a 17       		.uleb128 0x17
 2855 0d6b 01       		.byte	0x1
 2856 0d6c 50       		.byte	0x50
 2857 0d6d 02       		.byte	0x2
 2858 0d6e 09       		.byte	0x9
 2859 0d6f FF       		.byte	0xff
 2860 0d70 00       		.byte	0
 2861 0d71 1B       		.uleb128 0x1b
 2862 0d72 60000000 		.4byte	.LVL103
 2863 0d76 A80F0000 		.4byte	0xfa8
 2864 0d7a 840D0000 		.4byte	0xd84
 2865 0d7e 17       		.uleb128 0x17
 2866 0d7f 01       		.byte	0x1
 2867 0d80 50       		.byte	0x50
 2868 0d81 01       		.byte	0x1
 2869 0d82 34       		.byte	0x34
 2870 0d83 00       		.byte	0
 2871 0d84 1B       		.uleb128 0x1b
 2872 0d85 6E000000 		.4byte	.LVL104
 2873 0d89 58110000 		.4byte	0x1158
 2874 0d8d 9D0D0000 		.4byte	0xd9d
 2875 0d91 17       		.uleb128 0x17
 2876 0d92 01       		.byte	0x1
 2877 0d93 51       		.byte	0x51
 2878 0d94 01       		.byte	0x1
 2879 0d95 3A       		.byte	0x3a
 2880 0d96 17       		.uleb128 0x17
 2881 0d97 01       		.byte	0x1
 2882 0d98 50       		.byte	0x50
 2883 0d99 02       		.byte	0x2
ARM GAS  C:\Users\3130\AppData\Local\Temp\ccPAZpBF.s 			page 52


 2884 0d9a 09       		.byte	0x9
 2885 0d9b FF       		.byte	0xff
 2886 0d9c 00       		.byte	0
 2887 0d9d 1B       		.uleb128 0x1b
 2888 0d9e 78000000 		.4byte	.LVL106
 2889 0da2 A80F0000 		.4byte	0xfa8
 2890 0da6 B00D0000 		.4byte	0xdb0
 2891 0daa 17       		.uleb128 0x17
 2892 0dab 01       		.byte	0x1
 2893 0dac 50       		.byte	0x50
 2894 0dad 01       		.byte	0x1
 2895 0dae 35       		.byte	0x35
 2896 0daf 00       		.byte	0
 2897 0db0 1B       		.uleb128 0x1b
 2898 0db1 86000000 		.4byte	.LVL107
 2899 0db5 75110000 		.4byte	0x1175
 2900 0db9 C90D0000 		.4byte	0xdc9
 2901 0dbd 17       		.uleb128 0x17
 2902 0dbe 01       		.byte	0x1
 2903 0dbf 51       		.byte	0x51
 2904 0dc0 01       		.byte	0x1
 2905 0dc1 3A       		.byte	0x3a
 2906 0dc2 17       		.uleb128 0x17
 2907 0dc3 01       		.byte	0x1
 2908 0dc4 50       		.byte	0x50
 2909 0dc5 02       		.byte	0x2
 2910 0dc6 09       		.byte	0x9
 2911 0dc7 FF       		.byte	0xff
 2912 0dc8 00       		.byte	0
 2913 0dc9 16       		.uleb128 0x16
 2914 0dca 90000000 		.4byte	.LVL109
 2915 0dce A80F0000 		.4byte	0xfa8
 2916 0dd2 17       		.uleb128 0x17
 2917 0dd3 01       		.byte	0x1
 2918 0dd4 50       		.byte	0x50
 2919 0dd5 01       		.byte	0x1
 2920 0dd6 36       		.byte	0x36
 2921 0dd7 00       		.byte	0
 2922 0dd8 00       		.byte	0
 2923 0dd9 00       		.byte	0
 2924 0dda 1B       		.uleb128 0x1b
 2925 0ddb 0C000000 		.4byte	.LVL92
 2926 0ddf 3B110000 		.4byte	0x113b
 2927 0de3 F30D0000 		.4byte	0xdf3
 2928 0de7 17       		.uleb128 0x17
 2929 0de8 01       		.byte	0x1
 2930 0de9 51       		.byte	0x51
 2931 0dea 01       		.byte	0x1
 2932 0deb 30       		.byte	0x30
 2933 0dec 17       		.uleb128 0x17
 2934 0ded 01       		.byte	0x1
 2935 0dee 50       		.byte	0x50
 2936 0def 02       		.byte	0x2
 2937 0df0 09       		.byte	0x9
 2938 0df1 FF       		.byte	0xff
 2939 0df2 00       		.byte	0
 2940 0df3 1B       		.uleb128 0x1b
ARM GAS  C:\Users\3130\AppData\Local\Temp\ccPAZpBF.s 			page 53


 2941 0df4 16000000 		.4byte	.LVL94
 2942 0df8 A80F0000 		.4byte	0xfa8
 2943 0dfc 060E0000 		.4byte	0xe06
 2944 0e00 17       		.uleb128 0x17
 2945 0e01 01       		.byte	0x1
 2946 0e02 50       		.byte	0x50
 2947 0e03 01       		.byte	0x1
 2948 0e04 31       		.byte	0x31
 2949 0e05 00       		.byte	0
 2950 0e06 1B       		.uleb128 0x1b
 2951 0e07 26000000 		.4byte	.LVL95
 2952 0e0b 58110000 		.4byte	0x1158
 2953 0e0f 1F0E0000 		.4byte	0xe1f
 2954 0e13 17       		.uleb128 0x17
 2955 0e14 01       		.byte	0x1
 2956 0e15 51       		.byte	0x51
 2957 0e16 01       		.byte	0x1
 2958 0e17 30       		.byte	0x30
 2959 0e18 17       		.uleb128 0x17
 2960 0e19 01       		.byte	0x1
 2961 0e1a 50       		.byte	0x50
 2962 0e1b 02       		.byte	0x2
 2963 0e1c 09       		.byte	0x9
 2964 0e1d FF       		.byte	0xff
 2965 0e1e 00       		.byte	0
 2966 0e1f 1B       		.uleb128 0x1b
 2967 0e20 30000000 		.4byte	.LVL97
 2968 0e24 A80F0000 		.4byte	0xfa8
 2969 0e28 320E0000 		.4byte	0xe32
 2970 0e2c 17       		.uleb128 0x17
 2971 0e2d 01       		.byte	0x1
 2972 0e2e 50       		.byte	0x50
 2973 0e2f 01       		.byte	0x1
 2974 0e30 32       		.byte	0x32
 2975 0e31 00       		.byte	0
 2976 0e32 1B       		.uleb128 0x1b
 2977 0e33 3E000000 		.4byte	.LVL98
 2978 0e37 75110000 		.4byte	0x1175
 2979 0e3b 4B0E0000 		.4byte	0xe4b
 2980 0e3f 17       		.uleb128 0x17
 2981 0e40 01       		.byte	0x1
 2982 0e41 51       		.byte	0x51
 2983 0e42 01       		.byte	0x1
 2984 0e43 30       		.byte	0x30
 2985 0e44 17       		.uleb128 0x17
 2986 0e45 01       		.byte	0x1
 2987 0e46 50       		.byte	0x50
 2988 0e47 02       		.byte	0x2
 2989 0e48 09       		.byte	0x9
 2990 0e49 FF       		.byte	0xff
 2991 0e4a 00       		.byte	0
 2992 0e4b 16       		.uleb128 0x16
 2993 0e4c 48000000 		.4byte	.LVL100
 2994 0e50 A80F0000 		.4byte	0xfa8
 2995 0e54 17       		.uleb128 0x17
 2996 0e55 01       		.byte	0x1
 2997 0e56 50       		.byte	0x50
ARM GAS  C:\Users\3130\AppData\Local\Temp\ccPAZpBF.s 			page 54


 2998 0e57 01       		.byte	0x1
 2999 0e58 33       		.byte	0x33
 3000 0e59 00       		.byte	0
 3001 0e5a 00       		.byte	0
 3002 0e5b 19       		.uleb128 0x19
 3003 0e5c 65733100 		.ascii	"es1\000"
 3004 0e60 01       		.byte	0x1
 3005 0e61 3B       		.byte	0x3b
 3006 0e62 4F050000 		.4byte	0x54f
 3007 0e66 05       		.byte	0x5
 3008 0e67 03       		.byte	0x3
 3009 0e68 00000000 		.4byte	es1
 3010 0e6c 19       		.uleb128 0x19
 3011 0e6d 65733200 		.ascii	"es2\000"
 3012 0e71 01       		.byte	0x1
 3013 0e72 3C       		.byte	0x3c
 3014 0e73 4F050000 		.4byte	0x54f
 3015 0e77 05       		.byte	0x5
 3016 0e78 03       		.byte	0x3
 3017 0e79 00000000 		.4byte	es2
 3018 0e7d 24       		.uleb128 0x24
 3019 0e7e 5A050000 		.4byte	0x55a
 3020 0e82 8D0E0000 		.4byte	0xe8d
 3021 0e86 25       		.uleb128 0x25
 3022 0e87 55030000 		.4byte	0x355
 3023 0e8b 02       		.byte	0x2
 3024 0e8c 00       		.byte	0
 3025 0e8d 26       		.uleb128 0x26
 3026 0e8e 30040000 		.4byte	.LASF98
 3027 0e92 01       		.byte	0x1
 3028 0e93 53       		.byte	0x53
 3029 0e94 9E0E0000 		.4byte	0xe9e
 3030 0e98 05       		.byte	0x5
 3031 0e99 03       		.byte	0x3
 3032 0e9a 00000000 		.4byte	evhndl
 3033 0e9e 10       		.uleb128 0x10
 3034 0e9f 7D0E0000 		.4byte	0xe7d
 3035 0ea3 27       		.uleb128 0x27
 3036 0ea4 27000000 		.4byte	.LASF99
 3037 0ea8 08       		.byte	0x8
 3038 0ea9 DB       		.byte	0xdb
 3039 0eaa 23040000 		.4byte	0x423
 3040 0eae 01       		.byte	0x1
 3041 0eaf 01       		.byte	0x1
 3042 0eb0 27       		.uleb128 0x27
 3043 0eb1 0A050000 		.4byte	.LASF100
 3044 0eb5 09       		.byte	0x9
 3045 0eb6 6F       		.byte	0x6f
 3046 0eb7 8B040000 		.4byte	0x48b
 3047 0ebb 01       		.byte	0x1
 3048 0ebc 01       		.byte	0x1
 3049 0ebd 24       		.uleb128 0x24
 3050 0ebe 70020000 		.4byte	0x270
 3051 0ec2 CD0E0000 		.4byte	0xecd
 3052 0ec6 25       		.uleb128 0x25
 3053 0ec7 55030000 		.4byte	0x355
 3054 0ecb 04       		.byte	0x4
ARM GAS  C:\Users\3130\AppData\Local\Temp\ccPAZpBF.s 			page 55


 3055 0ecc 00       		.byte	0
 3056 0ecd 27       		.uleb128 0x27
 3057 0ece E7030000 		.4byte	.LASF101
 3058 0ed2 0C       		.byte	0xc
 3059 0ed3 A5       		.byte	0xa5
 3060 0ed4 BD0E0000 		.4byte	0xebd
 3061 0ed8 01       		.byte	0x1
 3062 0ed9 01       		.byte	0x1
 3063 0eda 24       		.uleb128 0x24
 3064 0edb AE020000 		.4byte	0x2ae
 3065 0edf E50E0000 		.4byte	0xee5
 3066 0ee3 28       		.uleb128 0x28
 3067 0ee4 00       		.byte	0
 3068 0ee5 29       		.uleb128 0x29
 3069 0ee6 776100   		.ascii	"wa\000"
 3070 0ee9 0C       		.byte	0xc
 3071 0eea A7       		.byte	0xa7
 3072 0eeb F10E0000 		.4byte	0xef1
 3073 0eef 01       		.byte	0x1
 3074 0ef0 01       		.byte	0x1
 3075 0ef1 10       		.uleb128 0x10
 3076 0ef2 DA0E0000 		.4byte	0xeda
 3077 0ef6 2A       		.uleb128 0x2a
 3078 0ef7 27040000 		.4byte	.LASF102
 3079 0efb 01       		.byte	0x1
 3080 0efc 6B       		.byte	0x6b
 3081 0efd 080F0000 		.4byte	0xf08
 3082 0f01 01       		.byte	0x1
 3083 0f02 05       		.byte	0x5
 3084 0f03 03       		.byte	0x3
 3085 0f04 00000000 		.4byte	testevt1
 3086 0f08 10       		.uleb128 0x10
 3087 0f09 E5050000 		.4byte	0x5e5
 3088 0f0d 2A       		.uleb128 0x2a
 3089 0f0e 27010000 		.4byte	.LASF103
 3090 0f12 01       		.byte	0x1
 3091 0f13 E0       		.byte	0xe0
 3092 0f14 080F0000 		.4byte	0xf08
 3093 0f18 01       		.byte	0x1
 3094 0f19 05       		.byte	0x5
 3095 0f1a 03       		.byte	0x3
 3096 0f1b 00000000 		.4byte	testevt2
 3097 0f1f 2B       		.uleb128 0x2b
 3098 0f20 3D010000 		.4byte	.LASF104
 3099 0f24 01       		.byte	0x1
 3100 0f25 1001     		.2byte	0x110
 3101 0f27 080F0000 		.4byte	0xf08
 3102 0f2b 01       		.byte	0x1
 3103 0f2c 05       		.byte	0x5
 3104 0f2d 03       		.byte	0x3
 3105 0f2e 00000000 		.4byte	testevt3
 3106 0f32 24       		.uleb128 0x24
 3107 0f33 420F0000 		.4byte	0xf42
 3108 0f37 420F0000 		.4byte	0xf42
 3109 0f3b 25       		.uleb128 0x25
 3110 0f3c 55030000 		.4byte	0x355
 3111 0f40 03       		.byte	0x3
ARM GAS  C:\Users\3130\AppData\Local\Temp\ccPAZpBF.s 			page 56


 3112 0f41 00       		.byte	0
 3113 0f42 09       		.uleb128 0x9
 3114 0f43 04       		.byte	0x4
 3115 0f44 080F0000 		.4byte	0xf08
 3116 0f48 2B       		.uleb128 0x2b
 3117 0f49 E4010000 		.4byte	.LASF105
 3118 0f4d 01       		.byte	0x1
 3119 0f4e 1B01     		.2byte	0x11b
 3120 0f50 5B0F0000 		.4byte	0xf5b
 3121 0f54 01       		.byte	0x1
 3122 0f55 05       		.byte	0x5
 3123 0f56 03       		.byte	0x3
 3124 0f57 00000000 		.4byte	patternevt
 3125 0f5b 10       		.uleb128 0x10
 3126 0f5c 320F0000 		.4byte	0xf32
 3127 0f60 2C       		.uleb128 0x2c
 3128 0f61 01       		.byte	0x1
 3129 0f62 C4010000 		.4byte	.LASF106
 3130 0f66 0B       		.byte	0xb
 3131 0f67 B3       		.byte	0xb3
 3132 0f68 01       		.byte	0x1
 3133 0f69 FA000000 		.4byte	0xfa
 3134 0f6d 01       		.byte	0x1
 3135 0f6e 780F0000 		.4byte	0xf78
 3136 0f72 0C       		.uleb128 0xc
 3137 0f73 FA000000 		.4byte	0xfa
 3138 0f77 00       		.byte	0
 3139 0f78 2C       		.uleb128 0x2c
 3140 0f79 01       		.byte	0x1
 3141 0f7a 51000000 		.4byte	.LASF107
 3142 0f7e 0B       		.byte	0xb
 3143 0f7f B4       		.byte	0xb4
 3144 0f80 01       		.byte	0x1
 3145 0f81 FA000000 		.4byte	0xfa
 3146 0f85 01       		.byte	0x1
 3147 0f86 900F0000 		.4byte	0xf90
 3148 0f8a 0C       		.uleb128 0xc
 3149 0f8b FA000000 		.4byte	0xfa
 3150 0f8f 00       		.byte	0
 3151 0f90 2C       		.uleb128 0x2c
 3152 0f91 01       		.byte	0x1
 3153 0f92 92030000 		.4byte	.LASF108
 3154 0f96 0B       		.byte	0xb
 3155 0f97 BD       		.byte	0xbd
 3156 0f98 01       		.byte	0x1
 3157 0f99 FA000000 		.4byte	0xfa
 3158 0f9d 01       		.byte	0x1
 3159 0f9e A80F0000 		.4byte	0xfa8
 3160 0fa2 0C       		.uleb128 0xc
 3161 0fa3 FA000000 		.4byte	0xfa
 3162 0fa7 00       		.byte	0
 3163 0fa8 2C       		.uleb128 0x2c
 3164 0fa9 01       		.byte	0x1
 3165 0faa 5C050000 		.4byte	.LASF109
 3166 0fae 0C       		.byte	0xc
 3167 0faf 58       		.byte	0x58
 3168 0fb0 01       		.byte	0x1
ARM GAS  C:\Users\3130\AppData\Local\Temp\ccPAZpBF.s 			page 57


 3169 0fb1 9B000000 		.4byte	0x9b
 3170 0fb5 01       		.byte	0x1
 3171 0fb6 C50F0000 		.4byte	0xfc5
 3172 0fba 0C       		.uleb128 0xc
 3173 0fbb 3B000000 		.4byte	0x3b
 3174 0fbf 0C       		.uleb128 0xc
 3175 0fc0 9B000000 		.4byte	0x9b
 3176 0fc4 00       		.byte	0
 3177 0fc5 2D       		.uleb128 0x2d
 3178 0fc6 01       		.byte	0x1
 3179 0fc7 8B050000 		.4byte	.LASF129
 3180 0fcb 0C       		.byte	0xc
 3181 0fcc 5D       		.byte	0x5d
 3182 0fcd 01       		.byte	0x1
 3183 0fce 10010000 		.4byte	0x110
 3184 0fd2 01       		.byte	0x1
 3185 0fd3 2E       		.uleb128 0x2e
 3186 0fd4 01       		.byte	0x1
 3187 0fd5 88020000 		.4byte	.LASF110
 3188 0fd9 06       		.byte	0x6
 3189 0fda 7001     		.2byte	0x170
 3190 0fdc 01       		.byte	0x1
 3191 0fdd 70020000 		.4byte	0x270
 3192 0fe1 01       		.byte	0x1
 3193 0fe2 00100000 		.4byte	0x1000
 3194 0fe6 0C       		.uleb128 0xc
 3195 0fe7 AE020000 		.4byte	0x2ae
 3196 0feb 0C       		.uleb128 0xc
 3197 0fec 30000000 		.4byte	0x30
 3198 0ff0 0C       		.uleb128 0xc
 3199 0ff1 D9000000 		.4byte	0xd9
 3200 0ff5 0C       		.uleb128 0xc
 3201 0ff6 C4050000 		.4byte	0x5c4
 3202 0ffa 0C       		.uleb128 0xc
 3203 0ffb AE020000 		.4byte	0x2ae
 3204 0fff 00       		.byte	0
 3205 1000 2C       		.uleb128 0x2c
 3206 1001 01       		.byte	0x1
 3207 1002 0E010000 		.4byte	.LASF111
 3208 1006 0C       		.byte	0xc
 3209 1007 5A       		.byte	0x5a
 3210 1008 01       		.byte	0x1
 3211 1009 9B000000 		.4byte	0x9b
 3212 100d 01       		.byte	0x1
 3213 100e 22100000 		.4byte	0x1022
 3214 1012 0C       		.uleb128 0xc
 3215 1013 3B000000 		.4byte	0x3b
 3216 1017 0C       		.uleb128 0xc
 3217 1018 10010000 		.4byte	0x110
 3218 101c 0C       		.uleb128 0xc
 3219 101d 10010000 		.4byte	0x110
 3220 1021 00       		.byte	0
 3221 1022 2F       		.uleb128 0x2f
 3222 1023 01       		.byte	0x1
 3223 1024 D7020000 		.4byte	.LASF130
 3224 1028 0C       		.byte	0xc
 3225 1029 5C       		.byte	0x5c
ARM GAS  C:\Users\3130\AppData\Local\Temp\ccPAZpBF.s 			page 58


 3226 102a 01       		.byte	0x1
 3227 102b 01       		.byte	0x1
 3228 102c 2C       		.uleb128 0x2c
 3229 102d 01       		.byte	0x1
 3230 102e 30010000 		.4byte	.LASF112
 3231 1032 0B       		.byte	0xb
 3232 1033 BE       		.byte	0xbe
 3233 1034 01       		.byte	0x1
 3234 1035 FA000000 		.4byte	0xfa
 3235 1039 01       		.byte	0x1
 3236 103a 44100000 		.4byte	0x1044
 3237 103e 0C       		.uleb128 0xc
 3238 103f FA000000 		.4byte	0xfa
 3239 1043 00       		.byte	0
 3240 1044 30       		.uleb128 0x30
 3241 1045 01       		.byte	0x1
 3242 1046 32020000 		.4byte	.LASF114
 3243 104a 0B       		.byte	0xb
 3244 104b AF       		.byte	0xaf
 3245 104c 01       		.byte	0x1
 3246 104d 01       		.byte	0x1
 3247 104e 62100000 		.4byte	0x1062
 3248 1052 0C       		.uleb128 0xc
 3249 1053 62100000 		.4byte	0x1062
 3250 1057 0C       		.uleb128 0xc
 3251 1058 2E050000 		.4byte	0x52e
 3252 105c 0C       		.uleb128 0xc
 3253 105d FA000000 		.4byte	0xfa
 3254 1061 00       		.byte	0
 3255 1062 09       		.uleb128 0x9
 3256 1063 04       		.byte	0x4
 3257 1064 4F050000 		.4byte	0x54f
 3258 1068 2C       		.uleb128 0x2c
 3259 1069 01       		.byte	0x1
 3260 106a 30030000 		.4byte	.LASF113
 3261 106e 0B       		.byte	0xb
 3262 106f BF       		.byte	0xbf
 3263 1070 01       		.byte	0x1
 3264 1071 FA000000 		.4byte	0xfa
 3265 1075 01       		.byte	0x1
 3266 1076 80100000 		.4byte	0x1080
 3267 107a 0C       		.uleb128 0xc
 3268 107b FA000000 		.4byte	0xfa
 3269 107f 00       		.byte	0
 3270 1080 30       		.uleb128 0x30
 3271 1081 01       		.byte	0x1
 3272 1082 52020000 		.4byte	.LASF115
 3273 1086 0B       		.byte	0xb
 3274 1087 B2       		.byte	0xb2
 3275 1088 01       		.byte	0x1
 3276 1089 01       		.byte	0x1
 3277 108a 99100000 		.4byte	0x1099
 3278 108e 0C       		.uleb128 0xc
 3279 108f 62100000 		.4byte	0x1062
 3280 1093 0C       		.uleb128 0xc
 3281 1094 2E050000 		.4byte	0x52e
 3282 1098 00       		.byte	0
ARM GAS  C:\Users\3130\AppData\Local\Temp\ccPAZpBF.s 			page 59


 3283 1099 30       		.uleb128 0x30
 3284 109a 01       		.byte	0x1
 3285 109b 67010000 		.4byte	.LASF116
 3286 109f 0B       		.byte	0xb
 3287 10a0 B9       		.byte	0xb9
 3288 10a1 01       		.byte	0x1
 3289 10a2 01       		.byte	0x1
 3290 10a3 B2100000 		.4byte	0x10b2
 3291 10a7 0C       		.uleb128 0xc
 3292 10a8 62100000 		.4byte	0x1062
 3293 10ac 0C       		.uleb128 0xc
 3294 10ad 05010000 		.4byte	0x105
 3295 10b1 00       		.byte	0
 3296 10b2 31       		.uleb128 0x31
 3297 10b3 01       		.byte	0x1
 3298 10b4 EE040000 		.4byte	.LASF117
 3299 10b8 06       		.byte	0x6
 3300 10b9 7501     		.2byte	0x175
 3301 10bb 01       		.byte	0x1
 3302 10bc 01       		.byte	0x1
 3303 10bd C7100000 		.4byte	0x10c7
 3304 10c1 0C       		.uleb128 0xc
 3305 10c2 10010000 		.4byte	0x110
 3306 10c6 00       		.byte	0
 3307 10c7 30       		.uleb128 0x30
 3308 10c8 01       		.byte	0x1
 3309 10c9 2E000000 		.4byte	.LASF118
 3310 10cd 0B       		.byte	0xb
 3311 10ce B7       		.byte	0xb7
 3312 10cf 01       		.byte	0x1
 3313 10d0 01       		.byte	0x1
 3314 10d1 E0100000 		.4byte	0x10e0
 3315 10d5 0C       		.uleb128 0xc
 3316 10d6 70020000 		.4byte	0x270
 3317 10da 0C       		.uleb128 0xc
 3318 10db FA000000 		.4byte	0xfa
 3319 10df 00       		.byte	0
 3320 10e0 30       		.uleb128 0x30
 3321 10e1 01       		.byte	0x1
 3322 10e2 BE020000 		.4byte	.LASF119
 3323 10e6 0B       		.byte	0xb
 3324 10e7 BB       		.byte	0xbb
 3325 10e8 01       		.byte	0x1
 3326 10e9 01       		.byte	0x1
 3327 10ea F9100000 		.4byte	0x10f9
 3328 10ee 0C       		.uleb128 0xc
 3329 10ef F9100000 		.4byte	0x10f9
 3330 10f3 0C       		.uleb128 0xc
 3331 10f4 FA000000 		.4byte	0xfa
 3332 10f8 00       		.byte	0
 3333 10f9 09       		.uleb128 0x9
 3334 10fa 04       		.byte	0x4
 3335 10fb FF100000 		.4byte	0x10ff
 3336 10ff 10       		.uleb128 0x10
 3337 1100 5A050000 		.4byte	0x55a
 3338 1104 2C       		.uleb128 0x2c
 3339 1105 01       		.byte	0x1
ARM GAS  C:\Users\3130\AppData\Local\Temp\ccPAZpBF.s 			page 60


 3340 1106 1A030000 		.4byte	.LASF120
 3341 110a 0C       		.byte	0xc
 3342 110b 59       		.byte	0x59
 3343 110c 01       		.byte	0x1
 3344 110d 9B000000 		.4byte	0x9b
 3345 1111 01       		.byte	0x1
 3346 1112 21110000 		.4byte	0x1121
 3347 1116 0C       		.uleb128 0xc
 3348 1117 3B000000 		.4byte	0x3b
 3349 111b 0C       		.uleb128 0xc
 3350 111c 21110000 		.4byte	0x1121
 3351 1120 00       		.byte	0
 3352 1121 09       		.uleb128 0x9
 3353 1122 04       		.byte	0x4
 3354 1123 B7050000 		.4byte	0x5b7
 3355 1127 30       		.uleb128 0x30
 3356 1128 01       		.byte	0x1
 3357 1129 D6000000 		.4byte	.LASF121
 3358 112d 0C       		.byte	0xc
 3359 112e 56       		.byte	0x56
 3360 112f 01       		.byte	0x1
 3361 1130 01       		.byte	0x1
 3362 1131 3B110000 		.4byte	0x113b
 3363 1135 0C       		.uleb128 0xc
 3364 1136 B7050000 		.4byte	0x5b7
 3365 113a 00       		.byte	0
 3366 113b 2C       		.uleb128 0x2c
 3367 113c 01       		.byte	0x1
 3368 113d 3A050000 		.4byte	.LASF122
 3369 1141 0B       		.byte	0xb
 3370 1142 C2       		.byte	0xc2
 3371 1143 01       		.byte	0x1
 3372 1144 FA000000 		.4byte	0xfa
 3373 1148 01       		.byte	0x1
 3374 1149 58110000 		.4byte	0x1158
 3375 114d 0C       		.uleb128 0xc
 3376 114e FA000000 		.4byte	0xfa
 3377 1152 0C       		.uleb128 0xc
 3378 1153 10010000 		.4byte	0x110
 3379 1157 00       		.byte	0
 3380 1158 2C       		.uleb128 0x2c
 3381 1159 01       		.byte	0x1
 3382 115a 69000000 		.4byte	.LASF123
 3383 115e 0B       		.byte	0xb
 3384 115f C3       		.byte	0xc3
 3385 1160 01       		.byte	0x1
 3386 1161 FA000000 		.4byte	0xfa
 3387 1165 01       		.byte	0x1
 3388 1166 75110000 		.4byte	0x1175
 3389 116a 0C       		.uleb128 0xc
 3390 116b FA000000 		.4byte	0xfa
 3391 116f 0C       		.uleb128 0xc
 3392 1170 10010000 		.4byte	0x110
 3393 1174 00       		.byte	0
 3394 1175 32       		.uleb128 0x32
 3395 1176 01       		.byte	0x1
 3396 1177 AB000000 		.4byte	.LASF124
ARM GAS  C:\Users\3130\AppData\Local\Temp\ccPAZpBF.s 			page 61


 3397 117b 0B       		.byte	0xb
 3398 117c C4       		.byte	0xc4
 3399 117d 01       		.byte	0x1
 3400 117e FA000000 		.4byte	0xfa
 3401 1182 01       		.byte	0x1
 3402 1183 0C       		.uleb128 0xc
 3403 1184 FA000000 		.4byte	0xfa
 3404 1188 0C       		.uleb128 0xc
 3405 1189 10010000 		.4byte	0x110
 3406 118d 00       		.byte	0
 3407 118e 00       		.byte	0
 3408              		.section	.debug_abbrev,"",%progbits
 3409              	.Ldebug_abbrev0:
 3410 0000 01       		.uleb128 0x1
 3411 0001 11       		.uleb128 0x11
 3412 0002 01       		.byte	0x1
 3413 0003 25       		.uleb128 0x25
 3414 0004 0E       		.uleb128 0xe
 3415 0005 13       		.uleb128 0x13
 3416 0006 0B       		.uleb128 0xb
 3417 0007 03       		.uleb128 0x3
 3418 0008 0E       		.uleb128 0xe
 3419 0009 1B       		.uleb128 0x1b
 3420 000a 0E       		.uleb128 0xe
 3421 000b 55       		.uleb128 0x55
 3422 000c 06       		.uleb128 0x6
 3423 000d 11       		.uleb128 0x11
 3424 000e 01       		.uleb128 0x1
 3425 000f 52       		.uleb128 0x52
 3426 0010 01       		.uleb128 0x1
 3427 0011 10       		.uleb128 0x10
 3428 0012 06       		.uleb128 0x6
 3429 0013 00       		.byte	0
 3430 0014 00       		.byte	0
 3431 0015 02       		.uleb128 0x2
 3432 0016 24       		.uleb128 0x24
 3433 0017 00       		.byte	0
 3434 0018 0B       		.uleb128 0xb
 3435 0019 0B       		.uleb128 0xb
 3436 001a 3E       		.uleb128 0x3e
 3437 001b 0B       		.uleb128 0xb
 3438 001c 03       		.uleb128 0x3
 3439 001d 08       		.uleb128 0x8
 3440 001e 00       		.byte	0
 3441 001f 00       		.byte	0
 3442 0020 03       		.uleb128 0x3
 3443 0021 16       		.uleb128 0x16
 3444 0022 00       		.byte	0
 3445 0023 03       		.uleb128 0x3
 3446 0024 0E       		.uleb128 0xe
 3447 0025 3A       		.uleb128 0x3a
 3448 0026 0B       		.uleb128 0xb
 3449 0027 3B       		.uleb128 0x3b
 3450 0028 0B       		.uleb128 0xb
 3451 0029 49       		.uleb128 0x49
 3452 002a 13       		.uleb128 0x13
 3453 002b 00       		.byte	0
ARM GAS  C:\Users\3130\AppData\Local\Temp\ccPAZpBF.s 			page 62


 3454 002c 00       		.byte	0
 3455 002d 04       		.uleb128 0x4
 3456 002e 24       		.uleb128 0x24
 3457 002f 00       		.byte	0
 3458 0030 0B       		.uleb128 0xb
 3459 0031 0B       		.uleb128 0xb
 3460 0032 3E       		.uleb128 0x3e
 3461 0033 0B       		.uleb128 0xb
 3462 0034 03       		.uleb128 0x3
 3463 0035 0E       		.uleb128 0xe
 3464 0036 00       		.byte	0
 3465 0037 00       		.byte	0
 3466 0038 05       		.uleb128 0x5
 3467 0039 13       		.uleb128 0x13
 3468 003a 01       		.byte	0x1
 3469 003b 03       		.uleb128 0x3
 3470 003c 0E       		.uleb128 0xe
 3471 003d 0B       		.uleb128 0xb
 3472 003e 0B       		.uleb128 0xb
 3473 003f 3A       		.uleb128 0x3a
 3474 0040 0B       		.uleb128 0xb
 3475 0041 3B       		.uleb128 0x3b
 3476 0042 0B       		.uleb128 0xb
 3477 0043 01       		.uleb128 0x1
 3478 0044 13       		.uleb128 0x13
 3479 0045 00       		.byte	0
 3480 0046 00       		.byte	0
 3481 0047 06       		.uleb128 0x6
 3482 0048 0D       		.uleb128 0xd
 3483 0049 00       		.byte	0
 3484 004a 03       		.uleb128 0x3
 3485 004b 0E       		.uleb128 0xe
 3486 004c 3A       		.uleb128 0x3a
 3487 004d 0B       		.uleb128 0xb
 3488 004e 3B       		.uleb128 0x3b
 3489 004f 0B       		.uleb128 0xb
 3490 0050 49       		.uleb128 0x49
 3491 0051 13       		.uleb128 0x13
 3492 0052 38       		.uleb128 0x38
 3493 0053 0A       		.uleb128 0xa
 3494 0054 00       		.byte	0
 3495 0055 00       		.byte	0
 3496 0056 07       		.uleb128 0x7
 3497 0057 0D       		.uleb128 0xd
 3498 0058 00       		.byte	0
 3499 0059 03       		.uleb128 0x3
 3500 005a 08       		.uleb128 0x8
 3501 005b 3A       		.uleb128 0x3a
 3502 005c 0B       		.uleb128 0xb
 3503 005d 3B       		.uleb128 0x3b
 3504 005e 0B       		.uleb128 0xb
 3505 005f 49       		.uleb128 0x49
 3506 0060 13       		.uleb128 0x13
 3507 0061 38       		.uleb128 0x38
 3508 0062 0A       		.uleb128 0xa
 3509 0063 00       		.byte	0
 3510 0064 00       		.byte	0
ARM GAS  C:\Users\3130\AppData\Local\Temp\ccPAZpBF.s 			page 63


 3511 0065 08       		.uleb128 0x8
 3512 0066 13       		.uleb128 0x13
 3513 0067 01       		.byte	0x1
 3514 0068 0B       		.uleb128 0xb
 3515 0069 0B       		.uleb128 0xb
 3516 006a 3A       		.uleb128 0x3a
 3517 006b 0B       		.uleb128 0xb
 3518 006c 3B       		.uleb128 0x3b
 3519 006d 0B       		.uleb128 0xb
 3520 006e 01       		.uleb128 0x1
 3521 006f 13       		.uleb128 0x13
 3522 0070 00       		.byte	0
 3523 0071 00       		.byte	0
 3524 0072 09       		.uleb128 0x9
 3525 0073 0F       		.uleb128 0xf
 3526 0074 00       		.byte	0
 3527 0075 0B       		.uleb128 0xb
 3528 0076 0B       		.uleb128 0xb
 3529 0077 49       		.uleb128 0x49
 3530 0078 13       		.uleb128 0x13
 3531 0079 00       		.byte	0
 3532 007a 00       		.byte	0
 3533 007b 0A       		.uleb128 0xa
 3534 007c 0F       		.uleb128 0xf
 3535 007d 00       		.byte	0
 3536 007e 0B       		.uleb128 0xb
 3537 007f 0B       		.uleb128 0xb
 3538 0080 00       		.byte	0
 3539 0081 00       		.byte	0
 3540 0082 0B       		.uleb128 0xb
 3541 0083 15       		.uleb128 0x15
 3542 0084 01       		.byte	0x1
 3543 0085 27       		.uleb128 0x27
 3544 0086 0C       		.uleb128 0xc
 3545 0087 01       		.uleb128 0x1
 3546 0088 13       		.uleb128 0x13
 3547 0089 00       		.byte	0
 3548 008a 00       		.byte	0
 3549 008b 0C       		.uleb128 0xc
 3550 008c 05       		.uleb128 0x5
 3551 008d 00       		.byte	0
 3552 008e 49       		.uleb128 0x49
 3553 008f 13       		.uleb128 0x13
 3554 0090 00       		.byte	0
 3555 0091 00       		.byte	0
 3556 0092 0D       		.uleb128 0xd
 3557 0093 35       		.uleb128 0x35
 3558 0094 00       		.byte	0
 3559 0095 49       		.uleb128 0x49
 3560 0096 13       		.uleb128 0x13
 3561 0097 00       		.byte	0
 3562 0098 00       		.byte	0
 3563 0099 0E       		.uleb128 0xe
 3564 009a 17       		.uleb128 0x17
 3565 009b 01       		.byte	0x1
 3566 009c 0B       		.uleb128 0xb
 3567 009d 0B       		.uleb128 0xb
ARM GAS  C:\Users\3130\AppData\Local\Temp\ccPAZpBF.s 			page 64


 3568 009e 3A       		.uleb128 0x3a
 3569 009f 0B       		.uleb128 0xb
 3570 00a0 3B       		.uleb128 0x3b
 3571 00a1 0B       		.uleb128 0xb
 3572 00a2 01       		.uleb128 0x1
 3573 00a3 13       		.uleb128 0x13
 3574 00a4 00       		.byte	0
 3575 00a5 00       		.byte	0
 3576 00a6 0F       		.uleb128 0xf
 3577 00a7 0D       		.uleb128 0xd
 3578 00a8 00       		.byte	0
 3579 00a9 03       		.uleb128 0x3
 3580 00aa 0E       		.uleb128 0xe
 3581 00ab 3A       		.uleb128 0x3a
 3582 00ac 0B       		.uleb128 0xb
 3583 00ad 3B       		.uleb128 0x3b
 3584 00ae 0B       		.uleb128 0xb
 3585 00af 49       		.uleb128 0x49
 3586 00b0 13       		.uleb128 0x13
 3587 00b1 00       		.byte	0
 3588 00b2 00       		.byte	0
 3589 00b3 10       		.uleb128 0x10
 3590 00b4 26       		.uleb128 0x26
 3591 00b5 00       		.byte	0
 3592 00b6 49       		.uleb128 0x49
 3593 00b7 13       		.uleb128 0x13
 3594 00b8 00       		.byte	0
 3595 00b9 00       		.byte	0
 3596 00ba 11       		.uleb128 0x11
 3597 00bb 15       		.uleb128 0x15
 3598 00bc 01       		.byte	0x1
 3599 00bd 27       		.uleb128 0x27
 3600 00be 0C       		.uleb128 0xc
 3601 00bf 49       		.uleb128 0x49
 3602 00c0 13       		.uleb128 0x13
 3603 00c1 01       		.uleb128 0x1
 3604 00c2 13       		.uleb128 0x13
 3605 00c3 00       		.byte	0
 3606 00c4 00       		.byte	0
 3607 00c5 12       		.uleb128 0x12
 3608 00c6 15       		.uleb128 0x15
 3609 00c7 00       		.byte	0
 3610 00c8 27       		.uleb128 0x27
 3611 00c9 0C       		.uleb128 0xc
 3612 00ca 00       		.byte	0
 3613 00cb 00       		.byte	0
 3614 00cc 13       		.uleb128 0x13
 3615 00cd 2E       		.uleb128 0x2e
 3616 00ce 01       		.byte	0x1
 3617 00cf 03       		.uleb128 0x3
 3618 00d0 0E       		.uleb128 0xe
 3619 00d1 3A       		.uleb128 0x3a
 3620 00d2 0B       		.uleb128 0xb
 3621 00d3 3B       		.uleb128 0x3b
 3622 00d4 0B       		.uleb128 0xb
 3623 00d5 27       		.uleb128 0x27
 3624 00d6 0C       		.uleb128 0xc
ARM GAS  C:\Users\3130\AppData\Local\Temp\ccPAZpBF.s 			page 65


 3625 00d7 20       		.uleb128 0x20
 3626 00d8 0B       		.uleb128 0xb
 3627 00d9 01       		.uleb128 0x1
 3628 00da 13       		.uleb128 0x13
 3629 00db 00       		.byte	0
 3630 00dc 00       		.byte	0
 3631 00dd 14       		.uleb128 0x14
 3632 00de 34       		.uleb128 0x34
 3633 00df 00       		.byte	0
 3634 00e0 03       		.uleb128 0x3
 3635 00e1 08       		.uleb128 0x8
 3636 00e2 3A       		.uleb128 0x3a
 3637 00e3 0B       		.uleb128 0xb
 3638 00e4 3B       		.uleb128 0x3b
 3639 00e5 0B       		.uleb128 0xb
 3640 00e6 49       		.uleb128 0x49
 3641 00e7 13       		.uleb128 0x13
 3642 00e8 00       		.byte	0
 3643 00e9 00       		.byte	0
 3644 00ea 15       		.uleb128 0x15
 3645 00eb 2E       		.uleb128 0x2e
 3646 00ec 01       		.byte	0x1
 3647 00ed 03       		.uleb128 0x3
 3648 00ee 0E       		.uleb128 0xe
 3649 00ef 3A       		.uleb128 0x3a
 3650 00f0 0B       		.uleb128 0xb
 3651 00f1 3B       		.uleb128 0x3b
 3652 00f2 0B       		.uleb128 0xb
 3653 00f3 27       		.uleb128 0x27
 3654 00f4 0C       		.uleb128 0xc
 3655 00f5 11       		.uleb128 0x11
 3656 00f6 01       		.uleb128 0x1
 3657 00f7 12       		.uleb128 0x12
 3658 00f8 01       		.uleb128 0x1
 3659 00f9 40       		.uleb128 0x40
 3660 00fa 06       		.uleb128 0x6
 3661 00fb 9742     		.uleb128 0x2117
 3662 00fd 0C       		.uleb128 0xc
 3663 00fe 01       		.uleb128 0x1
 3664 00ff 13       		.uleb128 0x13
 3665 0100 00       		.byte	0
 3666 0101 00       		.byte	0
 3667 0102 16       		.uleb128 0x16
 3668 0103 898201   		.uleb128 0x4109
 3669 0106 01       		.byte	0x1
 3670 0107 11       		.uleb128 0x11
 3671 0108 01       		.uleb128 0x1
 3672 0109 31       		.uleb128 0x31
 3673 010a 13       		.uleb128 0x13
 3674 010b 00       		.byte	0
 3675 010c 00       		.byte	0
 3676 010d 17       		.uleb128 0x17
 3677 010e 8A8201   		.uleb128 0x410a
 3678 0111 00       		.byte	0
 3679 0112 02       		.uleb128 0x2
 3680 0113 0A       		.uleb128 0xa
 3681 0114 9142     		.uleb128 0x2111
ARM GAS  C:\Users\3130\AppData\Local\Temp\ccPAZpBF.s 			page 66


 3682 0116 0A       		.uleb128 0xa
 3683 0117 00       		.byte	0
 3684 0118 00       		.byte	0
 3685 0119 18       		.uleb128 0x18
 3686 011a 34       		.uleb128 0x34
 3687 011b 00       		.byte	0
 3688 011c 03       		.uleb128 0x3
 3689 011d 08       		.uleb128 0x8
 3690 011e 3A       		.uleb128 0x3a
 3691 011f 0B       		.uleb128 0xb
 3692 0120 3B       		.uleb128 0x3b
 3693 0121 0B       		.uleb128 0xb
 3694 0122 49       		.uleb128 0x49
 3695 0123 13       		.uleb128 0x13
 3696 0124 02       		.uleb128 0x2
 3697 0125 06       		.uleb128 0x6
 3698 0126 00       		.byte	0
 3699 0127 00       		.byte	0
 3700 0128 19       		.uleb128 0x19
 3701 0129 34       		.uleb128 0x34
 3702 012a 00       		.byte	0
 3703 012b 03       		.uleb128 0x3
 3704 012c 08       		.uleb128 0x8
 3705 012d 3A       		.uleb128 0x3a
 3706 012e 0B       		.uleb128 0xb
 3707 012f 3B       		.uleb128 0x3b
 3708 0130 0B       		.uleb128 0xb
 3709 0131 49       		.uleb128 0x49
 3710 0132 13       		.uleb128 0x13
 3711 0133 02       		.uleb128 0x2
 3712 0134 0A       		.uleb128 0xa
 3713 0135 00       		.byte	0
 3714 0136 00       		.byte	0
 3715 0137 1A       		.uleb128 0x1a
 3716 0138 34       		.uleb128 0x34
 3717 0139 00       		.byte	0
 3718 013a 03       		.uleb128 0x3
 3719 013b 0E       		.uleb128 0xe
 3720 013c 3A       		.uleb128 0x3a
 3721 013d 0B       		.uleb128 0xb
 3722 013e 3B       		.uleb128 0x3b
 3723 013f 0B       		.uleb128 0xb
 3724 0140 49       		.uleb128 0x49
 3725 0141 13       		.uleb128 0x13
 3726 0142 02       		.uleb128 0x2
 3727 0143 06       		.uleb128 0x6
 3728 0144 00       		.byte	0
 3729 0145 00       		.byte	0
 3730 0146 1B       		.uleb128 0x1b
 3731 0147 898201   		.uleb128 0x4109
 3732 014a 01       		.byte	0x1
 3733 014b 11       		.uleb128 0x11
 3734 014c 01       		.uleb128 0x1
 3735 014d 31       		.uleb128 0x31
 3736 014e 13       		.uleb128 0x13
 3737 014f 01       		.uleb128 0x1
 3738 0150 13       		.uleb128 0x13
ARM GAS  C:\Users\3130\AppData\Local\Temp\ccPAZpBF.s 			page 67


 3739 0151 00       		.byte	0
 3740 0152 00       		.byte	0
 3741 0153 1C       		.uleb128 0x1c
 3742 0154 898201   		.uleb128 0x4109
 3743 0157 00       		.byte	0
 3744 0158 11       		.uleb128 0x11
 3745 0159 01       		.uleb128 0x1
 3746 015a 31       		.uleb128 0x31
 3747 015b 13       		.uleb128 0x13
 3748 015c 00       		.byte	0
 3749 015d 00       		.byte	0
 3750 015e 1D       		.uleb128 0x1d
 3751 015f 2E       		.uleb128 0x2e
 3752 0160 01       		.byte	0x1
 3753 0161 03       		.uleb128 0x3
 3754 0162 0E       		.uleb128 0xe
 3755 0163 3A       		.uleb128 0x3a
 3756 0164 0B       		.uleb128 0xb
 3757 0165 3B       		.uleb128 0x3b
 3758 0166 0B       		.uleb128 0xb
 3759 0167 27       		.uleb128 0x27
 3760 0168 0C       		.uleb128 0xc
 3761 0169 49       		.uleb128 0x49
 3762 016a 13       		.uleb128 0x13
 3763 016b 11       		.uleb128 0x11
 3764 016c 01       		.uleb128 0x1
 3765 016d 12       		.uleb128 0x12
 3766 016e 01       		.uleb128 0x1
 3767 016f 40       		.uleb128 0x40
 3768 0170 06       		.uleb128 0x6
 3769 0171 9742     		.uleb128 0x2117
 3770 0173 0C       		.uleb128 0xc
 3771 0174 01       		.uleb128 0x1
 3772 0175 13       		.uleb128 0x13
 3773 0176 00       		.byte	0
 3774 0177 00       		.byte	0
 3775 0178 1E       		.uleb128 0x1e
 3776 0179 05       		.uleb128 0x5
 3777 017a 00       		.byte	0
 3778 017b 03       		.uleb128 0x3
 3779 017c 08       		.uleb128 0x8
 3780 017d 3A       		.uleb128 0x3a
 3781 017e 0B       		.uleb128 0xb
 3782 017f 3B       		.uleb128 0x3b
 3783 0180 0B       		.uleb128 0xb
 3784 0181 49       		.uleb128 0x49
 3785 0182 13       		.uleb128 0x13
 3786 0183 02       		.uleb128 0x2
 3787 0184 06       		.uleb128 0x6
 3788 0185 00       		.byte	0
 3789 0186 00       		.byte	0
 3790 0187 1F       		.uleb128 0x1f
 3791 0188 2E       		.uleb128 0x2e
 3792 0189 01       		.byte	0x1
 3793 018a 03       		.uleb128 0x3
 3794 018b 08       		.uleb128 0x8
 3795 018c 3A       		.uleb128 0x3a
ARM GAS  C:\Users\3130\AppData\Local\Temp\ccPAZpBF.s 			page 68


 3796 018d 0B       		.uleb128 0xb
 3797 018e 3B       		.uleb128 0x3b
 3798 018f 0B       		.uleb128 0xb
 3799 0190 27       		.uleb128 0x27
 3800 0191 0C       		.uleb128 0xc
 3801 0192 11       		.uleb128 0x11
 3802 0193 01       		.uleb128 0x1
 3803 0194 12       		.uleb128 0x12
 3804 0195 01       		.uleb128 0x1
 3805 0196 40       		.uleb128 0x40
 3806 0197 06       		.uleb128 0x6
 3807 0198 9742     		.uleb128 0x2117
 3808 019a 0C       		.uleb128 0xc
 3809 019b 01       		.uleb128 0x1
 3810 019c 13       		.uleb128 0x13
 3811 019d 00       		.byte	0
 3812 019e 00       		.byte	0
 3813 019f 20       		.uleb128 0x20
 3814 01a0 2E       		.uleb128 0x2e
 3815 01a1 01       		.byte	0x1
 3816 01a2 31       		.uleb128 0x31
 3817 01a3 13       		.uleb128 0x13
 3818 01a4 11       		.uleb128 0x11
 3819 01a5 01       		.uleb128 0x1
 3820 01a6 12       		.uleb128 0x12
 3821 01a7 01       		.uleb128 0x1
 3822 01a8 40       		.uleb128 0x40
 3823 01a9 06       		.uleb128 0x6
 3824 01aa 9742     		.uleb128 0x2117
 3825 01ac 0C       		.uleb128 0xc
 3826 01ad 01       		.uleb128 0x1
 3827 01ae 13       		.uleb128 0x13
 3828 01af 00       		.byte	0
 3829 01b0 00       		.byte	0
 3830 01b1 21       		.uleb128 0x21
 3831 01b2 34       		.uleb128 0x34
 3832 01b3 00       		.byte	0
 3833 01b4 31       		.uleb128 0x31
 3834 01b5 13       		.uleb128 0x13
 3835 01b6 02       		.uleb128 0x2
 3836 01b7 06       		.uleb128 0x6
 3837 01b8 00       		.byte	0
 3838 01b9 00       		.byte	0
 3839 01ba 22       		.uleb128 0x22
 3840 01bb 1D       		.uleb128 0x1d
 3841 01bc 01       		.byte	0x1
 3842 01bd 31       		.uleb128 0x31
 3843 01be 13       		.uleb128 0x13
 3844 01bf 11       		.uleb128 0x11
 3845 01c0 01       		.uleb128 0x1
 3846 01c1 12       		.uleb128 0x12
 3847 01c2 01       		.uleb128 0x1
 3848 01c3 58       		.uleb128 0x58
 3849 01c4 0B       		.uleb128 0xb
 3850 01c5 59       		.uleb128 0x59
 3851 01c6 0B       		.uleb128 0xb
 3852 01c7 01       		.uleb128 0x1
ARM GAS  C:\Users\3130\AppData\Local\Temp\ccPAZpBF.s 			page 69


 3853 01c8 13       		.uleb128 0x13
 3854 01c9 00       		.byte	0
 3855 01ca 00       		.byte	0
 3856 01cb 23       		.uleb128 0x23
 3857 01cc 0B       		.uleb128 0xb
 3858 01cd 01       		.byte	0x1
 3859 01ce 11       		.uleb128 0x11
 3860 01cf 01       		.uleb128 0x1
 3861 01d0 12       		.uleb128 0x12
 3862 01d1 01       		.uleb128 0x1
 3863 01d2 00       		.byte	0
 3864 01d3 00       		.byte	0
 3865 01d4 24       		.uleb128 0x24
 3866 01d5 01       		.uleb128 0x1
 3867 01d6 01       		.byte	0x1
 3868 01d7 49       		.uleb128 0x49
 3869 01d8 13       		.uleb128 0x13
 3870 01d9 01       		.uleb128 0x1
 3871 01da 13       		.uleb128 0x13
 3872 01db 00       		.byte	0
 3873 01dc 00       		.byte	0
 3874 01dd 25       		.uleb128 0x25
 3875 01de 21       		.uleb128 0x21
 3876 01df 00       		.byte	0
 3877 01e0 49       		.uleb128 0x49
 3878 01e1 13       		.uleb128 0x13
 3879 01e2 2F       		.uleb128 0x2f
 3880 01e3 0B       		.uleb128 0xb
 3881 01e4 00       		.byte	0
 3882 01e5 00       		.byte	0
 3883 01e6 26       		.uleb128 0x26
 3884 01e7 34       		.uleb128 0x34
 3885 01e8 00       		.byte	0
 3886 01e9 03       		.uleb128 0x3
 3887 01ea 0E       		.uleb128 0xe
 3888 01eb 3A       		.uleb128 0x3a
 3889 01ec 0B       		.uleb128 0xb
 3890 01ed 3B       		.uleb128 0x3b
 3891 01ee 0B       		.uleb128 0xb
 3892 01ef 49       		.uleb128 0x49
 3893 01f0 13       		.uleb128 0x13
 3894 01f1 02       		.uleb128 0x2
 3895 01f2 0A       		.uleb128 0xa
 3896 01f3 00       		.byte	0
 3897 01f4 00       		.byte	0
 3898 01f5 27       		.uleb128 0x27
 3899 01f6 34       		.uleb128 0x34
 3900 01f7 00       		.byte	0
 3901 01f8 03       		.uleb128 0x3
 3902 01f9 0E       		.uleb128 0xe
 3903 01fa 3A       		.uleb128 0x3a
 3904 01fb 0B       		.uleb128 0xb
 3905 01fc 3B       		.uleb128 0x3b
 3906 01fd 0B       		.uleb128 0xb
 3907 01fe 49       		.uleb128 0x49
 3908 01ff 13       		.uleb128 0x13
 3909 0200 3F       		.uleb128 0x3f
ARM GAS  C:\Users\3130\AppData\Local\Temp\ccPAZpBF.s 			page 70


 3910 0201 0C       		.uleb128 0xc
 3911 0202 3C       		.uleb128 0x3c
 3912 0203 0C       		.uleb128 0xc
 3913 0204 00       		.byte	0
 3914 0205 00       		.byte	0
 3915 0206 28       		.uleb128 0x28
 3916 0207 21       		.uleb128 0x21
 3917 0208 00       		.byte	0
 3918 0209 00       		.byte	0
 3919 020a 00       		.byte	0
 3920 020b 29       		.uleb128 0x29
 3921 020c 34       		.uleb128 0x34
 3922 020d 00       		.byte	0
 3923 020e 03       		.uleb128 0x3
 3924 020f 08       		.uleb128 0x8
 3925 0210 3A       		.uleb128 0x3a
 3926 0211 0B       		.uleb128 0xb
 3927 0212 3B       		.uleb128 0x3b
 3928 0213 0B       		.uleb128 0xb
 3929 0214 49       		.uleb128 0x49
 3930 0215 13       		.uleb128 0x13
 3931 0216 3F       		.uleb128 0x3f
 3932 0217 0C       		.uleb128 0xc
 3933 0218 3C       		.uleb128 0x3c
 3934 0219 0C       		.uleb128 0xc
 3935 021a 00       		.byte	0
 3936 021b 00       		.byte	0
 3937 021c 2A       		.uleb128 0x2a
 3938 021d 34       		.uleb128 0x34
 3939 021e 00       		.byte	0
 3940 021f 03       		.uleb128 0x3
 3941 0220 0E       		.uleb128 0xe
 3942 0221 3A       		.uleb128 0x3a
 3943 0222 0B       		.uleb128 0xb
 3944 0223 3B       		.uleb128 0x3b
 3945 0224 0B       		.uleb128 0xb
 3946 0225 49       		.uleb128 0x49
 3947 0226 13       		.uleb128 0x13
 3948 0227 3F       		.uleb128 0x3f
 3949 0228 0C       		.uleb128 0xc
 3950 0229 02       		.uleb128 0x2
 3951 022a 0A       		.uleb128 0xa
 3952 022b 00       		.byte	0
 3953 022c 00       		.byte	0
 3954 022d 2B       		.uleb128 0x2b
 3955 022e 34       		.uleb128 0x34
 3956 022f 00       		.byte	0
 3957 0230 03       		.uleb128 0x3
 3958 0231 0E       		.uleb128 0xe
 3959 0232 3A       		.uleb128 0x3a
 3960 0233 0B       		.uleb128 0xb
 3961 0234 3B       		.uleb128 0x3b
 3962 0235 05       		.uleb128 0x5
 3963 0236 49       		.uleb128 0x49
 3964 0237 13       		.uleb128 0x13
 3965 0238 3F       		.uleb128 0x3f
 3966 0239 0C       		.uleb128 0xc
ARM GAS  C:\Users\3130\AppData\Local\Temp\ccPAZpBF.s 			page 71


 3967 023a 02       		.uleb128 0x2
 3968 023b 0A       		.uleb128 0xa
 3969 023c 00       		.byte	0
 3970 023d 00       		.byte	0
 3971 023e 2C       		.uleb128 0x2c
 3972 023f 2E       		.uleb128 0x2e
 3973 0240 01       		.byte	0x1
 3974 0241 3F       		.uleb128 0x3f
 3975 0242 0C       		.uleb128 0xc
 3976 0243 03       		.uleb128 0x3
 3977 0244 0E       		.uleb128 0xe
 3978 0245 3A       		.uleb128 0x3a
 3979 0246 0B       		.uleb128 0xb
 3980 0247 3B       		.uleb128 0x3b
 3981 0248 0B       		.uleb128 0xb
 3982 0249 27       		.uleb128 0x27
 3983 024a 0C       		.uleb128 0xc
 3984 024b 49       		.uleb128 0x49
 3985 024c 13       		.uleb128 0x13
 3986 024d 3C       		.uleb128 0x3c
 3987 024e 0C       		.uleb128 0xc
 3988 024f 01       		.uleb128 0x1
 3989 0250 13       		.uleb128 0x13
 3990 0251 00       		.byte	0
 3991 0252 00       		.byte	0
 3992 0253 2D       		.uleb128 0x2d
 3993 0254 2E       		.uleb128 0x2e
 3994 0255 00       		.byte	0
 3995 0256 3F       		.uleb128 0x3f
 3996 0257 0C       		.uleb128 0xc
 3997 0258 03       		.uleb128 0x3
 3998 0259 0E       		.uleb128 0xe
 3999 025a 3A       		.uleb128 0x3a
 4000 025b 0B       		.uleb128 0xb
 4001 025c 3B       		.uleb128 0x3b
 4002 025d 0B       		.uleb128 0xb
 4003 025e 27       		.uleb128 0x27
 4004 025f 0C       		.uleb128 0xc
 4005 0260 49       		.uleb128 0x49
 4006 0261 13       		.uleb128 0x13
 4007 0262 3C       		.uleb128 0x3c
 4008 0263 0C       		.uleb128 0xc
 4009 0264 00       		.byte	0
 4010 0265 00       		.byte	0
 4011 0266 2E       		.uleb128 0x2e
 4012 0267 2E       		.uleb128 0x2e
 4013 0268 01       		.byte	0x1
 4014 0269 3F       		.uleb128 0x3f
 4015 026a 0C       		.uleb128 0xc
 4016 026b 03       		.uleb128 0x3
 4017 026c 0E       		.uleb128 0xe
 4018 026d 3A       		.uleb128 0x3a
 4019 026e 0B       		.uleb128 0xb
 4020 026f 3B       		.uleb128 0x3b
 4021 0270 05       		.uleb128 0x5
 4022 0271 27       		.uleb128 0x27
 4023 0272 0C       		.uleb128 0xc
ARM GAS  C:\Users\3130\AppData\Local\Temp\ccPAZpBF.s 			page 72


 4024 0273 49       		.uleb128 0x49
 4025 0274 13       		.uleb128 0x13
 4026 0275 3C       		.uleb128 0x3c
 4027 0276 0C       		.uleb128 0xc
 4028 0277 01       		.uleb128 0x1
 4029 0278 13       		.uleb128 0x13
 4030 0279 00       		.byte	0
 4031 027a 00       		.byte	0
 4032 027b 2F       		.uleb128 0x2f
 4033 027c 2E       		.uleb128 0x2e
 4034 027d 00       		.byte	0
 4035 027e 3F       		.uleb128 0x3f
 4036 027f 0C       		.uleb128 0xc
 4037 0280 03       		.uleb128 0x3
 4038 0281 0E       		.uleb128 0xe
 4039 0282 3A       		.uleb128 0x3a
 4040 0283 0B       		.uleb128 0xb
 4041 0284 3B       		.uleb128 0x3b
 4042 0285 0B       		.uleb128 0xb
 4043 0286 27       		.uleb128 0x27
 4044 0287 0C       		.uleb128 0xc
 4045 0288 3C       		.uleb128 0x3c
 4046 0289 0C       		.uleb128 0xc
 4047 028a 00       		.byte	0
 4048 028b 00       		.byte	0
 4049 028c 30       		.uleb128 0x30
 4050 028d 2E       		.uleb128 0x2e
 4051 028e 01       		.byte	0x1
 4052 028f 3F       		.uleb128 0x3f
 4053 0290 0C       		.uleb128 0xc
 4054 0291 03       		.uleb128 0x3
 4055 0292 0E       		.uleb128 0xe
 4056 0293 3A       		.uleb128 0x3a
 4057 0294 0B       		.uleb128 0xb
 4058 0295 3B       		.uleb128 0x3b
 4059 0296 0B       		.uleb128 0xb
 4060 0297 27       		.uleb128 0x27
 4061 0298 0C       		.uleb128 0xc
 4062 0299 3C       		.uleb128 0x3c
 4063 029a 0C       		.uleb128 0xc
 4064 029b 01       		.uleb128 0x1
 4065 029c 13       		.uleb128 0x13
 4066 029d 00       		.byte	0
 4067 029e 00       		.byte	0
 4068 029f 31       		.uleb128 0x31
 4069 02a0 2E       		.uleb128 0x2e
 4070 02a1 01       		.byte	0x1
 4071 02a2 3F       		.uleb128 0x3f
 4072 02a3 0C       		.uleb128 0xc
 4073 02a4 03       		.uleb128 0x3
 4074 02a5 0E       		.uleb128 0xe
 4075 02a6 3A       		.uleb128 0x3a
 4076 02a7 0B       		.uleb128 0xb
 4077 02a8 3B       		.uleb128 0x3b
 4078 02a9 05       		.uleb128 0x5
 4079 02aa 27       		.uleb128 0x27
 4080 02ab 0C       		.uleb128 0xc
ARM GAS  C:\Users\3130\AppData\Local\Temp\ccPAZpBF.s 			page 73


 4081 02ac 3C       		.uleb128 0x3c
 4082 02ad 0C       		.uleb128 0xc
 4083 02ae 01       		.uleb128 0x1
 4084 02af 13       		.uleb128 0x13
 4085 02b0 00       		.byte	0
 4086 02b1 00       		.byte	0
 4087 02b2 32       		.uleb128 0x32
 4088 02b3 2E       		.uleb128 0x2e
 4089 02b4 01       		.byte	0x1
 4090 02b5 3F       		.uleb128 0x3f
 4091 02b6 0C       		.uleb128 0xc
 4092 02b7 03       		.uleb128 0x3
 4093 02b8 0E       		.uleb128 0xe
 4094 02b9 3A       		.uleb128 0x3a
 4095 02ba 0B       		.uleb128 0xb
 4096 02bb 3B       		.uleb128 0x3b
 4097 02bc 0B       		.uleb128 0xb
 4098 02bd 27       		.uleb128 0x27
 4099 02be 0C       		.uleb128 0xc
 4100 02bf 49       		.uleb128 0x49
 4101 02c0 13       		.uleb128 0x13
 4102 02c1 3C       		.uleb128 0x3c
 4103 02c2 0C       		.uleb128 0xc
 4104 02c3 00       		.byte	0
 4105 02c4 00       		.byte	0
 4106 02c5 00       		.byte	0
 4107              		.section	.debug_loc,"",%progbits
 4108              	.Ldebug_loc0:
 4109              	.LLST0:
 4110 0000 00000000 		.4byte	.LFB16
 4111 0004 02000000 		.4byte	.LCFI0
 4112 0008 0200     		.2byte	0x2
 4113 000a 7D       		.byte	0x7d
 4114 000b 00       		.sleb128 0
 4115 000c 02000000 		.4byte	.LCFI0
 4116 0010 0C000000 		.4byte	.LFE16
 4117 0014 0200     		.2byte	0x2
 4118 0016 7D       		.byte	0x7d
 4119 0017 08       		.sleb128 8
 4120 0018 00000000 		.4byte	0
 4121 001c 00000000 		.4byte	0
 4122              	.LLST1:
 4123 0020 00000000 		.4byte	.LFB12
 4124 0024 02000000 		.4byte	.LCFI1
 4125 0028 0200     		.2byte	0x2
 4126 002a 7D       		.byte	0x7d
 4127 002b 00       		.sleb128 0
 4128 002c 02000000 		.4byte	.LCFI1
 4129 0030 0C000000 		.4byte	.LFE12
 4130 0034 0200     		.2byte	0x2
 4131 0036 7D       		.byte	0x7d
 4132 0037 08       		.sleb128 8
 4133 0038 00000000 		.4byte	0
 4134 003c 00000000 		.4byte	0
 4135              	.LLST2:
 4136 0040 00000000 		.4byte	.LFB7
 4137 0044 02000000 		.4byte	.LCFI2
ARM GAS  C:\Users\3130\AppData\Local\Temp\ccPAZpBF.s 			page 74


 4138 0048 0200     		.2byte	0x2
 4139 004a 7D       		.byte	0x7d
 4140 004b 00       		.sleb128 0
 4141 004c 02000000 		.4byte	.LCFI2
 4142 0050 0C000000 		.4byte	.LFE7
 4143 0054 0200     		.2byte	0x2
 4144 0056 7D       		.byte	0x7d
 4145 0057 08       		.sleb128 8
 4146 0058 00000000 		.4byte	0
 4147 005c 00000000 		.4byte	0
 4148              	.LLST3:
 4149 0060 00000000 		.4byte	.LFB15
 4150 0064 02000000 		.4byte	.LCFI3
 4151 0068 0200     		.2byte	0x2
 4152 006a 7D       		.byte	0x7d
 4153 006b 00       		.sleb128 0
 4154 006c 02000000 		.4byte	.LCFI3
 4155 0070 08000000 		.4byte	.LCFI4
 4156 0074 0200     		.2byte	0x2
 4157 0076 7D       		.byte	0x7d
 4158 0077 14       		.sleb128 20
 4159 0078 08000000 		.4byte	.LCFI4
 4160 007c 0C000000 		.4byte	.LCFI5
 4161 0080 0200     		.2byte	0x2
 4162 0082 7D       		.byte	0x7d
 4163 0083 1C       		.sleb128 28
 4164 0084 0C000000 		.4byte	.LCFI5
 4165 0088 40020000 		.4byte	.LFE15
 4166 008c 0300     		.2byte	0x3
 4167 008e 7D       		.byte	0x7d
 4168 008f D000     		.sleb128 80
 4169 0091 00000000 		.4byte	0
 4170 0095 00000000 		.4byte	0
 4171              	.LLST4:
 4172 0099 18000000 		.4byte	.LVL4
 4173 009d 20000000 		.4byte	.LVL5
 4174 00a1 0100     		.2byte	0x1
 4175 00a3 50       		.byte	0x50
 4176 00a4 3A000000 		.4byte	.LVL7
 4177 00a8 42000000 		.4byte	.LVL8
 4178 00ac 0100     		.2byte	0x1
 4179 00ae 50       		.byte	0x50
 4180 00af 52000000 		.4byte	.LVL10
 4181 00b3 56000000 		.4byte	.LVL11
 4182 00b7 0100     		.2byte	0x1
 4183 00b9 50       		.byte	0x50
 4184 00ba 98000000 		.4byte	.LVL17
 4185 00be 9E000000 		.4byte	.LVL19
 4186 00c2 0100     		.2byte	0x1
 4187 00c4 50       		.byte	0x50
 4188 00c5 9E000000 		.4byte	.LVL19
 4189 00c9 C0000000 		.4byte	.LVL23
 4190 00cd 0100     		.2byte	0x1
 4191 00cf 59       		.byte	0x59
 4192 00d0 C0000000 		.4byte	.LVL23
 4193 00d4 C4000000 		.4byte	.LVL24
 4194 00d8 0100     		.2byte	0x1
ARM GAS  C:\Users\3130\AppData\Local\Temp\ccPAZpBF.s 			page 75


 4195 00da 50       		.byte	0x50
 4196 00db E0000000 		.4byte	.LVL28
 4197 00df E8000000 		.4byte	.LVL29
 4198 00e3 0100     		.2byte	0x1
 4199 00e5 50       		.byte	0x50
 4200 00e6 F8000000 		.4byte	.LVL31
 4201 00ea FC000000 		.4byte	.LVL32
 4202 00ee 0100     		.2byte	0x1
 4203 00f0 50       		.byte	0x50
 4204 00f1 32010000 		.4byte	.LVL38
 4205 00f5 38010000 		.4byte	.LVL40
 4206 00f9 0100     		.2byte	0x1
 4207 00fb 50       		.byte	0x50
 4208 00fc 38010000 		.4byte	.LVL40
 4209 0100 5E010000 		.4byte	.LVL43
 4210 0104 0100     		.2byte	0x1
 4211 0106 58       		.byte	0x58
 4212 0107 5E010000 		.4byte	.LVL43
 4213 010b 62010000 		.4byte	.LVL44
 4214 010f 0100     		.2byte	0x1
 4215 0111 50       		.byte	0x50
 4216 0112 D2010000 		.4byte	.LVL56
 4217 0116 D6010000 		.4byte	.LVL57
 4218 011a 0100     		.2byte	0x1
 4219 011c 50       		.byte	0x50
 4220 011d 00000000 		.4byte	0
 4221 0121 00000000 		.4byte	0
 4222              	.LLST5:
 4223 0125 78000000 		.4byte	.LVL14
 4224 0129 9A000000 		.4byte	.LVL18
 4225 012d 0300     		.2byte	0x3
 4226 012f 74       		.byte	0x74
 4227 0130 32       		.sleb128 50
 4228 0131 9F       		.byte	0x9f
 4229 0132 9A000000 		.4byte	.LVL18
 4230 0136 A1000000 		.4byte	.LVL20-1
 4231 013a 0100     		.2byte	0x1
 4232 013c 51       		.byte	0x51
 4233 013d A1000000 		.4byte	.LVL20-1
 4234 0141 BA000000 		.4byte	.LVL22
 4235 0145 0300     		.2byte	0x3
 4236 0147 74       		.byte	0x74
 4237 0148 32       		.sleb128 50
 4238 0149 9F       		.byte	0x9f
 4239 014a 14010000 		.4byte	.LVL35
 4240 014e 34010000 		.4byte	.LVL39
 4241 0152 0300     		.2byte	0x3
 4242 0154 74       		.byte	0x74
 4243 0155 32       		.sleb128 50
 4244 0156 9F       		.byte	0x9f
 4245 0157 34010000 		.4byte	.LVL39
 4246 015b 3B010000 		.4byte	.LVL41-1
 4247 015f 0100     		.2byte	0x1
 4248 0161 51       		.byte	0x51
 4249 0162 3B010000 		.4byte	.LVL41-1
 4250 0166 74010000 		.4byte	.LVL47
 4251 016a 0300     		.2byte	0x3
ARM GAS  C:\Users\3130\AppData\Local\Temp\ccPAZpBF.s 			page 76


 4252 016c 74       		.byte	0x74
 4253 016d 32       		.sleb128 50
 4254 016e 9F       		.byte	0x9f
 4255 016f A0010000 		.4byte	.LVL51
 4256 0173 BC010000 		.4byte	.LVL54
 4257 0177 0300     		.2byte	0x3
 4258 0179 77       		.byte	0x77
 4259 017a 32       		.sleb128 50
 4260 017b 9F       		.byte	0x9f
 4261 017c BC010000 		.4byte	.LVL54
 4262 0180 C3010000 		.4byte	.LVL55-1
 4263 0184 0100     		.2byte	0x1
 4264 0186 51       		.byte	0x51
 4265 0187 C3010000 		.4byte	.LVL55-1
 4266 018b 40020000 		.4byte	.LFE15
 4267 018f 0300     		.2byte	0x3
 4268 0191 77       		.byte	0x77
 4269 0192 32       		.sleb128 50
 4270 0193 9F       		.byte	0x9f
 4271 0194 00000000 		.4byte	0
 4272 0198 00000000 		.4byte	0
 4273              	.LLST6:
 4274 019c 00000000 		.4byte	.LFB14
 4275 01a0 02000000 		.4byte	.LCFI6
 4276 01a4 0200     		.2byte	0x2
 4277 01a6 7D       		.byte	0x7d
 4278 01a7 00       		.sleb128 0
 4279 01a8 02000000 		.4byte	.LCFI6
 4280 01ac 24000000 		.4byte	.LFE14
 4281 01b0 0200     		.2byte	0x2
 4282 01b2 7D       		.byte	0x7d
 4283 01b3 08       		.sleb128 8
 4284 01b4 00000000 		.4byte	0
 4285 01b8 00000000 		.4byte	0
 4286              	.LLST7:
 4287 01bc 00000000 		.4byte	.LVL64
 4288 01c0 06000000 		.4byte	.LVL65
 4289 01c4 0100     		.2byte	0x1
 4290 01c6 50       		.byte	0x50
 4291 01c7 06000000 		.4byte	.LVL65
 4292 01cb 24000000 		.4byte	.LFE14
 4293 01cf 0400     		.2byte	0x4
 4294 01d1 F3       		.byte	0xf3
 4295 01d2 01       		.uleb128 0x1
 4296 01d3 50       		.byte	0x50
 4297 01d4 9F       		.byte	0x9f
 4298 01d5 00000000 		.4byte	0
 4299 01d9 00000000 		.4byte	0
 4300              	.LLST8:
 4301 01dd 00000000 		.4byte	.LFB13
 4302 01e1 02000000 		.4byte	.LCFI7
 4303 01e5 0200     		.2byte	0x2
 4304 01e7 7D       		.byte	0x7d
 4305 01e8 00       		.sleb128 0
 4306 01e9 02000000 		.4byte	.LCFI7
 4307 01ed 16000000 		.4byte	.LFE13
 4308 01f1 0200     		.2byte	0x2
ARM GAS  C:\Users\3130\AppData\Local\Temp\ccPAZpBF.s 			page 77


 4309 01f3 7D       		.byte	0x7d
 4310 01f4 08       		.sleb128 8
 4311 01f5 00000000 		.4byte	0
 4312 01f9 00000000 		.4byte	0
 4313              	.LLST9:
 4314 01fd 00000000 		.4byte	.LVL69
 4315 0201 06000000 		.4byte	.LVL70
 4316 0205 0100     		.2byte	0x1
 4317 0207 50       		.byte	0x50
 4318 0208 06000000 		.4byte	.LVL70
 4319 020c 14000000 		.4byte	.LVL73
 4320 0210 0100     		.2byte	0x1
 4321 0212 54       		.byte	0x54
 4322 0213 14000000 		.4byte	.LVL73
 4323 0217 16000000 		.4byte	.LFE13
 4324 021b 0400     		.2byte	0x4
 4325 021d F3       		.byte	0xf3
 4326 021e 01       		.uleb128 0x1
 4327 021f 50       		.byte	0x50
 4328 0220 9F       		.byte	0x9f
 4329 0221 00000000 		.4byte	0
 4330 0225 00000000 		.4byte	0
 4331              	.LLST10:
 4332 0229 00000000 		.4byte	.LFB11
 4333 022d 02000000 		.4byte	.LCFI8
 4334 0231 0200     		.2byte	0x2
 4335 0233 7D       		.byte	0x7d
 4336 0234 00       		.sleb128 0
 4337 0235 02000000 		.4byte	.LCFI8
 4338 0239 06000000 		.4byte	.LCFI9
 4339 023d 0200     		.2byte	0x2
 4340 023f 7D       		.byte	0x7d
 4341 0240 08       		.sleb128 8
 4342 0241 06000000 		.4byte	.LCFI9
 4343 0245 84000000 		.4byte	.LFE11
 4344 0249 0200     		.2byte	0x2
 4345 024b 7D       		.byte	0x7d
 4346 024c 28       		.sleb128 40
 4347 024d 00000000 		.4byte	0
 4348 0251 00000000 		.4byte	0
 4349              	.LLST11:
 4350 0255 00000000 		.4byte	.LFB10
 4351 0259 02000000 		.4byte	.LCFI10
 4352 025d 0200     		.2byte	0x2
 4353 025f 7D       		.byte	0x7d
 4354 0260 00       		.sleb128 0
 4355 0261 02000000 		.4byte	.LCFI10
 4356 0265 0A000000 		.4byte	.LFE10
 4357 0269 0200     		.2byte	0x2
 4358 026b 7D       		.byte	0x7d
 4359 026c 08       		.sleb128 8
 4360 026d 00000000 		.4byte	0
 4361 0271 00000000 		.4byte	0
 4362              	.LLST12:
 4363 0275 00000000 		.4byte	.LVL83
 4364 0279 04000000 		.4byte	.LVL84
 4365 027d 0100     		.2byte	0x1
ARM GAS  C:\Users\3130\AppData\Local\Temp\ccPAZpBF.s 			page 78


 4366 027f 50       		.byte	0x50
 4367 0280 04000000 		.4byte	.LVL84
 4368 0284 0A000000 		.4byte	.LFE10
 4369 0288 0400     		.2byte	0x4
 4370 028a F3       		.byte	0xf3
 4371 028b 01       		.uleb128 0x1
 4372 028c 50       		.byte	0x50
 4373 028d 9F       		.byte	0x9f
 4374 028e 00000000 		.4byte	0
 4375 0292 00000000 		.4byte	0
 4376              	.LLST13:
 4377 0296 00000000 		.4byte	.LFB9
 4378 029a 02000000 		.4byte	.LCFI11
 4379 029e 0200     		.2byte	0x2
 4380 02a0 7D       		.byte	0x7d
 4381 02a1 00       		.sleb128 0
 4382 02a2 02000000 		.4byte	.LCFI11
 4383 02a6 0A000000 		.4byte	.LFE9
 4384 02aa 0200     		.2byte	0x2
 4385 02ac 7D       		.byte	0x7d
 4386 02ad 08       		.sleb128 8
 4387 02ae 00000000 		.4byte	0
 4388 02b2 00000000 		.4byte	0
 4389              	.LLST14:
 4390 02b6 00000000 		.4byte	.LVL86
 4391 02ba 04000000 		.4byte	.LVL87
 4392 02be 0100     		.2byte	0x1
 4393 02c0 50       		.byte	0x50
 4394 02c1 04000000 		.4byte	.LVL87
 4395 02c5 0A000000 		.4byte	.LFE9
 4396 02c9 0400     		.2byte	0x4
 4397 02cb F3       		.byte	0xf3
 4398 02cc 01       		.uleb128 0x1
 4399 02cd 50       		.byte	0x50
 4400 02ce 9F       		.byte	0x9f
 4401 02cf 00000000 		.4byte	0
 4402 02d3 00000000 		.4byte	0
 4403              	.LLST15:
 4404 02d7 00000000 		.4byte	.LFB8
 4405 02db 02000000 		.4byte	.LCFI12
 4406 02df 0200     		.2byte	0x2
 4407 02e1 7D       		.byte	0x7d
 4408 02e2 00       		.sleb128 0
 4409 02e3 02000000 		.4byte	.LCFI12
 4410 02e7 0A000000 		.4byte	.LFE8
 4411 02eb 0200     		.2byte	0x2
 4412 02ed 7D       		.byte	0x7d
 4413 02ee 08       		.sleb128 8
 4414 02ef 00000000 		.4byte	0
 4415 02f3 00000000 		.4byte	0
 4416              	.LLST16:
 4417 02f7 00000000 		.4byte	.LVL89
 4418 02fb 04000000 		.4byte	.LVL90
 4419 02ff 0100     		.2byte	0x1
 4420 0301 50       		.byte	0x50
 4421 0302 04000000 		.4byte	.LVL90
 4422 0306 0A000000 		.4byte	.LFE8
ARM GAS  C:\Users\3130\AppData\Local\Temp\ccPAZpBF.s 			page 79


 4423 030a 0400     		.2byte	0x4
 4424 030c F3       		.byte	0xf3
 4425 030d 01       		.uleb128 0x1
 4426 030e 50       		.byte	0x50
 4427 030f 9F       		.byte	0x9f
 4428 0310 00000000 		.4byte	0
 4429 0314 00000000 		.4byte	0
 4430              	.LLST17:
 4431 0318 00000000 		.4byte	.LFB17
 4432 031c 04000000 		.4byte	.LCFI13
 4433 0320 0200     		.2byte	0x2
 4434 0322 7D       		.byte	0x7d
 4435 0323 00       		.sleb128 0
 4436 0324 04000000 		.4byte	.LCFI13
 4437 0328 92000000 		.4byte	.LFE17
 4438 032c 0200     		.2byte	0x2
 4439 032e 7D       		.byte	0x7d
 4440 032f 08       		.sleb128 8
 4441 0330 00000000 		.4byte	0
 4442 0334 00000000 		.4byte	0
 4443              	.LLST18:
 4444 0338 0C000000 		.4byte	.LVL92
 4445 033c 10000000 		.4byte	.LVL93
 4446 0340 0100     		.2byte	0x1
 4447 0342 50       		.byte	0x50
 4448 0343 26000000 		.4byte	.LVL95
 4449 0347 2A000000 		.4byte	.LVL96
 4450 034b 0100     		.2byte	0x1
 4451 034d 50       		.byte	0x50
 4452 034e 3E000000 		.4byte	.LVL98
 4453 0352 42000000 		.4byte	.LVL99
 4454 0356 0100     		.2byte	0x1
 4455 0358 50       		.byte	0x50
 4456 0359 00000000 		.4byte	0
 4457 035d 00000000 		.4byte	0
 4458              	.LLST19:
 4459 0361 56000000 		.4byte	.LVL101
 4460 0365 5A000000 		.4byte	.LVL102
 4461 0369 0100     		.2byte	0x1
 4462 036b 50       		.byte	0x50
 4463 036c 6E000000 		.4byte	.LVL104
 4464 0370 72000000 		.4byte	.LVL105
 4465 0374 0100     		.2byte	0x1
 4466 0376 50       		.byte	0x50
 4467 0377 86000000 		.4byte	.LVL107
 4468 037b 8A000000 		.4byte	.LVL108
 4469 037f 0100     		.2byte	0x1
 4470 0381 50       		.byte	0x50
 4471 0382 00000000 		.4byte	0
 4472 0386 00000000 		.4byte	0
 4473              		.section	.debug_aranges,"",%progbits
 4474 0000 6C000000 		.4byte	0x6c
 4475 0004 0200     		.2byte	0x2
 4476 0006 00000000 		.4byte	.Ldebug_info0
 4477 000a 04       		.byte	0x4
 4478 000b 00       		.byte	0
 4479 000c 0000     		.2byte	0
ARM GAS  C:\Users\3130\AppData\Local\Temp\ccPAZpBF.s 			page 80


 4480 000e 0000     		.2byte	0
 4481 0010 00000000 		.4byte	.LFB16
 4482 0014 0C000000 		.4byte	.LFE16-.LFB16
 4483 0018 00000000 		.4byte	.LFB12
 4484 001c 0C000000 		.4byte	.LFE12-.LFB12
 4485 0020 00000000 		.4byte	.LFB7
 4486 0024 0C000000 		.4byte	.LFE7-.LFB7
 4487 0028 00000000 		.4byte	.LFB15
 4488 002c 40020000 		.4byte	.LFE15-.LFB15
 4489 0030 00000000 		.4byte	.LFB14
 4490 0034 24000000 		.4byte	.LFE14-.LFB14
 4491 0038 00000000 		.4byte	.LFB13
 4492 003c 16000000 		.4byte	.LFE13-.LFB13
 4493 0040 00000000 		.4byte	.LFB11
 4494 0044 84000000 		.4byte	.LFE11-.LFB11
 4495 0048 00000000 		.4byte	.LFB10
 4496 004c 0A000000 		.4byte	.LFE10-.LFB10
 4497 0050 00000000 		.4byte	.LFB9
 4498 0054 0A000000 		.4byte	.LFE9-.LFB9
 4499 0058 00000000 		.4byte	.LFB8
 4500 005c 0A000000 		.4byte	.LFE8-.LFB8
 4501 0060 00000000 		.4byte	.LFB17
 4502 0064 92000000 		.4byte	.LFE17-.LFB17
 4503 0068 00000000 		.4byte	0
 4504 006c 00000000 		.4byte	0
 4505              		.section	.debug_ranges,"",%progbits
 4506              	.Ldebug_ranges0:
 4507 0000 00000000 		.4byte	.LFB16
 4508 0004 0C000000 		.4byte	.LFE16
 4509 0008 00000000 		.4byte	.LFB12
 4510 000c 0C000000 		.4byte	.LFE12
 4511 0010 00000000 		.4byte	.LFB7
 4512 0014 0C000000 		.4byte	.LFE7
 4513 0018 00000000 		.4byte	.LFB15
 4514 001c 40020000 		.4byte	.LFE15
 4515 0020 00000000 		.4byte	.LFB14
 4516 0024 24000000 		.4byte	.LFE14
 4517 0028 00000000 		.4byte	.LFB13
 4518 002c 16000000 		.4byte	.LFE13
 4519 0030 00000000 		.4byte	.LFB11
 4520 0034 84000000 		.4byte	.LFE11
 4521 0038 00000000 		.4byte	.LFB10
 4522 003c 0A000000 		.4byte	.LFE10
 4523 0040 00000000 		.4byte	.LFB9
 4524 0044 0A000000 		.4byte	.LFE9
 4525 0048 00000000 		.4byte	.LFB8
 4526 004c 0A000000 		.4byte	.LFE8
 4527 0050 00000000 		.4byte	.LFB17
 4528 0054 92000000 		.4byte	.LFE17
 4529 0058 00000000 		.4byte	0
 4530 005c 00000000 		.4byte	0
 4531              		.section	.debug_line,"",%progbits
 4532              	.Ldebug_line0:
 4533 0000 1A030000 		.section	.debug_str,"MS",%progbits,1
 4533      0200DB01 
 4533      00000201 
 4533      FB0E0D00 
ARM GAS  C:\Users\3130\AppData\Local\Temp\ccPAZpBF.s 			page 81


 4533      01010101 
 4534              	.LASF84:
 4535 0000 7466756E 		.ascii	"tfunc_t\000"
 4535      635F7400 
 4536              	.LASF91:
 4537 0008 65767432 		.ascii	"evt2_setup\000"
 4537      5F736574 
 4537      757000
 4538              	.LASF40:
 4539 0013 705F6D73 		.ascii	"p_msg\000"
 4539      6700
 4540              	.LASF2:
 4541 0019 73697A65 		.ascii	"size_t\000"
 4541      5F7400
 4542              	.LASF79:
 4543 0020 7264796D 		.ascii	"rdymsg\000"
 4543      736700
 4544              	.LASF99:
 4545 0027 76746C69 		.ascii	"vtlist\000"
 4545      737400
 4546              	.LASF118:
 4547 002e 63684576 		.ascii	"chEvtSignal\000"
 4547      74536967 
 4547      6E616C00 
 4548              	.LASF12:
 4549 003a 6C6F6E67 		.ascii	"long long unsigned int\000"
 4549      206C6F6E 
 4549      6720756E 
 4549      7369676E 
 4549      65642069 
 4550              	.LASF107:
 4551 0051 63684576 		.ascii	"chEvtAddEvents\000"
 4551      74416464 
 4551      4576656E 
 4551      747300
 4552              	.LASF80:
 4553 0060 65786974 		.ascii	"exitcode\000"
 4553      636F6465 
 4553      00
 4554              	.LASF123:
 4555 0069 63684576 		.ascii	"chEvtWaitAnyTimeout\000"
 4555      74576169 
 4555      74416E79 
 4555      54696D65 
 4555      6F757400 
 4556              	.LASF28:
 4557 007d 705F7072 		.ascii	"p_prio\000"
 4557      696F00
 4558              	.LASF93:
 4559 0084 65767432 		.ascii	"evt2_execute\000"
 4559      5F657865 
 4559      63757465 
 4559      00
 4560              	.LASF11:
 4561 0091 6C6F6E67 		.ascii	"long long int\000"
 4561      206C6F6E 
 4561      6720696E 
ARM GAS  C:\Users\3130\AppData\Local\Temp\ccPAZpBF.s 			page 82


 4561      7400
 4562              	.LASF1:
 4563 009f 7369676E 		.ascii	"signed char\000"
 4563      65642063 
 4563      68617200 
 4564              	.LASF124:
 4565 00ab 63684576 		.ascii	"chEvtWaitAllTimeout\000"
 4565      74576169 
 4565      74416C6C 
 4565      54696D65 
 4565      6F757400 
 4566              	.LASF44:
 4567 00bf 705F6D70 		.ascii	"p_mpool\000"
 4567      6F6F6C00 
 4568              	.LASF13:
 4569 00c7 626F6F6C 		.ascii	"bool_t\000"
 4569      5F7400
 4570              	.LASF68:
 4571 00ce 6D5F7175 		.ascii	"m_queue\000"
 4571      65756500 
 4572              	.LASF121:
 4573 00d6 74657374 		.ascii	"test_emit_token\000"
 4573      5F656D69 
 4573      745F746F 
 4573      6B656E00 
 4574              	.LASF18:
 4575 00e6 74736C69 		.ascii	"tslices_t\000"
 4575      6365735F 
 4575      7400
 4576              	.LASF8:
 4577 00f0 6C6F6E67 		.ascii	"long int\000"
 4577      20696E74 
 4577      00
 4578              	.LASF94:
 4579 00f9 74617267 		.ascii	"target_time\000"
 4579      65745F74 
 4579      696D6500 
 4580              	.LASF16:
 4581 0105 74737461 		.ascii	"tstate_t\000"
 4581      74655F74 
 4581      00
 4582              	.LASF111:
 4583 010e 5F746573 		.ascii	"_test_assert_time_window\000"
 4583      745F6173 
 4583      73657274 
 4583      5F74696D 
 4583      655F7769 
 4584              	.LASF103:
 4585 0127 74657374 		.ascii	"testevt2\000"
 4585      65767432 
 4585      00
 4586              	.LASF112:
 4587 0130 63684576 		.ascii	"chEvtWaitAny\000"
 4587      74576169 
 4587      74416E79 
 4587      00
 4588              	.LASF104:
ARM GAS  C:\Users\3130\AppData\Local\Temp\ccPAZpBF.s 			page 83


 4589 013d 74657374 		.ascii	"testevt3\000"
 4589      65767433 
 4589      00
 4590              	.LASF30:
 4591 0146 705F6E65 		.ascii	"p_newer\000"
 4591      77657200 
 4592              	.LASF63:
 4593 014e 725F6E65 		.ascii	"r_newer\000"
 4593      77657200 
 4594              	.LASF47:
 4595 0156 72656761 		.ascii	"regarm_t\000"
 4595      726D5F74 
 4595      00
 4596              	.LASF54:
 4597 015f 76745F70 		.ascii	"vt_prev\000"
 4597      72657600 
 4598              	.LASF116:
 4599 0167 63684576 		.ascii	"chEvtBroadcastFlags\000"
 4599      7442726F 
 4599      61646361 
 4599      7374466C 
 4599      61677300 
 4600              	.LASF21:
 4601 017b 6576656E 		.ascii	"eventid_t\000"
 4601      7469645F 
 4601      7400
 4602              	.LASF76:
 4603 0185 4576656E 		.ascii	"EventSource\000"
 4603      74536F75 
 4603      72636500 
 4604              	.LASF78:
 4605 0191 65766861 		.ascii	"evhandler_t\000"
 4605      6E646C65 
 4605      725F7400 
 4606              	.LASF0:
 4607 019d 756E7369 		.ascii	"unsigned int\000"
 4607      676E6564 
 4607      20696E74 
 4607      00
 4608              	.LASF53:
 4609 01aa 76745F6E 		.ascii	"vt_next\000"
 4609      65787400 
 4610              	.LASF10:
 4611 01b2 6C6F6E67 		.ascii	"long unsigned int\000"
 4611      20756E73 
 4611      69676E65 
 4611      6420696E 
 4611      7400
 4612              	.LASF106:
 4613 01c4 63684576 		.ascii	"chEvtGetAndClearEvents\000"
 4613      74476574 
 4613      416E6443 
 4613      6C656172 
 4613      4576656E 
 4614              	.LASF88:
 4615 01db 74656172 		.ascii	"teardown\000"
 4615      646F776E 
ARM GAS  C:\Users\3130\AppData\Local\Temp\ccPAZpBF.s 			page 84


 4615      00
 4616              	.LASF105:
 4617 01e4 70617474 		.ascii	"patternevt\000"
 4617      65726E65 
 4617      767400
 4618              	.LASF86:
 4619 01ef 6E616D65 		.ascii	"name\000"
 4619      00
 4620              	.LASF49:
 4621 01f4 636F6E74 		.ascii	"context\000"
 4621      65787400 
 4622              	.LASF6:
 4623 01fc 73686F72 		.ascii	"short unsigned int\000"
 4623      7420756E 
 4623      7369676E 
 4623      65642069 
 4623      6E7400
 4624              	.LASF126:
 4625 020f 2E2E2F2E 		.ascii	"../../ChibiOS_2.6.1/test/testevt.c\000"
 4625      2E2F4368 
 4625      6962694F 
 4625      535F322E 
 4625      362E312F 
 4626              	.LASF114:
 4627 0232 63684576 		.ascii	"chEvtRegisterMask\000"
 4627      74526567 
 4627      69737465 
 4627      724D6173 
 4627      6B00
 4628              	.LASF20:
 4629 0244 6D73675F 		.ascii	"msg_t\000"
 4629      7400
 4630              	.LASF72:
 4631 024a 656C5F6E 		.ascii	"el_next\000"
 4631      65787400 
 4632              	.LASF115:
 4633 0252 63684576 		.ascii	"chEvtUnregister\000"
 4633      74556E72 
 4633      65676973 
 4633      74657200 
 4634              	.LASF15:
 4635 0262 746D6F64 		.ascii	"tmode_t\000"
 4635      655F7400 
 4636              	.LASF46:
 4637 026a 54687265 		.ascii	"ThreadsList\000"
 4637      6164734C 
 4637      69737400 
 4638              	.LASF22:
 4639 0276 6576656E 		.ascii	"eventmask_t\000"
 4639      746D6173 
 4639      6B5F7400 
 4640              	.LASF67:
 4641 0282 4D757465 		.ascii	"Mutex\000"
 4641      7800
 4642              	.LASF110:
 4643 0288 63685468 		.ascii	"chThdCreateStatic\000"
 4643      64437265 
ARM GAS  C:\Users\3130\AppData\Local\Temp\ccPAZpBF.s 			page 85


 4643      61746553 
 4643      74617469 
 4643      6300
 4644              	.LASF55:
 4645 029a 76745F74 		.ascii	"vt_time\000"
 4645      696D6500 
 4646              	.LASF92:
 4647 02a2 65767431 		.ascii	"evt1_setup\000"
 4647      5F736574 
 4647      757000
 4648              	.LASF50:
 4649 02ad 73697A65 		.ascii	"sizetype\000"
 4649      74797065 
 4649      00
 4650              	.LASF56:
 4651 02b6 76745F66 		.ascii	"vt_func\000"
 4651      756E6300 
 4652              	.LASF119:
 4653 02be 63684576 		.ascii	"chEvtDispatch\000"
 4653      74446973 
 4653      70617463 
 4653      6800
 4654              	.LASF90:
 4655 02cc 65767433 		.ascii	"evt3_setup\000"
 4655      5F736574 
 4655      757000
 4656              	.LASF130:
 4657 02d7 74657374 		.ascii	"test_wait_threads\000"
 4657      5F776169 
 4657      745F7468 
 4657      72656164 
 4657      7300
 4658              	.LASF31:
 4659 02e9 705F6F6C 		.ascii	"p_older\000"
 4659      64657200 
 4660              	.LASF96:
 4661 02f1 74687265 		.ascii	"thread1\000"
 4661      61643100 
 4662              	.LASF95:
 4663 02f9 74687265 		.ascii	"thread2\000"
 4663      61643200 
 4664              	.LASF62:
 4665 0301 725F6374 		.ascii	"r_ctx\000"
 4665      7800
 4666              	.LASF45:
 4667 0307 54687265 		.ascii	"ThreadsQueue\000"
 4667      61647351 
 4667      75657565 
 4667      00
 4668              	.LASF87:
 4669 0314 73657475 		.ascii	"setup\000"
 4669      7000
 4670              	.LASF120:
 4671 031a 5F746573 		.ascii	"_test_assert_sequence\000"
 4671      745F6173 
 4671      73657274 
 4671      5F736571 
ARM GAS  C:\Users\3130\AppData\Local\Temp\ccPAZpBF.s 			page 86


 4671      75656E63 
 4672              	.LASF113:
 4673 0330 63684576 		.ascii	"chEvtWaitAll\000"
 4673      74576169 
 4673      74416C6C 
 4673      00
 4674              	.LASF65:
 4675 033d 725F6375 		.ascii	"r_current\000"
 4675      7272656E 
 4675      7400
 4676              	.LASF64:
 4677 0347 725F6F6C 		.ascii	"r_older\000"
 4677      64657200 
 4678              	.LASF74:
 4679 034f 656C5F6D 		.ascii	"el_mask\000"
 4679      61736B00 
 4680              	.LASF17:
 4681 0357 74726566 		.ascii	"trefs_t\000"
 4681      735F7400 
 4682              	.LASF27:
 4683 035f 705F7072 		.ascii	"p_prev\000"
 4683      657600
 4684              	.LASF89:
 4685 0366 65786563 		.ascii	"execute\000"
 4685      75746500 
 4686              	.LASF19:
 4687 036e 74707269 		.ascii	"tprio_t\000"
 4687      6F5F7400 
 4688              	.LASF14:
 4689 0376 5F426F6F 		.ascii	"_Bool\000"
 4689      6C00
 4690              	.LASF7:
 4691 037c 696E7433 		.ascii	"int32_t\000"
 4691      325F7400 
 4692              	.LASF4:
 4693 0384 756E7369 		.ascii	"unsigned char\000"
 4693      676E6564 
 4693      20636861 
 4693      7200
 4694              	.LASF108:
 4695 0392 63684576 		.ascii	"chEvtWaitOne\000"
 4695      74576169 
 4695      744F6E65 
 4695      00
 4696              	.LASF73:
 4697 039f 656C5F6C 		.ascii	"el_listener\000"
 4697      69737465 
 4697      6E657200 
 4698              	.LASF128:
 4699 03ab 65767433 		.ascii	"evt3_execute\000"
 4699      5F657865 
 4699      63757465 
 4699      00
 4700              	.LASF75:
 4701 03b8 656C5F66 		.ascii	"el_flags\000"
 4701      6C616773 
 4701      00
ARM GAS  C:\Users\3130\AppData\Local\Temp\ccPAZpBF.s 			page 87


 4702              	.LASF42:
 4703 03c1 705F6D74 		.ascii	"p_mtxlist\000"
 4703      786C6973 
 4703      7400
 4704              	.LASF5:
 4705 03cb 73686F72 		.ascii	"short int\000"
 4705      7420696E 
 4705      7400
 4706              	.LASF33:
 4707 03d5 705F7374 		.ascii	"p_state\000"
 4707      61746500 
 4708              	.LASF36:
 4709 03dd 705F7072 		.ascii	"p_preempt\000"
 4709      65656D70 
 4709      7400
 4710              	.LASF101:
 4711 03e7 74687265 		.ascii	"threads\000"
 4711      61647300 
 4712              	.LASF61:
 4713 03ef 725F7072 		.ascii	"r_prio\000"
 4713      696F00
 4714              	.LASF82:
 4715 03f6 65776D61 		.ascii	"ewmask\000"
 4715      736B00
 4716              	.LASF26:
 4717 03fd 705F6E65 		.ascii	"p_next\000"
 4717      787400
 4718              	.LASF34:
 4719 0404 705F666C 		.ascii	"p_flags\000"
 4719      61677300 
 4720              	.LASF25:
 4721 040c 54687265 		.ascii	"Thread\000"
 4721      616400
 4722              	.LASF85:
 4723 0413 74657374 		.ascii	"testcase\000"
 4723      63617365 
 4723      00
 4724              	.LASF41:
 4725 041c 705F6570 		.ascii	"p_epending\000"
 4725      656E6469 
 4725      6E6700
 4726              	.LASF102:
 4727 0427 74657374 		.ascii	"testevt1\000"
 4727      65767431 
 4727      00
 4728              	.LASF98:
 4729 0430 6576686E 		.ascii	"evhndl\000"
 4729      646C00
 4730              	.LASF9:
 4731 0437 75696E74 		.ascii	"uint32_t\000"
 4731      33325F74 
 4731      00
 4732              	.LASF60:
 4733 0440 725F7175 		.ascii	"r_queue\000"
 4733      65756500 
 4734              	.LASF52:
 4735 0448 56697274 		.ascii	"VirtualTimer\000"
ARM GAS  C:\Users\3130\AppData\Local\Temp\ccPAZpBF.s 			page 88


 4735      75616C54 
 4735      696D6572 
 4735      00
 4736              	.LASF83:
 4737 0455 63686172 		.ascii	"char\000"
 4737      00
 4738              	.LASF70:
 4739 045a 6D5F6E65 		.ascii	"m_next\000"
 4739      787400
 4740              	.LASF24:
 4741 0461 73797374 		.ascii	"systime_t\000"
 4741      696D655F 
 4741      7400
 4742              	.LASF43:
 4743 046b 705F7265 		.ascii	"p_realprio\000"
 4743      616C7072 
 4743      696F00
 4744              	.LASF51:
 4745 0476 76746675 		.ascii	"vtfunc_t\000"
 4745      6E635F74 
 4745      00
 4746              	.LASF37:
 4747 047f 705F7469 		.ascii	"p_time\000"
 4747      6D6500
 4748              	.LASF127:
 4749 0486 433A5C73 		.ascii	"C:\\stm32f0-Discovery_Tools\\Projects\\ChibiOS_Temp"
 4749      746D3332 
 4749      66302D44 
 4749      6973636F 
 4749      76657279 
 4750 04b6 6C617465 		.ascii	"late\000"
 4750      00
 4751              	.LASF71:
 4752 04bb 4576656E 		.ascii	"EventListener\000"
 4752      744C6973 
 4752      74656E65 
 4752      7200
 4753              	.LASF48:
 4754 04c9 696E7463 		.ascii	"intctx\000"
 4754      747800
 4755              	.LASF39:
 4756 04d0 705F6D73 		.ascii	"p_msgqueue\000"
 4756      67717565 
 4756      756500
 4757              	.LASF57:
 4758 04db 76745F70 		.ascii	"vt_par\000"
 4758      617200
 4759              	.LASF23:
 4760 04e2 666C6167 		.ascii	"flagsmask_t\000"
 4760      736D6173 
 4760      6B5F7400 
 4761              	.LASF117:
 4762 04ee 63685468 		.ascii	"chThdSleep\000"
 4762      64536C65 
 4762      657000
 4763              	.LASF35:
 4764 04f9 705F7265 		.ascii	"p_refs\000"
ARM GAS  C:\Users\3130\AppData\Local\Temp\ccPAZpBF.s 			page 89


 4764      667300
 4765              	.LASF66:
 4766 0500 52656164 		.ascii	"ReadyList\000"
 4766      794C6973 
 4766      7400
 4767              	.LASF100:
 4768 050a 726C6973 		.ascii	"rlist\000"
 4768      7400
 4769              	.LASF3:
 4770 0510 75696E74 		.ascii	"uint8_t\000"
 4770      385F7400 
 4771              	.LASF125:
 4772 0518 474E5520 		.ascii	"GNU C 4.7.4 20130913 (prerelease)\000"
 4772      4320342E 
 4772      372E3420 
 4772      32303133 
 4772      30393133 
 4773              	.LASF122:
 4774 053a 63684576 		.ascii	"chEvtWaitOneTimeout\000"
 4774      74576169 
 4774      744F6E65 
 4774      54696D65 
 4774      6F757400 
 4775              	.LASF81:
 4776 054e 77746F62 		.ascii	"wtobjp\000"
 4776      6A7000
 4777              	.LASF32:
 4778 0555 705F6E61 		.ascii	"p_name\000"
 4778      6D6500
 4779              	.LASF109:
 4780 055c 5F746573 		.ascii	"_test_assert\000"
 4780      745F6173 
 4780      73657274 
 4780      00
 4781              	.LASF58:
 4782 0569 76745F73 		.ascii	"vt_systime\000"
 4782      79737469 
 4782      6D6500
 4783              	.LASF77:
 4784 0574 65735F6E 		.ascii	"es_next\000"
 4784      65787400 
 4785              	.LASF59:
 4786 057c 56544C69 		.ascii	"VTList\000"
 4786      737400
 4787              	.LASF69:
 4788 0583 6D5F6F77 		.ascii	"m_owner\000"
 4788      6E657200 
 4789              	.LASF129:
 4790 058b 74657374 		.ascii	"test_wait_tick\000"
 4790      5F776169 
 4790      745F7469 
 4790      636B00
 4791              	.LASF97:
 4792 059a 65767431 		.ascii	"evt1_execute\000"
 4792      5F657865 
 4792      63757465 
 4792      00
ARM GAS  C:\Users\3130\AppData\Local\Temp\ccPAZpBF.s 			page 90


 4793              	.LASF29:
 4794 05a7 705F6374 		.ascii	"p_ctx\000"
 4794      7800
 4795              	.LASF38:
 4796 05ad 705F7761 		.ascii	"p_waiting\000"
 4796      6974696E 
 4796      6700
 4797              		.ident	"GCC: (GNU Tools for ARM Embedded Processors / bleeding-edge-toolchain-131005) 4.7.4 201309
ARM GAS  C:\Users\3130\AppData\Local\Temp\ccPAZpBF.s 			page 91


DEFINED SYMBOLS
                            *ABS*:00000000 testevt.c
C:\Users\3130\AppData\Local\Temp\ccPAZpBF.s:18     .text.evt3_setup:00000000 $t
C:\Users\3130\AppData\Local\Temp\ccPAZpBF.s:23     .text.evt3_setup:00000000 evt3_setup
C:\Users\3130\AppData\Local\Temp\ccPAZpBF.s:45     .text.evt2_setup:00000000 $t
C:\Users\3130\AppData\Local\Temp\ccPAZpBF.s:50     .text.evt2_setup:00000000 evt2_setup
C:\Users\3130\AppData\Local\Temp\ccPAZpBF.s:71     .text.evt1_setup:00000000 $t
C:\Users\3130\AppData\Local\Temp\ccPAZpBF.s:76     .text.evt1_setup:00000000 evt1_setup
C:\Users\3130\AppData\Local\Temp\ccPAZpBF.s:97     .text.evt2_execute:00000000 $t
C:\Users\3130\AppData\Local\Temp\ccPAZpBF.s:102    .text.evt2_execute:00000000 evt2_execute
C:\Users\3130\AppData\Local\Temp\ccPAZpBF.s:495    .text.evt2_execute:0000021c $d
C:\Users\3130\AppData\Local\Temp\ccPAZpBF.s:556    .text.thread1:00000000 thread1
C:\Users\3130\AppData\Local\Temp\ccPAZpBF.s:513    .text.thread2:00000000 thread2
C:\Users\3130\AppData\Local\Temp\ccPAZpBF.s:508    .text.thread2:00000000 $t
C:\Users\3130\AppData\Local\Temp\ccPAZpBF.s:545    .text.thread2:0000001c $d
C:\Users\3130\AppData\Local\Temp\ccPAZpBF.s:551    .text.thread1:00000000 $t
C:\Users\3130\AppData\Local\Temp\ccPAZpBF.s:587    .text.evt1_execute:00000000 $t
C:\Users\3130\AppData\Local\Temp\ccPAZpBF.s:592    .text.evt1_execute:00000000 evt1_execute
C:\Users\3130\AppData\Local\Temp\ccPAZpBF.s:682    .text.evt1_execute:00000078 $d
C:\Users\3130\AppData\Local\Temp\ccPAZpBF.s:689    .text.h3:00000000 $t
C:\Users\3130\AppData\Local\Temp\ccPAZpBF.s:694    .text.h3:00000000 h3
C:\Users\3130\AppData\Local\Temp\ccPAZpBF.s:715    .text.h2:00000000 $t
C:\Users\3130\AppData\Local\Temp\ccPAZpBF.s:720    .text.h2:00000000 h2
C:\Users\3130\AppData\Local\Temp\ccPAZpBF.s:741    .text.h1:00000000 $t
C:\Users\3130\AppData\Local\Temp\ccPAZpBF.s:746    .text.h1:00000000 h1
C:\Users\3130\AppData\Local\Temp\ccPAZpBF.s:767    .text.evt3_execute:00000000 $t
C:\Users\3130\AppData\Local\Temp\ccPAZpBF.s:772    .text.evt3_execute:00000000 evt3_execute
C:\Users\3130\AppData\Local\Temp\ccPAZpBF.s:892    .rodata.patternevt:00000000 patternevt
C:\Users\3130\AppData\Local\Temp\ccPAZpBF.s:943    .rodata.testevt3:00000000 testevt3
C:\Users\3130\AppData\Local\Temp\ccPAZpBF.s:901    .rodata.testevt2:00000000 testevt2
C:\Users\3130\AppData\Local\Temp\ccPAZpBF.s:925    .rodata.testevt1:00000000 testevt1
C:\Users\3130\AppData\Local\Temp\ccPAZpBF.s:889    .rodata.patternevt:00000000 $d
C:\Users\3130\AppData\Local\Temp\ccPAZpBF.s:898    .rodata.testevt2:00000000 $d
C:\Users\3130\AppData\Local\Temp\ccPAZpBF.s:907    .rodata.str1.4:00000000 $d
C:\Users\3130\AppData\Local\Temp\ccPAZpBF.s:922    .rodata.testevt1:00000000 $d
C:\Users\3130\AppData\Local\Temp\ccPAZpBF.s:931    .rodata.evhndl:00000000 $d
C:\Users\3130\AppData\Local\Temp\ccPAZpBF.s:935    .rodata.evhndl:00000000 evhndl
C:\Users\3130\AppData\Local\Temp\ccPAZpBF.s:940    .rodata.testevt3:00000000 $d
C:\Users\3130\AppData\Local\Temp\ccPAZpBF.s:949    .data.es1:00000000 $d
C:\Users\3130\AppData\Local\Temp\ccPAZpBF.s:953    .data.es1:00000000 es1
C:\Users\3130\AppData\Local\Temp\ccPAZpBF.s:956    .data.es2:00000000 $d
C:\Users\3130\AppData\Local\Temp\ccPAZpBF.s:960    .data.es2:00000000 es2
                     .debug_frame:00000010 $d
C:\Users\3130\AppData\Local\Temp\ccPAZpBF.s:550    .text.thread2:00000024 $t
C:\Users\3130\AppData\Local\Temp\ccPAZpBF.s:688    .text.evt1_execute:00000084 $t

UNDEFINED SYMBOLS
chEvtGetAndClearEvents
chEvtAddEvents
chEvtWaitOne
_test_assert
test_wait_tick
chThdCreateStatic
_test_assert_time_window
test_wait_threads
chEvtWaitAny
chEvtRegisterMask
ARM GAS  C:\Users\3130\AppData\Local\Temp\ccPAZpBF.s 			page 92


chEvtWaitAll
chEvtUnregister
rlist
wa
vtlist
threads
chEvtBroadcastFlags
chThdSleep
chEvtSignal
chEvtDispatch
_test_assert_sequence
test_emit_token
chEvtWaitOneTimeout
chEvtWaitAnyTimeout
chEvtWaitAllTimeout
