ARM GAS  C:\Users\3130\AppData\Local\Temp\ccgiXayf.s 			page 1


   1              		.cpu cortex-m0
   2              		.fpu softvfp
   3              		.eabi_attribute 20, 1
   4              		.eabi_attribute 21, 1
   5              		.eabi_attribute 23, 3
   6              		.eabi_attribute 24, 1
   7              		.eabi_attribute 25, 1
   8              		.eabi_attribute 26, 1
   9              		.eabi_attribute 30, 2
  10              		.eabi_attribute 34, 0
  11              		.eabi_attribute 18, 4
  12              		.code	16
  13              		.file	"testbmk.c"
  14              		.text
  15              	.Ltext0:
  16              		.cfi_sections	.debug_frame
  17              		.section	.text.thread2,"ax",%progbits
  18              		.align	2
  19              		.p2align 4,,15
  20              		.code	16
  21              		.thumb_func
  22              		.type	thread2, %function
  23              	thread2:
  24              	.LFB11:
  25              		.file 1 "../../ChibiOS_2.6.1/test/testbmk.c"
  26              		.loc 1 154 0
  27              		.cfi_startproc
  28              	.LVL0:
  29              		.loc 1 157 0
  30              		@ sp needed for prologue
  31 0000 7047     		bx	lr
  32              		.cfi_endproc
  33              	.LFE11:
  34              		.size	thread2, .-thread2
  35 0002 C046C046 		.section	.text.tmo,"ax",%progbits
  35      C046C046 
  35      C046C046 
  35      C046
  36              		.align	2
  37              		.p2align 4,,15
  38              		.code	16
  39              		.thumb_func
  40              		.type	tmo, %function
  41              	tmo:
  42              	.LFB23:
  43              		.loc 1 502 0
  44              		.cfi_startproc
  45              	.LVL1:
  46              		.loc 1 502 0
  47              		@ sp needed for prologue
  48 0000 7047     		bx	lr
  49              		.cfi_endproc
  50              	.LFE23:
  51              		.size	tmo, .-tmo
  52 0002 C046C046 		.section	.text.bmk13_execute,"ax",%progbits
  52      C046C046 
  52      C046C046 
ARM GAS  C:\Users\3130\AppData\Local\Temp\ccgiXayf.s 			page 2


  52      C046
  53              		.align	2
  54              		.p2align 4,,15
  55              		.code	16
  56              		.thumb_func
  57              		.type	bmk13_execute, %function
  58              	bmk13_execute:
  59              	.LFB29:
  60              		.loc 1 637 0
  61              		.cfi_startproc
  62 0000 10B5     		push	{r4, lr}
  63              	.LCFI0:
  64              		.cfi_def_cfa_offset 8
  65              		.cfi_offset 4, -8
  66              		.cfi_offset 14, -4
  67              		.loc 1 639 0
  68 0002 2E48     		ldr	r0, .L4
  69 0004 FFF7FEFF 		bl	test_print
  70              	.LVL2:
  71              		.loc 1 640 0
  72 0008 CA20     		mov	r0, #202
  73 000a 4000     		lsl	r0, r0, #1
  74 000c FFF7FEFF 		bl	test_printn
  75              	.LVL3:
  76              		.loc 1 645 0
  77 0010 2B4C     		ldr	r4, .L4+4
  78              		.loc 1 685 0
  79              		@ sp needed for prologue
  80              		.loc 1 645 0
  81 0012 201C     		mov	r0, r4
  82 0014 FFF7FEFF 		bl	test_println
  83              	.LVL4:
  84              		.loc 1 646 0
  85 0018 2A48     		ldr	r0, .L4+8
  86 001a FFF7FEFF 		bl	test_print
  87              	.LVL5:
  88              		.loc 1 647 0
  89 001e 4820     		mov	r0, #72
  90 0020 FFF7FEFF 		bl	test_printn
  91              	.LVL6:
  92              		.loc 1 648 0
  93 0024 201C     		mov	r0, r4
  94 0026 FFF7FEFF 		bl	test_println
  95              	.LVL7:
  96              		.loc 1 649 0
  97 002a 2748     		ldr	r0, .L4+12
  98 002c FFF7FEFF 		bl	test_print
  99              	.LVL8:
 100              		.loc 1 650 0
 101 0030 1420     		mov	r0, #20
 102 0032 FFF7FEFF 		bl	test_printn
 103              	.LVL9:
 104              		.loc 1 651 0
 105 0036 201C     		mov	r0, r4
 106 0038 FFF7FEFF 		bl	test_println
 107              	.LVL10:
 108              		.loc 1 653 0
ARM GAS  C:\Users\3130\AppData\Local\Temp\ccgiXayf.s 			page 3


 109 003c 2348     		ldr	r0, .L4+16
 110 003e FFF7FEFF 		bl	test_print
 111              	.LVL11:
 112              		.loc 1 654 0
 113 0042 0C20     		mov	r0, #12
 114 0044 FFF7FEFF 		bl	test_printn
 115              	.LVL12:
 116              		.loc 1 655 0
 117 0048 201C     		mov	r0, r4
 118 004a FFF7FEFF 		bl	test_println
 119              	.LVL13:
 120              		.loc 1 658 0
 121 004e 2048     		ldr	r0, .L4+20
 122 0050 FFF7FEFF 		bl	test_print
 123              	.LVL14:
 124              		.loc 1 659 0
 125 0054 0420     		mov	r0, #4
 126 0056 FFF7FEFF 		bl	test_printn
 127              	.LVL15:
 128              		.loc 1 660 0
 129 005a 201C     		mov	r0, r4
 130 005c FFF7FEFF 		bl	test_println
 131              	.LVL16:
 132              		.loc 1 661 0
 133 0060 1C48     		ldr	r0, .L4+24
 134 0062 FFF7FEFF 		bl	test_print
 135              	.LVL17:
 136              		.loc 1 662 0
 137 0066 1020     		mov	r0, #16
 138 0068 FFF7FEFF 		bl	test_printn
 139              	.LVL18:
 140              		.loc 1 663 0
 141 006c 201C     		mov	r0, r4
 142 006e FFF7FEFF 		bl	test_println
 143              	.LVL19:
 144              		.loc 1 666 0
 145 0072 1948     		ldr	r0, .L4+28
 146 0074 FFF7FEFF 		bl	test_print
 147              	.LVL20:
 148              		.loc 1 667 0
 149 0078 1020     		mov	r0, #16
 150 007a FFF7FEFF 		bl	test_printn
 151              	.LVL21:
 152              		.loc 1 668 0
 153 007e 201C     		mov	r0, r4
 154 0080 FFF7FEFF 		bl	test_println
 155              	.LVL22:
 156              		.loc 1 671 0
 157 0084 1548     		ldr	r0, .L4+32
 158 0086 FFF7FEFF 		bl	test_print
 159              	.LVL23:
 160              		.loc 1 672 0
 161 008a 0820     		mov	r0, #8
 162 008c FFF7FEFF 		bl	test_printn
 163              	.LVL24:
 164              		.loc 1 673 0
 165 0090 201C     		mov	r0, r4
ARM GAS  C:\Users\3130\AppData\Local\Temp\ccgiXayf.s 			page 4


 166 0092 FFF7FEFF 		bl	test_println
 167              	.LVL25:
 168              		.loc 1 676 0
 169 0096 1248     		ldr	r0, .L4+36
 170 0098 FFF7FEFF 		bl	test_print
 171              	.LVL26:
 172              		.loc 1 677 0
 173 009c 2420     		mov	r0, #36
 174 009e FFF7FEFF 		bl	test_printn
 175              	.LVL27:
 176              		.loc 1 678 0
 177 00a2 201C     		mov	r0, r4
 178 00a4 FFF7FEFF 		bl	test_println
 179              	.LVL28:
 180              		.loc 1 681 0
 181 00a8 0E48     		ldr	r0, .L4+40
 182 00aa FFF7FEFF 		bl	test_print
 183              	.LVL29:
 184              		.loc 1 682 0
 185 00ae 2820     		mov	r0, #40
 186 00b0 FFF7FEFF 		bl	test_printn
 187              	.LVL30:
 188              		.loc 1 683 0
 189 00b4 201C     		mov	r0, r4
 190 00b6 FFF7FEFF 		bl	test_println
 191              	.LVL31:
 192              		.loc 1 685 0
 193 00ba 10BD     		pop	{r4, pc}
 194              	.L5:
 195              		.align	2
 196              	.L4:
 197 00bc 00000000 		.word	.LC0
 198 00c0 10000000 		.word	.LC2
 199 00c4 18000000 		.word	.LC4
 200 00c8 28000000 		.word	.LC6
 201 00cc 38000000 		.word	.LC8
 202 00d0 48000000 		.word	.LC10
 203 00d4 58000000 		.word	.LC12
 204 00d8 68000000 		.word	.LC14
 205 00dc 78000000 		.word	.LC16
 206 00e0 88000000 		.word	.LC18
 207 00e4 98000000 		.word	.LC20
 208              		.cfi_endproc
 209              	.LFE29:
 210              		.size	bmk13_execute, .-bmk13_execute
 211 00e8 C046C046 		.section	.text.bmk12_execute,"ax",%progbits
 211      C046C046 
 212              		.align	2
 213              		.p2align 4,,15
 214              		.code	16
 215              		.thumb_func
 216              		.type	bmk12_execute, %function
 217              	bmk12_execute:
 218              	.LFB28:
 219              		.loc 1 598 0
 220              		.cfi_startproc
 221              	.LVL32:
ARM GAS  C:\Users\3130\AppData\Local\Temp\ccgiXayf.s 			page 5


 222 0000 70B5     		push	{r4, r5, r6, lr}
 223              	.LCFI1:
 224              		.cfi_def_cfa_offset 16
 225              		.cfi_offset 4, -16
 226              		.cfi_offset 5, -12
 227              		.cfi_offset 6, -8
 228              		.cfi_offset 14, -4
 229              		.loc 1 601 0
 230 0002 FFF7FEFF 		bl	test_wait_tick
 231              	.LVL33:
 232              		.loc 1 602 0
 233 0006 FA20     		mov	r0, #250
 234 0008 8000     		lsl	r0, r0, #2
 235 000a FFF7FEFF 		bl	test_start_timer
 236              	.LVL34:
 237 000e 124C     		ldr	r4, .L13
 238 0010 124E     		ldr	r6, .L13+4
 239              		.loc 1 599 0
 240 0012 0025     		mov	r5, #0
 241              	.LVL35:
 242              	.L7:
 243              		.loc 1 604 0 discriminator 1
 244 0014 201C     		mov	r0, r4
 245 0016 FFF7FEFF 		bl	chMtxLock
 246              	.LVL36:
 247              		.loc 1 605 0 discriminator 1
 248 001a FFF7FEFF 		bl	chMtxUnlock
 249              	.LVL37:
 250              		.loc 1 606 0 discriminator 1
 251 001e 201C     		mov	r0, r4
 252 0020 FFF7FEFF 		bl	chMtxLock
 253              	.LVL38:
 254              		.loc 1 607 0 discriminator 1
 255 0024 FFF7FEFF 		bl	chMtxUnlock
 256              	.LVL39:
 257              		.loc 1 608 0 discriminator 1
 258 0028 201C     		mov	r0, r4
 259 002a FFF7FEFF 		bl	chMtxLock
 260              	.LVL40:
 261              		.loc 1 609 0 discriminator 1
 262 002e FFF7FEFF 		bl	chMtxUnlock
 263              	.LVL41:
 264              		.loc 1 610 0 discriminator 1
 265 0032 201C     		mov	r0, r4
 266 0034 FFF7FEFF 		bl	chMtxLock
 267              	.LVL42:
 268              		.loc 1 611 0 discriminator 1
 269 0038 FFF7FEFF 		bl	chMtxUnlock
 270              	.LVL43:
 271              		.loc 1 616 0 discriminator 1
 272 003c 3378     		ldrb	r3, [r6]
 273              		.loc 1 612 0 discriminator 1
 274 003e 0135     		add	r5, r5, #1
 275              	.LVL44:
 276              		.loc 1 616 0 discriminator 1
 277 0040 002B     		cmp	r3, #0
 278 0042 E7D0     		beq	.L7
ARM GAS  C:\Users\3130\AppData\Local\Temp\ccgiXayf.s 			page 6


 279              		.loc 1 617 0
 280 0044 0648     		ldr	r0, .L13+8
 281 0046 FFF7FEFF 		bl	test_print
 282              	.LVL45:
 283              		.loc 1 618 0
 284 004a A800     		lsl	r0, r5, #2
 285 004c FFF7FEFF 		bl	test_printn
 286              	.LVL46:
 287              		.loc 1 619 0
 288 0050 0448     		ldr	r0, .L13+12
 289 0052 FFF7FEFF 		bl	test_println
 290              	.LVL47:
 291              		.loc 1 620 0
 292              		@ sp needed for prologue
 293              	.LVL48:
 294 0056 70BD     		pop	{r4, r5, r6, pc}
 295              	.L14:
 296              		.align	2
 297              	.L13:
 298 0058 00000000 		.word	.LANCHOR0
 299 005c 00000000 		.word	test_timer_done
 300 0060 A8000000 		.word	.LC24
 301 0064 B8000000 		.word	.LC26
 302              		.cfi_endproc
 303              	.LFE28:
 304              		.size	bmk12_execute, .-bmk12_execute
 305 0068 C046C046 		.section	.text.bmk12_setup,"ax",%progbits
 305      C046C046 
 306              		.align	2
 307              		.p2align 4,,15
 308              		.code	16
 309              		.thumb_func
 310              		.type	bmk12_setup, %function
 311              	bmk12_setup:
 312              	.LFB27:
 313              		.loc 1 593 0
 314              		.cfi_startproc
 315 0000 08B5     		push	{r3, lr}
 316              	.LCFI2:
 317              		.cfi_def_cfa_offset 8
 318              		.cfi_offset 3, -8
 319              		.cfi_offset 14, -4
 320              		.loc 1 595 0
 321 0002 0248     		ldr	r0, .L16
 322 0004 FFF7FEFF 		bl	chMtxInit
 323              	.LVL49:
 324              		.loc 1 596 0
 325              		@ sp needed for prologue
 326 0008 08BD     		pop	{r3, pc}
 327              	.L17:
 328 000a C046     		.align	2
 329              	.L16:
 330 000c 00000000 		.word	.LANCHOR0
 331              		.cfi_endproc
 332              	.LFE27:
 333              		.size	bmk12_setup, .-bmk12_setup
 334              		.section	.text.thread3,"ax",%progbits
ARM GAS  C:\Users\3130\AppData\Local\Temp\ccgiXayf.s 			page 7


 335              		.align	2
 336              		.p2align 4,,15
 337              		.code	16
 338              		.thumb_func
 339              		.type	thread3, %function
 340              	thread3:
 341              	.LFB17:
 342              		.loc 1 341 0
 343              		.cfi_startproc
 344              	.LVL50:
 345 0000 70B5     		push	{r4, r5, r6, lr}
 346              	.LCFI3:
 347              		.cfi_def_cfa_offset 16
 348              		.cfi_offset 4, -16
 349              		.cfi_offset 5, -12
 350              		.cfi_offset 6, -8
 351              		.cfi_offset 14, -4
 352              		.loc 1 344 0
 353 0002 084C     		ldr	r4, .L28
 354 0004 A269     		ldr	r2, [r4, #24]
 355 0006 537F     		ldrb	r3, [r2, #29]
 356 0008 5A07     		lsl	r2, r3, #29
 357 000a 08D4     		bmi	.L27
 358 000c 064E     		ldr	r6, .L28+4
 359 000e 0425     		mov	r5, #4
 360              	.LVL51:
 361              	.L19:
 362              		.loc 1 345 0
 363 0010 301C     		mov	r0, r6
 364 0012 FFF7FEFF 		bl	chSemWait
 365              	.LVL52:
 366              		.loc 1 344 0
 367 0016 A069     		ldr	r0, [r4, #24]
 368 0018 417F     		ldrb	r1, [r0, #29]
 369 001a 0D42     		tst	r5, r1
 370 001c F8D0     		beq	.L19
 371              	.L27:
 372              		.loc 1 347 0
 373 001e 0020     		mov	r0, #0
 374              		@ sp needed for prologue
 375 0020 70BD     		pop	{r4, r5, r6, pc}
 376              	.L29:
 377 0022 C046     		.align	2
 378              	.L28:
 379 0024 00000000 		.word	rlist
 380 0028 00000000 		.word	.LANCHOR1
 381              		.cfi_endproc
 382              	.LFE17:
 383              		.size	thread3, .-thread3
 384 002c C046C046 		.section	.text.bmk11_execute,"ax",%progbits
 385              		.align	2
 386              		.p2align 4,,15
 387              		.code	16
 388              		.thumb_func
 389              		.type	bmk11_execute, %function
 390              	bmk11_execute:
 391              	.LFB26:
ARM GAS  C:\Users\3130\AppData\Local\Temp\ccgiXayf.s 			page 8


 392              		.loc 1 550 0
 393              		.cfi_startproc
 394              	.LVL53:
 395 0000 70B5     		push	{r4, r5, r6, lr}
 396              	.LCFI4:
 397              		.cfi_def_cfa_offset 16
 398              		.cfi_offset 4, -16
 399              		.cfi_offset 5, -12
 400              		.cfi_offset 6, -8
 401              		.cfi_offset 14, -4
 402              		.loc 1 553 0
 403 0002 FFF7FEFF 		bl	test_wait_tick
 404              	.LVL54:
 405              		.loc 1 554 0
 406 0006 FA20     		mov	r0, #250
 407 0008 8000     		lsl	r0, r0, #2
 408 000a FFF7FEFF 		bl	test_start_timer
 409              	.LVL55:
 410 000e 144C     		ldr	r4, .L36
 411 0010 144E     		ldr	r6, .L36+4
 412              		.loc 1 551 0
 413 0012 0025     		mov	r5, #0
 414              	.LVL56:
 415              	.L31:
 416              		.loc 1 556 0 discriminator 1
 417 0014 201C     		mov	r0, r4
 418 0016 FFF7FEFF 		bl	chSemWait
 419              	.LVL57:
 420              		.loc 1 557 0 discriminator 1
 421 001a 201C     		mov	r0, r4
 422 001c FFF7FEFF 		bl	chSemSignal
 423              	.LVL58:
 424              		.loc 1 558 0 discriminator 1
 425 0020 201C     		mov	r0, r4
 426 0022 FFF7FEFF 		bl	chSemWait
 427              	.LVL59:
 428              		.loc 1 559 0 discriminator 1
 429 0026 201C     		mov	r0, r4
 430 0028 FFF7FEFF 		bl	chSemSignal
 431              	.LVL60:
 432              		.loc 1 560 0 discriminator 1
 433 002c 201C     		mov	r0, r4
 434 002e FFF7FEFF 		bl	chSemWait
 435              	.LVL61:
 436              		.loc 1 561 0 discriminator 1
 437 0032 201C     		mov	r0, r4
 438 0034 FFF7FEFF 		bl	chSemSignal
 439              	.LVL62:
 440              		.loc 1 562 0 discriminator 1
 441 0038 201C     		mov	r0, r4
 442 003a FFF7FEFF 		bl	chSemWait
 443              	.LVL63:
 444              		.loc 1 563 0 discriminator 1
 445 003e 201C     		mov	r0, r4
 446 0040 FFF7FEFF 		bl	chSemSignal
 447              	.LVL64:
 448              		.loc 1 568 0 discriminator 1
ARM GAS  C:\Users\3130\AppData\Local\Temp\ccgiXayf.s 			page 9


 449 0044 3378     		ldrb	r3, [r6]
 450              		.loc 1 564 0 discriminator 1
 451 0046 0135     		add	r5, r5, #1
 452              	.LVL65:
 453              		.loc 1 568 0 discriminator 1
 454 0048 002B     		cmp	r3, #0
 455 004a E3D0     		beq	.L31
 456              		.loc 1 569 0
 457 004c 0648     		ldr	r0, .L36+8
 458 004e FFF7FEFF 		bl	test_print
 459              	.LVL66:
 460              		.loc 1 570 0
 461 0052 A800     		lsl	r0, r5, #2
 462 0054 FFF7FEFF 		bl	test_printn
 463              	.LVL67:
 464              		.loc 1 571 0
 465 0058 0448     		ldr	r0, .L36+12
 466 005a FFF7FEFF 		bl	test_println
 467              	.LVL68:
 468              		.loc 1 572 0
 469              		@ sp needed for prologue
 470              	.LVL69:
 471 005e 70BD     		pop	{r4, r5, r6, pc}
 472              	.L37:
 473              		.align	2
 474              	.L36:
 475 0060 00000000 		.word	.LANCHOR1
 476 0064 00000000 		.word	test_timer_done
 477 0068 A8000000 		.word	.LC24
 478 006c C8000000 		.word	.LC34
 479              		.cfi_endproc
 480              	.LFE26:
 481              		.size	bmk11_execute, .-bmk11_execute
 482              		.section	.text.bmk11_setup,"ax",%progbits
 483              		.align	2
 484              		.p2align 4,,15
 485              		.code	16
 486              		.thumb_func
 487              		.type	bmk11_setup, %function
 488              	bmk11_setup:
 489              	.LFB25:
 490              		.loc 1 545 0
 491              		.cfi_startproc
 492 0000 08B5     		push	{r3, lr}
 493              	.LCFI5:
 494              		.cfi_def_cfa_offset 8
 495              		.cfi_offset 3, -8
 496              		.cfi_offset 14, -4
 497              		.loc 1 547 0
 498 0002 0248     		ldr	r0, .L39
 499 0004 0121     		mov	r1, #1
 500 0006 FFF7FEFF 		bl	chSemInit
 501              	.LVL70:
 502              		.loc 1 548 0
 503              		@ sp needed for prologue
 504 000a 08BD     		pop	{r3, pc}
 505              	.L40:
ARM GAS  C:\Users\3130\AppData\Local\Temp\ccgiXayf.s 			page 10


 506              		.align	2
 507              	.L39:
 508 000c 00000000 		.word	.LANCHOR1
 509              		.cfi_endproc
 510              	.LFE25:
 511              		.size	bmk11_setup, .-bmk11_setup
 512              		.section	.text.bmk7_setup,"ax",%progbits
 513              		.align	2
 514              		.p2align 4,,15
 515              		.code	16
 516              		.thumb_func
 517              		.type	bmk7_setup, %function
 518              	bmk7_setup:
 519              	.LFB18:
 520              		.loc 1 349 0
 521              		.cfi_startproc
 522 0000 08B5     		push	{r3, lr}
 523              	.LCFI6:
 524              		.cfi_def_cfa_offset 8
 525              		.cfi_offset 3, -8
 526              		.cfi_offset 14, -4
 527              		.loc 1 351 0
 528 0002 0248     		ldr	r0, .L42
 529 0004 0021     		mov	r1, #0
 530 0006 FFF7FEFF 		bl	chSemInit
 531              	.LVL71:
 532              		.loc 1 352 0
 533              		@ sp needed for prologue
 534 000a 08BD     		pop	{r3, pc}
 535              	.L43:
 536              		.align	2
 537              	.L42:
 538 000c 00000000 		.word	.LANCHOR1
 539              		.cfi_endproc
 540              	.LFE18:
 541              		.size	bmk7_setup, .-bmk7_setup
 542              		.section	.text.bmk10_execute,"ax",%progbits
 543              		.align	2
 544              		.p2align 4,,15
 545              		.code	16
 546              		.thumb_func
 547              		.type	bmk10_execute, %function
 548              	bmk10_execute:
 549              	.LFB24:
 550              		.loc 1 504 0
 551              		.cfi_startproc
 552              	.LVL72:
 553 0000 F0B5     		push	{r4, r5, r6, r7, lr}
 554              	.LCFI7:
 555              		.cfi_def_cfa_offset 20
 556              		.cfi_offset 4, -20
 557              		.cfi_offset 5, -16
 558              		.cfi_offset 6, -12
 559              		.cfi_offset 7, -8
 560              		.cfi_offset 14, -4
 561 0002 4746     		mov	r7, r8
 562 0004 80B4     		push	{r7}
ARM GAS  C:\Users\3130\AppData\Local\Temp\ccgiXayf.s 			page 11


 563              	.LCFI8:
 564              		.cfi_def_cfa_offset 24
 565              		.cfi_offset 8, -24
 566              		.loc 1 508 0
 567 0006 FFF7FEFF 		bl	test_wait_tick
 568              	.LVL73:
 569              		.loc 1 509 0
 570 000a FA20     		mov	r0, #250
 571 000c 8000     		lsl	r0, r0, #2
 572 000e FFF7FEFF 		bl	test_start_timer
 573              	.LVL74:
 574 0012 154A     		ldr	r2, .L50
 575 0014 154F     		ldr	r7, .L50+4
 576 0016 164E     		ldr	r6, .L50+8
 577 0018 164D     		ldr	r5, .L50+12
 578              		.loc 1 506 0
 579 001a 0024     		mov	r4, #0
 580 001c 9046     		mov	r8, r2
 581              	.LVL75:
 582              	.L45:
 583              		.loc 1 511 0 discriminator 1
 584              	@ 511 "../../ChibiOS_2.6.1/test/testbmk.c" 1
 585 001e 72B6     		cpsid   i
 586              	@ 0 "" 2
 587              		.loc 1 512 0 discriminator 1
 588              		.code	16
 589 0020 0121     		mov	r1, #1
 590 0022 381C     		mov	r0, r7
 591 0024 321C     		mov	r2, r6
 592 0026 0023     		mov	r3, #0
 593 0028 FFF7FEFF 		bl	chVTSetI
 594              	.LVL76:
 595              		.loc 1 513 0 discriminator 1
 596 002c 1249     		ldr	r1, .L50+16
 597 002e 321C     		mov	r2, r6
 598 0030 0023     		mov	r3, #0
 599 0032 281C     		mov	r0, r5
 600 0034 FFF7FEFF 		bl	chVTSetI
 601              	.LVL77:
 602              		.loc 1 514 0 discriminator 1
 603 0038 381C     		mov	r0, r7
 604 003a FFF7FEFF 		bl	chVTResetI
 605              	.LVL78:
 606              		.loc 1 515 0 discriminator 1
 607 003e 281C     		mov	r0, r5
 608 0040 FFF7FEFF 		bl	chVTResetI
 609              	.LVL79:
 610              		.loc 1 516 0 discriminator 1
 611              	@ 516 "../../ChibiOS_2.6.1/test/testbmk.c" 1
 612 0044 62B6     		cpsie   i
 613              	@ 0 "" 2
 614              		.loc 1 521 0 discriminator 1
 615              		.code	16
 616 0046 4146     		mov	r1, r8
 617 0048 0B78     		ldrb	r3, [r1]
 618              		.loc 1 517 0 discriminator 1
 619 004a 0134     		add	r4, r4, #1
ARM GAS  C:\Users\3130\AppData\Local\Temp\ccgiXayf.s 			page 12


 620              	.LVL80:
 621              		.loc 1 521 0 discriminator 1
 622 004c 002B     		cmp	r3, #0
 623 004e E6D0     		beq	.L45
 624              		.loc 1 522 0
 625 0050 0A48     		ldr	r0, .L50+20
 626 0052 FFF7FEFF 		bl	test_print
 627              	.LVL81:
 628              		.loc 1 523 0
 629 0056 6000     		lsl	r0, r4, #1
 630 0058 FFF7FEFF 		bl	test_printn
 631              	.LVL82:
 632              		.loc 1 524 0
 633 005c 0848     		ldr	r0, .L50+24
 634 005e FFF7FEFF 		bl	test_println
 635              	.LVL83:
 636              		.loc 1 525 0
 637              		@ sp needed for prologue
 638              	.LVL84:
 639 0062 04BC     		pop	{r2}
 640 0064 9046     		mov	r8, r2
 641 0066 F0BD     		pop	{r4, r5, r6, r7, pc}
 642              	.L51:
 643              		.align	2
 644              	.L50:
 645 0068 00000000 		.word	test_timer_done
 646 006c 00000000 		.word	.LANCHOR2
 647 0070 00000000 		.word	tmo
 648 0074 00000000 		.word	.LANCHOR3
 649 0078 10270000 		.word	10000
 650 007c A8000000 		.word	.LC24
 651 0080 D8000000 		.word	.LC43
 652              		.cfi_endproc
 653              	.LFE24:
 654              		.size	bmk10_execute, .-bmk10_execute
 655 0084 C046C046 		.section	.text.bmk9_execute,"ax",%progbits
 655      C046C046 
 655      C046C046 
 656              		.align	2
 657              		.p2align 4,,15
 658              		.code	16
 659              		.thumb_func
 660              		.type	bmk9_execute, %function
 661              	bmk9_execute:
 662              	.LFB22:
 663              		.loc 1 455 0
 664              		.cfi_startproc
 665 0000 70B5     		push	{r4, r5, r6, lr}
 666              	.LCFI9:
 667              		.cfi_def_cfa_offset 16
 668              		.cfi_offset 4, -16
 669              		.cfi_offset 5, -12
 670              		.cfi_offset 6, -8
 671              		.cfi_offset 14, -4
 672              		.loc 1 460 0
 673 0002 234C     		ldr	r4, .L58
 674              		.loc 1 455 0
ARM GAS  C:\Users\3130\AppData\Local\Temp\ccgiXayf.s 			page 13


 675 0004 82B0     		sub	sp, sp, #8
 676              	.LCFI10:
 677              		.cfi_def_cfa_offset 24
 678              		.loc 1 460 0
 679 0006 0023     		mov	r3, #0
 680 0008 0093     		str	r3, [sp]
 681 000a 2249     		ldr	r1, .L58+4
 682 000c 1022     		mov	r2, #16
 683 000e 201C     		mov	r0, r4
 684 0010 FFF7FEFF 		bl	chIQInit
 685              	.LVL85:
 686              		.loc 1 462 0
 687 0014 FFF7FEFF 		bl	test_wait_tick
 688              	.LVL86:
 689              		.loc 1 463 0
 690 0018 FA20     		mov	r0, #250
 691 001a 8000     		lsl	r0, r0, #2
 692 001c FFF7FEFF 		bl	test_start_timer
 693              	.LVL87:
 694 0020 1D4E     		ldr	r6, .L58+8
 695              		.loc 1 461 0
 696 0022 0025     		mov	r5, #0
 697              	.LVL88:
 698              	.L53:
 699              		.loc 1 465 0 discriminator 1
 700              	@ 465 "../../ChibiOS_2.6.1/test/testbmk.c" 1
 701 0024 72B6     		cpsid   i
 702              	@ 0 "" 2
 703              		.loc 1 466 0 discriminator 1
 704              		.code	16
 705 0026 0021     		mov	r1, #0
 706 0028 201C     		mov	r0, r4
 707 002a FFF7FEFF 		bl	chIQPutI
 708              	.LVL89:
 709              		.loc 1 467 0 discriminator 1
 710 002e 201C     		mov	r0, r4
 711 0030 0121     		mov	r1, #1
 712 0032 FFF7FEFF 		bl	chIQPutI
 713              	.LVL90:
 714              		.loc 1 468 0 discriminator 1
 715 0036 201C     		mov	r0, r4
 716 0038 0221     		mov	r1, #2
 717 003a FFF7FEFF 		bl	chIQPutI
 718              	.LVL91:
 719              		.loc 1 469 0 discriminator 1
 720 003e 201C     		mov	r0, r4
 721 0040 0321     		mov	r1, #3
 722 0042 FFF7FEFF 		bl	chIQPutI
 723              	.LVL92:
 724              		.loc 1 470 0 discriminator 1
 725              	@ 470 "../../ChibiOS_2.6.1/test/testbmk.c" 1
 726 0046 62B6     		cpsie   i
 727              	@ 0 "" 2
 728              		.loc 1 471 0 discriminator 1
 729              		.code	16
 730 0048 0121     		mov	r1, #1
 731 004a 4942     		neg	r1, r1
ARM GAS  C:\Users\3130\AppData\Local\Temp\ccgiXayf.s 			page 14


 732 004c 201C     		mov	r0, r4
 733 004e FFF7FEFF 		bl	chIQGetTimeout
 734              	.LVL93:
 735              		.loc 1 472 0 discriminator 1
 736 0052 0122     		mov	r2, #1
 737 0054 5142     		neg	r1, r2
 738 0056 201C     		mov	r0, r4
 739 0058 FFF7FEFF 		bl	chIQGetTimeout
 740              	.LVL94:
 741              		.loc 1 473 0 discriminator 1
 742 005c 0123     		mov	r3, #1
 743 005e 5942     		neg	r1, r3
 744 0060 201C     		mov	r0, r4
 745 0062 FFF7FEFF 		bl	chIQGetTimeout
 746              	.LVL95:
 747              		.loc 1 474 0 discriminator 1
 748 0066 0121     		mov	r1, #1
 749 0068 201C     		mov	r0, r4
 750 006a 4942     		neg	r1, r1
 751 006c FFF7FEFF 		bl	chIQGetTimeout
 752              	.LVL96:
 753              		.loc 1 479 0 discriminator 1
 754 0070 3078     		ldrb	r0, [r6]
 755              		.loc 1 475 0 discriminator 1
 756 0072 0135     		add	r5, r5, #1
 757              	.LVL97:
 758              		.loc 1 479 0 discriminator 1
 759 0074 0028     		cmp	r0, #0
 760 0076 D5D0     		beq	.L53
 761              		.loc 1 480 0
 762 0078 0848     		ldr	r0, .L58+12
 763 007a FFF7FEFF 		bl	test_print
 764              	.LVL98:
 765              		.loc 1 481 0
 766 007e A800     		lsl	r0, r5, #2
 767 0080 FFF7FEFF 		bl	test_printn
 768              	.LVL99:
 769              		.loc 1 482 0
 770 0084 0648     		ldr	r0, .L58+16
 771 0086 FFF7FEFF 		bl	test_println
 772              	.LVL100:
 773              		.loc 1 483 0
 774 008a 02B0     		add	sp, sp, #8
 775              		@ sp needed for prologue
 776              	.LVL101:
 777 008c 70BD     		pop	{r4, r5, r6, pc}
 778              	.L59:
 779 008e C046     		.align	2
 780              	.L58:
 781 0090 00000000 		.word	.LANCHOR4
 782 0094 00000000 		.word	.LANCHOR5
 783 0098 00000000 		.word	test_timer_done
 784 009c A8000000 		.word	.LC24
 785 00a0 E4000000 		.word	.LC49
 786              		.cfi_endproc
 787              	.LFE22:
 788              		.size	bmk9_execute, .-bmk9_execute
ARM GAS  C:\Users\3130\AppData\Local\Temp\ccgiXayf.s 			page 15


 789 00a4 C046C046 		.section	.text.bmk6_execute,"ax",%progbits
 789      C046C046 
 789      C046C046 
 790              		.align	2
 791              		.p2align 4,,15
 792              		.code	16
 793              		.thumb_func
 794              		.type	bmk6_execute, %function
 795              	bmk6_execute:
 796              	.LFB16:
 797              		.loc 1 304 0
 798              		.cfi_startproc
 799              	.LVL102:
 800 0000 F0B5     		push	{r4, r5, r6, r7, lr}
 801              	.LCFI11:
 802              		.cfi_def_cfa_offset 20
 803              		.cfi_offset 4, -20
 804              		.cfi_offset 5, -16
 805              		.cfi_offset 6, -12
 806              		.cfi_offset 7, -8
 807              		.cfi_offset 14, -4
 808 0002 4F46     		mov	r7, r9
 809 0004 4646     		mov	r6, r8
 810 0006 C0B4     		push	{r6, r7}
 811              	.LCFI12:
 812              		.cfi_def_cfa_offset 28
 813              		.cfi_offset 8, -28
 814              		.cfi_offset 9, -24
 815              		.loc 1 308 0
 816 0008 1648     		ldr	r0, .L66
 817              		.loc 1 307 0
 818 000a 174B     		ldr	r3, .L66+4
 819              		.loc 1 308 0
 820 000c 8169     		ldr	r1, [r0, #24]
 821              		.loc 1 307 0
 822 000e 1A68     		ldr	r2, [r3]
 823              		.loc 1 308 0
 824 0010 8C68     		ldr	r4, [r1, #8]
 825              		.loc 1 304 0
 826 0012 83B0     		sub	sp, sp, #12
 827              	.LCFI13:
 828              		.cfi_def_cfa_offset 40
 829              		.loc 1 310 0
 830 0014 FA25     		mov	r5, #250
 831              		.loc 1 307 0
 832 0016 9146     		mov	r9, r2
 833              	.LVL103:
 834              		.loc 1 309 0
 835 0018 FFF7FEFF 		bl	test_wait_tick
 836              	.LVL104:
 837              		.loc 1 310 0
 838 001c A800     		lsl	r0, r5, #2
 839              		.loc 1 308 0
 840 001e 0134     		add	r4, r4, #1
 841              		.loc 1 310 0
 842 0020 FFF7FEFF 		bl	test_start_timer
 843              	.LVL105:
ARM GAS  C:\Users\3130\AppData\Local\Temp\ccgiXayf.s 			page 16


 844 0024 114F     		ldr	r7, .L66+8
 845 0026 124E     		ldr	r6, .L66+12
 846              		.loc 1 308 0
 847 0028 A046     		mov	r8, r4
 848              	.LVL106:
 849              		.loc 1 312 0
 850 002a 0025     		mov	r5, #0
 851              		.loc 1 306 0
 852 002c 0024     		mov	r4, #0
 853              	.LVL107:
 854              	.L61:
 855              		.loc 1 312 0 discriminator 1
 856 002e 9823     		mov	r3, #152
 857 0030 5900     		lsl	r1, r3, #1
 858 0032 4246     		mov	r2, r8
 859 0034 0095     		str	r5, [sp]
 860 0036 4846     		mov	r0, r9
 861 0038 3B1C     		mov	r3, r7
 862 003a FFF7FEFF 		bl	chThdCreateStatic
 863              	.LVL108:
 864              		.loc 1 317 0 discriminator 1
 865 003e 3278     		ldrb	r2, [r6]
 866              		.loc 1 313 0 discriminator 1
 867 0040 0134     		add	r4, r4, #1
 868              	.LVL109:
 869              		.loc 1 317 0 discriminator 1
 870 0042 002A     		cmp	r2, #0
 871 0044 F3D0     		beq	.L61
 872              		.loc 1 318 0
 873 0046 0B48     		ldr	r0, .L66+16
 874 0048 FFF7FEFF 		bl	test_print
 875              	.LVL110:
 876              		.loc 1 319 0
 877 004c 201C     		mov	r0, r4
 878 004e FFF7FEFF 		bl	test_printn
 879              	.LVL111:
 880              		.loc 1 320 0
 881 0052 0948     		ldr	r0, .L66+20
 882 0054 FFF7FEFF 		bl	test_println
 883              	.LVL112:
 884              		.loc 1 321 0
 885 0058 03B0     		add	sp, sp, #12
 886              		@ sp needed for prologue
 887              	.LVL113:
 888              	.LVL114:
 889              	.LVL115:
 890 005a 0CBC     		pop	{r2, r3}
 891 005c 9046     		mov	r8, r2
 892 005e 9946     		mov	r9, r3
 893 0060 F0BD     		pop	{r4, r5, r6, r7, pc}
 894              	.L67:
 895 0062 C046     		.align	2
 896              	.L66:
 897 0064 00000000 		.word	rlist
 898 0068 00000000 		.word	wa
 899 006c 00000000 		.word	thread2
 900 0070 00000000 		.word	test_timer_done
ARM GAS  C:\Users\3130\AppData\Local\Temp\ccgiXayf.s 			page 17


 901 0074 A8000000 		.word	.LC24
 902 0078 F0000000 		.word	.LC56
 903              		.cfi_endproc
 904              	.LFE16:
 905              		.size	bmk6_execute, .-bmk6_execute
 906 007c C046C046 		.section	.text.bmk8_execute,"ax",%progbits
 907              		.align	2
 908              		.p2align 4,,15
 909              		.code	16
 910              		.thumb_func
 911              		.type	bmk8_execute, %function
 912              	bmk8_execute:
 913              	.LFB21:
 914              		.loc 1 416 0
 915              		.cfi_startproc
 916 0000 F0B5     		push	{r4, r5, r6, r7, lr}
 917              	.LCFI14:
 918              		.cfi_def_cfa_offset 20
 919              		.cfi_offset 4, -20
 920              		.cfi_offset 5, -16
 921              		.cfi_offset 6, -12
 922              		.cfi_offset 7, -8
 923              		.cfi_offset 14, -4
 924 0002 4F46     		mov	r7, r9
 925 0004 4646     		mov	r6, r8
 926 0006 C0B4     		push	{r6, r7}
 927              	.LCFI15:
 928              		.cfi_def_cfa_offset 28
 929              		.cfi_offset 8, -28
 930              		.cfi_offset 9, -24
 931              		.loc 1 419 0
 932 0008 0023     		mov	r3, #0
 933              		.loc 1 416 0
 934 000a 85B0     		sub	sp, sp, #20
 935              	.LCFI16:
 936              		.cfi_def_cfa_offset 48
 937              		.loc 1 419 0
 938 000c 0393     		str	r3, [sp, #12]
 939              	.LVL116:
 940              		.loc 1 420 0
 941 000e FFF7FEFF 		bl	test_wait_tick
 942              	.LVL117:
 943              		.loc 1 422 0
 944 0012 2D48     		ldr	r0, .L69
 945 0014 2D4A     		ldr	r2, .L69+4
 946 0016 8469     		ldr	r4, [r0, #24]
 947 0018 9146     		mov	r9, r2
 948 001a 2D4E     		ldr	r6, .L69+8
 949 001c A268     		ldr	r2, [r4, #8]
 950 001e 9827     		mov	r7, #152
 951 0020 7F00     		lsl	r7, r7, #1
 952 0022 03AC     		add	r4, sp, #12
 953 0024 4D46     		mov	r5, r9
 954 0026 8046     		mov	r8, r0
 955 0028 391C     		mov	r1, r7
 956 002a 331C     		mov	r3, r6
 957 002c 013A     		sub	r2, r2, #1
ARM GAS  C:\Users\3130\AppData\Local\Temp\ccgiXayf.s 			page 18


 958 002e 0094     		str	r4, [sp]
 959 0030 2868     		ldr	r0, [r5]
 960 0032 FFF7FEFF 		bl	chThdCreateStatic
 961              	.LVL118:
 962              		.loc 1 423 0
 963 0036 4346     		mov	r3, r8
 964 0038 9A69     		ldr	r2, [r3, #24]
 965              		.loc 1 422 0
 966 003a 264D     		ldr	r5, .L69+12
 967              		.loc 1 423 0
 968 003c 9268     		ldr	r2, [r2, #8]
 969              		.loc 1 422 0
 970 003e 2860     		str	r0, [r5]
 971              		.loc 1 423 0
 972 0040 4846     		mov	r0, r9
 973 0042 391C     		mov	r1, r7
 974 0044 331C     		mov	r3, r6
 975 0046 013A     		sub	r2, r2, #1
 976 0048 0094     		str	r4, [sp]
 977 004a 4068     		ldr	r0, [r0, #4]
 978 004c FFF7FEFF 		bl	chThdCreateStatic
 979              	.LVL119:
 980              		.loc 1 424 0
 981 0050 4146     		mov	r1, r8
 982 0052 8B69     		ldr	r3, [r1, #24]
 983              		.loc 1 423 0
 984 0054 6860     		str	r0, [r5, #4]
 985              		.loc 1 424 0
 986 0056 9A68     		ldr	r2, [r3, #8]
 987 0058 4846     		mov	r0, r9
 988 005a 391C     		mov	r1, r7
 989 005c 331C     		mov	r3, r6
 990 005e 013A     		sub	r2, r2, #1
 991 0060 0094     		str	r4, [sp]
 992 0062 8068     		ldr	r0, [r0, #8]
 993 0064 FFF7FEFF 		bl	chThdCreateStatic
 994              	.LVL120:
 995              		.loc 1 425 0
 996 0068 4246     		mov	r2, r8
 997 006a 9169     		ldr	r1, [r2, #24]
 998 006c 4B46     		mov	r3, r9
 999 006e 8A68     		ldr	r2, [r1, #8]
 1000              		.loc 1 424 0
 1001 0070 A860     		str	r0, [r5, #8]
 1002              		.loc 1 425 0
 1003 0072 391C     		mov	r1, r7
 1004 0074 013A     		sub	r2, r2, #1
 1005 0076 0094     		str	r4, [sp]
 1006 0078 D868     		ldr	r0, [r3, #12]
 1007 007a 331C     		mov	r3, r6
 1008 007c FFF7FEFF 		bl	chThdCreateStatic
 1009              	.LVL121:
 1010              		.loc 1 426 0
 1011 0080 4246     		mov	r2, r8
 1012 0082 9169     		ldr	r1, [r2, #24]
 1013              		.loc 1 425 0
 1014 0084 E860     		str	r0, [r5, #12]
ARM GAS  C:\Users\3130\AppData\Local\Temp\ccgiXayf.s 			page 19


 1015              		.loc 1 426 0
 1016 0086 8A68     		ldr	r2, [r1, #8]
 1017 0088 4846     		mov	r0, r9
 1018 008a 391C     		mov	r1, r7
 1019 008c 013A     		sub	r2, r2, #1
 1020 008e 331C     		mov	r3, r6
 1021 0090 0094     		str	r4, [sp]
 1022 0092 0069     		ldr	r0, [r0, #16]
 1023 0094 FFF7FEFF 		bl	chThdCreateStatic
 1024              	.LVL122:
 1025              		.loc 1 428 0
 1026 0098 FA27     		mov	r7, #250
 1027              		.loc 1 426 0
 1028 009a 2861     		str	r0, [r5, #16]
 1029              		.loc 1 428 0
 1030 009c B800     		lsl	r0, r7, #2
 1031 009e FFF7FEFF 		bl	chThdSleep
 1032              	.LVL123:
 1033              		.loc 1 429 0
 1034 00a2 FFF7FEFF 		bl	test_terminate_threads
 1035              	.LVL124:
 1036              		.loc 1 430 0
 1037 00a6 FFF7FEFF 		bl	test_wait_threads
 1038              	.LVL125:
 1039              		.loc 1 432 0
 1040 00aa 0B48     		ldr	r0, .L69+16
 1041 00ac FFF7FEFF 		bl	test_print
 1042              	.LVL126:
 1043              		.loc 1 433 0
 1044 00b0 0398     		ldr	r0, [sp, #12]
 1045 00b2 FFF7FEFF 		bl	test_printn
 1046              	.LVL127:
 1047              		.loc 1 434 0
 1048 00b6 0948     		ldr	r0, .L69+20
 1049 00b8 FFF7FEFF 		bl	test_println
 1050              	.LVL128:
 1051              		.loc 1 435 0
 1052 00bc 05B0     		add	sp, sp, #20
 1053              		@ sp needed for prologue
 1054 00be 0CBC     		pop	{r2, r3}
 1055 00c0 9046     		mov	r8, r2
 1056 00c2 9946     		mov	r9, r3
 1057 00c4 F0BD     		pop	{r4, r5, r6, r7, pc}
 1058              	.L70:
 1059 00c6 C046     		.align	2
 1060              	.L69:
 1061 00c8 00000000 		.word	rlist
 1062 00cc 00000000 		.word	wa
 1063 00d0 00000000 		.word	thread8
 1064 00d4 00000000 		.word	threads
 1065 00d8 A8000000 		.word	.LC24
 1066 00dc FC000000 		.word	.LC63
 1067              		.cfi_endproc
 1068              	.LFE21:
 1069              		.size	bmk8_execute, .-bmk8_execute
 1070              		.section	.text.thread8,"ax",%progbits
 1071              		.align	2
ARM GAS  C:\Users\3130\AppData\Local\Temp\ccgiXayf.s 			page 20


 1072              		.p2align 4,,15
 1073              		.code	16
 1074              		.thumb_func
 1075              		.type	thread8, %function
 1076              	thread8:
 1077              	.LFB20:
 1078              		.loc 1 401 0
 1079              		.cfi_startproc
 1080              	.LVL129:
 1081 0000 70B5     		push	{r4, r5, r6, lr}
 1082              	.LCFI17:
 1083              		.cfi_def_cfa_offset 16
 1084              		.cfi_offset 4, -16
 1085              		.cfi_offset 5, -12
 1086              		.cfi_offset 6, -8
 1087              		.cfi_offset 14, -4
 1088 0002 0A4E     		ldr	r6, .L77
 1089              		.loc 1 401 0
 1090 0004 041C     		mov	r4, r0
 1091              		.loc 1 412 0
 1092 0006 0425     		mov	r5, #4
 1093              	.LVL130:
 1094              	.L72:
 1095              		.loc 1 404 0 discriminator 1
 1096 0008 FFF7FEFF 		bl	chThdYield
 1097              	.LVL131:
 1098              		.loc 1 405 0 discriminator 1
 1099 000c FFF7FEFF 		bl	chThdYield
 1100              	.LVL132:
 1101              		.loc 1 406 0 discriminator 1
 1102 0010 FFF7FEFF 		bl	chThdYield
 1103              	.LVL133:
 1104              		.loc 1 407 0 discriminator 1
 1105 0014 FFF7FEFF 		bl	chThdYield
 1106              	.LVL134:
 1107              		.loc 1 408 0 discriminator 1
 1108 0018 2368     		ldr	r3, [r4]
 1109              		.loc 1 412 0 discriminator 1
 1110 001a B269     		ldr	r2, [r6, #24]
 1111              		.loc 1 408 0 discriminator 1
 1112 001c 0433     		add	r3, r3, #4
 1113 001e 2360     		str	r3, [r4]
 1114              		.loc 1 412 0 discriminator 1
 1115 0020 507F     		ldrb	r0, [r2, #29]
 1116 0022 0542     		tst	r5, r0
 1117 0024 F0D0     		beq	.L72
 1118              		.loc 1 414 0
 1119 0026 0020     		mov	r0, #0
 1120              		@ sp needed for prologue
 1121              	.LVL135:
 1122 0028 70BD     		pop	{r4, r5, r6, pc}
 1123              	.L78:
 1124 002a C046     		.align	2
 1125              	.L77:
 1126 002c 00000000 		.word	rlist
 1127              		.cfi_endproc
 1128              	.LFE20:
ARM GAS  C:\Users\3130\AppData\Local\Temp\ccgiXayf.s 			page 21


 1129              		.size	thread8, .-thread8
 1130              		.section	.text.bmk7_execute,"ax",%progbits
 1131              		.align	2
 1132              		.p2align 4,,15
 1133              		.code	16
 1134              		.thumb_func
 1135              		.type	bmk7_execute, %function
 1136              	bmk7_execute:
 1137              	.LFB19:
 1138              		.loc 1 354 0
 1139              		.cfi_startproc
 1140 0000 F0B5     		push	{r4, r5, r6, r7, lr}
 1141              	.LCFI18:
 1142              		.cfi_def_cfa_offset 20
 1143              		.cfi_offset 4, -20
 1144              		.cfi_offset 5, -16
 1145              		.cfi_offset 6, -12
 1146              		.cfi_offset 7, -8
 1147              		.cfi_offset 14, -4
 1148 0002 4746     		mov	r7, r8
 1149 0004 80B4     		push	{r7}
 1150              	.LCFI19:
 1151              		.cfi_def_cfa_offset 24
 1152              		.cfi_offset 8, -24
 1153              		.loc 1 357 0
 1154 0006 3D4F     		ldr	r7, .L85
 1155 0008 3D4B     		ldr	r3, .L85+4
 1156 000a B969     		ldr	r1, [r7, #24]
 1157 000c 1868     		ldr	r0, [r3]
 1158              		.loc 1 354 0
 1159 000e 84B0     		sub	sp, sp, #16
 1160              	.LCFI20:
 1161              		.cfi_def_cfa_offset 40
 1162              		.loc 1 357 0
 1163 0010 3C4D     		ldr	r5, .L85+8
 1164 0012 8A68     		ldr	r2, [r1, #8]
 1165 0014 0026     		mov	r6, #0
 1166 0016 0390     		str	r0, [sp, #12]
 1167 0018 9824     		mov	r4, #152
 1168 001a 9846     		mov	r8, r3
 1169 001c 6100     		lsl	r1, r4, #1
 1170 001e 2B1C     		mov	r3, r5
 1171 0020 0532     		add	r2, r2, #5
 1172 0022 0096     		str	r6, [sp]
 1173 0024 0398     		ldr	r0, [sp, #12]
 1174 0026 FFF7FEFF 		bl	chThdCreateStatic
 1175              	.LVL136:
 1176 002a 374C     		ldr	r4, .L85+12
 1177              		.loc 1 358 0
 1178 002c 4246     		mov	r2, r8
 1179              		.loc 1 357 0
 1180 002e 2060     		str	r0, [r4]
 1181              		.loc 1 358 0
 1182 0030 B869     		ldr	r0, [r7, #24]
 1183 0032 5368     		ldr	r3, [r2, #4]
 1184 0034 8268     		ldr	r2, [r0, #8]
 1185 0036 0393     		str	r3, [sp, #12]
ARM GAS  C:\Users\3130\AppData\Local\Temp\ccgiXayf.s 			page 22


 1186 0038 9821     		mov	r1, #152
 1187 003a 2B1C     		mov	r3, r5
 1188 003c 0432     		add	r2, r2, #4
 1189 003e 0096     		str	r6, [sp]
 1190 0040 4900     		lsl	r1, r1, #1
 1191 0042 0398     		ldr	r0, [sp, #12]
 1192 0044 FFF7FEFF 		bl	chThdCreateStatic
 1193              	.LVL137:
 1194              		.loc 1 359 0
 1195 0048 4246     		mov	r2, r8
 1196              		.loc 1 358 0
 1197 004a 6060     		str	r0, [r4, #4]
 1198              		.loc 1 359 0
 1199 004c B869     		ldr	r0, [r7, #24]
 1200 004e 9368     		ldr	r3, [r2, #8]
 1201 0050 8268     		ldr	r2, [r0, #8]
 1202 0052 0393     		str	r3, [sp, #12]
 1203 0054 9821     		mov	r1, #152
 1204 0056 2B1C     		mov	r3, r5
 1205 0058 0332     		add	r2, r2, #3
 1206 005a 0096     		str	r6, [sp]
 1207 005c 4900     		lsl	r1, r1, #1
 1208 005e 0398     		ldr	r0, [sp, #12]
 1209 0060 FFF7FEFF 		bl	chThdCreateStatic
 1210              	.LVL138:
 1211              		.loc 1 360 0
 1212 0064 4246     		mov	r2, r8
 1213              		.loc 1 359 0
 1214 0066 A060     		str	r0, [r4, #8]
 1215              		.loc 1 360 0
 1216 0068 B869     		ldr	r0, [r7, #24]
 1217 006a D368     		ldr	r3, [r2, #12]
 1218 006c 8268     		ldr	r2, [r0, #8]
 1219 006e 0393     		str	r3, [sp, #12]
 1220 0070 9821     		mov	r1, #152
 1221 0072 2B1C     		mov	r3, r5
 1222 0074 0232     		add	r2, r2, #2
 1223 0076 0096     		str	r6, [sp]
 1224 0078 4900     		lsl	r1, r1, #1
 1225 007a 0398     		ldr	r0, [sp, #12]
 1226 007c FFF7FEFF 		bl	chThdCreateStatic
 1227              	.LVL139:
 1228              		.loc 1 361 0
 1229 0080 BF69     		ldr	r7, [r7, #24]
 1230 0082 4246     		mov	r2, r8
 1231 0084 1369     		ldr	r3, [r2, #16]
 1232 0086 BA68     		ldr	r2, [r7, #8]
 1233              		.loc 1 360 0
 1234 0088 E060     		str	r0, [r4, #12]
 1235              		.loc 1 361 0
 1236 008a 0393     		str	r3, [sp, #12]
 1237 008c 0096     		str	r6, [sp]
 1238 008e 9826     		mov	r6, #152
 1239 0090 7100     		lsl	r1, r6, #1
 1240 0092 2B1C     		mov	r3, r5
 1241 0094 0132     		add	r2, r2, #1
 1242 0096 0398     		ldr	r0, [sp, #12]
ARM GAS  C:\Users\3130\AppData\Local\Temp\ccgiXayf.s 			page 23


 1243 0098 FFF7FEFF 		bl	chThdCreateStatic
 1244              	.LVL140:
 1245              		.loc 1 365 0
 1246 009c FA25     		mov	r5, #250
 1247              		.loc 1 361 0
 1248 009e 2061     		str	r0, [r4, #16]
 1249              	.LVL141:
 1250              		.loc 1 364 0
 1251 00a0 FFF7FEFF 		bl	test_wait_tick
 1252              	.LVL142:
 1253              		.loc 1 365 0
 1254 00a4 A800     		lsl	r0, r5, #2
 1255 00a6 FFF7FEFF 		bl	test_start_timer
 1256              	.LVL143:
 1257 00aa 184F     		ldr	r7, .L85+16
 1258 00ac 184E     		ldr	r6, .L85+20
 1259              		.loc 1 363 0
 1260 00ae 0024     		mov	r4, #0
 1261              	.LVL144:
 1262              	.L80:
 1263              		.loc 1 367 0 discriminator 1
 1264 00b0 381C     		mov	r0, r7
 1265 00b2 0021     		mov	r1, #0
 1266 00b4 FFF7FEFF 		bl	chSemReset
 1267              	.LVL145:
 1268              		.loc 1 372 0 discriminator 1
 1269 00b8 3078     		ldrb	r0, [r6]
 1270              		.loc 1 368 0 discriminator 1
 1271 00ba 0134     		add	r4, r4, #1
 1272              	.LVL146:
 1273              		.loc 1 372 0 discriminator 1
 1274 00bc 0028     		cmp	r0, #0
 1275 00be F7D0     		beq	.L80
 1276              		.loc 1 373 0
 1277 00c0 FFF7FEFF 		bl	test_terminate_threads
 1278              	.LVL147:
 1279              		.loc 1 374 0
 1280 00c4 0021     		mov	r1, #0
 1281 00c6 381C     		mov	r0, r7
 1282 00c8 FFF7FEFF 		bl	chSemReset
 1283              	.LVL148:
 1284              		.loc 1 375 0
 1285 00cc FFF7FEFF 		bl	test_wait_threads
 1286              	.LVL149:
 1287              		.loc 1 377 0
 1288 00d0 1048     		ldr	r0, .L85+24
 1289 00d2 FFF7FEFF 		bl	test_print
 1290              	.LVL150:
 1291              		.loc 1 378 0
 1292 00d6 201C     		mov	r0, r4
 1293 00d8 FFF7FEFF 		bl	test_printn
 1294              	.LVL151:
 1295              		.loc 1 379 0
 1296 00dc 0E48     		ldr	r0, .L85+28
 1297 00de FFF7FEFF 		bl	test_print
 1298              	.LVL152:
 1299              		.loc 1 380 0
ARM GAS  C:\Users\3130\AppData\Local\Temp\ccgiXayf.s 			page 24


 1300 00e2 6100     		lsl	r1, r4, #1
 1301 00e4 0A19     		add	r2, r1, r4
 1302 00e6 5000     		lsl	r0, r2, #1
 1303 00e8 FFF7FEFF 		bl	test_printn
 1304              	.LVL153:
 1305              		.loc 1 381 0
 1306 00ec 0B48     		ldr	r0, .L85+32
 1307 00ee FFF7FEFF 		bl	test_println
 1308              	.LVL154:
 1309              		.loc 1 382 0
 1310 00f2 04B0     		add	sp, sp, #16
 1311              		@ sp needed for prologue
 1312              	.LVL155:
 1313 00f4 04BC     		pop	{r2}
 1314 00f6 9046     		mov	r8, r2
 1315 00f8 F0BD     		pop	{r4, r5, r6, r7, pc}
 1316              	.L86:
 1317 00fa C046     		.align	2
 1318              	.L85:
 1319 00fc 00000000 		.word	rlist
 1320 0100 00000000 		.word	wa
 1321 0104 00000000 		.word	thread3
 1322 0108 00000000 		.word	threads
 1323 010c 00000000 		.word	.LANCHOR1
 1324 0110 00000000 		.word	test_timer_done
 1325 0114 A8000000 		.word	.LC24
 1326 0118 08010000 		.word	.LC73
 1327 011c FC000000 		.word	.LC63
 1328              		.cfi_endproc
 1329              	.LFE19:
 1330              		.size	bmk7_execute, .-bmk7_execute
 1331              		.section	.text.bmk5_execute,"ax",%progbits
 1332              		.align	2
 1333              		.p2align 4,,15
 1334              		.code	16
 1335              		.thumb_func
 1336              		.type	bmk5_execute, %function
 1337              	bmk5_execute:
 1338              	.LFB15:
 1339              		.loc 1 265 0
 1340              		.cfi_startproc
 1341              	.LVL156:
 1342 0000 F0B5     		push	{r4, r5, r6, r7, lr}
 1343              	.LCFI21:
 1344              		.cfi_def_cfa_offset 20
 1345              		.cfi_offset 4, -20
 1346              		.cfi_offset 5, -16
 1347              		.cfi_offset 6, -12
 1348              		.cfi_offset 7, -8
 1349              		.cfi_offset 14, -4
 1350 0002 4F46     		mov	r7, r9
 1351 0004 4646     		mov	r6, r8
 1352 0006 C0B4     		push	{r6, r7}
 1353              	.LCFI22:
 1354              		.cfi_def_cfa_offset 28
 1355              		.cfi_offset 8, -28
 1356              		.cfi_offset 9, -24
ARM GAS  C:\Users\3130\AppData\Local\Temp\ccgiXayf.s 			page 25


 1357              		.loc 1 269 0
 1358 0008 1748     		ldr	r0, .L93
 1359              		.loc 1 268 0
 1360 000a 184B     		ldr	r3, .L93+4
 1361              		.loc 1 269 0
 1362 000c 8169     		ldr	r1, [r0, #24]
 1363              		.loc 1 268 0
 1364 000e 1A68     		ldr	r2, [r3]
 1365              		.loc 1 269 0
 1366 0010 8C68     		ldr	r4, [r1, #8]
 1367              		.loc 1 265 0
 1368 0012 83B0     		sub	sp, sp, #12
 1369              	.LCFI23:
 1370              		.cfi_def_cfa_offset 40
 1371              		.loc 1 271 0
 1372 0014 FA25     		mov	r5, #250
 1373              		.loc 1 268 0
 1374 0016 9146     		mov	r9, r2
 1375              	.LVL157:
 1376              		.loc 1 270 0
 1377 0018 FFF7FEFF 		bl	test_wait_tick
 1378              	.LVL158:
 1379              		.loc 1 271 0
 1380 001c A800     		lsl	r0, r5, #2
 1381              		.loc 1 269 0
 1382 001e 013C     		sub	r4, r4, #1
 1383              		.loc 1 271 0
 1384 0020 FFF7FEFF 		bl	test_start_timer
 1385              	.LVL159:
 1386 0024 124F     		ldr	r7, .L93+8
 1387 0026 134E     		ldr	r6, .L93+12
 1388              		.loc 1 269 0
 1389 0028 A046     		mov	r8, r4
 1390              	.LVL160:
 1391              		.loc 1 273 0
 1392 002a 0025     		mov	r5, #0
 1393              		.loc 1 267 0
 1394 002c 0024     		mov	r4, #0
 1395              	.LVL161:
 1396              	.L88:
 1397              		.loc 1 273 0 discriminator 1
 1398 002e 9823     		mov	r3, #152
 1399 0030 5900     		lsl	r1, r3, #1
 1400 0032 4246     		mov	r2, r8
 1401 0034 3B1C     		mov	r3, r7
 1402 0036 0095     		str	r5, [sp]
 1403 0038 4846     		mov	r0, r9
 1404 003a FFF7FEFF 		bl	chThdCreateStatic
 1405              	.LVL162:
 1406 003e FFF7FEFF 		bl	chThdWait
 1407              	.LVL163:
 1408              		.loc 1 278 0 discriminator 1
 1409 0042 3278     		ldrb	r2, [r6]
 1410              		.loc 1 274 0 discriminator 1
 1411 0044 0134     		add	r4, r4, #1
 1412              	.LVL164:
 1413              		.loc 1 278 0 discriminator 1
ARM GAS  C:\Users\3130\AppData\Local\Temp\ccgiXayf.s 			page 26


 1414 0046 002A     		cmp	r2, #0
 1415 0048 F1D0     		beq	.L88
 1416              		.loc 1 279 0
 1417 004a 0B48     		ldr	r0, .L93+16
 1418 004c FFF7FEFF 		bl	test_print
 1419              	.LVL165:
 1420              		.loc 1 280 0
 1421 0050 201C     		mov	r0, r4
 1422 0052 FFF7FEFF 		bl	test_printn
 1423              	.LVL166:
 1424              		.loc 1 281 0
 1425 0056 0948     		ldr	r0, .L93+20
 1426 0058 FFF7FEFF 		bl	test_println
 1427              	.LVL167:
 1428              		.loc 1 282 0
 1429 005c 03B0     		add	sp, sp, #12
 1430              		@ sp needed for prologue
 1431              	.LVL168:
 1432              	.LVL169:
 1433              	.LVL170:
 1434 005e 0CBC     		pop	{r2, r3}
 1435 0060 9046     		mov	r8, r2
 1436 0062 9946     		mov	r9, r3
 1437 0064 F0BD     		pop	{r4, r5, r6, r7, pc}
 1438              	.L94:
 1439 0066 C046     		.align	2
 1440              	.L93:
 1441 0068 00000000 		.word	rlist
 1442 006c 00000000 		.word	wa
 1443 0070 00000000 		.word	thread2
 1444 0074 00000000 		.word	test_timer_done
 1445 0078 A8000000 		.word	.LC24
 1446 007c F0000000 		.word	.LC56
 1447              		.cfi_endproc
 1448              	.LFE15:
 1449              		.size	bmk5_execute, .-bmk5_execute
 1450              		.section	.text.bmk4_execute,"ax",%progbits
 1451              		.align	2
 1452              		.p2align 4,,15
 1453              		.code	16
 1454              		.thumb_func
 1455              		.type	bmk4_execute, %function
 1456              	bmk4_execute:
 1457              	.LFB14:
 1458              		.loc 1 217 0
 1459              		.cfi_startproc
 1460 0000 70B5     		push	{r4, r5, r6, lr}
 1461              	.LCFI24:
 1462              		.cfi_def_cfa_offset 16
 1463              		.cfi_offset 4, -16
 1464              		.cfi_offset 5, -12
 1465              		.cfi_offset 6, -8
 1466              		.cfi_offset 14, -4
 1467              		.loc 1 221 0
 1468 0002 214B     		ldr	r3, .L101
 1469 0004 214C     		ldr	r4, .L101+4
 1470 0006 9869     		ldr	r0, [r3, #24]
ARM GAS  C:\Users\3130\AppData\Local\Temp\ccgiXayf.s 			page 27


 1471              		.loc 1 217 0
 1472 0008 82B0     		sub	sp, sp, #8
 1473              	.LCFI25:
 1474              		.cfi_def_cfa_offset 24
 1475              		.loc 1 221 0
 1476 000a 8268     		ldr	r2, [r0, #8]
 1477 000c 0021     		mov	r1, #0
 1478 000e 9825     		mov	r5, #152
 1479 0010 1F4B     		ldr	r3, .L101+8
 1480 0012 0132     		add	r2, r2, #1
 1481 0014 0091     		str	r1, [sp]
 1482 0016 2068     		ldr	r0, [r4]
 1483 0018 6900     		lsl	r1, r5, #1
 1484 001a FFF7FEFF 		bl	chThdCreateStatic
 1485              	.LVL171:
 1486 001e 1D4A     		ldr	r2, .L101+12
 1487              		.loc 1 224 0
 1488 0020 FA26     		mov	r6, #250
 1489              		.loc 1 221 0
 1490 0022 1060     		str	r0, [r2]
 1491 0024 041C     		mov	r4, r0
 1492              	.LVL172:
 1493              		.loc 1 223 0
 1494 0026 FFF7FEFF 		bl	test_wait_tick
 1495              	.LVL173:
 1496              		.loc 1 224 0
 1497 002a B000     		lsl	r0, r6, #2
 1498 002c FFF7FEFF 		bl	test_start_timer
 1499              	.LVL174:
 1500 0030 194E     		ldr	r6, .L101+16
 1501              		.loc 1 222 0
 1502 0032 0025     		mov	r5, #0
 1503              	.LVL175:
 1504              	.L96:
 1505              		.loc 1 226 0 discriminator 1
 1506              	@ 226 "../../ChibiOS_2.6.1/test/testbmk.c" 1
 1507 0034 72B6     		cpsid   i
 1508              	@ 0 "" 2
 1509              		.loc 1 227 0 discriminator 1
 1510              		.code	16
 1511 0036 0021     		mov	r1, #0
 1512 0038 201C     		mov	r0, r4
 1513 003a FFF7FEFF 		bl	chSchWakeupS
 1514              	.LVL176:
 1515              		.loc 1 228 0 discriminator 1
 1516 003e 201C     		mov	r0, r4
 1517 0040 0021     		mov	r1, #0
 1518 0042 FFF7FEFF 		bl	chSchWakeupS
 1519              	.LVL177:
 1520              		.loc 1 229 0 discriminator 1
 1521 0046 201C     		mov	r0, r4
 1522 0048 0021     		mov	r1, #0
 1523 004a FFF7FEFF 		bl	chSchWakeupS
 1524              	.LVL178:
 1525              		.loc 1 230 0 discriminator 1
 1526 004e 201C     		mov	r0, r4
 1527 0050 0021     		mov	r1, #0
ARM GAS  C:\Users\3130\AppData\Local\Temp\ccgiXayf.s 			page 28


 1528 0052 FFF7FEFF 		bl	chSchWakeupS
 1529              	.LVL179:
 1530              		.loc 1 231 0 discriminator 1
 1531              	@ 231 "../../ChibiOS_2.6.1/test/testbmk.c" 1
 1532 0056 62B6     		cpsie   i
 1533              	@ 0 "" 2
 1534              		.loc 1 236 0 discriminator 1
 1535              		.code	16
 1536 0058 3378     		ldrb	r3, [r6]
 1537              		.loc 1 232 0 discriminator 1
 1538 005a 0435     		add	r5, r5, #4
 1539              	.LVL180:
 1540              		.loc 1 236 0 discriminator 1
 1541 005c 002B     		cmp	r3, #0
 1542 005e E9D0     		beq	.L96
 1543              		.loc 1 237 0
 1544              	@ 237 "../../ChibiOS_2.6.1/test/testbmk.c" 1
 1545 0060 72B6     		cpsid   i
 1546              	@ 0 "" 2
 1547              		.loc 1 238 0
 1548              		.code	16
 1549 0062 0121     		mov	r1, #1
 1550 0064 201C     		mov	r0, r4
 1551 0066 4942     		neg	r1, r1
 1552 0068 FFF7FEFF 		bl	chSchWakeupS
 1553              	.LVL181:
 1554              		.loc 1 239 0
 1555              	@ 239 "../../ChibiOS_2.6.1/test/testbmk.c" 1
 1556 006c 62B6     		cpsie   i
 1557              	@ 0 "" 2
 1558              		.loc 1 241 0
 1559              		.code	16
 1560 006e FFF7FEFF 		bl	test_wait_threads
 1561              	.LVL182:
 1562              		.loc 1 242 0
 1563 0072 0A48     		ldr	r0, .L101+20
 1564 0074 FFF7FEFF 		bl	test_print
 1565              	.LVL183:
 1566              		.loc 1 243 0
 1567 0078 6800     		lsl	r0, r5, #1
 1568 007a FFF7FEFF 		bl	test_printn
 1569              	.LVL184:
 1570              		.loc 1 244 0
 1571 007e 0848     		ldr	r0, .L101+24
 1572 0080 FFF7FEFF 		bl	test_println
 1573              	.LVL185:
 1574              		.loc 1 245 0
 1575 0084 02B0     		add	sp, sp, #8
 1576              		@ sp needed for prologue
 1577              	.LVL186:
 1578              	.LVL187:
 1579 0086 70BD     		pop	{r4, r5, r6, pc}
 1580              	.L102:
 1581              		.align	2
 1582              	.L101:
 1583 0088 00000000 		.word	rlist
 1584 008c 00000000 		.word	wa
ARM GAS  C:\Users\3130\AppData\Local\Temp\ccgiXayf.s 			page 29


 1585 0090 00000000 		.word	thread4
 1586 0094 00000000 		.word	threads
 1587 0098 00000000 		.word	test_timer_done
 1588 009c A8000000 		.word	.LC24
 1589 00a0 FC000000 		.word	.LC63
 1590              		.cfi_endproc
 1591              	.LFE14:
 1592              		.size	bmk4_execute, .-bmk4_execute
 1593 00a4 C046C046 		.section	.text.msg_loop_test,"ax",%progbits
 1593      C046C046 
 1593      C046C046 
 1594              		.align	2
 1595              		.p2align 4,,15
 1596              		.code	16
 1597              		.thumb_func
 1598              		.type	msg_loop_test, %function
 1599              	msg_loop_test:
 1600              	.LFB8:
 1601              		.loc 1 80 0
 1602              		.cfi_startproc
 1603              	.LVL188:
 1604 0000 70B5     		push	{r4, r5, r6, lr}
 1605              	.LCFI26:
 1606              		.cfi_def_cfa_offset 16
 1607              		.cfi_offset 4, -16
 1608              		.cfi_offset 5, -12
 1609              		.cfi_offset 6, -8
 1610              		.cfi_offset 14, -4
 1611              		.loc 1 80 0
 1612 0002 051C     		mov	r5, r0
 1613              		.loc 1 83 0
 1614 0004 FFF7FEFF 		bl	test_wait_tick
 1615              	.LVL189:
 1616              		.loc 1 84 0
 1617 0008 FA20     		mov	r0, #250
 1618 000a 8000     		lsl	r0, r0, #2
 1619 000c FFF7FEFF 		bl	test_start_timer
 1620              	.LVL190:
 1621 0010 074E     		ldr	r6, .L109
 1622              		.loc 1 82 0
 1623 0012 0024     		mov	r4, #0
 1624              	.LVL191:
 1625              	.L104:
 1626              		.loc 1 86 0 discriminator 1
 1627 0014 281C     		mov	r0, r5
 1628 0016 0121     		mov	r1, #1
 1629 0018 FFF7FEFF 		bl	chMsgSend
 1630              	.LVL192:
 1631              		.loc 1 91 0 discriminator 1
 1632 001c 3378     		ldrb	r3, [r6]
 1633              		.loc 1 87 0 discriminator 1
 1634 001e 0134     		add	r4, r4, #1
 1635              	.LVL193:
 1636              		.loc 1 91 0 discriminator 1
 1637 0020 002B     		cmp	r3, #0
 1638 0022 F7D0     		beq	.L104
 1639              		.loc 1 92 0
ARM GAS  C:\Users\3130\AppData\Local\Temp\ccgiXayf.s 			page 30


 1640 0024 281C     		mov	r0, r5
 1641 0026 0021     		mov	r1, #0
 1642 0028 FFF7FEFF 		bl	chMsgSend
 1643              	.LVL194:
 1644              		.loc 1 94 0
 1645              		@ sp needed for prologue
 1646 002c 201C     		mov	r0, r4
 1647              	.LVL195:
 1648              	.LVL196:
 1649 002e 70BD     		pop	{r4, r5, r6, pc}
 1650              	.L110:
 1651              		.align	2
 1652              	.L109:
 1653 0030 00000000 		.word	test_timer_done
 1654              		.cfi_endproc
 1655              	.LFE8:
 1656              		.size	msg_loop_test, .-msg_loop_test
 1657 0034 C046C046 		.section	.text.bmk3_execute,"ax",%progbits
 1657      C046C046 
 1657      C046C046 
 1658              		.align	2
 1659              		.p2align 4,,15
 1660              		.code	16
 1661              		.thumb_func
 1662              		.type	bmk3_execute, %function
 1663              	bmk3_execute:
 1664              	.LFB12:
 1665              		.loc 1 169 0
 1666              		.cfi_startproc
 1667 0000 F0B5     		push	{r4, r5, r6, r7, lr}
 1668              	.LCFI27:
 1669              		.cfi_def_cfa_offset 20
 1670              		.cfi_offset 4, -20
 1671              		.cfi_offset 5, -16
 1672              		.cfi_offset 6, -12
 1673              		.cfi_offset 7, -8
 1674              		.cfi_offset 14, -4
 1675 0002 4F46     		mov	r7, r9
 1676 0004 4646     		mov	r6, r8
 1677 0006 C0B4     		push	{r6, r7}
 1678              	.LCFI28:
 1679              		.cfi_def_cfa_offset 28
 1680              		.cfi_offset 8, -28
 1681              		.cfi_offset 9, -24
 1682              		.loc 1 172 0
 1683 0008 2C4F     		ldr	r7, .L112
 1684 000a 2D4A     		ldr	r2, .L112+4
 1685 000c BB69     		ldr	r3, [r7, #24]
 1686 000e 9046     		mov	r8, r2
 1687 0010 9825     		mov	r5, #152
 1688 0012 9A68     		ldr	r2, [r3, #8]
 1689              		.loc 1 169 0
 1690 0014 83B0     		sub	sp, sp, #12
 1691              	.LCFI29:
 1692              		.cfi_def_cfa_offset 40
 1693              		.loc 1 172 0
 1694 0016 6D00     		lsl	r5, r5, #1
ARM GAS  C:\Users\3130\AppData\Local\Temp\ccgiXayf.s 			page 31


 1695 0018 0026     		mov	r6, #0
 1696 001a 4046     		mov	r0, r8
 1697 001c 291C     		mov	r1, r5
 1698 001e 0132     		add	r2, r2, #1
 1699 0020 0096     		str	r6, [sp]
 1700 0022 284B     		ldr	r3, .L112+8
 1701 0024 0068     		ldr	r0, [r0]
 1702 0026 FFF7FEFF 		bl	chThdCreateStatic
 1703              	.LVL197:
 1704              		.loc 1 173 0
 1705 002a B969     		ldr	r1, [r7, #24]
 1706              		.loc 1 172 0
 1707 002c 264C     		ldr	r4, .L112+12
 1708              		.loc 1 173 0
 1709 002e 8A68     		ldr	r2, [r1, #8]
 1710              		.loc 1 172 0
 1711 0030 2060     		str	r0, [r4]
 1712              		.loc 1 173 0
 1713 0032 264B     		ldr	r3, .L112+16
 1714 0034 4046     		mov	r0, r8
 1715 0036 291C     		mov	r1, r5
 1716 0038 023A     		sub	r2, r2, #2
 1717 003a 0096     		str	r6, [sp]
 1718 003c 4068     		ldr	r0, [r0, #4]
 1719 003e 9946     		mov	r9, r3
 1720 0040 FFF7FEFF 		bl	chThdCreateStatic
 1721              	.LVL198:
 1722              		.loc 1 174 0
 1723 0044 BA69     		ldr	r2, [r7, #24]
 1724 0046 4146     		mov	r1, r8
 1725 0048 9268     		ldr	r2, [r2, #8]
 1726              		.loc 1 173 0
 1727 004a 6060     		str	r0, [r4, #4]
 1728              		.loc 1 174 0
 1729 004c 4B46     		mov	r3, r9
 1730 004e 033A     		sub	r2, r2, #3
 1731 0050 0096     		str	r6, [sp]
 1732 0052 8868     		ldr	r0, [r1, #8]
 1733 0054 291C     		mov	r1, r5
 1734 0056 FFF7FEFF 		bl	chThdCreateStatic
 1735              	.LVL199:
 1736              		.loc 1 175 0
 1737 005a BB69     		ldr	r3, [r7, #24]
 1738              		.loc 1 174 0
 1739 005c A060     		str	r0, [r4, #8]
 1740              		.loc 1 175 0
 1741 005e 9A68     		ldr	r2, [r3, #8]
 1742 0060 4046     		mov	r0, r8
 1743 0062 291C     		mov	r1, r5
 1744 0064 4B46     		mov	r3, r9
 1745 0066 043A     		sub	r2, r2, #4
 1746 0068 0096     		str	r6, [sp]
 1747 006a C068     		ldr	r0, [r0, #12]
 1748 006c FFF7FEFF 		bl	chThdCreateStatic
 1749              	.LVL200:
 1750              		.loc 1 176 0
 1751 0070 BF69     		ldr	r7, [r7, #24]
ARM GAS  C:\Users\3130\AppData\Local\Temp\ccgiXayf.s 			page 32


 1752 0072 4246     		mov	r2, r8
 1753              		.loc 1 175 0
 1754 0074 E060     		str	r0, [r4, #12]
 1755              		.loc 1 176 0
 1756 0076 1069     		ldr	r0, [r2, #16]
 1757 0078 BA68     		ldr	r2, [r7, #8]
 1758 007a 291C     		mov	r1, r5
 1759 007c 053A     		sub	r2, r2, #5
 1760 007e 4B46     		mov	r3, r9
 1761 0080 0096     		str	r6, [sp]
 1762 0082 FFF7FEFF 		bl	chThdCreateStatic
 1763              	.LVL201:
 1764 0086 2061     		str	r0, [r4, #16]
 1765              		.loc 1 177 0
 1766 0088 2068     		ldr	r0, [r4]
 1767 008a FFF7FEFF 		bl	msg_loop_test
 1768              	.LVL202:
 1769 008e 051C     		mov	r5, r0
 1770              	.LVL203:
 1771              		.loc 1 178 0
 1772 0090 FFF7FEFF 		bl	test_wait_threads
 1773              	.LVL204:
 1774              		.loc 1 179 0
 1775 0094 0E48     		ldr	r0, .L112+20
 1776 0096 FFF7FEFF 		bl	test_print
 1777              	.LVL205:
 1778              		.loc 1 180 0
 1779 009a 281C     		mov	r0, r5
 1780 009c FFF7FEFF 		bl	test_printn
 1781              	.LVL206:
 1782              		.loc 1 181 0
 1783 00a0 0C48     		ldr	r0, .L112+24
 1784 00a2 FFF7FEFF 		bl	test_print
 1785              	.LVL207:
 1786              		.loc 1 182 0
 1787 00a6 6800     		lsl	r0, r5, #1
 1788 00a8 FFF7FEFF 		bl	test_printn
 1789              	.LVL208:
 1790              		.loc 1 183 0
 1791 00ac 0A48     		ldr	r0, .L112+28
 1792 00ae FFF7FEFF 		bl	test_println
 1793              	.LVL209:
 1794              		.loc 1 184 0
 1795 00b2 03B0     		add	sp, sp, #12
 1796              		@ sp needed for prologue
 1797              	.LVL210:
 1798 00b4 0CBC     		pop	{r2, r3}
 1799 00b6 9046     		mov	r8, r2
 1800 00b8 9946     		mov	r9, r3
 1801 00ba F0BD     		pop	{r4, r5, r6, r7, pc}
 1802              	.L113:
 1803              		.align	2
 1804              	.L112:
 1805 00bc 00000000 		.word	rlist
 1806 00c0 00000000 		.word	wa
 1807 00c4 00000000 		.word	thread1
 1808 00c8 00000000 		.word	threads
ARM GAS  C:\Users\3130\AppData\Local\Temp\ccgiXayf.s 			page 33


 1809 00cc 00000000 		.word	thread2
 1810 00d0 A8000000 		.word	.LC24
 1811 00d4 1C010000 		.word	.LC96
 1812 00d8 FC000000 		.word	.LC63
 1813              		.cfi_endproc
 1814              	.LFE12:
 1815              		.size	bmk3_execute, .-bmk3_execute
 1816 00dc C046C046 		.section	.text.bmk2_execute,"ax",%progbits
 1817              		.align	2
 1818              		.p2align 4,,15
 1819              		.code	16
 1820              		.thumb_func
 1821              		.type	bmk2_execute, %function
 1822              	bmk2_execute:
 1823              	.LFB10:
 1824              		.loc 1 134 0
 1825              		.cfi_startproc
 1826 0000 10B5     		push	{r4, lr}
 1827              	.LCFI30:
 1828              		.cfi_def_cfa_offset 8
 1829              		.cfi_offset 4, -8
 1830              		.cfi_offset 14, -4
 1831              		.loc 1 137 0
 1832 0002 1349     		ldr	r1, .L115
 1833 0004 134B     		ldr	r3, .L115+4
 1834 0006 8A69     		ldr	r2, [r1, #24]
 1835              		.loc 1 134 0
 1836 0008 82B0     		sub	sp, sp, #8
 1837              	.LCFI31:
 1838              		.cfi_def_cfa_offset 16
 1839              		.loc 1 137 0
 1840 000a 9268     		ldr	r2, [r2, #8]
 1841 000c 1868     		ldr	r0, [r3]
 1842 000e 0024     		mov	r4, #0
 1843 0010 9823     		mov	r3, #152
 1844 0012 0132     		add	r2, r2, #1
 1845 0014 0094     		str	r4, [sp]
 1846 0016 5900     		lsl	r1, r3, #1
 1847 0018 0F4B     		ldr	r3, .L115+8
 1848 001a FFF7FEFF 		bl	chThdCreateStatic
 1849              	.LVL211:
 1850 001e 0F49     		ldr	r1, .L115+12
 1851 0020 0860     		str	r0, [r1]
 1852              		.loc 1 138 0
 1853 0022 FFF7FEFF 		bl	msg_loop_test
 1854              	.LVL212:
 1855 0026 041C     		mov	r4, r0
 1856              	.LVL213:
 1857              		.loc 1 139 0
 1858 0028 FFF7FEFF 		bl	test_wait_threads
 1859              	.LVL214:
 1860              		.loc 1 140 0
 1861 002c 0C48     		ldr	r0, .L115+16
 1862 002e FFF7FEFF 		bl	test_print
 1863              	.LVL215:
 1864              		.loc 1 141 0
 1865 0032 201C     		mov	r0, r4
ARM GAS  C:\Users\3130\AppData\Local\Temp\ccgiXayf.s 			page 34


 1866 0034 FFF7FEFF 		bl	test_printn
 1867              	.LVL216:
 1868              		.loc 1 142 0
 1869 0038 0A48     		ldr	r0, .L115+20
 1870 003a FFF7FEFF 		bl	test_print
 1871              	.LVL217:
 1872              		.loc 1 143 0
 1873 003e 6000     		lsl	r0, r4, #1
 1874 0040 FFF7FEFF 		bl	test_printn
 1875              	.LVL218:
 1876              		.loc 1 144 0
 1877 0044 0848     		ldr	r0, .L115+24
 1878 0046 FFF7FEFF 		bl	test_println
 1879              	.LVL219:
 1880              		.loc 1 145 0
 1881 004a 02B0     		add	sp, sp, #8
 1882              		@ sp needed for prologue
 1883              	.LVL220:
 1884 004c 10BD     		pop	{r4, pc}
 1885              	.L116:
 1886 004e C046     		.align	2
 1887              	.L115:
 1888 0050 00000000 		.word	rlist
 1889 0054 00000000 		.word	wa
 1890 0058 00000000 		.word	thread1
 1891 005c 00000000 		.word	threads
 1892 0060 A8000000 		.word	.LC24
 1893 0064 1C010000 		.word	.LC96
 1894 0068 FC000000 		.word	.LC63
 1895              		.cfi_endproc
 1896              	.LFE10:
 1897              		.size	bmk2_execute, .-bmk2_execute
 1898 006c C046C046 		.section	.text.bmk1_execute,"ax",%progbits
 1899              		.align	2
 1900              		.p2align 4,,15
 1901              		.code	16
 1902              		.thumb_func
 1903              		.type	bmk1_execute, %function
 1904              	bmk1_execute:
 1905              	.LFB9:
 1906              		.loc 1 105 0
 1907              		.cfi_startproc
 1908 0000 10B5     		push	{r4, lr}
 1909              	.LCFI32:
 1910              		.cfi_def_cfa_offset 8
 1911              		.cfi_offset 4, -8
 1912              		.cfi_offset 14, -4
 1913              		.loc 1 108 0
 1914 0002 1349     		ldr	r1, .L118
 1915 0004 134B     		ldr	r3, .L118+4
 1916 0006 8A69     		ldr	r2, [r1, #24]
 1917              		.loc 1 105 0
 1918 0008 82B0     		sub	sp, sp, #8
 1919              	.LCFI33:
 1920              		.cfi_def_cfa_offset 16
 1921              		.loc 1 108 0
 1922 000a 9268     		ldr	r2, [r2, #8]
ARM GAS  C:\Users\3130\AppData\Local\Temp\ccgiXayf.s 			page 35


 1923 000c 1868     		ldr	r0, [r3]
 1924 000e 0024     		mov	r4, #0
 1925 0010 9823     		mov	r3, #152
 1926 0012 013A     		sub	r2, r2, #1
 1927 0014 0094     		str	r4, [sp]
 1928 0016 5900     		lsl	r1, r3, #1
 1929 0018 0F4B     		ldr	r3, .L118+8
 1930 001a FFF7FEFF 		bl	chThdCreateStatic
 1931              	.LVL221:
 1932 001e 0F49     		ldr	r1, .L118+12
 1933 0020 0860     		str	r0, [r1]
 1934              		.loc 1 109 0
 1935 0022 FFF7FEFF 		bl	msg_loop_test
 1936              	.LVL222:
 1937 0026 041C     		mov	r4, r0
 1938              	.LVL223:
 1939              		.loc 1 110 0
 1940 0028 FFF7FEFF 		bl	test_wait_threads
 1941              	.LVL224:
 1942              		.loc 1 111 0
 1943 002c 0C48     		ldr	r0, .L118+16
 1944 002e FFF7FEFF 		bl	test_print
 1945              	.LVL225:
 1946              		.loc 1 112 0
 1947 0032 201C     		mov	r0, r4
 1948 0034 FFF7FEFF 		bl	test_printn
 1949              	.LVL226:
 1950              		.loc 1 113 0
 1951 0038 0A48     		ldr	r0, .L118+20
 1952 003a FFF7FEFF 		bl	test_print
 1953              	.LVL227:
 1954              		.loc 1 114 0
 1955 003e 6000     		lsl	r0, r4, #1
 1956 0040 FFF7FEFF 		bl	test_printn
 1957              	.LVL228:
 1958              		.loc 1 115 0
 1959 0044 0848     		ldr	r0, .L118+24
 1960 0046 FFF7FEFF 		bl	test_println
 1961              	.LVL229:
 1962              		.loc 1 116 0
 1963 004a 02B0     		add	sp, sp, #8
 1964              		@ sp needed for prologue
 1965              	.LVL230:
 1966 004c 10BD     		pop	{r4, pc}
 1967              	.L119:
 1968 004e C046     		.align	2
 1969              	.L118:
 1970 0050 00000000 		.word	rlist
 1971 0054 00000000 		.word	wa
 1972 0058 00000000 		.word	thread1
 1973 005c 00000000 		.word	threads
 1974 0060 A8000000 		.word	.LC24
 1975 0064 1C010000 		.word	.LC96
 1976 0068 FC000000 		.word	.LC63
 1977              		.cfi_endproc
 1978              	.LFE9:
 1979              		.size	bmk1_execute, .-bmk1_execute
ARM GAS  C:\Users\3130\AppData\Local\Temp\ccgiXayf.s 			page 36


 1980 006c C046C046 		.section	.text.thread1,"ax",%progbits
 1981              		.align	2
 1982              		.p2align 4,,15
 1983              		.code	16
 1984              		.thumb_func
 1985              		.type	thread1, %function
 1986              	thread1:
 1987              	.LFB7:
 1988              		.loc 1 64 0
 1989              		.cfi_startproc
 1990              	.LVL231:
 1991 0000 10B5     		push	{r4, lr}
 1992              	.LCFI34:
 1993              		.cfi_def_cfa_offset 8
 1994              		.cfi_offset 4, -8
 1995              		.cfi_offset 14, -4
 1996              	.LVL232:
 1997              	.L121:
 1998              		.loc 1 70 0 discriminator 1
 1999 0002 FFF7FEFF 		bl	chMsgWait
 2000              	.LVL233:
 2001              		.loc 1 71 0 discriminator 1
 2002 0006 446B     		ldr	r4, [r0, #52]
 2003              	.LVL234:
 2004              		.loc 1 72 0 discriminator 1
 2005 0008 211C     		mov	r1, r4
 2006 000a FFF7FEFF 		bl	chMsgRelease
 2007              	.LVL235:
 2008              		.loc 1 73 0 discriminator 1
 2009 000e 002C     		cmp	r4, #0
 2010 0010 F7D1     		bne	.L121
 2011              		.loc 1 75 0
 2012 0012 0020     		mov	r0, #0
 2013              		@ sp needed for prologue
 2014              	.LVL236:
 2015 0014 10BD     		pop	{r4, pc}
 2016              		.cfi_endproc
 2017              	.LFE7:
 2018              		.size	thread1, .-thread1
 2019 0016 C046C046 		.section	.text.thread4,"ax",%progbits
 2019      C046C046 
 2019      C046
 2020              		.align	2
 2021              		.p2align 4,,15
 2022              		.global	thread4
 2023              		.code	16
 2024              		.thumb_func
 2025              		.type	thread4, %function
 2026              	thread4:
 2027              	.LFB13:
 2028              		.loc 1 203 0
 2029              		.cfi_startproc
 2030              	.LVL237:
 2031              		.loc 1 205 0
 2032 0000 064B     		ldr	r3, .L129
 2033              		.loc 1 203 0
 2034 0002 10B5     		push	{r4, lr}
ARM GAS  C:\Users\3130\AppData\Local\Temp\ccgiXayf.s 			page 37


 2035              	.LCFI35:
 2036              		.cfi_def_cfa_offset 8
 2037              		.cfi_offset 4, -8
 2038              		.cfi_offset 14, -4
 2039              		.loc 1 205 0
 2040 0004 9C69     		ldr	r4, [r3, #24]
 2041              	.LVL238:
 2042              		.loc 1 208 0
 2043              	@ 208 "../../ChibiOS_2.6.1/test/testbmk.c" 1
 2044 0006 72B6     		cpsid   i
 2045              	@ 0 "" 2
 2046              	.LVL239:
 2047              		.code	16
 2048              	.L124:
 2049              		.loc 1 210 0 discriminator 1
 2050 0008 0220     		mov	r0, #2
 2051 000a FFF7FEFF 		bl	chSchGoSleepS
 2052              	.LVL240:
 2053              		.loc 1 212 0 discriminator 1
 2054 000e 606A     		ldr	r0, [r4, #36]
 2055 0010 0028     		cmp	r0, #0
 2056 0012 F9D0     		beq	.L124
 2057              		.loc 1 213 0
 2058              	@ 213 "../../ChibiOS_2.6.1/test/testbmk.c" 1
 2059 0014 62B6     		cpsie   i
 2060              	@ 0 "" 2
 2061              		.loc 1 215 0
 2062              		.code	16
 2063 0016 0020     		mov	r0, #0
 2064              		@ sp needed for prologue
 2065              	.LVL241:
 2066 0018 10BD     		pop	{r4, pc}
 2067              	.L130:
 2068 001a C046     		.align	2
 2069              	.L129:
 2070 001c 00000000 		.word	rlist
 2071              		.cfi_endproc
 2072              	.LFE13:
 2073              		.size	thread4, .-thread4
 2074              		.global	patternbmk
 2075              		.global	testbmk13
 2076              		.global	testbmk12
 2077              		.global	testbmk11
 2078              		.global	testbmk10
 2079              		.global	testbmk9
 2080              		.global	testbmk8
 2081              		.global	testbmk7
 2082              		.global	testbmk6
 2083              		.global	testbmk5
 2084              		.global	testbmk4
 2085              		.global	testbmk3
 2086              		.global	testbmk2
 2087              		.global	testbmk1
 2088              		.section	.rodata.testbmk8,"a",%progbits
 2089              		.align	2
 2090              		.type	testbmk8, %object
 2091              		.size	testbmk8, 16
ARM GAS  C:\Users\3130\AppData\Local\Temp\ccgiXayf.s 			page 38


 2092              	testbmk8:
 2093 0000 D0010000 		.word	.LC119
 2094 0004 00000000 		.word	0
 2095 0008 00000000 		.word	0
 2096 000c 00000000 		.word	bmk8_execute
 2097              		.section	.rodata.patternbmk,"a",%progbits
 2098              		.align	2
 2099              		.type	patternbmk, %object
 2100              		.size	patternbmk, 56
 2101              	patternbmk:
 2102 0000 00000000 		.word	testbmk1
 2103 0004 00000000 		.word	testbmk2
 2104 0008 00000000 		.word	testbmk3
 2105 000c 00000000 		.word	testbmk4
 2106 0010 00000000 		.word	testbmk5
 2107 0014 00000000 		.word	testbmk6
 2108 0018 00000000 		.word	testbmk7
 2109 001c 00000000 		.word	testbmk8
 2110 0020 00000000 		.word	testbmk9
 2111 0024 00000000 		.word	testbmk10
 2112 0028 00000000 		.word	testbmk11
 2113 002c 00000000 		.word	testbmk12
 2114 0030 00000000 		.word	testbmk13
 2115 0034 00000000 		.word	0
 2116              		.section	.rodata.testbmk10,"a",%progbits
 2117              		.align	2
 2118              		.type	testbmk10, %object
 2119              		.size	testbmk10, 16
 2120              	testbmk10:
 2121 0000 88010000 		.word	.LC117
 2122 0004 00000000 		.word	0
 2123 0008 00000000 		.word	0
 2124 000c 00000000 		.word	bmk10_execute
 2125              		.section	.bss.iq.4916,"aw",%nobits
 2126              		.align	2
 2127              		.set	.LANCHOR4,. + 0
 2128              		.type	iq.4916, %object
 2129              		.size	iq.4916, 36
 2130              	iq.4916:
 2131 0000 00000000 		.space	36
 2131      00000000 
 2131      00000000 
 2131      00000000 
 2131      00000000 
 2132              		.section	.bss.ib.4915,"aw",%nobits
 2133              		.align	2
 2134              		.set	.LANCHOR5,. + 0
 2135              		.type	ib.4915, %object
 2136              		.size	ib.4915, 16
 2137              	ib.4915:
 2138 0000 00000000 		.space	16
 2138      00000000 
 2138      00000000 
 2138      00000000 
 2139              		.section	.rodata.testbmk4,"a",%progbits
 2140              		.align	2
 2141              		.type	testbmk4, %object
ARM GAS  C:\Users\3130\AppData\Local\Temp\ccgiXayf.s 			page 39


 2142              		.size	testbmk4, 16
 2143              	testbmk4:
 2144 0000 64020000 		.word	.LC123
 2145 0004 00000000 		.word	0
 2146 0008 00000000 		.word	0
 2147 000c 00000000 		.word	bmk4_execute
 2148              		.section	.rodata.testbmk3,"a",%progbits
 2149              		.align	2
 2150              		.type	testbmk3, %object
 2151              		.size	testbmk3, 16
 2152              	testbmk3:
 2153 0000 80020000 		.word	.LC124
 2154 0004 00000000 		.word	0
 2155 0008 00000000 		.word	0
 2156 000c 00000000 		.word	bmk3_execute
 2157              		.section	.bss.mtx1,"aw",%nobits
 2158              		.align	2
 2159              		.set	.LANCHOR0,. + 0
 2160              		.type	mtx1, %object
 2161              		.size	mtx1, 16
 2162              	mtx1:
 2163 0000 00000000 		.space	16
 2163      00000000 
 2163      00000000 
 2163      00000000 
 2164              		.section	.rodata.testbmk12,"a",%progbits
 2165              		.align	2
 2166              		.type	testbmk12, %object
 2167              		.size	testbmk12, 16
 2168              	testbmk12:
 2169 0000 44010000 		.word	.LC115
 2170 0004 00000000 		.word	bmk12_setup
 2171 0008 00000000 		.word	0
 2172 000c 00000000 		.word	bmk12_execute
 2173              		.section	.bss.vt2.4927,"aw",%nobits
 2174              		.align	2
 2175              		.set	.LANCHOR3,. + 0
 2176              		.type	vt2.4927, %object
 2177              		.size	vt2.4927, 20
 2178              	vt2.4927:
 2179 0000 00000000 		.space	20
 2179      00000000 
 2179      00000000 
 2179      00000000 
 2179      00000000 
 2180              		.section	.rodata.testbmk2,"a",%progbits
 2181              		.align	2
 2182              		.type	testbmk2, %object
 2183              		.size	testbmk2, 16
 2184              	testbmk2:
 2185 0000 98020000 		.word	.LC125
 2186 0004 00000000 		.word	0
 2187 0008 00000000 		.word	0
 2188 000c 00000000 		.word	bmk2_execute
 2189              		.section	.rodata.str1.4,"aMS",%progbits,1
 2190              		.align	2
 2191              	.LC0:
ARM GAS  C:\Users\3130\AppData\Local\Temp\ccgiXayf.s 			page 40


 2192 0000 2D2D2D20 		.ascii	"--- System: \000"
 2192      53797374 
 2192      656D3A20 
 2192      00
 2193 000d 000000   		.space	3
 2194              	.LC2:
 2195 0010 20627974 		.ascii	" bytes\000"
 2195      657300
 2196 0017 00       		.space	1
 2197              	.LC4:
 2198 0018 2D2D2D20 		.ascii	"--- Thread: \000"
 2198      54687265 
 2198      61643A20 
 2198      00
 2199 0025 000000   		.space	3
 2200              	.LC6:
 2201 0028 2D2D2D20 		.ascii	"--- Timer : \000"
 2201      54696D65 
 2201      72203A20 
 2201      00
 2202 0035 000000   		.space	3
 2203              	.LC8:
 2204 0038 2D2D2D20 		.ascii	"--- Semaph: \000"
 2204      53656D61 
 2204      70683A20 
 2204      00
 2205 0045 000000   		.space	3
 2206              	.LC10:
 2207 0048 2D2D2D20 		.ascii	"--- EventS: \000"
 2207      4576656E 
 2207      74533A20 
 2207      00
 2208 0055 000000   		.space	3
 2209              	.LC12:
 2210 0058 2D2D2D20 		.ascii	"--- EventL: \000"
 2210      4576656E 
 2210      744C3A20 
 2210      00
 2211 0065 000000   		.space	3
 2212              	.LC14:
 2213 0068 2D2D2D20 		.ascii	"--- Mutex : \000"
 2213      4D757465 
 2213      78203A20 
 2213      00
 2214 0075 000000   		.space	3
 2215              	.LC16:
 2216 0078 2D2D2D20 		.ascii	"--- CondV.: \000"
 2216      436F6E64 
 2216      562E3A20 
 2216      00
 2217 0085 000000   		.space	3
 2218              	.LC18:
 2219 0088 2D2D2D20 		.ascii	"--- Queue : \000"
 2219      51756575 
 2219      65203A20 
 2219      00
 2220 0095 000000   		.space	3
ARM GAS  C:\Users\3130\AppData\Local\Temp\ccgiXayf.s 			page 41


 2221              	.LC20:
 2222 0098 2D2D2D20 		.ascii	"--- MailB.: \000"
 2222      4D61696C 
 2222      422E3A20 
 2222      00
 2223 00a5 000000   		.space	3
 2224              	.LC24:
 2225 00a8 2D2D2D20 		.ascii	"--- Score : \000"
 2225      53636F72 
 2225      65203A20 
 2225      00
 2226 00b5 000000   		.space	3
 2227              	.LC26:
 2228 00b8 206C6F63 		.ascii	" lock+unlock/S\000"
 2228      6B2B756E 
 2228      6C6F636B 
 2228      2F5300
 2229 00c7 00       		.space	1
 2230              	.LC34:
 2231 00c8 20776169 		.ascii	" wait+signal/S\000"
 2231      742B7369 
 2231      676E616C 
 2231      2F5300
 2232 00d7 00       		.space	1
 2233              	.LC43:
 2234 00d8 2074696D 		.ascii	" timers/S\000"
 2234      6572732F 
 2234      5300
 2235 00e2 0000     		.space	2
 2236              	.LC49:
 2237 00e4 20627974 		.ascii	" bytes/S\000"
 2237      65732F53 
 2237      00
 2238 00ed 000000   		.space	3
 2239              	.LC56:
 2240 00f0 20746872 		.ascii	" threads/S\000"
 2240      65616473 
 2240      2F5300
 2241 00fb 00       		.space	1
 2242              	.LC63:
 2243 00fc 20637478 		.ascii	" ctxswc/S\000"
 2243      7377632F 
 2243      5300
 2244 0106 0000     		.space	2
 2245              	.LC73:
 2246 0108 20726573 		.ascii	" reschedules/S, \000"
 2246      63686564 
 2246      756C6573 
 2246      2F532C20 
 2246      00
 2247 0119 000000   		.space	3
 2248              	.LC96:
 2249 011c 206D7367 		.ascii	" msgs/S, \000"
 2249      732F532C 
 2249      2000
 2250 0126 0000     		.space	2
 2251              	.LC114:
ARM GAS  C:\Users\3130\AppData\Local\Temp\ccgiXayf.s 			page 42


 2252 0128 42656E63 		.ascii	"Benchmark, RAM footprint\000"
 2252      686D6172 
 2252      6B2C2052 
 2252      414D2066 
 2252      6F6F7470 
 2253 0141 000000   		.space	3
 2254              	.LC115:
 2255 0144 42656E63 		.ascii	"Benchmark, mutexes lock/unlock\000"
 2255      686D6172 
 2255      6B2C206D 
 2255      75746578 
 2255      6573206C 
 2256 0163 00       		.space	1
 2257              	.LC116:
 2258 0164 42656E63 		.ascii	"Benchmark, semaphores wait/signal\000"
 2258      686D6172 
 2258      6B2C2073 
 2258      656D6170 
 2258      686F7265 
 2259 0186 0000     		.space	2
 2260              	.LC117:
 2261 0188 42656E63 		.ascii	"Benchmark, virtual timers set/reset\000"
 2261      686D6172 
 2261      6B2C2076 
 2261      69727475 
 2261      616C2074 
 2262              	.LC118:
 2263 01ac 42656E63 		.ascii	"Benchmark, I/O Queues throughput\000"
 2263      686D6172 
 2263      6B2C2049 
 2263      2F4F2051 
 2263      75657565 
 2264 01cd 000000   		.space	3
 2265              	.LC119:
 2266 01d0 42656E63 		.ascii	"Benchmark, round robin context switching\000"
 2266      686D6172 
 2266      6B2C2072 
 2266      6F756E64 
 2266      20726F62 
 2267 01f9 000000   		.space	3
 2268              	.LC120:
 2269 01fc 42656E63 		.ascii	"Benchmark, mass reschedule, 5 threads\000"
 2269      686D6172 
 2269      6B2C206D 
 2269      61737320 
 2269      72657363 
 2270 0222 0000     		.space	2
 2271              	.LC121:
 2272 0224 42656E63 		.ascii	"Benchmark, threads, create only\000"
 2272      686D6172 
 2272      6B2C2074 
 2272      68726561 
 2272      64732C20 
 2273              	.LC122:
 2274 0244 42656E63 		.ascii	"Benchmark, threads, full cycle\000"
 2274      686D6172 
 2274      6B2C2074 
ARM GAS  C:\Users\3130\AppData\Local\Temp\ccgiXayf.s 			page 43


 2274      68726561 
 2274      64732C20 
 2275 0263 00       		.space	1
 2276              	.LC123:
 2277 0264 42656E63 		.ascii	"Benchmark, context switch\000"
 2277      686D6172 
 2277      6B2C2063 
 2277      6F6E7465 
 2277      78742073 
 2278 027e 0000     		.space	2
 2279              	.LC124:
 2280 0280 42656E63 		.ascii	"Benchmark, messages #3\000"
 2280      686D6172 
 2280      6B2C206D 
 2280      65737361 
 2280      67657320 
 2281 0297 00       		.space	1
 2282              	.LC125:
 2283 0298 42656E63 		.ascii	"Benchmark, messages #2\000"
 2283      686D6172 
 2283      6B2C206D 
 2283      65737361 
 2283      67657320 
 2284 02af 00       		.space	1
 2285              	.LC126:
 2286 02b0 42656E63 		.ascii	"Benchmark, messages #1\000"
 2286      686D6172 
 2286      6B2C206D 
 2286      65737361 
 2286      67657320 
 2287 02c7 00       		.section	.rodata.testbmk9,"a",%progbits
 2288              		.align	2
 2289              		.type	testbmk9, %object
 2290              		.size	testbmk9, 16
 2291              	testbmk9:
 2292 0000 AC010000 		.word	.LC118
 2293 0004 00000000 		.word	0
 2294 0008 00000000 		.word	0
 2295 000c 00000000 		.word	bmk9_execute
 2296              		.section	.bss.sem1,"aw",%nobits
 2297              		.align	2
 2298              		.set	.LANCHOR1,. + 0
 2299              		.type	sem1, %object
 2300              		.size	sem1, 12
 2301              	sem1:
 2302 0000 00000000 		.space	12
 2302      00000000 
 2302      00000000 
 2303              		.section	.rodata.testbmk1,"a",%progbits
 2304              		.align	2
 2305              		.type	testbmk1, %object
 2306              		.size	testbmk1, 16
 2307              	testbmk1:
 2308 0000 B0020000 		.word	.LC126
 2309 0004 00000000 		.word	0
 2310 0008 00000000 		.word	0
 2311 000c 00000000 		.word	bmk1_execute
ARM GAS  C:\Users\3130\AppData\Local\Temp\ccgiXayf.s 			page 44


 2312              		.section	.rodata.testbmk11,"a",%progbits
 2313              		.align	2
 2314              		.type	testbmk11, %object
 2315              		.size	testbmk11, 16
 2316              	testbmk11:
 2317 0000 64010000 		.word	.LC116
 2318 0004 00000000 		.word	bmk11_setup
 2319 0008 00000000 		.word	0
 2320 000c 00000000 		.word	bmk11_execute
 2321              		.section	.bss.vt1.4926,"aw",%nobits
 2322              		.align	2
 2323              		.set	.LANCHOR2,. + 0
 2324              		.type	vt1.4926, %object
 2325              		.size	vt1.4926, 20
 2326              	vt1.4926:
 2327 0000 00000000 		.space	20
 2327      00000000 
 2327      00000000 
 2327      00000000 
 2327      00000000 
 2328              		.section	.rodata.testbmk13,"a",%progbits
 2329              		.align	2
 2330              		.type	testbmk13, %object
 2331              		.size	testbmk13, 16
 2332              	testbmk13:
 2333 0000 28010000 		.word	.LC114
 2334 0004 00000000 		.word	0
 2335 0008 00000000 		.word	0
 2336 000c 00000000 		.word	bmk13_execute
 2337              		.section	.rodata.testbmk5,"a",%progbits
 2338              		.align	2
 2339              		.type	testbmk5, %object
 2340              		.size	testbmk5, 16
 2341              	testbmk5:
 2342 0000 44020000 		.word	.LC122
 2343 0004 00000000 		.word	0
 2344 0008 00000000 		.word	0
 2345 000c 00000000 		.word	bmk5_execute
 2346              		.section	.rodata.testbmk6,"a",%progbits
 2347              		.align	2
 2348              		.type	testbmk6, %object
 2349              		.size	testbmk6, 16
 2350              	testbmk6:
 2351 0000 24020000 		.word	.LC121
 2352 0004 00000000 		.word	0
 2353 0008 00000000 		.word	0
 2354 000c 00000000 		.word	bmk6_execute
 2355              		.section	.rodata.testbmk7,"a",%progbits
 2356              		.align	2
 2357              		.type	testbmk7, %object
 2358              		.size	testbmk7, 16
 2359              	testbmk7:
 2360 0000 FC010000 		.word	.LC120
 2361 0004 00000000 		.word	bmk7_setup
 2362 0008 00000000 		.word	0
 2363 000c 00000000 		.word	bmk7_execute
 2364              		.text
ARM GAS  C:\Users\3130\AppData\Local\Temp\ccgiXayf.s 			page 45


 2365              	.Letext0:
 2366              		.file 2 "c:\\stm32f0-discovery_tools\\gcc-arm-none-eabi\\bin\\../lib/gcc/arm-none-eabi/4.7.4/inclu
 2367              		.file 3 "c:\\stm32f0-discovery_tools\\gcc-arm-none-eabi\\bin\\../lib/gcc/arm-none-eabi/4.7.4/../..
 2368              		.file 4 "../../ChibiOS_2.6.1/os/ports/GCC/ARMCMx/chtypes.h"
 2369              		.file 5 "../../ChibiOS_2.6.1/os/kernel/include/chlists.h"
 2370              		.file 6 "../../ChibiOS_2.6.1/os/kernel/include/chthreads.h"
 2371              		.file 7 "../../ChibiOS_2.6.1/os/ports/GCC/ARMCMx/chcore_v6m.h"
 2372              		.file 8 "../../ChibiOS_2.6.1/os/kernel/include/chvt.h"
 2373              		.file 9 "../../ChibiOS_2.6.1/os/kernel/include/chschd.h"
 2374              		.file 10 "../../ChibiOS_2.6.1/os/kernel/include/chsem.h"
 2375              		.file 11 "../../ChibiOS_2.6.1/os/kernel/include/chmtx.h"
 2376              		.file 12 "../../ChibiOS_2.6.1/os/kernel/include/chqueues.h"
 2377              		.file 13 "../../ChibiOS_2.6.1/test/test.h"
 2378              		.file 14 "../../ChibiOS_2.6.1/os/kernel/include/chmsg.h"