ARM GAS  C:\Users\3130\AppData\Local\Temp\ccaFL17a.s 			page 1


   1              		.cpu cortex-m0
   2              		.fpu softvfp
   3              		.eabi_attribute 20, 1
   4              		.eabi_attribute 21, 1
   5              		.eabi_attribute 23, 3
   6              		.eabi_attribute 24, 1
   7              		.eabi_attribute 25, 1
   8              		.eabi_attribute 26, 1
   9              		.eabi_attribute 30, 2
  10              		.eabi_attribute 34, 0
  11              		.eabi_attribute 18, 4
  12              		.code	16
  13              		.file	"testqueues.c"
  14              		.text
  15              	.Ltext0:
  16              		.cfi_sections	.debug_frame
  17              		.section	.text.notify,"ax",%progbits
  18              		.align	2
  19              		.p2align 4,,15
  20              		.code	16
  21              		.thumb_func
  22              		.type	notify, %function
  23              	notify:
  24              	.LFB7:
  25              		.file 1 "../../ChibiOS_2.6.1/test/testqueues.c"
  26              		.loc 1 57 0
  27              		.cfi_startproc
  28              	.LVL0:
  29              		.loc 1 59 0
  30              		@ sp needed for prologue
  31 0000 7047     		bx	lr
  32              		.cfi_endproc
  33              	.LFE7:
  34              		.size	notify, .-notify
  35 0002 C046C046 		.section	.text.thread2,"ax",%progbits
  35      C046C046 
  35      C046C046 
  35      C046
  36              		.align	2
  37              		.p2align 4,,15
  38              		.code	16
  39              		.thumb_func
  40              		.type	thread2, %function
  41              	thread2:
  42              	.LFB12:
  43              		.loc 1 170 0
  44              		.cfi_startproc
  45              	.LVL1:
  46 0000 08B5     		push	{r3, lr}
  47              	.LCFI0:
  48              		.cfi_def_cfa_offset 8
  49              		.cfi_offset 3, -8
  50              		.cfi_offset 14, -4
  51              		.loc 1 173 0
  52 0002 0348     		ldr	r0, .L3
  53              	.LVL2:
  54 0004 0021     		mov	r1, #0
ARM GAS  C:\Users\3130\AppData\Local\Temp\ccaFL17a.s 			page 2


  55 0006 C822     		mov	r2, #200
  56 0008 FFF7FEFF 		bl	chOQPutTimeout
  57              	.LVL3:
  58              		.loc 1 175 0
  59              		@ sp needed for prologue
  60 000c 0020     		mov	r0, #0
  61 000e 08BD     		pop	{r3, pc}
  62              	.L4:
  63              		.align	2
  64              	.L3:
  65 0010 00000000 		.word	.LANCHOR0
  66              		.cfi_endproc
  67              	.LFE12:
  68              		.size	thread2, .-thread2
  69 0014 C046C046 		.section	.text.queues2_setup,"ax",%progbits
  69      C046C046 
  69      C046C046 
  70              		.align	2
  71              		.p2align 4,,15
  72              		.code	16
  73              		.thumb_func
  74              		.type	queues2_setup, %function
  75              	queues2_setup:
  76              	.LFB11:
  77              		.loc 1 165 0
  78              		.cfi_startproc
  79 0000 00B5     		push	{lr}
  80              	.LCFI1:
  81              		.cfi_def_cfa_offset 4
  82              		.cfi_offset 14, -4
  83              		.loc 1 167 0
  84 0002 064B     		ldr	r3, .L6
  85              		.loc 1 165 0
  86 0004 83B0     		sub	sp, sp, #12
  87              	.LCFI2:
  88              		.cfi_def_cfa_offset 16
  89              		.loc 1 167 0
  90 0006 0020     		mov	r0, #0
  91 0008 1968     		ldr	r1, [r3]
  92 000a 0090     		str	r0, [sp]
  93 000c 0422     		mov	r2, #4
  94 000e 0448     		ldr	r0, .L6+4
  95 0010 044B     		ldr	r3, .L6+8
  96 0012 FFF7FEFF 		bl	chOQInit
  97              	.LVL4:
  98              		.loc 1 168 0
  99 0016 03B0     		add	sp, sp, #12
 100              		@ sp needed for prologue
 101 0018 00BD     		pop	{pc}
 102              	.L7:
 103 001a C046     		.align	2
 104              	.L6:
 105 001c 00000000 		.word	wa
 106 0020 00000000 		.word	.LANCHOR0
 107 0024 00000000 		.word	notify
 108              		.cfi_endproc
 109              	.LFE11:
ARM GAS  C:\Users\3130\AppData\Local\Temp\ccaFL17a.s 			page 3


 110              		.size	queues2_setup, .-queues2_setup
 111 0028 C046C046 		.section	.text.thread1,"ax",%progbits
 111      C046C046 
 112              		.align	2
 113              		.p2align 4,,15
 114              		.code	16
 115              		.thumb_func
 116              		.type	thread1, %function
 117              	thread1:
 118              	.LFB9:
 119              		.loc 1 83 0
 120              		.cfi_startproc
 121              	.LVL5:
 122 0000 08B5     		push	{r3, lr}
 123              	.LCFI3:
 124              		.cfi_def_cfa_offset 8
 125              		.cfi_offset 3, -8
 126              		.cfi_offset 14, -4
 127              		.loc 1 86 0
 128 0002 0348     		ldr	r0, .L9
 129              	.LVL6:
 130 0004 C821     		mov	r1, #200
 131 0006 FFF7FEFF 		bl	chIQGetTimeout
 132              	.LVL7:
 133              		.loc 1 88 0
 134              		@ sp needed for prologue
 135 000a 0020     		mov	r0, #0
 136 000c 08BD     		pop	{r3, pc}
 137              	.L10:
 138 000e C046     		.align	2
 139              	.L9:
 140 0010 00000000 		.word	.LANCHOR1
 141              		.cfi_endproc
 142              	.LFE9:
 143              		.size	thread1, .-thread1
 144 0014 C046C046 		.section	.text.queues1_setup,"ax",%progbits
 144      C046C046 
 144      C046C046 
 145              		.align	2
 146              		.p2align 4,,15
 147              		.code	16
 148              		.thumb_func
 149              		.type	queues1_setup, %function
 150              	queues1_setup:
 151              	.LFB8:
 152              		.loc 1 78 0
 153              		.cfi_startproc
 154 0000 00B5     		push	{lr}
 155              	.LCFI4:
 156              		.cfi_def_cfa_offset 4
 157              		.cfi_offset 14, -4
 158              		.loc 1 80 0
 159 0002 064B     		ldr	r3, .L12
 160              		.loc 1 78 0
 161 0004 83B0     		sub	sp, sp, #12
 162              	.LCFI5:
 163              		.cfi_def_cfa_offset 16
ARM GAS  C:\Users\3130\AppData\Local\Temp\ccaFL17a.s 			page 4


 164              		.loc 1 80 0
 165 0006 0020     		mov	r0, #0
 166 0008 1968     		ldr	r1, [r3]
 167 000a 0090     		str	r0, [sp]
 168 000c 0422     		mov	r2, #4
 169 000e 0448     		ldr	r0, .L12+4
 170 0010 044B     		ldr	r3, .L12+8
 171 0012 FFF7FEFF 		bl	chIQInit
 172              	.LVL8:
 173              		.loc 1 81 0
 174 0016 03B0     		add	sp, sp, #12
 175              		@ sp needed for prologue
 176 0018 00BD     		pop	{pc}
 177              	.L13:
 178 001a C046     		.align	2
 179              	.L12:
 180 001c 00000000 		.word	wa
 181 0020 00000000 		.word	.LANCHOR1
 182 0024 00000000 		.word	notify
 183              		.cfi_endproc
 184              	.LFE8:
 185              		.size	queues1_setup, .-queues1_setup
 186 0028 C046C046 		.section	.text.queues2_execute,"ax",%progbits
 186      C046C046 
 187              		.align	2
 188              		.p2align 4,,15
 189              		.code	16
 190              		.thumb_func
 191              		.type	queues2_execute, %function
 192              	queues2_execute:
 193              	.LFB13:
 194              		.loc 1 177 0
 195              		.cfi_startproc
 196 0000 30B5     		push	{r4, r5, lr}
 197              	.LCFI6:
 198              		.cfi_def_cfa_offset 12
 199              		.cfi_offset 4, -12
 200              		.cfi_offset 5, -8
 201              		.cfi_offset 14, -4
 202 0002 85B0     		sub	sp, sp, #20
 203              	.LCFI7:
 204              		.cfi_def_cfa_offset 32
 205              		.loc 1 182 0
 206              	@ 182 "../../ChibiOS_2.6.1/test/testqueues.c" 1
 207 0004 72B6     		cpsid   i
 208              	@ 0 "" 2
 209              		.code	16
 210 0006 7D4C     		ldr	r4, .L33
 211 0008 0021     		mov	r1, #0
 212 000a 6269     		ldr	r2, [r4, #20]
 213 000c A369     		ldr	r3, [r4, #24]
 214 000e 9A42     		cmp	r2, r3
 215 0010 00D1     		bne	.LCB159
 216 0012 EBE0     		b	.L31	@long jump
 217              	.LCB159:
 218              	.L15:
 219              		.loc 1 182 0 is_stmt 0 discriminator 4
ARM GAS  C:\Users\3130\AppData\Local\Temp\ccaFL17a.s 			page 5


 220 0014 0120     		mov	r0, #1
 221 0016 FFF7FEFF 		bl	_test_assert
 222              	.LVL9:
 223              	@ 182 "../../ChibiOS_2.6.1/test/testqueues.c" 1
 224 001a 62B6     		cpsie   i
 225              	@ 0 "" 2
 226              		.code	16
 227 001c 0028     		cmp	r0, #0
 228 001e 4ED1     		bne	.L14
 229              	.LVL10:
 230              		.loc 1 186 0 is_stmt 1 discriminator 6
 231 0020 0125     		mov	r5, #1
 232 0022 6A42     		neg	r2, r5
 233 0024 201C     		mov	r0, r4
 234 0026 4121     		mov	r1, #65
 235 0028 FFF7FEFF 		bl	chOQPutTimeout
 236              	.LVL11:
 237 002c 0122     		mov	r2, #1
 238 002e 201C     		mov	r0, r4
 239 0030 4221     		mov	r1, #66
 240 0032 5242     		neg	r2, r2
 241 0034 FFF7FEFF 		bl	chOQPutTimeout
 242              	.LVL12:
 243 0038 0123     		mov	r3, #1
 244 003a 5A42     		neg	r2, r3
 245 003c 201C     		mov	r0, r4
 246 003e 4321     		mov	r1, #67
 247 0040 0125     		mov	r5, #1
 248 0042 FFF7FEFF 		bl	chOQPutTimeout
 249              	.LVL13:
 250 0046 201C     		mov	r0, r4
 251 0048 4421     		mov	r1, #68
 252 004a 6A42     		neg	r2, r5
 253 004c FFF7FEFF 		bl	chOQPutTimeout
 254              	.LVL14:
 255              		.loc 1 187 0 discriminator 6
 256              	@ 187 "../../ChibiOS_2.6.1/test/testqueues.c" 1
 257 0050 72B6     		cpsid   i
 258              	@ 0 "" 2
 259              		.code	16
 260 0052 A068     		ldr	r0, [r4, #8]
 261 0054 4142     		neg	r1, r0
 262 0056 4141     		adc	r1, r1, r0
 263 0058 0220     		mov	r0, #2
 264 005a FFF7FEFF 		bl	_test_assert
 265              	.LVL15:
 266              	@ 187 "../../ChibiOS_2.6.1/test/testqueues.c" 1
 267 005e 62B6     		cpsie   i
 268              	@ 0 "" 2
 269              		.code	16
 270 0060 0028     		cmp	r0, #0
 271 0062 2CD1     		bne	.L14
 272              	.LVL16:
 273              	.LBB6:
 274              	.LBB7:
 275              	.LBB8:
 276              		.loc 1 193 0
ARM GAS  C:\Users\3130\AppData\Local\Temp\ccaFL17a.s 			page 6


 277              	@ 193 "../../ChibiOS_2.6.1/test/testqueues.c" 1
 278 0064 72B6     		cpsid   i
 279              	@ 0 "" 2
 280              		.loc 1 194 0
 281              		.code	16
 282 0066 201C     		mov	r0, r4
 283 0068 FFF7FEFF 		bl	chOQGetI
 284              	.LVL17:
 285              		.loc 1 195 0
 286              	@ 195 "../../ChibiOS_2.6.1/test/testqueues.c" 1
 287 006c 62B6     		cpsie   i
 288              	@ 0 "" 2
 289              		.loc 1 196 0
 290              		.code	16
 291 006e C0B2     		uxtb	r0, r0
 292              	.LVL18:
 293 0070 FFF7FEFF 		bl	test_emit_token
 294              	.LVL19:
 295              		.loc 1 193 0
 296              	@ 193 "../../ChibiOS_2.6.1/test/testqueues.c" 1
 297 0074 72B6     		cpsid   i
 298              	@ 0 "" 2
 299              		.loc 1 194 0
 300              		.code	16
 301 0076 201C     		mov	r0, r4
 302 0078 FFF7FEFF 		bl	chOQGetI
 303              	.LVL20:
 304              		.loc 1 195 0
 305              	@ 195 "../../ChibiOS_2.6.1/test/testqueues.c" 1
 306 007c 62B6     		cpsie   i
 307              	@ 0 "" 2
 308              		.loc 1 196 0
 309              		.code	16
 310 007e C0B2     		uxtb	r0, r0
 311              	.LVL21:
 312 0080 FFF7FEFF 		bl	test_emit_token
 313              	.LVL22:
 314              		.loc 1 193 0
 315              	@ 193 "../../ChibiOS_2.6.1/test/testqueues.c" 1
 316 0084 72B6     		cpsid   i
 317              	@ 0 "" 2
 318              		.loc 1 194 0
 319              		.code	16
 320 0086 201C     		mov	r0, r4
 321 0088 FFF7FEFF 		bl	chOQGetI
 322              	.LVL23:
 323              		.loc 1 195 0
 324              	@ 195 "../../ChibiOS_2.6.1/test/testqueues.c" 1
 325 008c 62B6     		cpsie   i
 326              	@ 0 "" 2
 327              		.loc 1 196 0
 328              		.code	16
 329 008e C0B2     		uxtb	r0, r0
 330              	.LVL24:
 331 0090 FFF7FEFF 		bl	test_emit_token
 332              	.LVL25:
 333              		.loc 1 193 0
ARM GAS  C:\Users\3130\AppData\Local\Temp\ccaFL17a.s 			page 7


 334              	@ 193 "../../ChibiOS_2.6.1/test/testqueues.c" 1
 335 0094 72B6     		cpsid   i
 336              	@ 0 "" 2
 337              		.loc 1 194 0
 338              		.code	16
 339 0096 201C     		mov	r0, r4
 340 0098 FFF7FEFF 		bl	chOQGetI
 341              	.LVL26:
 342              		.loc 1 195 0
 343              	@ 195 "../../ChibiOS_2.6.1/test/testqueues.c" 1
 344 009c 62B6     		cpsie   i
 345              	@ 0 "" 2
 346              		.loc 1 196 0
 347              		.code	16
 348 009e C0B2     		uxtb	r0, r0
 349              	.LVL27:
 350 00a0 FFF7FEFF 		bl	test_emit_token
 351              	.LVL28:
 352              	.LBE8:
 353              		.loc 1 198 0
 354              	@ 198 "../../ChibiOS_2.6.1/test/testqueues.c" 1
 355 00a4 72B6     		cpsid   i
 356              	@ 0 "" 2
 357              		.code	16
 358 00a6 6369     		ldr	r3, [r4, #20]
 359 00a8 A269     		ldr	r2, [r4, #24]
 360 00aa 0021     		mov	r1, #0
 361 00ac 9342     		cmp	r3, r2
 362 00ae 00D1     		bne	.LCB264
 363 00b0 A0E0     		b	.L32	@long jump
 364              	.LCB264:
 365              	.L19:
 366 00b2 0320     		mov	r0, #3
 367 00b4 FFF7FEFF 		bl	_test_assert
 368              	.LVL29:
 369              	@ 198 "../../ChibiOS_2.6.1/test/testqueues.c" 1
 370 00b8 62B6     		cpsie   i
 371              	@ 0 "" 2
 372              		.code	16
 373 00ba 0028     		cmp	r0, #0
 374 00bc 01D0     		beq	.L20
 375              	.LVL30:
 376              	.L14:
 377              	.LBE7:
 378              	.LBE6:
 379              		.loc 1 225 0
 380 00be 05B0     		add	sp, sp, #20
 381              		@ sp needed for prologue
 382 00c0 30BD     		pop	{r4, r5, pc}
 383              	.LVL31:
 384              	.L20:
 385              	.LBB11:
 386              	.LBB9:
 387              		.loc 1 199 0
 388 00c2 0420     		mov	r0, #4
 389 00c4 4E49     		ldr	r1, .L33+4
 390 00c6 FFF7FEFF 		bl	_test_assert_sequence
ARM GAS  C:\Users\3130\AppData\Local\Temp\ccaFL17a.s 			page 8


 391              	.LVL32:
 392 00ca 0028     		cmp	r0, #0
 393 00cc F7D1     		bne	.L14
 394              		.loc 1 200 0
 395              	@ 200 "../../ChibiOS_2.6.1/test/testqueues.c" 1
 396 00ce 72B6     		cpsid   i
 397              	@ 0 "" 2
 398              		.code	16
 399 00d0 201C     		mov	r0, r4
 400 00d2 FFF7FEFF 		bl	chOQGetI
 401              	.LVL33:
 402 00d6 C11C     		add	r1, r0, #3
 403 00d8 4B42     		neg	r3, r1
 404 00da 5941     		adc	r1, r1, r3
 405 00dc 0520     		mov	r0, #5
 406 00de FFF7FEFF 		bl	_test_assert
 407              	.LVL34:
 408              	@ 200 "../../ChibiOS_2.6.1/test/testqueues.c" 1
 409 00e2 62B6     		cpsie   i
 410              	@ 0 "" 2
 411              		.code	16
 412 00e4 0028     		cmp	r0, #0
 413 00e6 EAD1     		bne	.L14
 414              		.loc 1 203 0
 415 00e8 464D     		ldr	r5, .L33+8
 416 00ea 0023     		mov	r3, #0
 417 00ec 6968     		ldr	r1, [r5, #4]
 418 00ee 201C     		mov	r0, r4
 419 00f0 0822     		mov	r2, #8
 420 00f2 0291     		str	r1, [sp, #8]
 421 00f4 FFF7FEFF 		bl	chOQWriteTimeout
 422              	.LVL35:
 423              		.loc 1 204 0
 424 00f8 011F     		sub	r1, r0, #4
 425 00fa 4B42     		neg	r3, r1
 426 00fc 5941     		adc	r1, r1, r3
 427 00fe 0620     		mov	r0, #6
 428              	.LVL36:
 429 0100 FFF7FEFF 		bl	_test_assert
 430              	.LVL37:
 431 0104 0028     		cmp	r0, #0
 432 0106 DAD1     		bne	.L14
 433              		.loc 1 205 0
 434              	@ 205 "../../ChibiOS_2.6.1/test/testqueues.c" 1
 435 0108 72B6     		cpsid   i
 436              	@ 0 "" 2
 437              		.code	16
 438 010a A068     		ldr	r0, [r4, #8]
 439 010c 4142     		neg	r1, r0
 440 010e 4141     		adc	r1, r1, r0
 441 0110 0720     		mov	r0, #7
 442 0112 FFF7FEFF 		bl	_test_assert
 443              	.LVL38:
 444              	@ 205 "../../ChibiOS_2.6.1/test/testqueues.c" 1
 445 0116 62B6     		cpsie   i
 446              	@ 0 "" 2
 447              		.code	16
ARM GAS  C:\Users\3130\AppData\Local\Temp\ccaFL17a.s 			page 9


 448 0118 0028     		cmp	r0, #0
 449 011a D0D1     		bne	.L14
 450              		.loc 1 206 0
 451 011c 3A4B     		ldr	r3, .L33+12
 452 011e 2D68     		ldr	r5, [r5]
 453 0120 9A69     		ldr	r2, [r3, #24]
 454 0122 9821     		mov	r1, #152
 455 0124 9268     		ldr	r2, [r2, #8]
 456 0126 4900     		lsl	r1, r1, #1
 457 0128 0090     		str	r0, [sp]
 458 012a 0132     		add	r2, r2, #1
 459 012c 281C     		mov	r0, r5
 460 012e 374B     		ldr	r3, .L33+16
 461 0130 0395     		str	r5, [sp, #12]
 462 0132 FFF7FEFF 		bl	chThdCreateStatic
 463              	.LVL39:
 464 0136 364D     		ldr	r5, .L33+20
 465 0138 2860     		str	r0, [r5]
 466              		.loc 1 207 0
 467              	@ 207 "../../ChibiOS_2.6.1/test/testqueues.c" 1
 468 013a 72B6     		cpsid   i
 469              	@ 0 "" 2
 470              		.code	16
 471 013c 2069     		ldr	r0, [r4, #16]
 472 013e E368     		ldr	r3, [r4, #12]
 473 0140 A168     		ldr	r1, [r4, #8]
 474 0142 C21A     		sub	r2, r0, r3
 475 0144 511A     		sub	r1, r2, r1
 476 0146 0439     		sub	r1, r1, #4
 477 0148 4B42     		neg	r3, r1
 478 014a 5941     		adc	r1, r1, r3
 479 014c 0820     		mov	r0, #8
 480 014e FFF7FEFF 		bl	_test_assert
 481              	.LVL40:
 482              	@ 207 "../../ChibiOS_2.6.1/test/testqueues.c" 1
 483 0152 62B6     		cpsie   i
 484              	@ 0 "" 2
 485              		.code	16
 486 0154 0028     		cmp	r0, #0
 487 0156 B2D1     		bne	.L14
 488              		.loc 1 208 0
 489 0158 FFF7FEFF 		bl	test_wait_threads
 490              	.LVL41:
 491              		.loc 1 211 0
 492              	@ 211 "../../ChibiOS_2.6.1/test/testqueues.c" 1
 493 015c 72B6     		cpsid   i
 494              	@ 0 "" 2
 495              		.loc 1 212 0
 496              		.code	16
 497 015e 201C     		mov	r0, r4
 498 0160 FFF7FEFF 		bl	chOQResetI
 499              	.LVL42:
 500              		.loc 1 213 0
 501              	@ 213 "../../ChibiOS_2.6.1/test/testqueues.c" 1
 502 0164 62B6     		cpsie   i
 503              	@ 0 "" 2
 504              		.loc 1 214 0
ARM GAS  C:\Users\3130\AppData\Local\Temp\ccaFL17a.s 			page 10


 505              	@ 214 "../../ChibiOS_2.6.1/test/testqueues.c" 1
 506 0166 72B6     		cpsid   i
 507              	@ 0 "" 2
 508              		.code	16
 509 0168 E068     		ldr	r0, [r4, #12]
 510 016a 2569     		ldr	r5, [r4, #16]
 511 016c A268     		ldr	r2, [r4, #8]
 512 016e 2B1A     		sub	r3, r5, r0
 513 0170 991A     		sub	r1, r3, r2
 514 0172 4B42     		neg	r3, r1
 515 0174 5941     		adc	r1, r1, r3
 516 0176 0920     		mov	r0, #9
 517 0178 FFF7FEFF 		bl	_test_assert
 518              	.LVL43:
 519              	@ 214 "../../ChibiOS_2.6.1/test/testqueues.c" 1
 520 017c 62B6     		cpsie   i
 521              	@ 0 "" 2
 522              		.code	16
 523 017e 0028     		cmp	r0, #0
 524 0180 00D0     		beq	.LCB402
 525 0182 9CE7     		b	.L14	@long jump
 526              	.LCB402:
 527              		.loc 1 217 0
 528 0184 0023     		mov	r3, #0
 529 0186 0299     		ldr	r1, [sp, #8]
 530 0188 0222     		mov	r2, #2
 531 018a 201C     		mov	r0, r4
 532 018c FFF7FEFF 		bl	chOQWriteTimeout
 533              	.LVL44:
 534              		.loc 1 218 0
 535 0190 811E     		sub	r1, r0, #2
 536 0192 4B42     		neg	r3, r1
 537 0194 5941     		adc	r1, r1, r3
 538 0196 0A20     		mov	r0, #10
 539              	.LVL45:
 540 0198 FFF7FEFF 		bl	_test_assert
 541              	.LVL46:
 542 019c 031E     		sub	r3, r0, #0
 543 019e 00D0     		beq	.LCB420
 544 01a0 8DE7     		b	.L14	@long jump
 545              	.LCB420:
 546              		.loc 1 219 0
 547 01a2 0299     		ldr	r1, [sp, #8]
 548 01a4 201C     		mov	r0, r4
 549 01a6 0222     		mov	r2, #2
 550 01a8 FFF7FEFF 		bl	chOQWriteTimeout
 551              	.LVL47:
 552              		.loc 1 220 0
 553 01ac 811E     		sub	r1, r0, #2
 554 01ae 4B42     		neg	r3, r1
 555 01b0 5941     		adc	r1, r1, r3
 556 01b2 0B20     		mov	r0, #11
 557              	.LVL48:
 558 01b4 FFF7FEFF 		bl	_test_assert
 559              	.LVL49:
 560 01b8 0028     		cmp	r0, #0
 561 01ba 00D0     		beq	.LCB436
ARM GAS  C:\Users\3130\AppData\Local\Temp\ccaFL17a.s 			page 11


 562 01bc 7FE7     		b	.L14	@long jump
 563              	.LCB436:
 564              		.loc 1 221 0
 565              	@ 221 "../../ChibiOS_2.6.1/test/testqueues.c" 1
 566 01be 72B6     		cpsid   i
 567              	@ 0 "" 2
 568              		.code	16
 569 01c0 A568     		ldr	r5, [r4, #8]
 570 01c2 0C20     		mov	r0, #12
 571 01c4 6942     		neg	r1, r5
 572 01c6 6941     		adc	r1, r1, r5
 573 01c8 FFF7FEFF 		bl	_test_assert
 574              	.LVL50:
 575              	@ 221 "../../ChibiOS_2.6.1/test/testqueues.c" 1
 576 01cc 62B6     		cpsie   i
 577              	@ 0 "" 2
 578              		.code	16
 579 01ce 0028     		cmp	r0, #0
 580 01d0 00D0     		beq	.LCB448
 581 01d2 74E7     		b	.L14	@long jump
 582              	.LCB448:
 583              		.loc 1 224 0
 584 01d4 201C     		mov	r0, r4
 585 01d6 0021     		mov	r1, #0
 586 01d8 0A22     		mov	r2, #10
 587 01da FFF7FEFF 		bl	chOQPutTimeout
 588              	.LVL51:
 589 01de 411C     		add	r1, r0, #1
 590 01e0 4B42     		neg	r3, r1
 591 01e2 5941     		adc	r1, r1, r3
 592 01e4 0D20     		mov	r0, #13
 593 01e6 FFF7FEFF 		bl	_test_assert
 594              	.LVL52:
 595 01ea 68E7     		b	.L14
 596              	.LVL53:
 597              	.L31:
 598              	.LBE9:
 599              	.LBE11:
 600              		.loc 1 182 0 discriminator 1
 601 01ec A168     		ldr	r1, [r4, #8]
 602 01ee 4B1E     		sub	r3, r1, #1
 603 01f0 9941     		sbc	r1, r1, r3
 604 01f2 0FE7     		b	.L15
 605              	.LVL54:
 606              	.L32:
 607              	.LBB12:
 608              	.LBB10:
 609              		.loc 1 198 0
 610 01f4 A168     		ldr	r1, [r4, #8]
 611 01f6 4B1E     		sub	r3, r1, #1
 612 01f8 9941     		sbc	r1, r1, r3
 613 01fa 5AE7     		b	.L19
 614              	.L34:
 615              		.align	2
 616              	.L33:
 617 01fc 00000000 		.word	.LANCHOR0
 618 0200 00000000 		.word	.LC9
ARM GAS  C:\Users\3130\AppData\Local\Temp\ccaFL17a.s 			page 12


 619 0204 00000000 		.word	wa
 620 0208 00000000 		.word	rlist
 621 020c 00000000 		.word	thread2
 622 0210 00000000 		.word	threads
 623              	.LBE10:
 624              	.LBE12:
 625              		.cfi_endproc
 626              	.LFE13:
 627              		.size	queues2_execute, .-queues2_execute
 628 0214 C046C046 		.section	.text.queues1_execute,"ax",%progbits
 628      C046C046 
 628      C046C046 
 629              		.align	2
 630              		.p2align 4,,15
 631              		.code	16
 632              		.thumb_func
 633              		.type	queues1_execute, %function
 634              	queues1_execute:
 635              	.LFB10:
 636              		.loc 1 90 0
 637              		.cfi_startproc
 638 0000 30B5     		push	{r4, r5, lr}
 639              	.LCFI8:
 640              		.cfi_def_cfa_offset 12
 641              		.cfi_offset 4, -12
 642              		.cfi_offset 5, -8
 643              		.cfi_offset 14, -4
 644 0002 85B0     		sub	sp, sp, #20
 645              	.LCFI9:
 646              		.cfi_def_cfa_offset 32
 647              		.loc 1 95 0
 648              	@ 95 "../../ChibiOS_2.6.1/test/testqueues.c" 1
 649 0004 72B6     		cpsid   i
 650              	@ 0 "" 2
 651              		.code	16
 652 0006 884C     		ldr	r4, .L50
 653 0008 0120     		mov	r0, #1
 654 000a A268     		ldr	r2, [r4, #8]
 655 000c 5142     		neg	r1, r2
 656 000e 5141     		adc	r1, r1, r2
 657 0010 FFF7FEFF 		bl	_test_assert
 658              	.LVL55:
 659              	@ 95 "../../ChibiOS_2.6.1/test/testqueues.c" 1
 660 0014 62B6     		cpsie   i
 661              	@ 0 "" 2
 662              		.code	16
 663 0016 0028     		cmp	r0, #0
 664 0018 1ED1     		bne	.L35
 665              		.loc 1 98 0 discriminator 2
 666              	@ 98 "../../ChibiOS_2.6.1/test/testqueues.c" 1
 667 001a 72B6     		cpsid   i
 668              	@ 0 "" 2
 669              	.LVL56:
 670              		.loc 1 100 0 discriminator 2
 671              		.code	16
 672 001c 4121     		mov	r1, #65
 673 001e 201C     		mov	r0, r4
ARM GAS  C:\Users\3130\AppData\Local\Temp\ccaFL17a.s 			page 13


 674 0020 FFF7FEFF 		bl	chIQPutI
 675              	.LVL57:
 676 0024 201C     		mov	r0, r4
 677 0026 4221     		mov	r1, #66
 678 0028 FFF7FEFF 		bl	chIQPutI
 679              	.LVL58:
 680 002c 201C     		mov	r0, r4
 681 002e 4321     		mov	r1, #67
 682 0030 FFF7FEFF 		bl	chIQPutI
 683              	.LVL59:
 684 0034 201C     		mov	r0, r4
 685 0036 4421     		mov	r1, #68
 686 0038 FFF7FEFF 		bl	chIQPutI
 687              	.LVL60:
 688              		.loc 1 101 0 discriminator 2
 689              	@ 101 "../../ChibiOS_2.6.1/test/testqueues.c" 1
 690 003c 62B6     		cpsie   i
 691              	@ 0 "" 2
 692              		.loc 1 102 0 discriminator 2
 693              	@ 102 "../../ChibiOS_2.6.1/test/testqueues.c" 1
 694 003e 72B6     		cpsid   i
 695              	@ 0 "" 2
 696              		.code	16
 697 0040 6369     		ldr	r3, [r4, #20]
 698 0042 A069     		ldr	r0, [r4, #24]
 699 0044 0021     		mov	r1, #0
 700 0046 8342     		cmp	r3, r0
 701 0048 00D1     		bne	.LCB562
 702 004a E9E0     		b	.L49	@long jump
 703              	.LCB562:
 704              	.L38:
 705              		.loc 1 102 0 is_stmt 0 discriminator 4
 706 004c 0220     		mov	r0, #2
 707 004e FFF7FEFF 		bl	_test_assert
 708              	.LVL61:
 709              	@ 102 "../../ChibiOS_2.6.1/test/testqueues.c" 1
 710 0052 62B6     		cpsie   i
 711              	@ 0 "" 2
 712              		.code	16
 713 0054 0028     		cmp	r0, #0
 714 0056 01D0     		beq	.L39
 715              	.LVL62:
 716              	.L35:
 717              		.loc 1 147 0 is_stmt 1
 718 0058 05B0     		add	sp, sp, #20
 719              		@ sp needed for prologue
 720 005a 30BD     		pop	{r4, r5, pc}
 721              	.LVL63:
 722              	.L39:
 723              	.LBB15:
 724              	.LBB16:
 725              		.loc 1 103 0
 726              	@ 103 "../../ChibiOS_2.6.1/test/testqueues.c" 1
 727 005c 72B6     		cpsid   i
 728              	@ 0 "" 2
 729              		.code	16
 730 005e 0021     		mov	r1, #0
ARM GAS  C:\Users\3130\AppData\Local\Temp\ccaFL17a.s 			page 14


 731 0060 201C     		mov	r0, r4
 732 0062 FFF7FEFF 		bl	chIQPutI
 733              	.LVL64:
 734 0066 011D     		add	r1, r0, #4
 735 0068 4B42     		neg	r3, r1
 736 006a 5941     		adc	r1, r1, r3
 737 006c 0320     		mov	r0, #3
 738 006e FFF7FEFF 		bl	_test_assert
 739              	.LVL65:
 740              	@ 103 "../../ChibiOS_2.6.1/test/testqueues.c" 1
 741 0072 62B6     		cpsie   i
 742              	@ 0 "" 2
 743              		.code	16
 744 0074 0028     		cmp	r0, #0
 745 0076 EFD1     		bne	.L35
 746              	.LVL66:
 747              		.loc 1 107 0
 748 0078 0121     		mov	r1, #1
 749 007a 4942     		neg	r1, r1
 750 007c 201C     		mov	r0, r4
 751 007e FFF7FEFF 		bl	chIQGetTimeout
 752              	.LVL67:
 753 0082 0125     		mov	r5, #1
 754 0084 C0B2     		uxtb	r0, r0
 755 0086 FFF7FEFF 		bl	test_emit_token
 756              	.LVL68:
 757 008a 6942     		neg	r1, r5
 758 008c 201C     		mov	r0, r4
 759 008e FFF7FEFF 		bl	chIQGetTimeout
 760              	.LVL69:
 761 0092 C0B2     		uxtb	r0, r0
 762 0094 FFF7FEFF 		bl	test_emit_token
 763              	.LVL70:
 764 0098 0122     		mov	r2, #1
 765 009a 5142     		neg	r1, r2
 766 009c 201C     		mov	r0, r4
 767 009e FFF7FEFF 		bl	chIQGetTimeout
 768              	.LVL71:
 769 00a2 C0B2     		uxtb	r0, r0
 770 00a4 FFF7FEFF 		bl	test_emit_token
 771              	.LVL72:
 772 00a8 0123     		mov	r3, #1
 773 00aa 5942     		neg	r1, r3
 774 00ac 201C     		mov	r0, r4
 775 00ae FFF7FEFF 		bl	chIQGetTimeout
 776              	.LVL73:
 777 00b2 C0B2     		uxtb	r0, r0
 778 00b4 FFF7FEFF 		bl	test_emit_token
 779              	.LVL74:
 780              		.loc 1 108 0
 781              	@ 108 "../../ChibiOS_2.6.1/test/testqueues.c" 1
 782 00b8 72B6     		cpsid   i
 783              	@ 0 "" 2
 784              		.code	16
 785 00ba A068     		ldr	r0, [r4, #8]
 786 00bc 4142     		neg	r1, r0
 787 00be 4141     		adc	r1, r1, r0
ARM GAS  C:\Users\3130\AppData\Local\Temp\ccaFL17a.s 			page 15


 788 00c0 0420     		mov	r0, #4
 789 00c2 FFF7FEFF 		bl	_test_assert
 790              	.LVL75:
 791              	@ 108 "../../ChibiOS_2.6.1/test/testqueues.c" 1
 792 00c6 62B6     		cpsie   i
 793              	@ 0 "" 2
 794              		.code	16
 795 00c8 0028     		cmp	r0, #0
 796 00ca C5D1     		bne	.L35
 797              		.loc 1 109 0
 798 00cc 0520     		mov	r0, #5
 799 00ce 5749     		ldr	r1, .L50+4
 800 00d0 FFF7FEFF 		bl	_test_assert_sequence
 801              	.LVL76:
 802 00d4 0028     		cmp	r0, #0
 803 00d6 BFD1     		bne	.L35
 804              		.loc 1 112 0
 805              	@ 112 "../../ChibiOS_2.6.1/test/testqueues.c" 1
 806 00d8 72B6     		cpsid   i
 807              	@ 0 "" 2
 808              	.LVL77:
 809              		.loc 1 114 0
 810              		.code	16
 811 00da 4121     		mov	r1, #65
 812 00dc 201C     		mov	r0, r4
 813 00de FFF7FEFF 		bl	chIQPutI
 814              	.LVL78:
 815 00e2 201C     		mov	r0, r4
 816 00e4 4221     		mov	r1, #66
 817 00e6 FFF7FEFF 		bl	chIQPutI
 818              	.LVL79:
 819 00ea 201C     		mov	r0, r4
 820 00ec 4321     		mov	r1, #67
 821 00ee FFF7FEFF 		bl	chIQPutI
 822              	.LVL80:
 823 00f2 201C     		mov	r0, r4
 824 00f4 4421     		mov	r1, #68
 825 00f6 FFF7FEFF 		bl	chIQPutI
 826              	.LVL81:
 827              		.loc 1 115 0
 828              	@ 115 "../../ChibiOS_2.6.1/test/testqueues.c" 1
 829 00fa 62B6     		cpsie   i
 830              	@ 0 "" 2
 831              		.loc 1 118 0
 832              		.code	16
 833 00fc 4C4D     		ldr	r5, .L50+8
 834 00fe 0023     		mov	r3, #0
 835 0100 6968     		ldr	r1, [r5, #4]
 836 0102 201C     		mov	r0, r4
 837 0104 0822     		mov	r2, #8
 838 0106 0391     		str	r1, [sp, #12]
 839 0108 FFF7FEFF 		bl	chIQReadTimeout
 840              	.LVL82:
 841              		.loc 1 119 0
 842 010c 011F     		sub	r1, r0, #4
 843 010e 4B42     		neg	r3, r1
 844 0110 5941     		adc	r1, r1, r3
ARM GAS  C:\Users\3130\AppData\Local\Temp\ccaFL17a.s 			page 16


 845 0112 0620     		mov	r0, #6
 846              	.LVL83:
 847 0114 FFF7FEFF 		bl	_test_assert
 848              	.LVL84:
 849 0118 0028     		cmp	r0, #0
 850 011a 9DD1     		bne	.L35
 851              		.loc 1 120 0
 852              	@ 120 "../../ChibiOS_2.6.1/test/testqueues.c" 1
 853 011c 72B6     		cpsid   i
 854              	@ 0 "" 2
 855              		.code	16
 856 011e A268     		ldr	r2, [r4, #8]
 857 0120 0720     		mov	r0, #7
 858 0122 5142     		neg	r1, r2
 859 0124 5141     		adc	r1, r1, r2
 860 0126 FFF7FEFF 		bl	_test_assert
 861              	.LVL85:
 862              	@ 120 "../../ChibiOS_2.6.1/test/testqueues.c" 1
 863 012a 62B6     		cpsie   i
 864              	@ 0 "" 2
 865              		.code	16
 866 012c 0028     		cmp	r0, #0
 867 012e 00D0     		beq	.LCB708
 868 0130 92E7     		b	.L35	@long jump
 869              	.LCB708:
 870              		.loc 1 123 0
 871              	@ 123 "../../ChibiOS_2.6.1/test/testqueues.c" 1
 872 0132 72B6     		cpsid   i
 873              	@ 0 "" 2
 874              	.LVL86:
 875              		.loc 1 125 0
 876              		.code	16
 877 0134 4121     		mov	r1, #65
 878 0136 201C     		mov	r0, r4
 879 0138 FFF7FEFF 		bl	chIQPutI
 880              	.LVL87:
 881 013c 201C     		mov	r0, r4
 882 013e 4221     		mov	r1, #66
 883 0140 FFF7FEFF 		bl	chIQPutI
 884              	.LVL88:
 885 0144 201C     		mov	r0, r4
 886 0146 4321     		mov	r1, #67
 887 0148 FFF7FEFF 		bl	chIQPutI
 888              	.LVL89:
 889 014c 201C     		mov	r0, r4
 890 014e 4421     		mov	r1, #68
 891 0150 FFF7FEFF 		bl	chIQPutI
 892              	.LVL90:
 893              		.loc 1 126 0
 894              	@ 126 "../../ChibiOS_2.6.1/test/testqueues.c" 1
 895 0154 62B6     		cpsie   i
 896              	@ 0 "" 2
 897              		.loc 1 129 0
 898              		.code	16
 899 0156 0023     		mov	r3, #0
 900 0158 0399     		ldr	r1, [sp, #12]
 901 015a 201C     		mov	r0, r4
ARM GAS  C:\Users\3130\AppData\Local\Temp\ccaFL17a.s 			page 17


 902 015c 0222     		mov	r2, #2
 903 015e FFF7FEFF 		bl	chIQReadTimeout
 904              	.LVL91:
 905              		.loc 1 130 0
 906 0162 811E     		sub	r1, r0, #2
 907 0164 4B42     		neg	r3, r1
 908 0166 5941     		adc	r1, r1, r3
 909 0168 0820     		mov	r0, #8
 910              	.LVL92:
 911 016a FFF7FEFF 		bl	_test_assert
 912              	.LVL93:
 913 016e 0028     		cmp	r0, #0
 914 0170 00D0     		beq	.LCB748
 915 0172 71E7     		b	.L35	@long jump
 916              	.LCB748:
 917              		.loc 1 131 0
 918 0174 0399     		ldr	r1, [sp, #12]
 919 0176 0023     		mov	r3, #0
 920 0178 201C     		mov	r0, r4
 921 017a 0222     		mov	r2, #2
 922 017c FFF7FEFF 		bl	chIQReadTimeout
 923              	.LVL94:
 924              		.loc 1 132 0
 925 0180 811E     		sub	r1, r0, #2
 926 0182 4B42     		neg	r3, r1
 927 0184 5941     		adc	r1, r1, r3
 928 0186 0920     		mov	r0, #9
 929              	.LVL95:
 930 0188 FFF7FEFF 		bl	_test_assert
 931              	.LVL96:
 932 018c 0028     		cmp	r0, #0
 933 018e 00D0     		beq	.LCB765
 934 0190 62E7     		b	.L35	@long jump
 935              	.LCB765:
 936              		.loc 1 133 0
 937              	@ 133 "../../ChibiOS_2.6.1/test/testqueues.c" 1
 938 0192 72B6     		cpsid   i
 939              	@ 0 "" 2
 940              		.code	16
 941 0194 A368     		ldr	r3, [r4, #8]
 942 0196 0A20     		mov	r0, #10
 943 0198 5942     		neg	r1, r3
 944 019a 5941     		adc	r1, r1, r3
 945 019c FFF7FEFF 		bl	_test_assert
 946              	.LVL97:
 947              	@ 133 "../../ChibiOS_2.6.1/test/testqueues.c" 1
 948 01a0 62B6     		cpsie   i
 949              	@ 0 "" 2
 950              		.code	16
 951 01a2 0028     		cmp	r0, #0
 952 01a4 00D0     		beq	.LCB777
 953 01a6 57E7     		b	.L35	@long jump
 954              	.LCB777:
 955              		.loc 1 136 0
 956              	@ 136 "../../ChibiOS_2.6.1/test/testqueues.c" 1
 957 01a8 72B6     		cpsid   i
 958              	@ 0 "" 2
ARM GAS  C:\Users\3130\AppData\Local\Temp\ccaFL17a.s 			page 18


 959              		.loc 1 137 0
 960              		.code	16
 961 01aa 0021     		mov	r1, #0
 962 01ac 201C     		mov	r0, r4
 963 01ae FFF7FEFF 		bl	chIQPutI
 964              	.LVL98:
 965              		.loc 1 138 0
 966 01b2 201C     		mov	r0, r4
 967 01b4 FFF7FEFF 		bl	chIQResetI
 968              	.LVL99:
 969              		.loc 1 139 0
 970              	@ 139 "../../ChibiOS_2.6.1/test/testqueues.c" 1
 971 01b8 62B6     		cpsie   i
 972              	@ 0 "" 2
 973              		.loc 1 140 0
 974              	@ 140 "../../ChibiOS_2.6.1/test/testqueues.c" 1
 975 01ba 72B6     		cpsid   i
 976              	@ 0 "" 2
 977              		.code	16
 978 01bc A068     		ldr	r0, [r4, #8]
 979 01be 4142     		neg	r1, r0
 980 01c0 4141     		adc	r1, r1, r0
 981 01c2 0B20     		mov	r0, #11
 982 01c4 FFF7FEFF 		bl	_test_assert
 983              	.LVL100:
 984              	@ 140 "../../ChibiOS_2.6.1/test/testqueues.c" 1
 985 01c8 62B6     		cpsie   i
 986              	@ 0 "" 2
 987              		.code	16
 988 01ca 0028     		cmp	r0, #0
 989 01cc 00D0     		beq	.LCB798
 990 01ce 43E7     		b	.L35	@long jump
 991              	.LCB798:
 992              		.loc 1 141 0
 993 01d0 1849     		ldr	r1, .L50+12
 994 01d2 2D68     		ldr	r5, [r5]
 995 01d4 8A69     		ldr	r2, [r1, #24]
 996 01d6 0395     		str	r5, [sp, #12]
 997 01d8 9268     		ldr	r2, [r2, #8]
 998 01da 0023     		mov	r3, #0
 999 01dc 281C     		mov	r0, r5
 1000 01de 9825     		mov	r5, #152
 1001 01e0 0093     		str	r3, [sp]
 1002 01e2 6900     		lsl	r1, r5, #1
 1003 01e4 0132     		add	r2, r2, #1
 1004 01e6 144B     		ldr	r3, .L50+16
 1005 01e8 FFF7FEFF 		bl	chThdCreateStatic
 1006              	.LVL101:
 1007 01ec 1349     		ldr	r1, .L50+20
 1008 01ee 0860     		str	r0, [r1]
 1009              		.loc 1 142 0
 1010              	@ 142 "../../ChibiOS_2.6.1/test/testqueues.c" 1
 1011 01f0 72B6     		cpsid   i
 1012              	@ 0 "" 2
 1013              		.code	16
 1014 01f2 A068     		ldr	r0, [r4, #8]
 1015 01f4 4142     		neg	r1, r0
ARM GAS  C:\Users\3130\AppData\Local\Temp\ccaFL17a.s 			page 19


 1016 01f6 4141     		adc	r1, r1, r0
 1017 01f8 0C20     		mov	r0, #12
 1018 01fa FFF7FEFF 		bl	_test_assert
 1019              	.LVL102:
 1020              	@ 142 "../../ChibiOS_2.6.1/test/testqueues.c" 1
 1021 01fe 62B6     		cpsie   i
 1022              	@ 0 "" 2
 1023              		.code	16
 1024 0200 0028     		cmp	r0, #0
 1025 0202 00D0     		beq	.LCB826
 1026 0204 28E7     		b	.L35	@long jump
 1027              	.LCB826:
 1028              		.loc 1 143 0
 1029 0206 FFF7FEFF 		bl	test_wait_threads
 1030              	.LVL103:
 1031              		.loc 1 146 0
 1032 020a 201C     		mov	r0, r4
 1033 020c 0A21     		mov	r1, #10
 1034 020e FFF7FEFF 		bl	chIQGetTimeout
 1035              	.LVL104:
 1036 0212 411C     		add	r1, r0, #1
 1037 0214 4B42     		neg	r3, r1
 1038 0216 5941     		adc	r1, r1, r3
 1039 0218 0D20     		mov	r0, #13
 1040 021a FFF7FEFF 		bl	_test_assert
 1041              	.LVL105:
 1042 021e 1BE7     		b	.L35
 1043              	.LVL106:
 1044              	.L49:
 1045              	.LBE16:
 1046              	.LBE15:
 1047              		.loc 1 102 0 discriminator 1
 1048 0220 A168     		ldr	r1, [r4, #8]
 1049 0222 4B1E     		sub	r3, r1, #1
 1050 0224 9941     		sbc	r1, r1, r3
 1051 0226 11E7     		b	.L38
 1052              	.L51:
 1053              		.align	2
 1054              	.L50:
 1055 0228 00000000 		.word	.LANCHOR1
 1056 022c 00000000 		.word	.LC9
 1057 0230 00000000 		.word	wa
 1058 0234 00000000 		.word	rlist
 1059 0238 00000000 		.word	thread1
 1060 023c 00000000 		.word	threads
 1061              		.cfi_endproc
 1062              	.LFE10:
 1063              		.size	queues1_execute, .-queues1_execute
 1064              		.global	patternqueues
 1065              		.global	testqueues2
 1066              		.global	testqueues1
 1067              		.section	.rodata.testqueues1,"a",%progbits
 1068              		.align	2
 1069              		.type	testqueues1, %object
 1070              		.size	testqueues1, 16
 1071              	testqueues1:
 1072 0000 20000000 		.word	.LC22
ARM GAS  C:\Users\3130\AppData\Local\Temp\ccaFL17a.s 			page 20


 1073 0004 00000000 		.word	queues1_setup
 1074 0008 00000000 		.word	0
 1075 000c 00000000 		.word	queues1_execute
 1076              		.section	.rodata.testqueues2,"a",%progbits
 1077              		.align	2
 1078              		.type	testqueues2, %object
 1079              		.size	testqueues2, 16
 1080              	testqueues2:
 1081 0000 08000000 		.word	.LC21
 1082 0004 00000000 		.word	queues2_setup
 1083 0008 00000000 		.word	0
 1084 000c 00000000 		.word	queues2_execute
 1085              		.section	.rodata.str1.4,"aMS",%progbits,1
 1086              		.align	2
 1087              	.LC9:
 1088 0000 41424344 		.ascii	"ABCD\000"
 1088      00
 1089 0005 000000   		.space	3
 1090              	.LC21:
 1091 0008 51756575 		.ascii	"Queues, output queues\000"
 1091      65732C20 
 1091      6F757470 
 1091      75742071 
 1091      75657565 
 1092 001e 0000     		.space	2
 1093              	.LC22:
 1094 0020 51756575 		.ascii	"Queues, input queues\000"
 1094      65732C20 
 1094      696E7075 
 1094      74207175 
 1094      65756573 
 1095 0035 000000   		.section	.rodata.patternqueues,"a",%progbits
 1096              		.align	2
 1097              		.type	patternqueues, %object
 1098              		.size	patternqueues, 12
 1099              	patternqueues:
 1100 0000 00000000 		.word	testqueues1
 1101 0004 00000000 		.word	testqueues2
 1102 0008 00000000 		.word	0
 1103              		.section	.data.oq,"aw",%progbits
 1104              		.align	2
 1105              		.set	.LANCHOR0,. + 0
 1106              		.type	oq, %object
 1107              		.size	oq, 36
 1108              	oq:
 1109 0000 00000000 		.word	oq
 1110 0004 00000000 		.word	oq
 1111 0008 04000000 		.word	4
 1112 000c 30010000 		.word	test+304
 1113 0010 34010000 		.word	test+308
 1114 0014 30010000 		.word	test+304
 1115 0018 30010000 		.word	test+304
 1116 001c 00000000 		.word	notify
 1117 0020 00000000 		.word	0
 1118              		.section	.data.iq,"aw",%progbits
 1119              		.align	2
 1120              		.set	.LANCHOR1,. + 0
ARM GAS  C:\Users\3130\AppData\Local\Temp\ccaFL17a.s 			page 21


 1121              		.type	iq, %object
 1122              		.size	iq, 36
 1123              	iq:
 1124 0000 00000000 		.word	iq
 1125 0004 00000000 		.word	iq
 1126 0008 00000000 		.word	0
 1127 000c 00000000 		.word	test
 1128 0010 04000000 		.word	test+4
 1129 0014 00000000 		.word	test
 1130 0018 00000000 		.word	test
 1131 001c 00000000 		.word	notify
 1132 0020 00000000 		.word	0
 1133              		.text
 1134              	.Letext0:
 1135              		.file 2 "c:\\stm32f0-discovery_tools\\gcc-arm-none-eabi\\bin\\../lib/gcc/arm-none-eabi/4.7.4/inclu
 1136              		.file 3 "c:\\stm32f0-discovery_tools\\gcc-arm-none-eabi\\bin\\../lib/gcc/arm-none-eabi/4.7.4/../..
 1137              		.file 4 "../../ChibiOS_2.6.1/os/ports/GCC/ARMCMx/chtypes.h"
 1138              		.file 5 "../../ChibiOS_2.6.1/os/kernel/include/chlists.h"
 1139              		.file 6 "../../ChibiOS_2.6.1/os/kernel/include/chthreads.h"
 1140              		.file 7 "../../ChibiOS_2.6.1/os/ports/GCC/ARMCMx/chcore_v6m.h"
 1141              		.file 8 "../../ChibiOS_2.6.1/os/kernel/include/chschd.h"
 1142              		.file 9 "../../ChibiOS_2.6.1/os/kernel/include/chmtx.h"
 1143              		.file 10 "../../ChibiOS_2.6.1/os/kernel/include/chqueues.h"
 1144              		.file 11 "../../ChibiOS_2.6.1/test/test.h"
 1145              		.section	.debug_info,"",%progbits
 1146              	.Ldebug_info0:
 1147 0000 9A110000 		.4byte	0x119a
 1148 0004 0200     		.2byte	0x2
 1149 0006 00000000 		.4byte	.Ldebug_abbrev0
 1150 000a 04       		.byte	0x4
 1151 000b 01       		.uleb128 0x1
 1152 000c 83040000 		.4byte	.LASF112
 1153 0010 01       		.byte	0x1
 1154 0011 85030000 		.4byte	.LASF113
 1155 0015 0E040000 		.4byte	.LASF114
 1156 0019 40000000 		.4byte	.Ldebug_ranges0+0x40
 1157 001d 00000000 		.4byte	0
 1158 0021 00000000 		.4byte	0
 1159 0025 00000000 		.4byte	.Ldebug_line0
 1160 0029 02       		.uleb128 0x2
 1161 002a 04       		.byte	0x4
 1162 002b 05       		.byte	0x5
 1163 002c 696E7400 		.ascii	"int\000"
 1164 0030 03       		.uleb128 0x3
 1165 0031 1D000000 		.4byte	.LASF2
 1166 0035 02       		.byte	0x2
 1167 0036 D5       		.byte	0xd5
 1168 0037 3B000000 		.4byte	0x3b
 1169 003b 04       		.uleb128 0x4
 1170 003c 04       		.byte	0x4
 1171 003d 07       		.byte	0x7
 1172 003e 5E010000 		.4byte	.LASF0
 1173 0042 04       		.uleb128 0x4
 1174 0043 01       		.byte	0x1
 1175 0044 06       		.byte	0x6
 1176 0045 D3000000 		.4byte	.LASF1
 1177 0049 03       		.uleb128 0x3
ARM GAS  C:\Users\3130\AppData\Local\Temp\ccaFL17a.s 			page 22


 1178 004a 7B040000 		.4byte	.LASF3
 1179 004e 03       		.byte	0x3
 1180 004f 2A       		.byte	0x2a
 1181 0050 54000000 		.4byte	0x54
 1182 0054 04       		.uleb128 0x4
 1183 0055 01       		.byte	0x1
 1184 0056 08       		.byte	0x8
 1185 0057 1C030000 		.4byte	.LASF4
 1186 005b 04       		.uleb128 0x4
 1187 005c 02       		.byte	0x2
 1188 005d 05       		.byte	0x5
 1189 005e 34030000 		.4byte	.LASF5
 1190 0062 04       		.uleb128 0x4
 1191 0063 02       		.byte	0x2
 1192 0064 07       		.byte	0x7
 1193 0065 9E010000 		.4byte	.LASF6
 1194 0069 03       		.uleb128 0x3
 1195 006a 14030000 		.4byte	.LASF7
 1196 006e 03       		.byte	0x3
 1197 006f 4F       		.byte	0x4f
 1198 0070 74000000 		.4byte	0x74
 1199 0074 04       		.uleb128 0x4
 1200 0075 04       		.byte	0x4
 1201 0076 05       		.byte	0x5
 1202 0077 10010000 		.4byte	.LASF8
 1203 007b 03       		.uleb128 0x3
 1204 007c B6030000 		.4byte	.LASF9
 1205 0080 03       		.byte	0x3
 1206 0081 50       		.byte	0x50
 1207 0082 86000000 		.4byte	0x86
 1208 0086 04       		.uleb128 0x4
 1209 0087 04       		.byte	0x4
 1210 0088 07       		.byte	0x7
 1211 0089 76010000 		.4byte	.LASF10
 1212 008d 04       		.uleb128 0x4
 1213 008e 08       		.byte	0x8
 1214 008f 05       		.byte	0x5
 1215 0090 C5000000 		.4byte	.LASF11
 1216 0094 03       		.uleb128 0x3
 1217 0095 34000000 		.4byte	.LASF12
 1218 0099 03       		.byte	0x3
 1219 009a 78       		.byte	0x78
 1220 009b 9F000000 		.4byte	0x9f
 1221 009f 04       		.uleb128 0x4
 1222 00a0 08       		.byte	0x8
 1223 00a1 07       		.byte	0x7
 1224 00a2 67000000 		.4byte	.LASF13
 1225 00a6 03       		.uleb128 0x3
 1226 00a7 E7000000 		.4byte	.LASF14
 1227 00ab 04       		.byte	0x4
 1228 00ac 2B       		.byte	0x2b
 1229 00ad B1000000 		.4byte	0xb1
 1230 00b1 04       		.uleb128 0x4
 1231 00b2 01       		.byte	0x1
 1232 00b3 02       		.byte	0x2
 1233 00b4 0E030000 		.4byte	.LASF15
 1234 00b8 03       		.uleb128 0x3
ARM GAS  C:\Users\3130\AppData\Local\Temp\ccaFL17a.s 			page 23


 1235 00b9 D3010000 		.4byte	.LASF16
 1236 00bd 04       		.byte	0x4
 1237 00be 2C       		.byte	0x2c
 1238 00bf 49000000 		.4byte	0x49
 1239 00c3 03       		.uleb128 0x3
 1240 00c4 19010000 		.4byte	.LASF17
 1241 00c8 04       		.byte	0x4
 1242 00c9 2D       		.byte	0x2d
 1243 00ca 49000000 		.4byte	0x49
 1244 00ce 03       		.uleb128 0x3
 1245 00cf DD020000 		.4byte	.LASF18
 1246 00d3 04       		.byte	0x4
 1247 00d4 2E       		.byte	0x2e
 1248 00d5 49000000 		.4byte	0x49
 1249 00d9 03       		.uleb128 0x3
 1250 00da 06010000 		.4byte	.LASF19
 1251 00de 04       		.byte	0x4
 1252 00df 2F       		.byte	0x2f
 1253 00e0 49000000 		.4byte	0x49
 1254 00e4 03       		.uleb128 0x3
 1255 00e5 FE020000 		.4byte	.LASF20
 1256 00e9 04       		.byte	0x4
 1257 00ea 30       		.byte	0x30
 1258 00eb 7B000000 		.4byte	0x7b
 1259 00ef 03       		.uleb128 0x3
 1260 00f0 CD010000 		.4byte	.LASF21
 1261 00f4 04       		.byte	0x4
 1262 00f5 31       		.byte	0x31
 1263 00f6 69000000 		.4byte	0x69
 1264 00fa 03       		.uleb128 0x3
 1265 00fb E7010000 		.4byte	.LASF22
 1266 00ff 04       		.byte	0x4
 1267 0100 33       		.byte	0x33
 1268 0101 7B000000 		.4byte	0x7b
 1269 0105 03       		.uleb128 0x3
 1270 0106 E0030000 		.4byte	.LASF23
 1271 010a 04       		.byte	0x4
 1272 010b 35       		.byte	0x35
 1273 010c 7B000000 		.4byte	0x7b
 1274 0110 03       		.uleb128 0x3
 1275 0111 75030000 		.4byte	.LASF24
 1276 0115 05       		.byte	0x5
 1277 0116 2A       		.byte	0x2a
 1278 0117 1B010000 		.4byte	0x11b
 1279 011b 05       		.uleb128 0x5
 1280 011c 75030000 		.4byte	.LASF24
 1281 0120 48       		.byte	0x48
 1282 0121 06       		.byte	0x6
 1283 0122 5E       		.byte	0x5e
 1284 0123 40020000 		.4byte	0x240
 1285 0127 06       		.uleb128 0x6
 1286 0128 66030000 		.4byte	.LASF25
 1287 012c 06       		.byte	0x6
 1288 012d 5F       		.byte	0x5f
 1289 012e 65020000 		.4byte	0x265
 1290 0132 02       		.byte	0x2
 1291 0133 23       		.byte	0x23
ARM GAS  C:\Users\3130\AppData\Local\Temp\ccaFL17a.s 			page 24


 1292 0134 00       		.uleb128 0
 1293 0135 06       		.uleb128 0x6
 1294 0136 EF020000 		.4byte	.LASF26
 1295 013a 06       		.byte	0x6
 1296 013b 61       		.byte	0x61
 1297 013c 65020000 		.4byte	0x265
 1298 0140 02       		.byte	0x2
 1299 0141 23       		.byte	0x23
 1300 0142 04       		.uleb128 0x4
 1301 0143 06       		.uleb128 0x6
 1302 0144 B4000000 		.4byte	.LASF27
 1303 0148 06       		.byte	0x6
 1304 0149 63       		.byte	0x63
 1305 014a E4000000 		.4byte	0xe4
 1306 014e 02       		.byte	0x2
 1307 014f 23       		.byte	0x23
 1308 0150 08       		.uleb128 0x8
 1309 0151 06       		.uleb128 0x6
 1310 0152 CF040000 		.4byte	.LASF28
 1311 0156 06       		.byte	0x6
 1312 0157 64       		.byte	0x64
 1313 0158 34030000 		.4byte	0x334
 1314 015c 02       		.byte	0x2
 1315 015d 23       		.byte	0x23
 1316 015e 0C       		.uleb128 0xc
 1317 015f 06       		.uleb128 0x6
 1318 0160 3C010000 		.4byte	.LASF29
 1319 0164 06       		.byte	0x6
 1320 0165 66       		.byte	0x66
 1321 0166 65020000 		.4byte	0x265
 1322 016a 02       		.byte	0x2
 1323 016b 23       		.byte	0x23
 1324 016c 10       		.uleb128 0x10
 1325 016d 06       		.uleb128 0x6
 1326 016e 76020000 		.4byte	.LASF30
 1327 0172 06       		.byte	0x6
 1328 0173 67       		.byte	0x67
 1329 0174 65020000 		.4byte	0x265
 1330 0178 02       		.byte	0x2
 1331 0179 23       		.byte	0x23
 1332 017a 14       		.uleb128 0x14
 1333 017b 06       		.uleb128 0x6
 1334 017c AC040000 		.4byte	.LASF31
 1335 0180 06       		.byte	0x6
 1336 0181 6E       		.byte	0x6e
 1337 0182 46040000 		.4byte	0x446
 1338 0186 02       		.byte	0x2
 1339 0187 23       		.byte	0x23
 1340 0188 18       		.uleb128 0x18
 1341 0189 06       		.uleb128 0x6
 1342 018a 3E030000 		.4byte	.LASF32
 1343 018e 06       		.byte	0x6
 1344 018f 79       		.byte	0x79
 1345 0190 C3000000 		.4byte	0xc3
 1346 0194 02       		.byte	0x2
 1347 0195 23       		.byte	0x23
 1348 0196 1C       		.uleb128 0x1c
ARM GAS  C:\Users\3130\AppData\Local\Temp\ccaFL17a.s 			page 25


 1349 0197 06       		.uleb128 0x6
 1350 0198 6D030000 		.4byte	.LASF33
 1351 019c 06       		.byte	0x6
 1352 019d 7D       		.byte	0x7d
 1353 019e B8000000 		.4byte	0xb8
 1354 01a2 02       		.byte	0x2
 1355 01a3 23       		.byte	0x23
 1356 01a4 1D       		.uleb128 0x1d
 1357 01a5 06       		.uleb128 0x6
 1358 01a6 5B040000 		.4byte	.LASF34
 1359 01aa 06       		.byte	0x6
 1360 01ab 82       		.byte	0x82
 1361 01ac CE000000 		.4byte	0xce
 1362 01b0 02       		.byte	0x2
 1363 01b1 23       		.byte	0x23
 1364 01b2 1E       		.uleb128 0x1e
 1365 01b3 06       		.uleb128 0x6
 1366 01b4 46030000 		.4byte	.LASF35
 1367 01b8 06       		.byte	0x6
 1368 01b9 88       		.byte	0x88
 1369 01ba D9000000 		.4byte	0xd9
 1370 01be 02       		.byte	0x2
 1371 01bf 23       		.byte	0x23
 1372 01c0 1F       		.uleb128 0x1f
 1373 01c1 06       		.uleb128 0x6
 1374 01c2 07040000 		.4byte	.LASF36
 1375 01c6 06       		.byte	0x6
 1376 01c7 8F       		.byte	0x8f
 1377 01c8 5C030000 		.4byte	0x35c
 1378 01cc 02       		.byte	0x2
 1379 01cd 23       		.byte	0x23
 1380 01ce 20       		.uleb128 0x20
 1381 01cf 07       		.uleb128 0x7
 1382 01d0 705F7500 		.ascii	"p_u\000"
 1383 01d4 06       		.byte	0x6
 1384 01d5 B4       		.byte	0xb4
 1385 01d6 11040000 		.4byte	0x411
 1386 01da 02       		.byte	0x2
 1387 01db 23       		.byte	0x23
 1388 01dc 24       		.uleb128 0x24
 1389 01dd 06       		.uleb128 0x6
 1390 01de D5040000 		.4byte	.LASF37
 1391 01e2 06       		.byte	0x6
 1392 01e3 B9       		.byte	0xb9
 1393 01e4 8D020000 		.4byte	0x28d
 1394 01e8 02       		.byte	0x2
 1395 01e9 23       		.byte	0x23
 1396 01ea 28       		.uleb128 0x28
 1397 01eb 06       		.uleb128 0x6
 1398 01ec 4A040000 		.4byte	.LASF38
 1399 01f0 06       		.byte	0x6
 1400 01f1 BF       		.byte	0xbf
 1401 01f2 6B020000 		.4byte	0x26b
 1402 01f6 02       		.byte	0x2
 1403 01f7 23       		.byte	0x23
 1404 01f8 2C       		.uleb128 0x2c
 1405 01f9 06       		.uleb128 0x6
ARM GAS  C:\Users\3130\AppData\Local\Temp\ccaFL17a.s 			page 26


 1406 01fa 17000000 		.4byte	.LASF39
 1407 01fe 06       		.byte	0x6
 1408 01ff C3       		.byte	0xc3
 1409 0200 EF000000 		.4byte	0xef
 1410 0204 02       		.byte	0x2
 1411 0205 23       		.byte	0x23
 1412 0206 34       		.uleb128 0x34
 1413 0207 06       		.uleb128 0x6
 1414 0208 AB030000 		.4byte	.LASF40
 1415 020c 06       		.byte	0x6
 1416 020d C9       		.byte	0xc9
 1417 020e FA000000 		.4byte	0xfa
 1418 0212 02       		.byte	0x2
 1419 0213 23       		.byte	0x23
 1420 0214 38       		.uleb128 0x38
 1421 0215 06       		.uleb128 0x6
 1422 0216 2A030000 		.4byte	.LASF41
 1423 021a 06       		.byte	0x6
 1424 021b D0       		.byte	0xd0
 1425 021c 58040000 		.4byte	0x458
 1426 0220 02       		.byte	0x2
 1427 0221 23       		.byte	0x23
 1428 0222 3C       		.uleb128 0x3c
 1429 0223 06       		.uleb128 0x6
 1430 0224 EA030000 		.4byte	.LASF42
 1431 0228 06       		.byte	0x6
 1432 0229 D4       		.byte	0xd4
 1433 022a E4000000 		.4byte	0xe4
 1434 022e 02       		.byte	0x2
 1435 022f 23       		.byte	0x23
 1436 0230 40       		.uleb128 0x40
 1437 0231 06       		.uleb128 0x6
 1438 0232 DF000000 		.4byte	.LASF43
 1439 0236 06       		.byte	0x6
 1440 0237 DA       		.byte	0xda
 1441 0238 A3020000 		.4byte	0x2a3
 1442 023c 02       		.byte	0x2
 1443 023d 23       		.byte	0x23
 1444 023e 44       		.uleb128 0x44
 1445 023f 00       		.byte	0
 1446 0240 08       		.uleb128 0x8
 1447 0241 08       		.byte	0x8
 1448 0242 05       		.byte	0x5
 1449 0243 61       		.byte	0x61
 1450 0244 65020000 		.4byte	0x265
 1451 0248 06       		.uleb128 0x6
 1452 0249 66030000 		.4byte	.LASF25
 1453 024d 05       		.byte	0x5
 1454 024e 62       		.byte	0x62
 1455 024f 65020000 		.4byte	0x265
 1456 0253 02       		.byte	0x2
 1457 0254 23       		.byte	0x23
 1458 0255 00       		.uleb128 0
 1459 0256 06       		.uleb128 0x6
 1460 0257 EF020000 		.4byte	.LASF26
 1461 025b 05       		.byte	0x5
 1462 025c 64       		.byte	0x64
ARM GAS  C:\Users\3130\AppData\Local\Temp\ccaFL17a.s 			page 27


 1463 025d 65020000 		.4byte	0x265
 1464 0261 02       		.byte	0x2
 1465 0262 23       		.byte	0x23
 1466 0263 04       		.uleb128 0x4
 1467 0264 00       		.byte	0
 1468 0265 09       		.uleb128 0x9
 1469 0266 04       		.byte	0x4
 1470 0267 10010000 		.4byte	0x110
 1471 026b 03       		.uleb128 0x3
 1472 026c 94020000 		.4byte	.LASF44
 1473 0270 05       		.byte	0x5
 1474 0271 66       		.byte	0x66
 1475 0272 40020000 		.4byte	0x240
 1476 0276 08       		.uleb128 0x8
 1477 0277 04       		.byte	0x4
 1478 0278 05       		.byte	0x5
 1479 0279 6B       		.byte	0x6b
 1480 027a 8D020000 		.4byte	0x28d
 1481 027e 06       		.uleb128 0x6
 1482 027f 66030000 		.4byte	.LASF25
 1483 0283 05       		.byte	0x5
 1484 0284 6D       		.byte	0x6d
 1485 0285 65020000 		.4byte	0x265
 1486 0289 02       		.byte	0x2
 1487 028a 23       		.byte	0x23
 1488 028b 00       		.uleb128 0
 1489 028c 00       		.byte	0
 1490 028d 03       		.uleb128 0x3
 1491 028e DB010000 		.4byte	.LASF45
 1492 0292 05       		.byte	0x5
 1493 0293 70       		.byte	0x70
 1494 0294 76020000 		.4byte	0x276
 1495 0298 03       		.uleb128 0x3
 1496 0299 4C010000 		.4byte	.LASF46
 1497 029d 07       		.byte	0x7
 1498 029e A7       		.byte	0xa7
 1499 029f A3020000 		.4byte	0x2a3
 1500 02a3 0A       		.uleb128 0xa
 1501 02a4 04       		.byte	0x4
 1502 02a5 03       		.uleb128 0x3
 1503 02a6 11020000 		.4byte	.LASF47
 1504 02aa 07       		.byte	0x7
 1505 02ab AD       		.byte	0xad
 1506 02ac 94000000 		.4byte	0x94
 1507 02b0 05       		.uleb128 0x5
 1508 02b1 43040000 		.4byte	.LASF48
 1509 02b5 24       		.byte	0x24
 1510 02b6 07       		.byte	0x7
 1511 02b7 BA       		.byte	0xba
 1512 02b8 34030000 		.4byte	0x334
 1513 02bc 07       		.uleb128 0x7
 1514 02bd 723800   		.ascii	"r8\000"
 1515 02c0 07       		.byte	0x7
 1516 02c1 BB       		.byte	0xbb
 1517 02c2 98020000 		.4byte	0x298
 1518 02c6 02       		.byte	0x2
 1519 02c7 23       		.byte	0x23
ARM GAS  C:\Users\3130\AppData\Local\Temp\ccaFL17a.s 			page 28


 1520 02c8 00       		.uleb128 0
 1521 02c9 07       		.uleb128 0x7
 1522 02ca 723900   		.ascii	"r9\000"
 1523 02cd 07       		.byte	0x7
 1524 02ce BC       		.byte	0xbc
 1525 02cf 98020000 		.4byte	0x298
 1526 02d3 02       		.byte	0x2
 1527 02d4 23       		.byte	0x23
 1528 02d5 04       		.uleb128 0x4
 1529 02d6 07       		.uleb128 0x7
 1530 02d7 72313000 		.ascii	"r10\000"
 1531 02db 07       		.byte	0x7
 1532 02dc BD       		.byte	0xbd
 1533 02dd 98020000 		.4byte	0x298
 1534 02e1 02       		.byte	0x2
 1535 02e2 23       		.byte	0x23
 1536 02e3 08       		.uleb128 0x8
 1537 02e4 07       		.uleb128 0x7
 1538 02e5 72313100 		.ascii	"r11\000"
 1539 02e9 07       		.byte	0x7
 1540 02ea BE       		.byte	0xbe
 1541 02eb 98020000 		.4byte	0x298
 1542 02ef 02       		.byte	0x2
 1543 02f0 23       		.byte	0x23
 1544 02f1 0C       		.uleb128 0xc
 1545 02f2 07       		.uleb128 0x7
 1546 02f3 723400   		.ascii	"r4\000"
 1547 02f6 07       		.byte	0x7
 1548 02f7 BF       		.byte	0xbf
 1549 02f8 98020000 		.4byte	0x298
 1550 02fc 02       		.byte	0x2
 1551 02fd 23       		.byte	0x23
 1552 02fe 10       		.uleb128 0x10
 1553 02ff 07       		.uleb128 0x7
 1554 0300 723500   		.ascii	"r5\000"
 1555 0303 07       		.byte	0x7
 1556 0304 C0       		.byte	0xc0
 1557 0305 98020000 		.4byte	0x298
 1558 0309 02       		.byte	0x2
 1559 030a 23       		.byte	0x23
 1560 030b 14       		.uleb128 0x14
 1561 030c 07       		.uleb128 0x7
 1562 030d 723600   		.ascii	"r6\000"
 1563 0310 07       		.byte	0x7
 1564 0311 C1       		.byte	0xc1
 1565 0312 98020000 		.4byte	0x298
 1566 0316 02       		.byte	0x2
 1567 0317 23       		.byte	0x23
 1568 0318 18       		.uleb128 0x18
 1569 0319 07       		.uleb128 0x7
 1570 031a 723700   		.ascii	"r7\000"
 1571 031d 07       		.byte	0x7
 1572 031e C2       		.byte	0xc2
 1573 031f 98020000 		.4byte	0x298
 1574 0323 02       		.byte	0x2
 1575 0324 23       		.byte	0x23
 1576 0325 1C       		.uleb128 0x1c
ARM GAS  C:\Users\3130\AppData\Local\Temp\ccaFL17a.s 			page 29


 1577 0326 07       		.uleb128 0x7
 1578 0327 6C7200   		.ascii	"lr\000"
 1579 032a 07       		.byte	0x7
 1580 032b C3       		.byte	0xc3
 1581 032c 98020000 		.4byte	0x298
 1582 0330 02       		.byte	0x2
 1583 0331 23       		.byte	0x23
 1584 0332 20       		.uleb128 0x20
 1585 0333 00       		.byte	0
 1586 0334 05       		.uleb128 0x5
 1587 0335 96010000 		.4byte	.LASF49
 1588 0339 04       		.byte	0x4
 1589 033a 07       		.byte	0x7
 1590 033b CD       		.byte	0xcd
 1591 033c 4F030000 		.4byte	0x34f
 1592 0340 07       		.uleb128 0x7
 1593 0341 72313300 		.ascii	"r13\000"
 1594 0345 07       		.byte	0x7
 1595 0346 CE       		.byte	0xce
 1596 0347 4F030000 		.4byte	0x34f
 1597 034b 02       		.byte	0x2
 1598 034c 23       		.byte	0x23
 1599 034d 00       		.uleb128 0
 1600 034e 00       		.byte	0
 1601 034f 09       		.uleb128 0x9
 1602 0350 04       		.byte	0x4
 1603 0351 B0020000 		.4byte	0x2b0
 1604 0355 04       		.uleb128 0x4
 1605 0356 04       		.byte	0x4
 1606 0357 07       		.byte	0x7
 1607 0358 45020000 		.4byte	.LASF50
 1608 035c 0B       		.uleb128 0xb
 1609 035d 05010000 		.4byte	0x105
 1610 0361 08       		.uleb128 0x8
 1611 0362 1C       		.byte	0x1c
 1612 0363 08       		.byte	0x8
 1613 0364 5E       		.byte	0x5e
 1614 0365 BE030000 		.4byte	0x3be
 1615 0369 06       		.uleb128 0x6
 1616 036a BF030000 		.4byte	.LASF51
 1617 036e 08       		.byte	0x8
 1618 036f 5F       		.byte	0x5f
 1619 0370 6B020000 		.4byte	0x26b
 1620 0374 02       		.byte	0x2
 1621 0375 23       		.byte	0x23
 1622 0376 00       		.uleb128 0
 1623 0377 06       		.uleb128 0x6
 1624 0378 58030000 		.4byte	.LASF52
 1625 037c 08       		.byte	0x8
 1626 037d 60       		.byte	0x60
 1627 037e E4000000 		.4byte	0xe4
 1628 0382 02       		.byte	0x2
 1629 0383 23       		.byte	0x23
 1630 0384 08       		.uleb128 0x8
 1631 0385 06       		.uleb128 0x6
 1632 0386 8E020000 		.4byte	.LASF53
 1633 038a 08       		.byte	0x8
ARM GAS  C:\Users\3130\AppData\Local\Temp\ccaFL17a.s 			page 30


 1634 038b 62       		.byte	0x62
 1635 038c 34030000 		.4byte	0x334
 1636 0390 02       		.byte	0x2
 1637 0391 23       		.byte	0x23
 1638 0392 0C       		.uleb128 0xc
 1639 0393 06       		.uleb128 0x6
 1640 0394 44010000 		.4byte	.LASF54
 1641 0398 08       		.byte	0x8
 1642 0399 65       		.byte	0x65
 1643 039a 65020000 		.4byte	0x265
 1644 039e 02       		.byte	0x2
 1645 039f 23       		.byte	0x23
 1646 03a0 10       		.uleb128 0x10
 1647 03a1 06       		.uleb128 0x6
 1648 03a2 C7020000 		.4byte	.LASF55
 1649 03a6 08       		.byte	0x8
 1650 03a7 66       		.byte	0x66
 1651 03a8 65020000 		.4byte	0x265
 1652 03ac 02       		.byte	0x2
 1653 03ad 23       		.byte	0x23
 1654 03ae 14       		.uleb128 0x14
 1655 03af 06       		.uleb128 0x6
 1656 03b0 BD020000 		.4byte	.LASF56
 1657 03b4 08       		.byte	0x8
 1658 03b5 69       		.byte	0x69
 1659 03b6 65020000 		.4byte	0x265
 1660 03ba 02       		.byte	0x2
 1661 03bb 23       		.byte	0x23
 1662 03bc 18       		.uleb128 0x18
 1663 03bd 00       		.byte	0
 1664 03be 03       		.uleb128 0x3
 1665 03bf 62040000 		.4byte	.LASF57
 1666 03c3 08       		.byte	0x8
 1667 03c4 6B       		.byte	0x6b
 1668 03c5 61030000 		.4byte	0x361
 1669 03c9 05       		.uleb128 0x5
 1670 03ca FE010000 		.4byte	.LASF58
 1671 03ce 10       		.byte	0x10
 1672 03cf 09       		.byte	0x9
 1673 03d0 2C       		.byte	0x2c
 1674 03d1 00040000 		.4byte	0x400
 1675 03d5 06       		.uleb128 0x6
 1676 03d6 EE000000 		.4byte	.LASF59
 1677 03da 09       		.byte	0x9
 1678 03db 2D       		.byte	0x2d
 1679 03dc 6B020000 		.4byte	0x26b
 1680 03e0 02       		.byte	0x2
 1681 03e1 23       		.byte	0x23
 1682 03e2 00       		.uleb128 0
 1683 03e3 06       		.uleb128 0x6
 1684 03e4 C7040000 		.4byte	.LASF60
 1685 03e8 09       		.byte	0x9
 1686 03e9 2F       		.byte	0x2f
 1687 03ea 65020000 		.4byte	0x265
 1688 03ee 02       		.byte	0x2
 1689 03ef 23       		.byte	0x23
 1690 03f0 08       		.uleb128 0x8
ARM GAS  C:\Users\3130\AppData\Local\Temp\ccaFL17a.s 			page 31


 1691 03f1 06       		.uleb128 0x6
 1692 03f2 D9030000 		.4byte	.LASF61
 1693 03f6 09       		.byte	0x9
 1694 03f7 31       		.byte	0x31
 1695 03f8 00040000 		.4byte	0x400
 1696 03fc 02       		.byte	0x2
 1697 03fd 23       		.byte	0x23
 1698 03fe 0C       		.uleb128 0xc
 1699 03ff 00       		.byte	0
 1700 0400 09       		.uleb128 0x9
 1701 0401 04       		.byte	0x4
 1702 0402 C9030000 		.4byte	0x3c9
 1703 0406 03       		.uleb128 0x3
 1704 0407 FE010000 		.4byte	.LASF58
 1705 040b 09       		.byte	0x9
 1706 040c 33       		.byte	0x33
 1707 040d C9030000 		.4byte	0x3c9
 1708 0411 0C       		.uleb128 0xc
 1709 0412 04       		.byte	0x4
 1710 0413 06       		.byte	0x6
 1711 0414 96       		.byte	0x96
 1712 0415 46040000 		.4byte	0x446
 1713 0419 0D       		.uleb128 0xd
 1714 041a 24000000 		.4byte	.LASF62
 1715 041e 06       		.byte	0x6
 1716 041f 9D       		.byte	0x9d
 1717 0420 EF000000 		.4byte	0xef
 1718 0424 0D       		.uleb128 0xd
 1719 0425 98000000 		.4byte	.LASF63
 1720 0429 06       		.byte	0x6
 1721 042a A4       		.byte	0xa4
 1722 042b EF000000 		.4byte	0xef
 1723 042f 0D       		.uleb128 0xd
 1724 0430 A5040000 		.4byte	.LASF64
 1725 0434 06       		.byte	0x6
 1726 0435 AB       		.byte	0xab
 1727 0436 A3020000 		.4byte	0x2a3
 1728 043a 0D       		.uleb128 0xd
 1729 043b 5F030000 		.4byte	.LASF65
 1730 043f 06       		.byte	0x6
 1731 0440 B2       		.byte	0xb2
 1732 0441 FA000000 		.4byte	0xfa
 1733 0445 00       		.byte	0
 1734 0446 09       		.uleb128 0x9
 1735 0447 04       		.byte	0x4
 1736 0448 4C040000 		.4byte	0x44c
 1737 044c 0E       		.uleb128 0xe
 1738 044d 51040000 		.4byte	0x451
 1739 0451 04       		.uleb128 0x4
 1740 0452 01       		.byte	0x1
 1741 0453 08       		.byte	0x8
 1742 0454 C7030000 		.4byte	.LASF66
 1743 0458 09       		.uleb128 0x9
 1744 0459 04       		.byte	0x4
 1745 045a 06040000 		.4byte	0x406
 1746 045e 03       		.uleb128 0x3
 1747 045f 0F000000 		.4byte	.LASF67
ARM GAS  C:\Users\3130\AppData\Local\Temp\ccaFL17a.s 			page 32


 1748 0463 06       		.byte	0x6
 1749 0464 E5       		.byte	0xe5
 1750 0465 69040000 		.4byte	0x469
 1751 0469 09       		.uleb128 0x9
 1752 046a 04       		.byte	0x4
 1753 046b 6F040000 		.4byte	0x46f
 1754 046f 0F       		.uleb128 0xf
 1755 0470 01       		.byte	0x1
 1756 0471 EF000000 		.4byte	0xef
 1757 0475 7F040000 		.4byte	0x47f
 1758 0479 10       		.uleb128 0x10
 1759 047a A3020000 		.4byte	0x2a3
 1760 047e 00       		.byte	0
 1761 047f 03       		.uleb128 0x3
 1762 0480 04020000 		.4byte	.LASF68
 1763 0484 0A       		.byte	0xa
 1764 0485 37       		.byte	0x37
 1765 0486 8A040000 		.4byte	0x48a
 1766 048a 05       		.uleb128 0x5
 1767 048b 04020000 		.4byte	.LASF68
 1768 048f 24       		.byte	0x24
 1769 0490 0A       		.byte	0xa
 1770 0491 45       		.byte	0x45
 1771 0492 07050000 		.4byte	0x507
 1772 0496 06       		.uleb128 0x6
 1773 0497 BB000000 		.4byte	.LASF69
 1774 049b 0A       		.byte	0xa
 1775 049c 46       		.byte	0x46
 1776 049d 6B020000 		.4byte	0x26b
 1777 04a1 02       		.byte	0x2
 1778 04a2 23       		.byte	0x23
 1779 04a3 00       		.uleb128 0
 1780 04a4 06       		.uleb128 0x6
 1781 04a5 4E020000 		.4byte	.LASF70
 1782 04a9 0A       		.byte	0xa
 1783 04aa 47       		.byte	0x47
 1784 04ab 30000000 		.4byte	0x30
 1785 04af 02       		.byte	0x2
 1786 04b0 23       		.byte	0x23
 1787 04b1 08       		.uleb128 0x8
 1788 04b2 06       		.uleb128 0x6
 1789 04b3 2B010000 		.4byte	.LASF71
 1790 04b7 0A       		.byte	0xa
 1791 04b8 48       		.byte	0x48
 1792 04b9 2A050000 		.4byte	0x52a
 1793 04bd 02       		.byte	0x2
 1794 04be 23       		.byte	0x23
 1795 04bf 0C       		.uleb128 0xc
 1796 04c0 06       		.uleb128 0x6
 1797 04c1 55040000 		.4byte	.LASF72
 1798 04c5 0A       		.byte	0xa
 1799 04c6 49       		.byte	0x49
 1800 04c7 2A050000 		.4byte	0x52a
 1801 04cb 02       		.byte	0x2
 1802 04cc 23       		.byte	0x23
 1803 04cd 10       		.uleb128 0x10
 1804 04ce 06       		.uleb128 0x6
ARM GAS  C:\Users\3130\AppData\Local\Temp\ccaFL17a.s 			page 33


 1805 04cf 34010000 		.4byte	.LASF73
 1806 04d3 0A       		.byte	0xa
 1807 04d4 4B       		.byte	0x4b
 1808 04d5 2A050000 		.4byte	0x52a
 1809 04d9 02       		.byte	0x2
 1810 04da 23       		.byte	0x23
 1811 04db 14       		.uleb128 0x14
 1812 04dc 06       		.uleb128 0x6
 1813 04dd 06030000 		.4byte	.LASF74
 1814 04e1 0A       		.byte	0xa
 1815 04e2 4C       		.byte	0x4c
 1816 04e3 2A050000 		.4byte	0x52a
 1817 04e7 02       		.byte	0x2
 1818 04e8 23       		.byte	0x23
 1819 04e9 18       		.uleb128 0x18
 1820 04ea 06       		.uleb128 0x6
 1821 04eb 6C040000 		.4byte	.LASF75
 1822 04ef 0A       		.byte	0xa
 1823 04f0 4D       		.byte	0x4d
 1824 04f1 07050000 		.4byte	0x507
 1825 04f5 02       		.byte	0x2
 1826 04f6 23       		.byte	0x23
 1827 04f7 1C       		.uleb128 0x1c
 1828 04f8 06       		.uleb128 0x6
 1829 04f9 C0040000 		.4byte	.LASF76
 1830 04fd 0A       		.byte	0xa
 1831 04fe 4E       		.byte	0x4e
 1832 04ff A3020000 		.4byte	0x2a3
 1833 0503 02       		.byte	0x2
 1834 0504 23       		.byte	0x23
 1835 0505 20       		.uleb128 0x20
 1836 0506 00       		.byte	0
 1837 0507 03       		.uleb128 0x3
 1838 0508 E5020000 		.4byte	.LASF77
 1839 050c 0A       		.byte	0xa
 1840 050d 3A       		.byte	0x3a
 1841 050e 12050000 		.4byte	0x512
 1842 0512 09       		.uleb128 0x9
 1843 0513 04       		.byte	0x4
 1844 0514 18050000 		.4byte	0x518
 1845 0518 11       		.uleb128 0x11
 1846 0519 01       		.byte	0x1
 1847 051a 24050000 		.4byte	0x524
 1848 051e 10       		.uleb128 0x10
 1849 051f 24050000 		.4byte	0x524
 1850 0523 00       		.byte	0
 1851 0524 09       		.uleb128 0x9
 1852 0525 04       		.byte	0x4
 1853 0526 7F040000 		.4byte	0x47f
 1854 052a 09       		.uleb128 0x9
 1855 052b 04       		.byte	0x4
 1856 052c 49000000 		.4byte	0x49
 1857 0530 03       		.uleb128 0x3
 1858 0531 F3010000 		.4byte	.LASF78
 1859 0535 0A       		.byte	0xa
 1860 0536 82       		.byte	0x82
 1861 0537 7F040000 		.4byte	0x47f
ARM GAS  C:\Users\3130\AppData\Local\Temp\ccaFL17a.s 			page 34


 1862 053b 03       		.uleb128 0x3
 1863 053c 3D000000 		.4byte	.LASF79
 1864 0540 0A       		.byte	0xa
 1865 0541 F5       		.byte	0xf5
 1866 0542 7F040000 		.4byte	0x47f
 1867 0546 09       		.uleb128 0x9
 1868 0547 04       		.byte	0x4
 1869 0548 4C050000 		.4byte	0x54c
 1870 054c 0E       		.uleb128 0xe
 1871 054d 49000000 		.4byte	0x49
 1872 0551 05       		.uleb128 0x5
 1873 0552 7C030000 		.4byte	.LASF80
 1874 0556 10       		.byte	0x10
 1875 0557 0B       		.byte	0xb
 1876 0558 3B       		.byte	0x3b
 1877 0559 96050000 		.4byte	0x596
 1878 055d 06       		.uleb128 0x6
 1879 055e 91010000 		.4byte	.LASF81
 1880 0562 0B       		.byte	0xb
 1881 0563 3C       		.byte	0x3c
 1882 0564 46040000 		.4byte	0x446
 1883 0568 02       		.byte	0x2
 1884 0569 23       		.byte	0x23
 1885 056a 00       		.uleb128 0
 1886 056b 06       		.uleb128 0x6
 1887 056c A1020000 		.4byte	.LASF82
 1888 0570 0B       		.byte	0xb
 1889 0571 3D       		.byte	0x3d
 1890 0572 98050000 		.4byte	0x598
 1891 0576 02       		.byte	0x2
 1892 0577 23       		.byte	0x23
 1893 0578 04       		.uleb128 0x4
 1894 0579 06       		.uleb128 0x6
 1895 057a 88010000 		.4byte	.LASF83
 1896 057e 0B       		.byte	0xb
 1897 057f 3E       		.byte	0x3e
 1898 0580 98050000 		.4byte	0x598
 1899 0584 02       		.byte	0x2
 1900 0585 23       		.byte	0x23
 1901 0586 08       		.uleb128 0x8
 1902 0587 06       		.uleb128 0x6
 1903 0588 F6020000 		.4byte	.LASF84
 1904 058c 0B       		.byte	0xb
 1905 058d 3F       		.byte	0x3f
 1906 058e 98050000 		.4byte	0x598
 1907 0592 02       		.byte	0x2
 1908 0593 23       		.byte	0x23
 1909 0594 0C       		.uleb128 0xc
 1910 0595 00       		.byte	0
 1911 0596 12       		.uleb128 0x12
 1912 0597 01       		.byte	0x1
 1913 0598 09       		.uleb128 0x9
 1914 0599 04       		.byte	0x4
 1915 059a 96050000 		.4byte	0x596
 1916 059e 13       		.uleb128 0x13
 1917 059f F005     		.2byte	0x5f0
 1918 05a1 0B       		.byte	0xb
ARM GAS  C:\Users\3130\AppData\Local\Temp\ccaFL17a.s 			page 35


 1919 05a2 44       		.byte	0x44
 1920 05a3 ED050000 		.4byte	0x5ed
 1921 05a7 07       		.uleb128 0x7
 1922 05a8 543000   		.ascii	"T0\000"
 1923 05ab 0B       		.byte	0xb
 1924 05ac 45       		.byte	0x45
 1925 05ad ED050000 		.4byte	0x5ed
 1926 05b1 02       		.byte	0x2
 1927 05b2 23       		.byte	0x23
 1928 05b3 00       		.uleb128 0
 1929 05b4 07       		.uleb128 0x7
 1930 05b5 543100   		.ascii	"T1\000"
 1931 05b8 0B       		.byte	0xb
 1932 05b9 46       		.byte	0x46
 1933 05ba ED050000 		.4byte	0x5ed
 1934 05be 03       		.byte	0x3
 1935 05bf 23       		.byte	0x23
 1936 05c0 B002     		.uleb128 0x130
 1937 05c2 07       		.uleb128 0x7
 1938 05c3 543200   		.ascii	"T2\000"
 1939 05c6 0B       		.byte	0xb
 1940 05c7 47       		.byte	0x47
 1941 05c8 ED050000 		.4byte	0x5ed
 1942 05cc 03       		.byte	0x3
 1943 05cd 23       		.byte	0x23
 1944 05ce E004     		.uleb128 0x260
 1945 05d0 07       		.uleb128 0x7
 1946 05d1 543300   		.ascii	"T3\000"
 1947 05d4 0B       		.byte	0xb
 1948 05d5 48       		.byte	0x48
 1949 05d6 ED050000 		.4byte	0x5ed
 1950 05da 03       		.byte	0x3
 1951 05db 23       		.byte	0x23
 1952 05dc 9007     		.uleb128 0x390
 1953 05de 07       		.uleb128 0x7
 1954 05df 543400   		.ascii	"T4\000"
 1955 05e2 0B       		.byte	0xb
 1956 05e3 49       		.byte	0x49
 1957 05e4 ED050000 		.4byte	0x5ed
 1958 05e8 03       		.byte	0x3
 1959 05e9 23       		.byte	0x23
 1960 05ea C009     		.uleb128 0x4c0
 1961 05ec 00       		.byte	0
 1962 05ed 14       		.uleb128 0x14
 1963 05ee A5020000 		.4byte	0x2a5
 1964 05f2 FD050000 		.4byte	0x5fd
 1965 05f6 15       		.uleb128 0x15
 1966 05f7 55030000 		.4byte	0x355
 1967 05fb 25       		.byte	0x25
 1968 05fc 00       		.byte	0
 1969 05fd 16       		.uleb128 0x16
 1970 05fe CC030000 		.4byte	.LASF115
 1971 0602 F005     		.2byte	0x5f0
 1972 0604 0B       		.byte	0xb
 1973 0605 43       		.byte	0x43
 1974 0606 20060000 		.4byte	0x620
 1975 060a 17       		.uleb128 0x17
ARM GAS  C:\Users\3130\AppData\Local\Temp\ccaFL17a.s 			page 36


 1976 060b 776100   		.ascii	"wa\000"
 1977 060e 0B       		.byte	0xb
 1978 060f 4A       		.byte	0x4a
 1979 0610 9E050000 		.4byte	0x59e
 1980 0614 0D       		.uleb128 0xd
 1981 0615 F5030000 		.4byte	.LASF85
 1982 0619 0B       		.byte	0xb
 1983 061a 4B       		.byte	0x4b
 1984 061b 20060000 		.4byte	0x620
 1985 061f 00       		.byte	0
 1986 0620 14       		.uleb128 0x14
 1987 0621 49000000 		.4byte	0x49
 1988 0625 31060000 		.4byte	0x631
 1989 0629 18       		.uleb128 0x18
 1990 062a 55030000 		.4byte	0x355
 1991 062e EF05     		.2byte	0x5ef
 1992 0630 00       		.byte	0
 1993 0631 19       		.uleb128 0x19
 1994 0632 35020000 		.4byte	.LASF86
 1995 0636 01       		.byte	0x1
 1996 0637 B1       		.byte	0xb1
 1997 0638 01       		.byte	0x1
 1998 0639 01       		.byte	0x1
 1999 063a 5C060000 		.4byte	0x65c
 2000 063e 1A       		.uleb128 0x1a
 2001 063f 6900     		.ascii	"i\000"
 2002 0641 01       		.byte	0x1
 2003 0642 B2       		.byte	0xb2
 2004 0643 3B000000 		.4byte	0x3b
 2005 0647 1A       		.uleb128 0x1a
 2006 0648 6E00     		.ascii	"n\000"
 2007 064a 01       		.byte	0x1
 2008 064b B3       		.byte	0xb3
 2009 064c 30000000 		.4byte	0x30
 2010 0650 1B       		.uleb128 0x1b
 2011 0651 1A       		.uleb128 0x1a
 2012 0652 6300     		.ascii	"c\000"
 2013 0654 01       		.byte	0x1
 2014 0655 BF       		.byte	0xbf
 2015 0656 51040000 		.4byte	0x451
 2016 065a 00       		.byte	0
 2017 065b 00       		.byte	0
 2018 065c 19       		.uleb128 0x19
 2019 065d B1010000 		.4byte	.LASF87
 2020 0661 01       		.byte	0x1
 2021 0662 5A       		.byte	0x5a
 2022 0663 01       		.byte	0x1
 2023 0664 01       		.byte	0x1
 2024 0665 7C060000 		.4byte	0x67c
 2025 0669 1A       		.uleb128 0x1a
 2026 066a 6900     		.ascii	"i\000"
 2027 066c 01       		.byte	0x1
 2028 066d 5B       		.byte	0x5b
 2029 066e 3B000000 		.4byte	0x3b
 2030 0672 1A       		.uleb128 0x1a
 2031 0673 6E00     		.ascii	"n\000"
 2032 0675 01       		.byte	0x1
ARM GAS  C:\Users\3130\AppData\Local\Temp\ccaFL17a.s 			page 37


 2033 0676 5C       		.byte	0x5c
 2034 0677 30000000 		.4byte	0x30
 2035 067b 00       		.byte	0
 2036 067c 1C       		.uleb128 0x1c
 2037 067d 2E020000 		.4byte	.LASF88
 2038 0681 01       		.byte	0x1
 2039 0682 39       		.byte	0x39
 2040 0683 01       		.byte	0x1
 2041 0684 00000000 		.4byte	.LFB7
 2042 0688 02000000 		.4byte	.LFE7
 2043 068c 02       		.byte	0x2
 2044 068d 7D       		.byte	0x7d
 2045 068e 00       		.sleb128 0
 2046 068f 01       		.byte	0x1
 2047 0690 A1060000 		.4byte	0x6a1
 2048 0694 1D       		.uleb128 0x1d
 2049 0695 717000   		.ascii	"qp\000"
 2050 0698 01       		.byte	0x1
 2051 0699 39       		.byte	0x39
 2052 069a 24050000 		.4byte	0x524
 2053 069e 01       		.byte	0x1
 2054 069f 50       		.byte	0x50
 2055 06a0 00       		.byte	0
 2056 06a1 1E       		.uleb128 0x1e
 2057 06a2 86020000 		.4byte	.LASF90
 2058 06a6 01       		.byte	0x1
 2059 06a7 AA       		.byte	0xaa
 2060 06a8 01       		.byte	0x1
 2061 06a9 EF000000 		.4byte	0xef
 2062 06ad 00000000 		.4byte	.LFB12
 2063 06b1 14000000 		.4byte	.LFE12
 2064 06b5 00000000 		.4byte	.LLST0
 2065 06b9 01       		.byte	0x1
 2066 06ba EA060000 		.4byte	0x6ea
 2067 06be 1F       		.uleb128 0x1f
 2068 06bf 7000     		.ascii	"p\000"
 2069 06c1 01       		.byte	0x1
 2070 06c2 AA       		.byte	0xaa
 2071 06c3 A3020000 		.4byte	0x2a3
 2072 06c7 20000000 		.4byte	.LLST1
 2073 06cb 20       		.uleb128 0x20
 2074 06cc 0C000000 		.4byte	.LVL3
 2075 06d0 C60F0000 		.4byte	0xfc6
 2076 06d4 21       		.uleb128 0x21
 2077 06d5 01       		.byte	0x1
 2078 06d6 52       		.byte	0x52
 2079 06d7 02       		.byte	0x2
 2080 06d8 08       		.byte	0x8
 2081 06d9 C8       		.byte	0xc8
 2082 06da 21       		.uleb128 0x21
 2083 06db 01       		.byte	0x1
 2084 06dc 51       		.byte	0x51
 2085 06dd 01       		.byte	0x1
 2086 06de 30       		.byte	0x30
 2087 06df 21       		.uleb128 0x21
 2088 06e0 01       		.byte	0x1
 2089 06e1 50       		.byte	0x50
ARM GAS  C:\Users\3130\AppData\Local\Temp\ccaFL17a.s 			page 38


 2090 06e2 05       		.byte	0x5
 2091 06e3 03       		.byte	0x3
 2092 06e4 00000000 		.4byte	.LANCHOR0
 2093 06e8 00       		.byte	0
 2094 06e9 00       		.byte	0
 2095 06ea 22       		.uleb128 0x22
 2096 06eb A1000000 		.4byte	.LASF89
 2097 06ef 01       		.byte	0x1
 2098 06f0 A5       		.byte	0xa5
 2099 06f1 01       		.byte	0x1
 2100 06f2 00000000 		.4byte	.LFB11
 2101 06f6 28000000 		.4byte	.LFE11
 2102 06fa 41000000 		.4byte	.LLST2
 2103 06fe 01       		.byte	0x1
 2104 06ff 2B070000 		.4byte	0x72b
 2105 0703 20       		.uleb128 0x20
 2106 0704 16000000 		.4byte	.LVL4
 2107 0708 EF0F0000 		.4byte	0xfef
 2108 070c 21       		.uleb128 0x21
 2109 070d 01       		.byte	0x1
 2110 070e 53       		.byte	0x53
 2111 070f 05       		.byte	0x5
 2112 0710 03       		.byte	0x3
 2113 0711 00000000 		.4byte	notify
 2114 0715 21       		.uleb128 0x21
 2115 0716 01       		.byte	0x1
 2116 0717 52       		.byte	0x52
 2117 0718 01       		.byte	0x1
 2118 0719 34       		.byte	0x34
 2119 071a 21       		.uleb128 0x21
 2120 071b 01       		.byte	0x1
 2121 071c 50       		.byte	0x50
 2122 071d 05       		.byte	0x5
 2123 071e 03       		.byte	0x3
 2124 071f 00000000 		.4byte	.LANCHOR0
 2125 0723 21       		.uleb128 0x21
 2126 0724 02       		.byte	0x2
 2127 0725 7D       		.byte	0x7d
 2128 0726 00       		.sleb128 0
 2129 0727 01       		.byte	0x1
 2130 0728 30       		.byte	0x30
 2131 0729 00       		.byte	0
 2132 072a 00       		.byte	0
 2133 072b 1E       		.uleb128 0x1e
 2134 072c 7E020000 		.4byte	.LASF91
 2135 0730 01       		.byte	0x1
 2136 0731 53       		.byte	0x53
 2137 0732 01       		.byte	0x1
 2138 0733 EF000000 		.4byte	0xef
 2139 0737 00000000 		.4byte	.LFB9
 2140 073b 14000000 		.4byte	.LFE9
 2141 073f 6D000000 		.4byte	.LLST3
 2142 0743 01       		.byte	0x1
 2143 0744 6F070000 		.4byte	0x76f
 2144 0748 1F       		.uleb128 0x1f
 2145 0749 7000     		.ascii	"p\000"
 2146 074b 01       		.byte	0x1
ARM GAS  C:\Users\3130\AppData\Local\Temp\ccaFL17a.s 			page 39


 2147 074c 53       		.byte	0x53
 2148 074d A3020000 		.4byte	0x2a3
 2149 0751 8D000000 		.4byte	.LLST4
 2150 0755 20       		.uleb128 0x20
 2151 0756 0A000000 		.4byte	.LVL7
 2152 075a 18100000 		.4byte	0x1018
 2153 075e 21       		.uleb128 0x21
 2154 075f 01       		.byte	0x1
 2155 0760 51       		.byte	0x51
 2156 0761 02       		.byte	0x2
 2157 0762 08       		.byte	0x8
 2158 0763 C8       		.byte	0xc8
 2159 0764 21       		.uleb128 0x21
 2160 0765 01       		.byte	0x1
 2161 0766 50       		.byte	0x50
 2162 0767 05       		.byte	0x5
 2163 0768 03       		.byte	0x3
 2164 0769 00000000 		.4byte	.LANCHOR1
 2165 076d 00       		.byte	0
 2166 076e 00       		.byte	0
 2167 076f 22       		.uleb128 0x22
 2168 0770 CF020000 		.4byte	.LASF92
 2169 0774 01       		.byte	0x1
 2170 0775 4E       		.byte	0x4e
 2171 0776 01       		.byte	0x1
 2172 0777 00000000 		.4byte	.LFB8
 2173 077b 28000000 		.4byte	.LFE8
 2174 077f AE000000 		.4byte	.LLST5
 2175 0783 01       		.byte	0x1
 2176 0784 B0070000 		.4byte	0x7b0
 2177 0788 20       		.uleb128 0x20
 2178 0789 16000000 		.4byte	.LVL8
 2179 078d 3C100000 		.4byte	0x103c
 2180 0791 21       		.uleb128 0x21
 2181 0792 01       		.byte	0x1
 2182 0793 53       		.byte	0x53
 2183 0794 05       		.byte	0x5
 2184 0795 03       		.byte	0x3
 2185 0796 00000000 		.4byte	notify
 2186 079a 21       		.uleb128 0x21
 2187 079b 01       		.byte	0x1
 2188 079c 52       		.byte	0x52
 2189 079d 01       		.byte	0x1
 2190 079e 34       		.byte	0x34
 2191 079f 21       		.uleb128 0x21
 2192 07a0 01       		.byte	0x1
 2193 07a1 50       		.byte	0x50
 2194 07a2 05       		.byte	0x5
 2195 07a3 03       		.byte	0x3
 2196 07a4 00000000 		.4byte	.LANCHOR1
 2197 07a8 21       		.uleb128 0x21
 2198 07a9 02       		.byte	0x2
 2199 07aa 7D       		.byte	0x7d
 2200 07ab 00       		.sleb128 0
 2201 07ac 01       		.byte	0x1
 2202 07ad 30       		.byte	0x30
 2203 07ae 00       		.byte	0
ARM GAS  C:\Users\3130\AppData\Local\Temp\ccaFL17a.s 			page 40


 2204 07af 00       		.byte	0
 2205 07b0 23       		.uleb128 0x23
 2206 07b1 31060000 		.4byte	0x631
 2207 07b5 00000000 		.4byte	.LFB13
 2208 07b9 14020000 		.4byte	.LFE13
 2209 07bd DA000000 		.4byte	.LLST6
 2210 07c1 01       		.byte	0x1
 2211 07c2 ED0A0000 		.4byte	0xaed
 2212 07c6 24       		.uleb128 0x24
 2213 07c7 3E060000 		.4byte	0x63e
 2214 07cb 06010000 		.4byte	.LLST7
 2215 07cf 25       		.uleb128 0x25
 2216 07d0 47060000 		.4byte	0x647
 2217 07d4 26       		.uleb128 0x26
 2218 07d5 31060000 		.4byte	0x631
 2219 07d9 64000000 		.4byte	.LBB6
 2220 07dd 00000000 		.4byte	.Ldebug_ranges0+0
 2221 07e1 01       		.byte	0x1
 2222 07e2 B1       		.byte	0xb1
 2223 07e3 460A0000 		.4byte	0xa46
 2224 07e7 27       		.uleb128 0x27
 2225 07e8 20000000 		.4byte	.Ldebug_ranges0+0x20
 2226 07ec 24       		.uleb128 0x24
 2227 07ed 3E060000 		.4byte	0x63e
 2228 07f1 62010000 		.4byte	.LLST8
 2229 07f5 24       		.uleb128 0x24
 2230 07f6 47060000 		.4byte	0x647
 2231 07fa BE010000 		.4byte	.LLST9
 2232 07fe 28       		.uleb128 0x28
 2233 07ff 64000000 		.4byte	.LBB8
 2234 0803 A4000000 		.4byte	.LBE8
 2235 0807 89080000 		.4byte	0x889
 2236 080b 24       		.uleb128 0x24
 2237 080c 51060000 		.4byte	0x651
 2238 0810 E7010000 		.4byte	.LLST10
 2239 0814 29       		.uleb128 0x29
 2240 0815 6C000000 		.4byte	.LVL17
 2241 0819 65100000 		.4byte	0x1065
 2242 081d 28080000 		.4byte	0x828
 2243 0821 21       		.uleb128 0x21
 2244 0822 01       		.byte	0x1
 2245 0823 50       		.byte	0x50
 2246 0824 02       		.byte	0x2
 2247 0825 74       		.byte	0x74
 2248 0826 00       		.sleb128 0
 2249 0827 00       		.byte	0
 2250 0828 2A       		.uleb128 0x2a
 2251 0829 74000000 		.4byte	.LVL19
 2252 082d 7E100000 		.4byte	0x107e
 2253 0831 29       		.uleb128 0x29
 2254 0832 7C000000 		.4byte	.LVL20
 2255 0836 65100000 		.4byte	0x1065
 2256 083a 45080000 		.4byte	0x845
 2257 083e 21       		.uleb128 0x21
 2258 083f 01       		.byte	0x1
 2259 0840 50       		.byte	0x50
 2260 0841 02       		.byte	0x2
ARM GAS  C:\Users\3130\AppData\Local\Temp\ccaFL17a.s 			page 41


 2261 0842 74       		.byte	0x74
 2262 0843 00       		.sleb128 0
 2263 0844 00       		.byte	0
 2264 0845 2A       		.uleb128 0x2a
 2265 0846 84000000 		.4byte	.LVL22
 2266 084a 7E100000 		.4byte	0x107e
 2267 084e 29       		.uleb128 0x29
 2268 084f 8C000000 		.4byte	.LVL23
 2269 0853 65100000 		.4byte	0x1065
 2270 0857 62080000 		.4byte	0x862
 2271 085b 21       		.uleb128 0x21
 2272 085c 01       		.byte	0x1
 2273 085d 50       		.byte	0x50
 2274 085e 02       		.byte	0x2
 2275 085f 74       		.byte	0x74
 2276 0860 00       		.sleb128 0
 2277 0861 00       		.byte	0
 2278 0862 2A       		.uleb128 0x2a
 2279 0863 94000000 		.4byte	.LVL25
 2280 0867 7E100000 		.4byte	0x107e
 2281 086b 29       		.uleb128 0x29
 2282 086c 9C000000 		.4byte	.LVL26
 2283 0870 65100000 		.4byte	0x1065
 2284 0874 7F080000 		.4byte	0x87f
 2285 0878 21       		.uleb128 0x21
 2286 0879 01       		.byte	0x1
 2287 087a 50       		.byte	0x50
 2288 087b 02       		.byte	0x2
 2289 087c 74       		.byte	0x74
 2290 087d 00       		.sleb128 0
 2291 087e 00       		.byte	0
 2292 087f 2A       		.uleb128 0x2a
 2293 0880 A4000000 		.4byte	.LVL28
 2294 0884 7E100000 		.4byte	0x107e
 2295 0888 00       		.byte	0
 2296 0889 29       		.uleb128 0x29
 2297 088a B8000000 		.4byte	.LVL29
 2298 088e 92100000 		.4byte	0x1092
 2299 0892 9C080000 		.4byte	0x89c
 2300 0896 21       		.uleb128 0x21
 2301 0897 01       		.byte	0x1
 2302 0898 50       		.byte	0x50
 2303 0899 01       		.byte	0x1
 2304 089a 33       		.byte	0x33
 2305 089b 00       		.byte	0
 2306 089c 29       		.uleb128 0x29
 2307 089d CA000000 		.4byte	.LVL32
 2308 08a1 AF100000 		.4byte	0x10af
 2309 08a5 B8080000 		.4byte	0x8b8
 2310 08a9 21       		.uleb128 0x21
 2311 08aa 01       		.byte	0x1
 2312 08ab 51       		.byte	0x51
 2313 08ac 05       		.byte	0x5
 2314 08ad 03       		.byte	0x3
 2315 08ae 00000000 		.4byte	.LC9
 2316 08b2 21       		.uleb128 0x21
 2317 08b3 01       		.byte	0x1
ARM GAS  C:\Users\3130\AppData\Local\Temp\ccaFL17a.s 			page 42


 2318 08b4 50       		.byte	0x50
 2319 08b5 01       		.byte	0x1
 2320 08b6 34       		.byte	0x34
 2321 08b7 00       		.byte	0
 2322 08b8 29       		.uleb128 0x29
 2323 08b9 D6000000 		.4byte	.LVL33
 2324 08bd 65100000 		.4byte	0x1065
 2325 08c1 CC080000 		.4byte	0x8cc
 2326 08c5 21       		.uleb128 0x21
 2327 08c6 01       		.byte	0x1
 2328 08c7 50       		.byte	0x50
 2329 08c8 02       		.byte	0x2
 2330 08c9 74       		.byte	0x74
 2331 08ca 00       		.sleb128 0
 2332 08cb 00       		.byte	0
 2333 08cc 29       		.uleb128 0x29
 2334 08cd E2000000 		.4byte	.LVL34
 2335 08d1 92100000 		.4byte	0x1092
 2336 08d5 DF080000 		.4byte	0x8df
 2337 08d9 21       		.uleb128 0x21
 2338 08da 01       		.byte	0x1
 2339 08db 50       		.byte	0x50
 2340 08dc 01       		.byte	0x1
 2341 08dd 35       		.byte	0x35
 2342 08de 00       		.byte	0
 2343 08df 29       		.uleb128 0x29
 2344 08e0 F8000000 		.4byte	.LVL35
 2345 08e4 D2100000 		.4byte	0x10d2
 2346 08e8 04090000 		.4byte	0x904
 2347 08ec 21       		.uleb128 0x21
 2348 08ed 01       		.byte	0x1
 2349 08ee 53       		.byte	0x53
 2350 08ef 01       		.byte	0x1
 2351 08f0 30       		.byte	0x30
 2352 08f1 21       		.uleb128 0x21
 2353 08f2 01       		.byte	0x1
 2354 08f3 52       		.byte	0x52
 2355 08f4 01       		.byte	0x1
 2356 08f5 38       		.byte	0x38
 2357 08f6 21       		.uleb128 0x21
 2358 08f7 01       		.byte	0x1
 2359 08f8 51       		.byte	0x51
 2360 08f9 03       		.byte	0x3
 2361 08fa 75       		.byte	0x75
 2362 08fb 04       		.sleb128 4
 2363 08fc 06       		.byte	0x6
 2364 08fd 21       		.uleb128 0x21
 2365 08fe 01       		.byte	0x1
 2366 08ff 50       		.byte	0x50
 2367 0900 02       		.byte	0x2
 2368 0901 74       		.byte	0x74
 2369 0902 00       		.sleb128 0
 2370 0903 00       		.byte	0
 2371 0904 29       		.uleb128 0x29
 2372 0905 04010000 		.4byte	.LVL37
 2373 0909 92100000 		.4byte	0x1092
 2374 090d 17090000 		.4byte	0x917
ARM GAS  C:\Users\3130\AppData\Local\Temp\ccaFL17a.s 			page 43


 2375 0911 21       		.uleb128 0x21
 2376 0912 01       		.byte	0x1
 2377 0913 50       		.byte	0x50
 2378 0914 01       		.byte	0x1
 2379 0915 36       		.byte	0x36
 2380 0916 00       		.byte	0
 2381 0917 29       		.uleb128 0x29
 2382 0918 16010000 		.4byte	.LVL38
 2383 091c 92100000 		.4byte	0x1092
 2384 0920 2A090000 		.4byte	0x92a
 2385 0924 21       		.uleb128 0x21
 2386 0925 01       		.byte	0x1
 2387 0926 50       		.byte	0x50
 2388 0927 01       		.byte	0x1
 2389 0928 37       		.byte	0x37
 2390 0929 00       		.byte	0
 2391 092a 29       		.uleb128 0x29
 2392 092b 36010000 		.4byte	.LVL39
 2393 092f FA100000 		.4byte	0x10fa
 2394 0933 4E090000 		.4byte	0x94e
 2395 0937 21       		.uleb128 0x21
 2396 0938 01       		.byte	0x1
 2397 0939 53       		.byte	0x53
 2398 093a 05       		.byte	0x5
 2399 093b 03       		.byte	0x3
 2400 093c 00000000 		.4byte	thread2
 2401 0940 21       		.uleb128 0x21
 2402 0941 01       		.byte	0x1
 2403 0942 51       		.byte	0x51
 2404 0943 03       		.byte	0x3
 2405 0944 0A       		.byte	0xa
 2406 0945 3001     		.2byte	0x130
 2407 0947 21       		.uleb128 0x21
 2408 0948 01       		.byte	0x1
 2409 0949 50       		.byte	0x50
 2410 094a 02       		.byte	0x2
 2411 094b 75       		.byte	0x75
 2412 094c 00       		.sleb128 0
 2413 094d 00       		.byte	0
 2414 094e 29       		.uleb128 0x29
 2415 094f 52010000 		.4byte	.LVL40
 2416 0953 92100000 		.4byte	0x1092
 2417 0957 61090000 		.4byte	0x961
 2418 095b 21       		.uleb128 0x21
 2419 095c 01       		.byte	0x1
 2420 095d 50       		.byte	0x50
 2421 095e 01       		.byte	0x1
 2422 095f 38       		.byte	0x38
 2423 0960 00       		.byte	0
 2424 0961 2A       		.uleb128 0x2a
 2425 0962 5C010000 		.4byte	.LVL41
 2426 0966 27110000 		.4byte	0x1127
 2427 096a 29       		.uleb128 0x29
 2428 096b 64010000 		.4byte	.LVL42
 2429 096f 31110000 		.4byte	0x1131
 2430 0973 7E090000 		.4byte	0x97e
 2431 0977 21       		.uleb128 0x21
ARM GAS  C:\Users\3130\AppData\Local\Temp\ccaFL17a.s 			page 44


 2432 0978 01       		.byte	0x1
 2433 0979 50       		.byte	0x50
 2434 097a 02       		.byte	0x2
 2435 097b 74       		.byte	0x74
 2436 097c 00       		.sleb128 0
 2437 097d 00       		.byte	0
 2438 097e 29       		.uleb128 0x29
 2439 097f 7C010000 		.4byte	.LVL43
 2440 0983 92100000 		.4byte	0x1092
 2441 0987 91090000 		.4byte	0x991
 2442 098b 21       		.uleb128 0x21
 2443 098c 01       		.byte	0x1
 2444 098d 50       		.byte	0x50
 2445 098e 01       		.byte	0x1
 2446 098f 39       		.byte	0x39
 2447 0990 00       		.byte	0
 2448 0991 29       		.uleb128 0x29
 2449 0992 90010000 		.4byte	.LVL44
 2450 0996 D2100000 		.4byte	0x10d2
 2451 099a B6090000 		.4byte	0x9b6
 2452 099e 21       		.uleb128 0x21
 2453 099f 01       		.byte	0x1
 2454 09a0 53       		.byte	0x53
 2455 09a1 01       		.byte	0x1
 2456 09a2 30       		.byte	0x30
 2457 09a3 21       		.uleb128 0x21
 2458 09a4 01       		.byte	0x1
 2459 09a5 52       		.byte	0x52
 2460 09a6 01       		.byte	0x1
 2461 09a7 32       		.byte	0x32
 2462 09a8 21       		.uleb128 0x21
 2463 09a9 01       		.byte	0x1
 2464 09aa 51       		.byte	0x51
 2465 09ab 03       		.byte	0x3
 2466 09ac 91       		.byte	0x91
 2467 09ad 68       		.sleb128 -24
 2468 09ae 06       		.byte	0x6
 2469 09af 21       		.uleb128 0x21
 2470 09b0 01       		.byte	0x1
 2471 09b1 50       		.byte	0x50
 2472 09b2 02       		.byte	0x2
 2473 09b3 74       		.byte	0x74
 2474 09b4 00       		.sleb128 0
 2475 09b5 00       		.byte	0
 2476 09b6 29       		.uleb128 0x29
 2477 09b7 9C010000 		.4byte	.LVL46
 2478 09bb 92100000 		.4byte	0x1092
 2479 09bf C9090000 		.4byte	0x9c9
 2480 09c3 21       		.uleb128 0x21
 2481 09c4 01       		.byte	0x1
 2482 09c5 50       		.byte	0x50
 2483 09c6 01       		.byte	0x1
 2484 09c7 3A       		.byte	0x3a
 2485 09c8 00       		.byte	0
 2486 09c9 29       		.uleb128 0x29
 2487 09ca AC010000 		.4byte	.LVL47
 2488 09ce D2100000 		.4byte	0x10d2
ARM GAS  C:\Users\3130\AppData\Local\Temp\ccaFL17a.s 			page 45


 2489 09d2 E9090000 		.4byte	0x9e9
 2490 09d6 21       		.uleb128 0x21
 2491 09d7 01       		.byte	0x1
 2492 09d8 52       		.byte	0x52
 2493 09d9 01       		.byte	0x1
 2494 09da 32       		.byte	0x32
 2495 09db 21       		.uleb128 0x21
 2496 09dc 01       		.byte	0x1
 2497 09dd 51       		.byte	0x51
 2498 09de 03       		.byte	0x3
 2499 09df 91       		.byte	0x91
 2500 09e0 68       		.sleb128 -24
 2501 09e1 06       		.byte	0x6
 2502 09e2 21       		.uleb128 0x21
 2503 09e3 01       		.byte	0x1
 2504 09e4 50       		.byte	0x50
 2505 09e5 02       		.byte	0x2
 2506 09e6 74       		.byte	0x74
 2507 09e7 00       		.sleb128 0
 2508 09e8 00       		.byte	0
 2509 09e9 29       		.uleb128 0x29
 2510 09ea B8010000 		.4byte	.LVL49
 2511 09ee 92100000 		.4byte	0x1092
 2512 09f2 FC090000 		.4byte	0x9fc
 2513 09f6 21       		.uleb128 0x21
 2514 09f7 01       		.byte	0x1
 2515 09f8 50       		.byte	0x50
 2516 09f9 01       		.byte	0x1
 2517 09fa 3B       		.byte	0x3b
 2518 09fb 00       		.byte	0
 2519 09fc 29       		.uleb128 0x29
 2520 09fd CC010000 		.4byte	.LVL50
 2521 0a01 92100000 		.4byte	0x1092
 2522 0a05 170A0000 		.4byte	0xa17
 2523 0a09 21       		.uleb128 0x21
 2524 0a0a 01       		.byte	0x1
 2525 0a0b 51       		.byte	0x51
 2526 0a0c 04       		.byte	0x4
 2527 0a0d 75       		.byte	0x75
 2528 0a0e 00       		.sleb128 0
 2529 0a0f 30       		.byte	0x30
 2530 0a10 29       		.byte	0x29
 2531 0a11 21       		.uleb128 0x21
 2532 0a12 01       		.byte	0x1
 2533 0a13 50       		.byte	0x50
 2534 0a14 01       		.byte	0x1
 2535 0a15 3C       		.byte	0x3c
 2536 0a16 00       		.byte	0
 2537 0a17 29       		.uleb128 0x29
 2538 0a18 DE010000 		.4byte	.LVL51
 2539 0a1c C60F0000 		.4byte	0xfc6
 2540 0a20 350A0000 		.4byte	0xa35
 2541 0a24 21       		.uleb128 0x21
 2542 0a25 01       		.byte	0x1
 2543 0a26 52       		.byte	0x52
 2544 0a27 01       		.byte	0x1
 2545 0a28 3A       		.byte	0x3a
ARM GAS  C:\Users\3130\AppData\Local\Temp\ccaFL17a.s 			page 46


 2546 0a29 21       		.uleb128 0x21
 2547 0a2a 01       		.byte	0x1
 2548 0a2b 51       		.byte	0x51
 2549 0a2c 01       		.byte	0x1
 2550 0a2d 30       		.byte	0x30
 2551 0a2e 21       		.uleb128 0x21
 2552 0a2f 01       		.byte	0x1
 2553 0a30 50       		.byte	0x50
 2554 0a31 02       		.byte	0x2
 2555 0a32 74       		.byte	0x74
 2556 0a33 00       		.sleb128 0
 2557 0a34 00       		.byte	0
 2558 0a35 20       		.uleb128 0x20
 2559 0a36 EA010000 		.4byte	.LVL52
 2560 0a3a 92100000 		.4byte	0x1092
 2561 0a3e 21       		.uleb128 0x21
 2562 0a3f 01       		.byte	0x1
 2563 0a40 50       		.byte	0x50
 2564 0a41 01       		.byte	0x1
 2565 0a42 3D       		.byte	0x3d
 2566 0a43 00       		.byte	0
 2567 0a44 00       		.byte	0
 2568 0a45 00       		.byte	0
 2569 0a46 29       		.uleb128 0x29
 2570 0a47 1A000000 		.4byte	.LVL9
 2571 0a4b 92100000 		.4byte	0x1092
 2572 0a4f 590A0000 		.4byte	0xa59
 2573 0a53 21       		.uleb128 0x21
 2574 0a54 01       		.byte	0x1
 2575 0a55 50       		.byte	0x50
 2576 0a56 01       		.byte	0x1
 2577 0a57 31       		.byte	0x31
 2578 0a58 00       		.byte	0
 2579 0a59 29       		.uleb128 0x29
 2580 0a5a 2C000000 		.4byte	.LVL11
 2581 0a5e C60F0000 		.4byte	0xfc6
 2582 0a62 7A0A0000 		.4byte	0xa7a
 2583 0a66 21       		.uleb128 0x21
 2584 0a67 01       		.byte	0x1
 2585 0a68 52       		.byte	0x52
 2586 0a69 03       		.byte	0x3
 2587 0a6a 75       		.byte	0x75
 2588 0a6b 00       		.sleb128 0
 2589 0a6c 1F       		.byte	0x1f
 2590 0a6d 21       		.uleb128 0x21
 2591 0a6e 01       		.byte	0x1
 2592 0a6f 51       		.byte	0x51
 2593 0a70 02       		.byte	0x2
 2594 0a71 08       		.byte	0x8
 2595 0a72 41       		.byte	0x41
 2596 0a73 21       		.uleb128 0x21
 2597 0a74 01       		.byte	0x1
 2598 0a75 50       		.byte	0x50
 2599 0a76 02       		.byte	0x2
 2600 0a77 74       		.byte	0x74
 2601 0a78 00       		.sleb128 0
 2602 0a79 00       		.byte	0
ARM GAS  C:\Users\3130\AppData\Local\Temp\ccaFL17a.s 			page 47


 2603 0a7a 29       		.uleb128 0x29
 2604 0a7b 38000000 		.4byte	.LVL12
 2605 0a7f C60F0000 		.4byte	0xfc6
 2606 0a83 9B0A0000 		.4byte	0xa9b
 2607 0a87 21       		.uleb128 0x21
 2608 0a88 01       		.byte	0x1
 2609 0a89 52       		.byte	0x52
 2610 0a8a 03       		.byte	0x3
 2611 0a8b 75       		.byte	0x75
 2612 0a8c 00       		.sleb128 0
 2613 0a8d 1F       		.byte	0x1f
 2614 0a8e 21       		.uleb128 0x21
 2615 0a8f 01       		.byte	0x1
 2616 0a90 51       		.byte	0x51
 2617 0a91 02       		.byte	0x2
 2618 0a92 08       		.byte	0x8
 2619 0a93 42       		.byte	0x42
 2620 0a94 21       		.uleb128 0x21
 2621 0a95 01       		.byte	0x1
 2622 0a96 50       		.byte	0x50
 2623 0a97 02       		.byte	0x2
 2624 0a98 74       		.byte	0x74
 2625 0a99 00       		.sleb128 0
 2626 0a9a 00       		.byte	0
 2627 0a9b 29       		.uleb128 0x29
 2628 0a9c 46000000 		.4byte	.LVL13
 2629 0aa0 C60F0000 		.4byte	0xfc6
 2630 0aa4 BC0A0000 		.4byte	0xabc
 2631 0aa8 21       		.uleb128 0x21
 2632 0aa9 01       		.byte	0x1
 2633 0aaa 52       		.byte	0x52
 2634 0aab 03       		.byte	0x3
 2635 0aac 75       		.byte	0x75
 2636 0aad 00       		.sleb128 0
 2637 0aae 1F       		.byte	0x1f
 2638 0aaf 21       		.uleb128 0x21
 2639 0ab0 01       		.byte	0x1
 2640 0ab1 51       		.byte	0x51
 2641 0ab2 02       		.byte	0x2
 2642 0ab3 08       		.byte	0x8
 2643 0ab4 43       		.byte	0x43
 2644 0ab5 21       		.uleb128 0x21
 2645 0ab6 01       		.byte	0x1
 2646 0ab7 50       		.byte	0x50
 2647 0ab8 02       		.byte	0x2
 2648 0ab9 74       		.byte	0x74
 2649 0aba 00       		.sleb128 0
 2650 0abb 00       		.byte	0
 2651 0abc 29       		.uleb128 0x29
 2652 0abd 50000000 		.4byte	.LVL14
 2653 0ac1 C60F0000 		.4byte	0xfc6
 2654 0ac5 DD0A0000 		.4byte	0xadd
 2655 0ac9 21       		.uleb128 0x21
 2656 0aca 01       		.byte	0x1
 2657 0acb 52       		.byte	0x52
 2658 0acc 03       		.byte	0x3
 2659 0acd 75       		.byte	0x75
ARM GAS  C:\Users\3130\AppData\Local\Temp\ccaFL17a.s 			page 48


 2660 0ace 00       		.sleb128 0
 2661 0acf 1F       		.byte	0x1f
 2662 0ad0 21       		.uleb128 0x21
 2663 0ad1 01       		.byte	0x1
 2664 0ad2 51       		.byte	0x51
 2665 0ad3 02       		.byte	0x2
 2666 0ad4 08       		.byte	0x8
 2667 0ad5 44       		.byte	0x44
 2668 0ad6 21       		.uleb128 0x21
 2669 0ad7 01       		.byte	0x1
 2670 0ad8 50       		.byte	0x50
 2671 0ad9 02       		.byte	0x2
 2672 0ada 74       		.byte	0x74
 2673 0adb 00       		.sleb128 0
 2674 0adc 00       		.byte	0
 2675 0add 20       		.uleb128 0x20
 2676 0ade 5E000000 		.4byte	.LVL15
 2677 0ae2 92100000 		.4byte	0x1092
 2678 0ae6 21       		.uleb128 0x21
 2679 0ae7 01       		.byte	0x1
 2680 0ae8 50       		.byte	0x50
 2681 0ae9 01       		.byte	0x1
 2682 0aea 32       		.byte	0x32
 2683 0aeb 00       		.byte	0
 2684 0aec 00       		.byte	0
 2685 0aed 23       		.uleb128 0x23
 2686 0aee 5C060000 		.4byte	0x65c
 2687 0af2 00000000 		.4byte	.LFB10
 2688 0af6 40020000 		.4byte	.LFE10
 2689 0afa 1B020000 		.4byte	.LLST11
 2690 0afe 01       		.byte	0x1
 2691 0aff FD0E0000 		.4byte	0xefd
 2692 0b03 24       		.uleb128 0x24
 2693 0b04 69060000 		.4byte	0x669
 2694 0b08 47020000 		.4byte	.LLST12
 2695 0b0c 25       		.uleb128 0x25
 2696 0b0d 72060000 		.4byte	0x672
 2697 0b11 2B       		.uleb128 0x2b
 2698 0b12 5C060000 		.4byte	0x65c
 2699 0b16 5C000000 		.4byte	.LBB15
 2700 0b1a 20020000 		.4byte	.LBE15
 2701 0b1e 01       		.byte	0x1
 2702 0b1f 5A       		.byte	0x5a
 2703 0b20 720E0000 		.4byte	0xe72
 2704 0b24 2C       		.uleb128 0x2c
 2705 0b25 5C000000 		.4byte	.LBB16
 2706 0b29 20020000 		.4byte	.LBE16
 2707 0b2d 24       		.uleb128 0x24
 2708 0b2e 69060000 		.4byte	0x669
 2709 0b32 97020000 		.4byte	.LLST13
 2710 0b36 24       		.uleb128 0x24
 2711 0b37 72060000 		.4byte	0x672
 2712 0b3b 53030000 		.4byte	.LLST14
 2713 0b3f 29       		.uleb128 0x29
 2714 0b40 66000000 		.4byte	.LVL64
 2715 0b44 46110000 		.4byte	0x1146
 2716 0b48 580B0000 		.4byte	0xb58
ARM GAS  C:\Users\3130\AppData\Local\Temp\ccaFL17a.s 			page 49


 2717 0b4c 21       		.uleb128 0x21
 2718 0b4d 01       		.byte	0x1
 2719 0b4e 51       		.byte	0x51
 2720 0b4f 01       		.byte	0x1
 2721 0b50 30       		.byte	0x30
 2722 0b51 21       		.uleb128 0x21
 2723 0b52 01       		.byte	0x1
 2724 0b53 50       		.byte	0x50
 2725 0b54 02       		.byte	0x2
 2726 0b55 74       		.byte	0x74
 2727 0b56 00       		.sleb128 0
 2728 0b57 00       		.byte	0
 2729 0b58 29       		.uleb128 0x29
 2730 0b59 72000000 		.4byte	.LVL65
 2731 0b5d 92100000 		.4byte	0x1092
 2732 0b61 6B0B0000 		.4byte	0xb6b
 2733 0b65 21       		.uleb128 0x21
 2734 0b66 01       		.byte	0x1
 2735 0b67 50       		.byte	0x50
 2736 0b68 01       		.byte	0x1
 2737 0b69 33       		.byte	0x33
 2738 0b6a 00       		.byte	0
 2739 0b6b 29       		.uleb128 0x29
 2740 0b6c 82000000 		.4byte	.LVL67
 2741 0b70 18100000 		.4byte	0x1018
 2742 0b74 850B0000 		.4byte	0xb85
 2743 0b78 21       		.uleb128 0x21
 2744 0b79 01       		.byte	0x1
 2745 0b7a 51       		.byte	0x51
 2746 0b7b 02       		.byte	0x2
 2747 0b7c 09       		.byte	0x9
 2748 0b7d FF       		.byte	0xff
 2749 0b7e 21       		.uleb128 0x21
 2750 0b7f 01       		.byte	0x1
 2751 0b80 50       		.byte	0x50
 2752 0b81 02       		.byte	0x2
 2753 0b82 74       		.byte	0x74
 2754 0b83 00       		.sleb128 0
 2755 0b84 00       		.byte	0
 2756 0b85 2A       		.uleb128 0x2a
 2757 0b86 8A000000 		.4byte	.LVL68
 2758 0b8a 7E100000 		.4byte	0x107e
 2759 0b8e 29       		.uleb128 0x29
 2760 0b8f 92000000 		.4byte	.LVL69
 2761 0b93 18100000 		.4byte	0x1018
 2762 0b97 A90B0000 		.4byte	0xba9
 2763 0b9b 21       		.uleb128 0x21
 2764 0b9c 01       		.byte	0x1
 2765 0b9d 51       		.byte	0x51
 2766 0b9e 03       		.byte	0x3
 2767 0b9f 75       		.byte	0x75
 2768 0ba0 00       		.sleb128 0
 2769 0ba1 1F       		.byte	0x1f
 2770 0ba2 21       		.uleb128 0x21
 2771 0ba3 01       		.byte	0x1
 2772 0ba4 50       		.byte	0x50
 2773 0ba5 02       		.byte	0x2
ARM GAS  C:\Users\3130\AppData\Local\Temp\ccaFL17a.s 			page 50


 2774 0ba6 74       		.byte	0x74
 2775 0ba7 00       		.sleb128 0
 2776 0ba8 00       		.byte	0
 2777 0ba9 2A       		.uleb128 0x2a
 2778 0baa 98000000 		.4byte	.LVL70
 2779 0bae 7E100000 		.4byte	0x107e
 2780 0bb2 29       		.uleb128 0x29
 2781 0bb3 A2000000 		.4byte	.LVL71
 2782 0bb7 18100000 		.4byte	0x1018
 2783 0bbb CD0B0000 		.4byte	0xbcd
 2784 0bbf 21       		.uleb128 0x21
 2785 0bc0 01       		.byte	0x1
 2786 0bc1 51       		.byte	0x51
 2787 0bc2 03       		.byte	0x3
 2788 0bc3 75       		.byte	0x75
 2789 0bc4 00       		.sleb128 0
 2790 0bc5 1F       		.byte	0x1f
 2791 0bc6 21       		.uleb128 0x21
 2792 0bc7 01       		.byte	0x1
 2793 0bc8 50       		.byte	0x50
 2794 0bc9 02       		.byte	0x2
 2795 0bca 74       		.byte	0x74
 2796 0bcb 00       		.sleb128 0
 2797 0bcc 00       		.byte	0
 2798 0bcd 2A       		.uleb128 0x2a
 2799 0bce A8000000 		.4byte	.LVL72
 2800 0bd2 7E100000 		.4byte	0x107e
 2801 0bd6 29       		.uleb128 0x29
 2802 0bd7 B2000000 		.4byte	.LVL73
 2803 0bdb 18100000 		.4byte	0x1018
 2804 0bdf F10B0000 		.4byte	0xbf1
 2805 0be3 21       		.uleb128 0x21
 2806 0be4 01       		.byte	0x1
 2807 0be5 51       		.byte	0x51
 2808 0be6 03       		.byte	0x3
 2809 0be7 75       		.byte	0x75
 2810 0be8 00       		.sleb128 0
 2811 0be9 1F       		.byte	0x1f
 2812 0bea 21       		.uleb128 0x21
 2813 0beb 01       		.byte	0x1
 2814 0bec 50       		.byte	0x50
 2815 0bed 02       		.byte	0x2
 2816 0bee 74       		.byte	0x74
 2817 0bef 00       		.sleb128 0
 2818 0bf0 00       		.byte	0
 2819 0bf1 2A       		.uleb128 0x2a
 2820 0bf2 B8000000 		.4byte	.LVL74
 2821 0bf6 7E100000 		.4byte	0x107e
 2822 0bfa 29       		.uleb128 0x29
 2823 0bfb C6000000 		.4byte	.LVL75
 2824 0bff 92100000 		.4byte	0x1092
 2825 0c03 0D0C0000 		.4byte	0xc0d
 2826 0c07 21       		.uleb128 0x21
 2827 0c08 01       		.byte	0x1
 2828 0c09 50       		.byte	0x50
 2829 0c0a 01       		.byte	0x1
 2830 0c0b 34       		.byte	0x34
ARM GAS  C:\Users\3130\AppData\Local\Temp\ccaFL17a.s 			page 51


 2831 0c0c 00       		.byte	0
 2832 0c0d 29       		.uleb128 0x29
 2833 0c0e D4000000 		.4byte	.LVL76
 2834 0c12 AF100000 		.4byte	0x10af
 2835 0c16 290C0000 		.4byte	0xc29
 2836 0c1a 21       		.uleb128 0x21
 2837 0c1b 01       		.byte	0x1
 2838 0c1c 51       		.byte	0x51
 2839 0c1d 05       		.byte	0x5
 2840 0c1e 03       		.byte	0x3
 2841 0c1f 00000000 		.4byte	.LC9
 2842 0c23 21       		.uleb128 0x21
 2843 0c24 01       		.byte	0x1
 2844 0c25 50       		.byte	0x50
 2845 0c26 01       		.byte	0x1
 2846 0c27 35       		.byte	0x35
 2847 0c28 00       		.byte	0
 2848 0c29 29       		.uleb128 0x29
 2849 0c2a E2000000 		.4byte	.LVL78
 2850 0c2e 46110000 		.4byte	0x1146
 2851 0c32 430C0000 		.4byte	0xc43
 2852 0c36 21       		.uleb128 0x21
 2853 0c37 01       		.byte	0x1
 2854 0c38 51       		.byte	0x51
 2855 0c39 02       		.byte	0x2
 2856 0c3a 08       		.byte	0x8
 2857 0c3b 41       		.byte	0x41
 2858 0c3c 21       		.uleb128 0x21
 2859 0c3d 01       		.byte	0x1
 2860 0c3e 50       		.byte	0x50
 2861 0c3f 02       		.byte	0x2
 2862 0c40 74       		.byte	0x74
 2863 0c41 00       		.sleb128 0
 2864 0c42 00       		.byte	0
 2865 0c43 29       		.uleb128 0x29
 2866 0c44 EA000000 		.4byte	.LVL79
 2867 0c48 46110000 		.4byte	0x1146
 2868 0c4c 5D0C0000 		.4byte	0xc5d
 2869 0c50 21       		.uleb128 0x21
 2870 0c51 01       		.byte	0x1
 2871 0c52 51       		.byte	0x51
 2872 0c53 02       		.byte	0x2
 2873 0c54 08       		.byte	0x8
 2874 0c55 42       		.byte	0x42
 2875 0c56 21       		.uleb128 0x21
 2876 0c57 01       		.byte	0x1
 2877 0c58 50       		.byte	0x50
 2878 0c59 02       		.byte	0x2
 2879 0c5a 74       		.byte	0x74
 2880 0c5b 00       		.sleb128 0
 2881 0c5c 00       		.byte	0
 2882 0c5d 29       		.uleb128 0x29
 2883 0c5e F2000000 		.4byte	.LVL80
 2884 0c62 46110000 		.4byte	0x1146
 2885 0c66 770C0000 		.4byte	0xc77
 2886 0c6a 21       		.uleb128 0x21
 2887 0c6b 01       		.byte	0x1
ARM GAS  C:\Users\3130\AppData\Local\Temp\ccaFL17a.s 			page 52


 2888 0c6c 51       		.byte	0x51
 2889 0c6d 02       		.byte	0x2
 2890 0c6e 08       		.byte	0x8
 2891 0c6f 43       		.byte	0x43
 2892 0c70 21       		.uleb128 0x21
 2893 0c71 01       		.byte	0x1
 2894 0c72 50       		.byte	0x50
 2895 0c73 02       		.byte	0x2
 2896 0c74 74       		.byte	0x74
 2897 0c75 00       		.sleb128 0
 2898 0c76 00       		.byte	0
 2899 0c77 29       		.uleb128 0x29
 2900 0c78 FA000000 		.4byte	.LVL81
 2901 0c7c 46110000 		.4byte	0x1146
 2902 0c80 910C0000 		.4byte	0xc91
 2903 0c84 21       		.uleb128 0x21
 2904 0c85 01       		.byte	0x1
 2905 0c86 51       		.byte	0x51
 2906 0c87 02       		.byte	0x2
 2907 0c88 08       		.byte	0x8
 2908 0c89 44       		.byte	0x44
 2909 0c8a 21       		.uleb128 0x21
 2910 0c8b 01       		.byte	0x1
 2911 0c8c 50       		.byte	0x50
 2912 0c8d 02       		.byte	0x2
 2913 0c8e 74       		.byte	0x74
 2914 0c8f 00       		.sleb128 0
 2915 0c90 00       		.byte	0
 2916 0c91 29       		.uleb128 0x29
 2917 0c92 0C010000 		.4byte	.LVL82
 2918 0c96 64110000 		.4byte	0x1164
 2919 0c9a B60C0000 		.4byte	0xcb6
 2920 0c9e 21       		.uleb128 0x21
 2921 0c9f 01       		.byte	0x1
 2922 0ca0 53       		.byte	0x53
 2923 0ca1 01       		.byte	0x1
 2924 0ca2 30       		.byte	0x30
 2925 0ca3 21       		.uleb128 0x21
 2926 0ca4 01       		.byte	0x1
 2927 0ca5 52       		.byte	0x52
 2928 0ca6 01       		.byte	0x1
 2929 0ca7 38       		.byte	0x38
 2930 0ca8 21       		.uleb128 0x21
 2931 0ca9 01       		.byte	0x1
 2932 0caa 51       		.byte	0x51
 2933 0cab 03       		.byte	0x3
 2934 0cac 75       		.byte	0x75
 2935 0cad 04       		.sleb128 4
 2936 0cae 06       		.byte	0x6
 2937 0caf 21       		.uleb128 0x21
 2938 0cb0 01       		.byte	0x1
 2939 0cb1 50       		.byte	0x50
 2940 0cb2 02       		.byte	0x2
 2941 0cb3 74       		.byte	0x74
 2942 0cb4 00       		.sleb128 0
 2943 0cb5 00       		.byte	0
 2944 0cb6 29       		.uleb128 0x29
ARM GAS  C:\Users\3130\AppData\Local\Temp\ccaFL17a.s 			page 53


 2945 0cb7 18010000 		.4byte	.LVL84
 2946 0cbb 92100000 		.4byte	0x1092
 2947 0cbf C90C0000 		.4byte	0xcc9
 2948 0cc3 21       		.uleb128 0x21
 2949 0cc4 01       		.byte	0x1
 2950 0cc5 50       		.byte	0x50
 2951 0cc6 01       		.byte	0x1
 2952 0cc7 36       		.byte	0x36
 2953 0cc8 00       		.byte	0
 2954 0cc9 29       		.uleb128 0x29
 2955 0cca 2A010000 		.4byte	.LVL85
 2956 0cce 92100000 		.4byte	0x1092
 2957 0cd2 DC0C0000 		.4byte	0xcdc
 2958 0cd6 21       		.uleb128 0x21
 2959 0cd7 01       		.byte	0x1
 2960 0cd8 50       		.byte	0x50
 2961 0cd9 01       		.byte	0x1
 2962 0cda 37       		.byte	0x37
 2963 0cdb 00       		.byte	0
 2964 0cdc 29       		.uleb128 0x29
 2965 0cdd 3C010000 		.4byte	.LVL87
 2966 0ce1 46110000 		.4byte	0x1146
 2967 0ce5 F60C0000 		.4byte	0xcf6
 2968 0ce9 21       		.uleb128 0x21
 2969 0cea 01       		.byte	0x1
 2970 0ceb 51       		.byte	0x51
 2971 0cec 02       		.byte	0x2
 2972 0ced 08       		.byte	0x8
 2973 0cee 41       		.byte	0x41
 2974 0cef 21       		.uleb128 0x21
 2975 0cf0 01       		.byte	0x1
 2976 0cf1 50       		.byte	0x50
 2977 0cf2 02       		.byte	0x2
 2978 0cf3 74       		.byte	0x74
 2979 0cf4 00       		.sleb128 0
 2980 0cf5 00       		.byte	0
 2981 0cf6 29       		.uleb128 0x29
 2982 0cf7 44010000 		.4byte	.LVL88
 2983 0cfb 46110000 		.4byte	0x1146
 2984 0cff 100D0000 		.4byte	0xd10
 2985 0d03 21       		.uleb128 0x21
 2986 0d04 01       		.byte	0x1
 2987 0d05 51       		.byte	0x51
 2988 0d06 02       		.byte	0x2
 2989 0d07 08       		.byte	0x8
 2990 0d08 42       		.byte	0x42
 2991 0d09 21       		.uleb128 0x21
 2992 0d0a 01       		.byte	0x1
 2993 0d0b 50       		.byte	0x50
 2994 0d0c 02       		.byte	0x2
 2995 0d0d 74       		.byte	0x74
 2996 0d0e 00       		.sleb128 0
 2997 0d0f 00       		.byte	0
 2998 0d10 29       		.uleb128 0x29
 2999 0d11 4C010000 		.4byte	.LVL89
 3000 0d15 46110000 		.4byte	0x1146
 3001 0d19 2A0D0000 		.4byte	0xd2a
ARM GAS  C:\Users\3130\AppData\Local\Temp\ccaFL17a.s 			page 54


 3002 0d1d 21       		.uleb128 0x21
 3003 0d1e 01       		.byte	0x1
 3004 0d1f 51       		.byte	0x51
 3005 0d20 02       		.byte	0x2
 3006 0d21 08       		.byte	0x8
 3007 0d22 43       		.byte	0x43
 3008 0d23 21       		.uleb128 0x21
 3009 0d24 01       		.byte	0x1
 3010 0d25 50       		.byte	0x50
 3011 0d26 02       		.byte	0x2
 3012 0d27 74       		.byte	0x74
 3013 0d28 00       		.sleb128 0
 3014 0d29 00       		.byte	0
 3015 0d2a 29       		.uleb128 0x29
 3016 0d2b 54010000 		.4byte	.LVL90
 3017 0d2f 46110000 		.4byte	0x1146
 3018 0d33 440D0000 		.4byte	0xd44
 3019 0d37 21       		.uleb128 0x21
 3020 0d38 01       		.byte	0x1
 3021 0d39 51       		.byte	0x51
 3022 0d3a 02       		.byte	0x2
 3023 0d3b 08       		.byte	0x8
 3024 0d3c 44       		.byte	0x44
 3025 0d3d 21       		.uleb128 0x21
 3026 0d3e 01       		.byte	0x1
 3027 0d3f 50       		.byte	0x50
 3028 0d40 02       		.byte	0x2
 3029 0d41 74       		.byte	0x74
 3030 0d42 00       		.sleb128 0
 3031 0d43 00       		.byte	0
 3032 0d44 29       		.uleb128 0x29
 3033 0d45 62010000 		.4byte	.LVL91
 3034 0d49 64110000 		.4byte	0x1164
 3035 0d4d 690D0000 		.4byte	0xd69
 3036 0d51 21       		.uleb128 0x21
 3037 0d52 01       		.byte	0x1
 3038 0d53 53       		.byte	0x53
 3039 0d54 01       		.byte	0x1
 3040 0d55 30       		.byte	0x30
 3041 0d56 21       		.uleb128 0x21
 3042 0d57 01       		.byte	0x1
 3043 0d58 52       		.byte	0x52
 3044 0d59 01       		.byte	0x1
 3045 0d5a 32       		.byte	0x32
 3046 0d5b 21       		.uleb128 0x21
 3047 0d5c 01       		.byte	0x1
 3048 0d5d 51       		.byte	0x51
 3049 0d5e 03       		.byte	0x3
 3050 0d5f 91       		.byte	0x91
 3051 0d60 6C       		.sleb128 -20
 3052 0d61 06       		.byte	0x6
 3053 0d62 21       		.uleb128 0x21
 3054 0d63 01       		.byte	0x1
 3055 0d64 50       		.byte	0x50
 3056 0d65 02       		.byte	0x2
 3057 0d66 74       		.byte	0x74
 3058 0d67 00       		.sleb128 0
ARM GAS  C:\Users\3130\AppData\Local\Temp\ccaFL17a.s 			page 55


 3059 0d68 00       		.byte	0
 3060 0d69 29       		.uleb128 0x29
 3061 0d6a 6E010000 		.4byte	.LVL93
 3062 0d6e 92100000 		.4byte	0x1092
 3063 0d72 7C0D0000 		.4byte	0xd7c
 3064 0d76 21       		.uleb128 0x21
 3065 0d77 01       		.byte	0x1
 3066 0d78 50       		.byte	0x50
 3067 0d79 01       		.byte	0x1
 3068 0d7a 38       		.byte	0x38
 3069 0d7b 00       		.byte	0
 3070 0d7c 29       		.uleb128 0x29
 3071 0d7d 80010000 		.4byte	.LVL94
 3072 0d81 64110000 		.4byte	0x1164
 3073 0d85 A10D0000 		.4byte	0xda1
 3074 0d89 21       		.uleb128 0x21
 3075 0d8a 01       		.byte	0x1
 3076 0d8b 53       		.byte	0x53
 3077 0d8c 01       		.byte	0x1
 3078 0d8d 30       		.byte	0x30
 3079 0d8e 21       		.uleb128 0x21
 3080 0d8f 01       		.byte	0x1
 3081 0d90 52       		.byte	0x52
 3082 0d91 01       		.byte	0x1
 3083 0d92 32       		.byte	0x32
 3084 0d93 21       		.uleb128 0x21
 3085 0d94 01       		.byte	0x1
 3086 0d95 51       		.byte	0x51
 3087 0d96 03       		.byte	0x3
 3088 0d97 91       		.byte	0x91
 3089 0d98 6C       		.sleb128 -20
 3090 0d99 06       		.byte	0x6
 3091 0d9a 21       		.uleb128 0x21
 3092 0d9b 01       		.byte	0x1
 3093 0d9c 50       		.byte	0x50
 3094 0d9d 02       		.byte	0x2
 3095 0d9e 74       		.byte	0x74
 3096 0d9f 00       		.sleb128 0
 3097 0da0 00       		.byte	0
 3098 0da1 29       		.uleb128 0x29
 3099 0da2 8C010000 		.4byte	.LVL96
 3100 0da6 92100000 		.4byte	0x1092
 3101 0daa B40D0000 		.4byte	0xdb4
 3102 0dae 21       		.uleb128 0x21
 3103 0daf 01       		.byte	0x1
 3104 0db0 50       		.byte	0x50
 3105 0db1 01       		.byte	0x1
 3106 0db2 39       		.byte	0x39
 3107 0db3 00       		.byte	0
 3108 0db4 29       		.uleb128 0x29
 3109 0db5 A0010000 		.4byte	.LVL97
 3110 0db9 92100000 		.4byte	0x1092
 3111 0dbd C70D0000 		.4byte	0xdc7
 3112 0dc1 21       		.uleb128 0x21
 3113 0dc2 01       		.byte	0x1
 3114 0dc3 50       		.byte	0x50
 3115 0dc4 01       		.byte	0x1
ARM GAS  C:\Users\3130\AppData\Local\Temp\ccaFL17a.s 			page 56


 3116 0dc5 3A       		.byte	0x3a
 3117 0dc6 00       		.byte	0
 3118 0dc7 29       		.uleb128 0x29
 3119 0dc8 B2010000 		.4byte	.LVL98
 3120 0dcc 46110000 		.4byte	0x1146
 3121 0dd0 E00D0000 		.4byte	0xde0
 3122 0dd4 21       		.uleb128 0x21
 3123 0dd5 01       		.byte	0x1
 3124 0dd6 51       		.byte	0x51
 3125 0dd7 01       		.byte	0x1
 3126 0dd8 30       		.byte	0x30
 3127 0dd9 21       		.uleb128 0x21
 3128 0dda 01       		.byte	0x1
 3129 0ddb 50       		.byte	0x50
 3130 0ddc 02       		.byte	0x2
 3131 0ddd 74       		.byte	0x74
 3132 0dde 00       		.sleb128 0
 3133 0ddf 00       		.byte	0
 3134 0de0 29       		.uleb128 0x29
 3135 0de1 B8010000 		.4byte	.LVL99
 3136 0de5 8C110000 		.4byte	0x118c
 3137 0de9 F40D0000 		.4byte	0xdf4
 3138 0ded 21       		.uleb128 0x21
 3139 0dee 01       		.byte	0x1
 3140 0def 50       		.byte	0x50
 3141 0df0 02       		.byte	0x2
 3142 0df1 74       		.byte	0x74
 3143 0df2 00       		.sleb128 0
 3144 0df3 00       		.byte	0
 3145 0df4 29       		.uleb128 0x29
 3146 0df5 C8010000 		.4byte	.LVL100
 3147 0df9 92100000 		.4byte	0x1092
 3148 0dfd 070E0000 		.4byte	0xe07
 3149 0e01 21       		.uleb128 0x21
 3150 0e02 01       		.byte	0x1
 3151 0e03 50       		.byte	0x50
 3152 0e04 01       		.byte	0x1
 3153 0e05 3B       		.byte	0x3b
 3154 0e06 00       		.byte	0
 3155 0e07 29       		.uleb128 0x29
 3156 0e08 EC010000 		.4byte	.LVL101
 3157 0e0c FA100000 		.4byte	0x10fa
 3158 0e10 2C0E0000 		.4byte	0xe2c
 3159 0e14 21       		.uleb128 0x21
 3160 0e15 01       		.byte	0x1
 3161 0e16 53       		.byte	0x53
 3162 0e17 05       		.byte	0x5
 3163 0e18 03       		.byte	0x3
 3164 0e19 00000000 		.4byte	thread1
 3165 0e1d 21       		.uleb128 0x21
 3166 0e1e 01       		.byte	0x1
 3167 0e1f 51       		.byte	0x51
 3168 0e20 04       		.byte	0x4
 3169 0e21 75       		.byte	0x75
 3170 0e22 00       		.sleb128 0
 3171 0e23 31       		.byte	0x31
 3172 0e24 24       		.byte	0x24
ARM GAS  C:\Users\3130\AppData\Local\Temp\ccaFL17a.s 			page 57


 3173 0e25 21       		.uleb128 0x21
 3174 0e26 02       		.byte	0x2
 3175 0e27 7D       		.byte	0x7d
 3176 0e28 00       		.sleb128 0
 3177 0e29 01       		.byte	0x1
 3178 0e2a 30       		.byte	0x30
 3179 0e2b 00       		.byte	0
 3180 0e2c 29       		.uleb128 0x29
 3181 0e2d FE010000 		.4byte	.LVL102
 3182 0e31 92100000 		.4byte	0x1092
 3183 0e35 3F0E0000 		.4byte	0xe3f
 3184 0e39 21       		.uleb128 0x21
 3185 0e3a 01       		.byte	0x1
 3186 0e3b 50       		.byte	0x50
 3187 0e3c 01       		.byte	0x1
 3188 0e3d 3C       		.byte	0x3c
 3189 0e3e 00       		.byte	0
 3190 0e3f 2A       		.uleb128 0x2a
 3191 0e40 0A020000 		.4byte	.LVL103
 3192 0e44 27110000 		.4byte	0x1127
 3193 0e48 29       		.uleb128 0x29
 3194 0e49 12020000 		.4byte	.LVL104
 3195 0e4d 18100000 		.4byte	0x1018
 3196 0e51 610E0000 		.4byte	0xe61
 3197 0e55 21       		.uleb128 0x21
 3198 0e56 01       		.byte	0x1
 3199 0e57 51       		.byte	0x51
 3200 0e58 01       		.byte	0x1
 3201 0e59 3A       		.byte	0x3a
 3202 0e5a 21       		.uleb128 0x21
 3203 0e5b 01       		.byte	0x1
 3204 0e5c 50       		.byte	0x50
 3205 0e5d 02       		.byte	0x2
 3206 0e5e 74       		.byte	0x74
 3207 0e5f 00       		.sleb128 0
 3208 0e60 00       		.byte	0
 3209 0e61 20       		.uleb128 0x20
 3210 0e62 1E020000 		.4byte	.LVL105
 3211 0e66 92100000 		.4byte	0x1092
 3212 0e6a 21       		.uleb128 0x21
 3213 0e6b 01       		.byte	0x1
 3214 0e6c 50       		.byte	0x50
 3215 0e6d 01       		.byte	0x1
 3216 0e6e 3D       		.byte	0x3d
 3217 0e6f 00       		.byte	0
 3218 0e70 00       		.byte	0
 3219 0e71 00       		.byte	0
 3220 0e72 29       		.uleb128 0x29
 3221 0e73 14000000 		.4byte	.LVL55
 3222 0e77 92100000 		.4byte	0x1092
 3223 0e7b 850E0000 		.4byte	0xe85
 3224 0e7f 21       		.uleb128 0x21
 3225 0e80 01       		.byte	0x1
 3226 0e81 50       		.byte	0x50
 3227 0e82 01       		.byte	0x1
 3228 0e83 31       		.byte	0x31
 3229 0e84 00       		.byte	0
ARM GAS  C:\Users\3130\AppData\Local\Temp\ccaFL17a.s 			page 58


 3230 0e85 29       		.uleb128 0x29
 3231 0e86 24000000 		.4byte	.LVL57
 3232 0e8a 46110000 		.4byte	0x1146
 3233 0e8e 9F0E0000 		.4byte	0xe9f
 3234 0e92 21       		.uleb128 0x21
 3235 0e93 01       		.byte	0x1
 3236 0e94 51       		.byte	0x51
 3237 0e95 02       		.byte	0x2
 3238 0e96 08       		.byte	0x8
 3239 0e97 41       		.byte	0x41
 3240 0e98 21       		.uleb128 0x21
 3241 0e99 01       		.byte	0x1
 3242 0e9a 50       		.byte	0x50
 3243 0e9b 02       		.byte	0x2
 3244 0e9c 74       		.byte	0x74
 3245 0e9d 00       		.sleb128 0
 3246 0e9e 00       		.byte	0
 3247 0e9f 29       		.uleb128 0x29
 3248 0ea0 2C000000 		.4byte	.LVL58
 3249 0ea4 46110000 		.4byte	0x1146
 3250 0ea8 B90E0000 		.4byte	0xeb9
 3251 0eac 21       		.uleb128 0x21
 3252 0ead 01       		.byte	0x1
 3253 0eae 51       		.byte	0x51
 3254 0eaf 02       		.byte	0x2
 3255 0eb0 08       		.byte	0x8
 3256 0eb1 42       		.byte	0x42
 3257 0eb2 21       		.uleb128 0x21
 3258 0eb3 01       		.byte	0x1
 3259 0eb4 50       		.byte	0x50
 3260 0eb5 02       		.byte	0x2
 3261 0eb6 74       		.byte	0x74
 3262 0eb7 00       		.sleb128 0
 3263 0eb8 00       		.byte	0
 3264 0eb9 29       		.uleb128 0x29
 3265 0eba 34000000 		.4byte	.LVL59
 3266 0ebe 46110000 		.4byte	0x1146
 3267 0ec2 D30E0000 		.4byte	0xed3
 3268 0ec6 21       		.uleb128 0x21
 3269 0ec7 01       		.byte	0x1
 3270 0ec8 51       		.byte	0x51
 3271 0ec9 02       		.byte	0x2
 3272 0eca 08       		.byte	0x8
 3273 0ecb 43       		.byte	0x43
 3274 0ecc 21       		.uleb128 0x21
 3275 0ecd 01       		.byte	0x1
 3276 0ece 50       		.byte	0x50
 3277 0ecf 02       		.byte	0x2
 3278 0ed0 74       		.byte	0x74
 3279 0ed1 00       		.sleb128 0
 3280 0ed2 00       		.byte	0
 3281 0ed3 29       		.uleb128 0x29
 3282 0ed4 3C000000 		.4byte	.LVL60
 3283 0ed8 46110000 		.4byte	0x1146
 3284 0edc ED0E0000 		.4byte	0xeed
 3285 0ee0 21       		.uleb128 0x21
 3286 0ee1 01       		.byte	0x1
ARM GAS  C:\Users\3130\AppData\Local\Temp\ccaFL17a.s 			page 59


 3287 0ee2 51       		.byte	0x51
 3288 0ee3 02       		.byte	0x2
 3289 0ee4 08       		.byte	0x8
 3290 0ee5 44       		.byte	0x44
 3291 0ee6 21       		.uleb128 0x21
 3292 0ee7 01       		.byte	0x1
 3293 0ee8 50       		.byte	0x50
 3294 0ee9 02       		.byte	0x2
 3295 0eea 74       		.byte	0x74
 3296 0eeb 00       		.sleb128 0
 3297 0eec 00       		.byte	0
 3298 0eed 20       		.uleb128 0x20
 3299 0eee 52000000 		.4byte	.LVL61
 3300 0ef2 92100000 		.4byte	0x1092
 3301 0ef6 21       		.uleb128 0x21
 3302 0ef7 01       		.byte	0x1
 3303 0ef8 50       		.byte	0x50
 3304 0ef9 01       		.byte	0x1
 3305 0efa 32       		.byte	0x32
 3306 0efb 00       		.byte	0
 3307 0efc 00       		.byte	0
 3308 0efd 2D       		.uleb128 0x2d
 3309 0efe 697100   		.ascii	"iq\000"
 3310 0f01 01       		.byte	0x1
 3311 0f02 42       		.byte	0x42
 3312 0f03 30050000 		.4byte	0x530
 3313 0f07 05       		.byte	0x5
 3314 0f08 03       		.byte	0x3
 3315 0f09 00000000 		.4byte	iq
 3316 0f0d 2D       		.uleb128 0x2d
 3317 0f0e 6F7100   		.ascii	"oq\000"
 3318 0f11 01       		.byte	0x1
 3319 0f12 43       		.byte	0x43
 3320 0f13 3B050000 		.4byte	0x53b
 3321 0f17 05       		.byte	0x5
 3322 0f18 03       		.byte	0x3
 3323 0f19 00000000 		.4byte	oq
 3324 0f1d 2E       		.uleb128 0x2e
 3325 0f1e 75040000 		.4byte	.LASF93
 3326 0f22 08       		.byte	0x8
 3327 0f23 6F       		.byte	0x6f
 3328 0f24 BE030000 		.4byte	0x3be
 3329 0f28 01       		.byte	0x1
 3330 0f29 01       		.byte	0x1
 3331 0f2a 14       		.uleb128 0x14
 3332 0f2b 65020000 		.4byte	0x265
 3333 0f2f 3A0F0000 		.4byte	0xf3a
 3334 0f33 15       		.uleb128 0x15
 3335 0f34 55030000 		.4byte	0x355
 3336 0f38 04       		.byte	0x4
 3337 0f39 00       		.byte	0
 3338 0f3a 2E       		.uleb128 0x2e
 3339 0f3b 50030000 		.4byte	.LASF94
 3340 0f3f 0B       		.byte	0xb
 3341 0f40 A5       		.byte	0xa5
 3342 0f41 2A0F0000 		.4byte	0xf2a
 3343 0f45 01       		.byte	0x1
ARM GAS  C:\Users\3130\AppData\Local\Temp\ccaFL17a.s 			page 60


 3344 0f46 01       		.byte	0x1
 3345 0f47 2E       		.uleb128 0x2e
 3346 0f48 AF000000 		.4byte	.LASF95
 3347 0f4c 0B       		.byte	0xb
 3348 0f4d A6       		.byte	0xa6
 3349 0f4e FD050000 		.4byte	0x5fd
 3350 0f52 01       		.byte	0x1
 3351 0f53 01       		.byte	0x1
 3352 0f54 14       		.uleb128 0x14
 3353 0f55 A3020000 		.4byte	0x2a3
 3354 0f59 5F0F0000 		.4byte	0xf5f
 3355 0f5d 2F       		.uleb128 0x2f
 3356 0f5e 00       		.byte	0
 3357 0f5f 30       		.uleb128 0x30
 3358 0f60 776100   		.ascii	"wa\000"
 3359 0f63 0B       		.byte	0xb
 3360 0f64 A7       		.byte	0xa7
 3361 0f65 6B0F0000 		.4byte	0xf6b
 3362 0f69 01       		.byte	0x1
 3363 0f6a 01       		.byte	0x1
 3364 0f6b 0E       		.uleb128 0xe
 3365 0f6c 540F0000 		.4byte	0xf54
 3366 0f70 31       		.uleb128 0x31
 3367 0f71 C1010000 		.4byte	.LASF96
 3368 0f75 01       		.byte	0x1
 3369 0f76 95       		.byte	0x95
 3370 0f77 820F0000 		.4byte	0xf82
 3371 0f7b 01       		.byte	0x1
 3372 0f7c 05       		.byte	0x5
 3373 0f7d 03       		.byte	0x3
 3374 0f7e 00000000 		.4byte	testqueues1
 3375 0f82 0E       		.uleb128 0xe
 3376 0f83 51050000 		.4byte	0x551
 3377 0f87 31       		.uleb128 0x31
 3378 0f88 58020000 		.4byte	.LASF97
 3379 0f8c 01       		.byte	0x1
 3380 0f8d E3       		.byte	0xe3
 3381 0f8e 820F0000 		.4byte	0xf82
 3382 0f92 01       		.byte	0x1
 3383 0f93 05       		.byte	0x5
 3384 0f94 03       		.byte	0x3
 3385 0f95 00000000 		.4byte	testqueues2
 3386 0f99 14       		.uleb128 0x14
 3387 0f9a A90F0000 		.4byte	0xfa9
 3388 0f9e A90F0000 		.4byte	0xfa9
 3389 0fa2 15       		.uleb128 0x15
 3390 0fa3 55030000 		.4byte	0x355
 3391 0fa7 02       		.byte	0x2
 3392 0fa8 00       		.byte	0
 3393 0fa9 09       		.uleb128 0x9
 3394 0faa 04       		.byte	0x4
 3395 0fab 820F0000 		.4byte	0xf82
 3396 0faf 31       		.uleb128 0x31
 3397 0fb0 59000000 		.4byte	.LASF98
 3398 0fb4 01       		.byte	0x1
 3399 0fb5 EE       		.byte	0xee
 3400 0fb6 C10F0000 		.4byte	0xfc1
ARM GAS  C:\Users\3130\AppData\Local\Temp\ccaFL17a.s 			page 61


 3401 0fba 01       		.byte	0x1
 3402 0fbb 05       		.byte	0x5
 3403 0fbc 03       		.byte	0x3
 3404 0fbd 00000000 		.4byte	patternqueues
 3405 0fc1 0E       		.uleb128 0xe
 3406 0fc2 990F0000 		.4byte	0xf99
 3407 0fc6 32       		.uleb128 0x32
 3408 0fc7 01       		.byte	0x1
 3409 0fc8 00000000 		.4byte	.LASF99
 3410 0fcc 0A       		.byte	0xa
 3411 0fcd 6D01     		.2byte	0x16d
 3412 0fcf 01       		.byte	0x1
 3413 0fd0 EF000000 		.4byte	0xef
 3414 0fd4 01       		.byte	0x1
 3415 0fd5 E90F0000 		.4byte	0xfe9
 3416 0fd9 10       		.uleb128 0x10
 3417 0fda E90F0000 		.4byte	0xfe9
 3418 0fde 10       		.uleb128 0x10
 3419 0fdf 49000000 		.4byte	0x49
 3420 0fe3 10       		.uleb128 0x10
 3421 0fe4 05010000 		.4byte	0x105
 3422 0fe8 00       		.byte	0
 3423 0fe9 09       		.uleb128 0x9
 3424 0fea 04       		.byte	0x4
 3425 0feb 3B050000 		.4byte	0x53b
 3426 0fef 33       		.uleb128 0x33
 3427 0ff0 01       		.byte	0x1
 3428 0ff1 8F000000 		.4byte	.LASF101
 3429 0ff5 0A       		.byte	0xa
 3430 0ff6 6A01     		.2byte	0x16a
 3431 0ff8 01       		.byte	0x1
 3432 0ff9 01       		.byte	0x1
 3433 0ffa 18100000 		.4byte	0x1018
 3434 0ffe 10       		.uleb128 0x10
 3435 0fff E90F0000 		.4byte	0xfe9
 3436 1003 10       		.uleb128 0x10
 3437 1004 2A050000 		.4byte	0x52a
 3438 1008 10       		.uleb128 0x10
 3439 1009 30000000 		.4byte	0x30
 3440 100d 10       		.uleb128 0x10
 3441 100e 07050000 		.4byte	0x507
 3442 1012 10       		.uleb128 0x10
 3443 1013 A3020000 		.4byte	0x2a3
 3444 1017 00       		.byte	0
 3445 1018 32       		.uleb128 0x32
 3446 1019 01       		.byte	0x1
 3447 101a DF040000 		.4byte	.LASF100
 3448 101e 0A       		.byte	0xa
 3449 101f 6601     		.2byte	0x166
 3450 1021 01       		.byte	0x1
 3451 1022 EF000000 		.4byte	0xef
 3452 1026 01       		.byte	0x1
 3453 1027 36100000 		.4byte	0x1036
 3454 102b 10       		.uleb128 0x10
 3455 102c 36100000 		.4byte	0x1036
 3456 1030 10       		.uleb128 0x10
 3457 1031 05010000 		.4byte	0x105
ARM GAS  C:\Users\3130\AppData\Local\Temp\ccaFL17a.s 			page 62


 3458 1035 00       		.byte	0
 3459 1036 09       		.uleb128 0x9
 3460 1037 04       		.byte	0x4
 3461 1038 30050000 		.4byte	0x530
 3462 103c 33       		.uleb128 0x33
 3463 103d 01       		.byte	0x1
 3464 103e 2B000000 		.4byte	.LASF102
 3465 1042 0A       		.byte	0xa
 3466 1043 6201     		.2byte	0x162
 3467 1045 01       		.byte	0x1
 3468 1046 01       		.byte	0x1
 3469 1047 65100000 		.4byte	0x1065
 3470 104b 10       		.uleb128 0x10
 3471 104c 36100000 		.4byte	0x1036
 3472 1050 10       		.uleb128 0x10
 3473 1051 2A050000 		.4byte	0x52a
 3474 1055 10       		.uleb128 0x10
 3475 1056 30000000 		.4byte	0x30
 3476 105a 10       		.uleb128 0x10
 3477 105b 07050000 		.4byte	0x507
 3478 105f 10       		.uleb128 0x10
 3479 1060 A3020000 		.4byte	0x2a3
 3480 1064 00       		.byte	0
 3481 1065 32       		.uleb128 0x32
 3482 1066 01       		.byte	0x1
 3483 1067 22010000 		.4byte	.LASF103
 3484 106b 0A       		.byte	0xa
 3485 106c 6E01     		.2byte	0x16e
 3486 106e 01       		.byte	0x1
 3487 106f EF000000 		.4byte	0xef
 3488 1073 01       		.byte	0x1
 3489 1074 7E100000 		.4byte	0x107e
 3490 1078 10       		.uleb128 0x10
 3491 1079 E90F0000 		.4byte	0xfe9
 3492 107d 00       		.byte	0
 3493 107e 34       		.uleb128 0x34
 3494 107f 01       		.byte	0x1
 3495 1080 F6000000 		.4byte	.LASF104
 3496 1084 0B       		.byte	0xb
 3497 1085 56       		.byte	0x56
 3498 1086 01       		.byte	0x1
 3499 1087 01       		.byte	0x1
 3500 1088 92100000 		.4byte	0x1092
 3501 108c 10       		.uleb128 0x10
 3502 108d 51040000 		.4byte	0x451
 3503 1091 00       		.byte	0
 3504 1092 35       		.uleb128 0x35
 3505 1093 01       		.byte	0x1
 3506 1094 B3040000 		.4byte	.LASF105
 3507 1098 0B       		.byte	0xb
 3508 1099 58       		.byte	0x58
 3509 109a 01       		.byte	0x1
 3510 109b A6000000 		.4byte	0xa6
 3511 109f 01       		.byte	0x1
 3512 10a0 AF100000 		.4byte	0x10af
 3513 10a4 10       		.uleb128 0x10
 3514 10a5 3B000000 		.4byte	0x3b
ARM GAS  C:\Users\3130\AppData\Local\Temp\ccaFL17a.s 			page 63


 3515 10a9 10       		.uleb128 0x10
 3516 10aa A6000000 		.4byte	0xa6
 3517 10ae 00       		.byte	0
 3518 10af 35       		.uleb128 0x35
 3519 10b0 01       		.byte	0x1
 3520 10b1 A7020000 		.4byte	.LASF106
 3521 10b5 0B       		.byte	0xb
 3522 10b6 59       		.byte	0x59
 3523 10b7 01       		.byte	0x1
 3524 10b8 A6000000 		.4byte	0xa6
 3525 10bc 01       		.byte	0x1
 3526 10bd CC100000 		.4byte	0x10cc
 3527 10c1 10       		.uleb128 0x10
 3528 10c2 3B000000 		.4byte	0x3b
 3529 10c6 10       		.uleb128 0x10
 3530 10c7 CC100000 		.4byte	0x10cc
 3531 10cb 00       		.byte	0
 3532 10cc 09       		.uleb128 0x9
 3533 10cd 04       		.byte	0x4
 3534 10ce 51040000 		.4byte	0x451
 3535 10d2 32       		.uleb128 0x32
 3536 10d3 01       		.byte	0x1
 3537 10d4 7E000000 		.4byte	.LASF107
 3538 10d8 0A       		.byte	0xa
 3539 10d9 6F01     		.2byte	0x16f
 3540 10db 01       		.byte	0x1
 3541 10dc 30000000 		.4byte	0x30
 3542 10e0 01       		.byte	0x1
 3543 10e1 FA100000 		.4byte	0x10fa
 3544 10e5 10       		.uleb128 0x10
 3545 10e6 E90F0000 		.4byte	0xfe9
 3546 10ea 10       		.uleb128 0x10
 3547 10eb 46050000 		.4byte	0x546
 3548 10ef 10       		.uleb128 0x10
 3549 10f0 30000000 		.4byte	0x30
 3550 10f4 10       		.uleb128 0x10
 3551 10f5 05010000 		.4byte	0x105
 3552 10f9 00       		.byte	0
 3553 10fa 32       		.uleb128 0x32
 3554 10fb 01       		.byte	0x1
 3555 10fc 1C020000 		.4byte	.LASF108
 3556 1100 06       		.byte	0x6
 3557 1101 7001     		.2byte	0x170
 3558 1103 01       		.byte	0x1
 3559 1104 65020000 		.4byte	0x265
 3560 1108 01       		.byte	0x1
 3561 1109 27110000 		.4byte	0x1127
 3562 110d 10       		.uleb128 0x10
 3563 110e A3020000 		.4byte	0x2a3
 3564 1112 10       		.uleb128 0x10
 3565 1113 30000000 		.4byte	0x30
 3566 1117 10       		.uleb128 0x10
 3567 1118 E4000000 		.4byte	0xe4
 3568 111c 10       		.uleb128 0x10
 3569 111d 5E040000 		.4byte	0x45e
 3570 1121 10       		.uleb128 0x10
 3571 1122 A3020000 		.4byte	0x2a3
ARM GAS  C:\Users\3130\AppData\Local\Temp\ccaFL17a.s 			page 64


 3572 1126 00       		.byte	0
 3573 1127 36       		.uleb128 0x36
 3574 1128 01       		.byte	0x1
 3575 1129 64020000 		.4byte	.LASF116
 3576 112d 0B       		.byte	0xb
 3577 112e 5C       		.byte	0x5c
 3578 112f 01       		.byte	0x1
 3579 1130 01       		.byte	0x1
 3580 1131 33       		.uleb128 0x33
 3581 1132 01       		.byte	0x1
 3582 1133 FC030000 		.4byte	.LASF109
 3583 1137 0A       		.byte	0xa
 3584 1138 6C01     		.2byte	0x16c
 3585 113a 01       		.byte	0x1
 3586 113b 01       		.byte	0x1
 3587 113c 46110000 		.4byte	0x1146
 3588 1140 10       		.uleb128 0x10
 3589 1141 E90F0000 		.4byte	0xfe9
 3590 1145 00       		.byte	0
 3591 1146 32       		.uleb128 0x32
 3592 1147 01       		.byte	0x1
 3593 1148 55010000 		.4byte	.LASF110
 3594 114c 0A       		.byte	0xa
 3595 114d 6501     		.2byte	0x165
 3596 114f 01       		.byte	0x1
 3597 1150 EF000000 		.4byte	0xef
 3598 1154 01       		.byte	0x1
 3599 1155 64110000 		.4byte	0x1164
 3600 1159 10       		.uleb128 0x10
 3601 115a 36100000 		.4byte	0x1036
 3602 115e 10       		.uleb128 0x10
 3603 115f 49000000 		.4byte	0x49
 3604 1163 00       		.byte	0
 3605 1164 32       		.uleb128 0x32
 3606 1165 01       		.byte	0x1
 3607 1166 49000000 		.4byte	.LASF111
 3608 116a 0A       		.byte	0xa
 3609 116b 6701     		.2byte	0x167
 3610 116d 01       		.byte	0x1
 3611 116e 30000000 		.4byte	0x30
 3612 1172 01       		.byte	0x1
 3613 1173 8C110000 		.4byte	0x118c
 3614 1177 10       		.uleb128 0x10
 3615 1178 36100000 		.4byte	0x1036
 3616 117c 10       		.uleb128 0x10
 3617 117d 2A050000 		.4byte	0x52a
 3618 1181 10       		.uleb128 0x10
 3619 1182 30000000 		.4byte	0x30
 3620 1186 10       		.uleb128 0x10
 3621 1187 05010000 		.4byte	0x105
 3622 118b 00       		.byte	0
 3623 118c 37       		.uleb128 0x37
 3624 118d 01       		.byte	0x1
 3625 118e 6B010000 		.4byte	.LASF117
 3626 1192 0A       		.byte	0xa
 3627 1193 6401     		.2byte	0x164
 3628 1195 01       		.byte	0x1
ARM GAS  C:\Users\3130\AppData\Local\Temp\ccaFL17a.s 			page 65


 3629 1196 01       		.byte	0x1
 3630 1197 10       		.uleb128 0x10
 3631 1198 36100000 		.4byte	0x1036
 3632 119c 00       		.byte	0
 3633 119d 00       		.byte	0
 3634              		.section	.debug_abbrev,"",%progbits
 3635              	.Ldebug_abbrev0:
 3636 0000 01       		.uleb128 0x1
 3637 0001 11       		.uleb128 0x11
 3638 0002 01       		.byte	0x1
 3639 0003 25       		.uleb128 0x25
 3640 0004 0E       		.uleb128 0xe
 3641 0005 13       		.uleb128 0x13
 3642 0006 0B       		.uleb128 0xb
 3643 0007 03       		.uleb128 0x3
 3644 0008 0E       		.uleb128 0xe
 3645 0009 1B       		.uleb128 0x1b
 3646 000a 0E       		.uleb128 0xe
 3647 000b 55       		.uleb128 0x55
 3648 000c 06       		.uleb128 0x6
 3649 000d 11       		.uleb128 0x11
 3650 000e 01       		.uleb128 0x1
 3651 000f 52       		.uleb128 0x52
 3652 0010 01       		.uleb128 0x1
 3653 0011 10       		.uleb128 0x10
 3654 0012 06       		.uleb128 0x6
 3655 0013 00       		.byte	0
 3656 0014 00       		.byte	0
 3657 0015 02       		.uleb128 0x2
 3658 0016 24       		.uleb128 0x24
 3659 0017 00       		.byte	0
 3660 0018 0B       		.uleb128 0xb
 3661 0019 0B       		.uleb128 0xb
 3662 001a 3E       		.uleb128 0x3e
 3663 001b 0B       		.uleb128 0xb
 3664 001c 03       		.uleb128 0x3
 3665 001d 08       		.uleb128 0x8
 3666 001e 00       		.byte	0
 3667 001f 00       		.byte	0
 3668 0020 03       		.uleb128 0x3
 3669 0021 16       		.uleb128 0x16
 3670 0022 00       		.byte	0
 3671 0023 03       		.uleb128 0x3
 3672 0024 0E       		.uleb128 0xe
 3673 0025 3A       		.uleb128 0x3a
 3674 0026 0B       		.uleb128 0xb
 3675 0027 3B       		.uleb128 0x3b
 3676 0028 0B       		.uleb128 0xb
 3677 0029 49       		.uleb128 0x49
 3678 002a 13       		.uleb128 0x13
 3679 002b 00       		.byte	0
 3680 002c 00       		.byte	0
 3681 002d 04       		.uleb128 0x4
 3682 002e 24       		.uleb128 0x24
 3683 002f 00       		.byte	0
 3684 0030 0B       		.uleb128 0xb
 3685 0031 0B       		.uleb128 0xb
ARM GAS  C:\Users\3130\AppData\Local\Temp\ccaFL17a.s 			page 66


 3686 0032 3E       		.uleb128 0x3e
 3687 0033 0B       		.uleb128 0xb
 3688 0034 03       		.uleb128 0x3
 3689 0035 0E       		.uleb128 0xe
 3690 0036 00       		.byte	0
 3691 0037 00       		.byte	0
 3692 0038 05       		.uleb128 0x5
 3693 0039 13       		.uleb128 0x13
 3694 003a 01       		.byte	0x1
 3695 003b 03       		.uleb128 0x3
 3696 003c 0E       		.uleb128 0xe
 3697 003d 0B       		.uleb128 0xb
 3698 003e 0B       		.uleb128 0xb
 3699 003f 3A       		.uleb128 0x3a
 3700 0040 0B       		.uleb128 0xb
 3701 0041 3B       		.uleb128 0x3b
 3702 0042 0B       		.uleb128 0xb
 3703 0043 01       		.uleb128 0x1
 3704 0044 13       		.uleb128 0x13
 3705 0045 00       		.byte	0
 3706 0046 00       		.byte	0
 3707 0047 06       		.uleb128 0x6
 3708 0048 0D       		.uleb128 0xd
 3709 0049 00       		.byte	0
 3710 004a 03       		.uleb128 0x3
 3711 004b 0E       		.uleb128 0xe
 3712 004c 3A       		.uleb128 0x3a
 3713 004d 0B       		.uleb128 0xb
 3714 004e 3B       		.uleb128 0x3b
 3715 004f 0B       		.uleb128 0xb
 3716 0050 49       		.uleb128 0x49
 3717 0051 13       		.uleb128 0x13
 3718 0052 38       		.uleb128 0x38
 3719 0053 0A       		.uleb128 0xa
 3720 0054 00       		.byte	0
 3721 0055 00       		.byte	0
 3722 0056 07       		.uleb128 0x7
 3723 0057 0D       		.uleb128 0xd
 3724 0058 00       		.byte	0
 3725 0059 03       		.uleb128 0x3
 3726 005a 08       		.uleb128 0x8
 3727 005b 3A       		.uleb128 0x3a
 3728 005c 0B       		.uleb128 0xb
 3729 005d 3B       		.uleb128 0x3b
 3730 005e 0B       		.uleb128 0xb
 3731 005f 49       		.uleb128 0x49
 3732 0060 13       		.uleb128 0x13
 3733 0061 38       		.uleb128 0x38
 3734 0062 0A       		.uleb128 0xa
 3735 0063 00       		.byte	0
 3736 0064 00       		.byte	0
 3737 0065 08       		.uleb128 0x8
 3738 0066 13       		.uleb128 0x13
 3739 0067 01       		.byte	0x1
 3740 0068 0B       		.uleb128 0xb
 3741 0069 0B       		.uleb128 0xb
 3742 006a 3A       		.uleb128 0x3a
ARM GAS  C:\Users\3130\AppData\Local\Temp\ccaFL17a.s 			page 67


 3743 006b 0B       		.uleb128 0xb
 3744 006c 3B       		.uleb128 0x3b
 3745 006d 0B       		.uleb128 0xb
 3746 006e 01       		.uleb128 0x1
 3747 006f 13       		.uleb128 0x13
 3748 0070 00       		.byte	0
 3749 0071 00       		.byte	0
 3750 0072 09       		.uleb128 0x9
 3751 0073 0F       		.uleb128 0xf
 3752 0074 00       		.byte	0
 3753 0075 0B       		.uleb128 0xb
 3754 0076 0B       		.uleb128 0xb
 3755 0077 49       		.uleb128 0x49
 3756 0078 13       		.uleb128 0x13
 3757 0079 00       		.byte	0
 3758 007a 00       		.byte	0
 3759 007b 0A       		.uleb128 0xa
 3760 007c 0F       		.uleb128 0xf
 3761 007d 00       		.byte	0
 3762 007e 0B       		.uleb128 0xb
 3763 007f 0B       		.uleb128 0xb
 3764 0080 00       		.byte	0
 3765 0081 00       		.byte	0
 3766 0082 0B       		.uleb128 0xb
 3767 0083 35       		.uleb128 0x35
 3768 0084 00       		.byte	0
 3769 0085 49       		.uleb128 0x49
 3770 0086 13       		.uleb128 0x13
 3771 0087 00       		.byte	0
 3772 0088 00       		.byte	0
 3773 0089 0C       		.uleb128 0xc
 3774 008a 17       		.uleb128 0x17
 3775 008b 01       		.byte	0x1
 3776 008c 0B       		.uleb128 0xb
 3777 008d 0B       		.uleb128 0xb
 3778 008e 3A       		.uleb128 0x3a
 3779 008f 0B       		.uleb128 0xb
 3780 0090 3B       		.uleb128 0x3b
 3781 0091 0B       		.uleb128 0xb
 3782 0092 01       		.uleb128 0x1
 3783 0093 13       		.uleb128 0x13
 3784 0094 00       		.byte	0
 3785 0095 00       		.byte	0
 3786 0096 0D       		.uleb128 0xd
 3787 0097 0D       		.uleb128 0xd
 3788 0098 00       		.byte	0
 3789 0099 03       		.uleb128 0x3
 3790 009a 0E       		.uleb128 0xe
 3791 009b 3A       		.uleb128 0x3a
 3792 009c 0B       		.uleb128 0xb
 3793 009d 3B       		.uleb128 0x3b
 3794 009e 0B       		.uleb128 0xb
 3795 009f 49       		.uleb128 0x49
 3796 00a0 13       		.uleb128 0x13
 3797 00a1 00       		.byte	0
 3798 00a2 00       		.byte	0
 3799 00a3 0E       		.uleb128 0xe
ARM GAS  C:\Users\3130\AppData\Local\Temp\ccaFL17a.s 			page 68


 3800 00a4 26       		.uleb128 0x26
 3801 00a5 00       		.byte	0
 3802 00a6 49       		.uleb128 0x49
 3803 00a7 13       		.uleb128 0x13
 3804 00a8 00       		.byte	0
 3805 00a9 00       		.byte	0
 3806 00aa 0F       		.uleb128 0xf
 3807 00ab 15       		.uleb128 0x15
 3808 00ac 01       		.byte	0x1
 3809 00ad 27       		.uleb128 0x27
 3810 00ae 0C       		.uleb128 0xc
 3811 00af 49       		.uleb128 0x49
 3812 00b0 13       		.uleb128 0x13
 3813 00b1 01       		.uleb128 0x1
 3814 00b2 13       		.uleb128 0x13
 3815 00b3 00       		.byte	0
 3816 00b4 00       		.byte	0
 3817 00b5 10       		.uleb128 0x10
 3818 00b6 05       		.uleb128 0x5
 3819 00b7 00       		.byte	0
 3820 00b8 49       		.uleb128 0x49
 3821 00b9 13       		.uleb128 0x13
 3822 00ba 00       		.byte	0
 3823 00bb 00       		.byte	0
 3824 00bc 11       		.uleb128 0x11
 3825 00bd 15       		.uleb128 0x15
 3826 00be 01       		.byte	0x1
 3827 00bf 27       		.uleb128 0x27
 3828 00c0 0C       		.uleb128 0xc
 3829 00c1 01       		.uleb128 0x1
 3830 00c2 13       		.uleb128 0x13
 3831 00c3 00       		.byte	0
 3832 00c4 00       		.byte	0
 3833 00c5 12       		.uleb128 0x12
 3834 00c6 15       		.uleb128 0x15
 3835 00c7 00       		.byte	0
 3836 00c8 27       		.uleb128 0x27
 3837 00c9 0C       		.uleb128 0xc
 3838 00ca 00       		.byte	0
 3839 00cb 00       		.byte	0
 3840 00cc 13       		.uleb128 0x13
 3841 00cd 13       		.uleb128 0x13
 3842 00ce 01       		.byte	0x1
 3843 00cf 0B       		.uleb128 0xb
 3844 00d0 05       		.uleb128 0x5
 3845 00d1 3A       		.uleb128 0x3a
 3846 00d2 0B       		.uleb128 0xb
 3847 00d3 3B       		.uleb128 0x3b
 3848 00d4 0B       		.uleb128 0xb
 3849 00d5 01       		.uleb128 0x1
 3850 00d6 13       		.uleb128 0x13
 3851 00d7 00       		.byte	0
 3852 00d8 00       		.byte	0
 3853 00d9 14       		.uleb128 0x14
 3854 00da 01       		.uleb128 0x1
 3855 00db 01       		.byte	0x1
 3856 00dc 49       		.uleb128 0x49
ARM GAS  C:\Users\3130\AppData\Local\Temp\ccaFL17a.s 			page 69


 3857 00dd 13       		.uleb128 0x13
 3858 00de 01       		.uleb128 0x1
 3859 00df 13       		.uleb128 0x13
 3860 00e0 00       		.byte	0
 3861 00e1 00       		.byte	0
 3862 00e2 15       		.uleb128 0x15
 3863 00e3 21       		.uleb128 0x21
 3864 00e4 00       		.byte	0
 3865 00e5 49       		.uleb128 0x49
 3866 00e6 13       		.uleb128 0x13
 3867 00e7 2F       		.uleb128 0x2f
 3868 00e8 0B       		.uleb128 0xb
 3869 00e9 00       		.byte	0
 3870 00ea 00       		.byte	0
 3871 00eb 16       		.uleb128 0x16
 3872 00ec 17       		.uleb128 0x17
 3873 00ed 01       		.byte	0x1
 3874 00ee 03       		.uleb128 0x3
 3875 00ef 0E       		.uleb128 0xe
 3876 00f0 0B       		.uleb128 0xb
 3877 00f1 05       		.uleb128 0x5
 3878 00f2 3A       		.uleb128 0x3a
 3879 00f3 0B       		.uleb128 0xb
 3880 00f4 3B       		.uleb128 0x3b
 3881 00f5 0B       		.uleb128 0xb
 3882 00f6 01       		.uleb128 0x1
 3883 00f7 13       		.uleb128 0x13
 3884 00f8 00       		.byte	0
 3885 00f9 00       		.byte	0
 3886 00fa 17       		.uleb128 0x17
 3887 00fb 0D       		.uleb128 0xd
 3888 00fc 00       		.byte	0
 3889 00fd 03       		.uleb128 0x3
 3890 00fe 08       		.uleb128 0x8
 3891 00ff 3A       		.uleb128 0x3a
 3892 0100 0B       		.uleb128 0xb
 3893 0101 3B       		.uleb128 0x3b
 3894 0102 0B       		.uleb128 0xb
 3895 0103 49       		.uleb128 0x49
 3896 0104 13       		.uleb128 0x13
 3897 0105 00       		.byte	0
 3898 0106 00       		.byte	0
 3899 0107 18       		.uleb128 0x18
 3900 0108 21       		.uleb128 0x21
 3901 0109 00       		.byte	0
 3902 010a 49       		.uleb128 0x49
 3903 010b 13       		.uleb128 0x13
 3904 010c 2F       		.uleb128 0x2f
 3905 010d 05       		.uleb128 0x5
 3906 010e 00       		.byte	0
 3907 010f 00       		.byte	0
 3908 0110 19       		.uleb128 0x19
 3909 0111 2E       		.uleb128 0x2e
 3910 0112 01       		.byte	0x1
 3911 0113 03       		.uleb128 0x3
 3912 0114 0E       		.uleb128 0xe
 3913 0115 3A       		.uleb128 0x3a
ARM GAS  C:\Users\3130\AppData\Local\Temp\ccaFL17a.s 			page 70


 3914 0116 0B       		.uleb128 0xb
 3915 0117 3B       		.uleb128 0x3b
 3916 0118 0B       		.uleb128 0xb
 3917 0119 27       		.uleb128 0x27
 3918 011a 0C       		.uleb128 0xc
 3919 011b 20       		.uleb128 0x20
 3920 011c 0B       		.uleb128 0xb
 3921 011d 01       		.uleb128 0x1
 3922 011e 13       		.uleb128 0x13
 3923 011f 00       		.byte	0
 3924 0120 00       		.byte	0
 3925 0121 1A       		.uleb128 0x1a
 3926 0122 34       		.uleb128 0x34
 3927 0123 00       		.byte	0
 3928 0124 03       		.uleb128 0x3
 3929 0125 08       		.uleb128 0x8
 3930 0126 3A       		.uleb128 0x3a
 3931 0127 0B       		.uleb128 0xb
 3932 0128 3B       		.uleb128 0x3b
 3933 0129 0B       		.uleb128 0xb
 3934 012a 49       		.uleb128 0x49
 3935 012b 13       		.uleb128 0x13
 3936 012c 00       		.byte	0
 3937 012d 00       		.byte	0
 3938 012e 1B       		.uleb128 0x1b
 3939 012f 0B       		.uleb128 0xb
 3940 0130 01       		.byte	0x1
 3941 0131 00       		.byte	0
 3942 0132 00       		.byte	0
 3943 0133 1C       		.uleb128 0x1c
 3944 0134 2E       		.uleb128 0x2e
 3945 0135 01       		.byte	0x1
 3946 0136 03       		.uleb128 0x3
 3947 0137 0E       		.uleb128 0xe
 3948 0138 3A       		.uleb128 0x3a
 3949 0139 0B       		.uleb128 0xb
 3950 013a 3B       		.uleb128 0x3b
 3951 013b 0B       		.uleb128 0xb
 3952 013c 27       		.uleb128 0x27
 3953 013d 0C       		.uleb128 0xc
 3954 013e 11       		.uleb128 0x11
 3955 013f 01       		.uleb128 0x1
 3956 0140 12       		.uleb128 0x12
 3957 0141 01       		.uleb128 0x1
 3958 0142 40       		.uleb128 0x40
 3959 0143 0A       		.uleb128 0xa
 3960 0144 9742     		.uleb128 0x2117
 3961 0146 0C       		.uleb128 0xc
 3962 0147 01       		.uleb128 0x1
 3963 0148 13       		.uleb128 0x13
 3964 0149 00       		.byte	0
 3965 014a 00       		.byte	0
 3966 014b 1D       		.uleb128 0x1d
 3967 014c 05       		.uleb128 0x5
 3968 014d 00       		.byte	0
 3969 014e 03       		.uleb128 0x3
 3970 014f 08       		.uleb128 0x8
ARM GAS  C:\Users\3130\AppData\Local\Temp\ccaFL17a.s 			page 71


 3971 0150 3A       		.uleb128 0x3a
 3972 0151 0B       		.uleb128 0xb
 3973 0152 3B       		.uleb128 0x3b
 3974 0153 0B       		.uleb128 0xb
 3975 0154 49       		.uleb128 0x49
 3976 0155 13       		.uleb128 0x13
 3977 0156 02       		.uleb128 0x2
 3978 0157 0A       		.uleb128 0xa
 3979 0158 00       		.byte	0
 3980 0159 00       		.byte	0
 3981 015a 1E       		.uleb128 0x1e
 3982 015b 2E       		.uleb128 0x2e
 3983 015c 01       		.byte	0x1
 3984 015d 03       		.uleb128 0x3
 3985 015e 0E       		.uleb128 0xe
 3986 015f 3A       		.uleb128 0x3a
 3987 0160 0B       		.uleb128 0xb
 3988 0161 3B       		.uleb128 0x3b
 3989 0162 0B       		.uleb128 0xb
 3990 0163 27       		.uleb128 0x27
 3991 0164 0C       		.uleb128 0xc
 3992 0165 49       		.uleb128 0x49
 3993 0166 13       		.uleb128 0x13
 3994 0167 11       		.uleb128 0x11
 3995 0168 01       		.uleb128 0x1
 3996 0169 12       		.uleb128 0x12
 3997 016a 01       		.uleb128 0x1
 3998 016b 40       		.uleb128 0x40
 3999 016c 06       		.uleb128 0x6
 4000 016d 9742     		.uleb128 0x2117
 4001 016f 0C       		.uleb128 0xc
 4002 0170 01       		.uleb128 0x1
 4003 0171 13       		.uleb128 0x13
 4004 0172 00       		.byte	0
 4005 0173 00       		.byte	0
 4006 0174 1F       		.uleb128 0x1f
 4007 0175 05       		.uleb128 0x5
 4008 0176 00       		.byte	0
 4009 0177 03       		.uleb128 0x3
 4010 0178 08       		.uleb128 0x8
 4011 0179 3A       		.uleb128 0x3a
 4012 017a 0B       		.uleb128 0xb
 4013 017b 3B       		.uleb128 0x3b
 4014 017c 0B       		.uleb128 0xb
 4015 017d 49       		.uleb128 0x49
 4016 017e 13       		.uleb128 0x13
 4017 017f 02       		.uleb128 0x2
 4018 0180 06       		.uleb128 0x6
 4019 0181 00       		.byte	0
 4020 0182 00       		.byte	0
 4021 0183 20       		.uleb128 0x20
 4022 0184 898201   		.uleb128 0x4109
 4023 0187 01       		.byte	0x1
 4024 0188 11       		.uleb128 0x11
 4025 0189 01       		.uleb128 0x1
 4026 018a 31       		.uleb128 0x31
 4027 018b 13       		.uleb128 0x13
ARM GAS  C:\Users\3130\AppData\Local\Temp\ccaFL17a.s 			page 72


 4028 018c 00       		.byte	0
 4029 018d 00       		.byte	0
 4030 018e 21       		.uleb128 0x21
 4031 018f 8A8201   		.uleb128 0x410a
 4032 0192 00       		.byte	0
 4033 0193 02       		.uleb128 0x2
 4034 0194 0A       		.uleb128 0xa
 4035 0195 9142     		.uleb128 0x2111
 4036 0197 0A       		.uleb128 0xa
 4037 0198 00       		.byte	0
 4038 0199 00       		.byte	0
 4039 019a 22       		.uleb128 0x22
 4040 019b 2E       		.uleb128 0x2e
 4041 019c 01       		.byte	0x1
 4042 019d 03       		.uleb128 0x3
 4043 019e 0E       		.uleb128 0xe
 4044 019f 3A       		.uleb128 0x3a
 4045 01a0 0B       		.uleb128 0xb
 4046 01a1 3B       		.uleb128 0x3b
 4047 01a2 0B       		.uleb128 0xb
 4048 01a3 27       		.uleb128 0x27
 4049 01a4 0C       		.uleb128 0xc
 4050 01a5 11       		.uleb128 0x11
 4051 01a6 01       		.uleb128 0x1
 4052 01a7 12       		.uleb128 0x12
 4053 01a8 01       		.uleb128 0x1
 4054 01a9 40       		.uleb128 0x40
 4055 01aa 06       		.uleb128 0x6
 4056 01ab 9742     		.uleb128 0x2117
 4057 01ad 0C       		.uleb128 0xc
 4058 01ae 01       		.uleb128 0x1
 4059 01af 13       		.uleb128 0x13
 4060 01b0 00       		.byte	0
 4061 01b1 00       		.byte	0
 4062 01b2 23       		.uleb128 0x23
 4063 01b3 2E       		.uleb128 0x2e
 4064 01b4 01       		.byte	0x1
 4065 01b5 31       		.uleb128 0x31
 4066 01b6 13       		.uleb128 0x13
 4067 01b7 11       		.uleb128 0x11
 4068 01b8 01       		.uleb128 0x1
 4069 01b9 12       		.uleb128 0x12
 4070 01ba 01       		.uleb128 0x1
 4071 01bb 40       		.uleb128 0x40
 4072 01bc 06       		.uleb128 0x6
 4073 01bd 9742     		.uleb128 0x2117
 4074 01bf 0C       		.uleb128 0xc
 4075 01c0 01       		.uleb128 0x1
 4076 01c1 13       		.uleb128 0x13
 4077 01c2 00       		.byte	0
 4078 01c3 00       		.byte	0
 4079 01c4 24       		.uleb128 0x24
 4080 01c5 34       		.uleb128 0x34
 4081 01c6 00       		.byte	0
 4082 01c7 31       		.uleb128 0x31
 4083 01c8 13       		.uleb128 0x13
 4084 01c9 02       		.uleb128 0x2
ARM GAS  C:\Users\3130\AppData\Local\Temp\ccaFL17a.s 			page 73


 4085 01ca 06       		.uleb128 0x6
 4086 01cb 00       		.byte	0
 4087 01cc 00       		.byte	0
 4088 01cd 25       		.uleb128 0x25
 4089 01ce 34       		.uleb128 0x34
 4090 01cf 00       		.byte	0
 4091 01d0 31       		.uleb128 0x31
 4092 01d1 13       		.uleb128 0x13
 4093 01d2 00       		.byte	0
 4094 01d3 00       		.byte	0
 4095 01d4 26       		.uleb128 0x26
 4096 01d5 1D       		.uleb128 0x1d
 4097 01d6 01       		.byte	0x1
 4098 01d7 31       		.uleb128 0x31
 4099 01d8 13       		.uleb128 0x13
 4100 01d9 52       		.uleb128 0x52
 4101 01da 01       		.uleb128 0x1
 4102 01db 55       		.uleb128 0x55
 4103 01dc 06       		.uleb128 0x6
 4104 01dd 58       		.uleb128 0x58
 4105 01de 0B       		.uleb128 0xb
 4106 01df 59       		.uleb128 0x59
 4107 01e0 0B       		.uleb128 0xb
 4108 01e1 01       		.uleb128 0x1
 4109 01e2 13       		.uleb128 0x13
 4110 01e3 00       		.byte	0
 4111 01e4 00       		.byte	0
 4112 01e5 27       		.uleb128 0x27
 4113 01e6 0B       		.uleb128 0xb
 4114 01e7 01       		.byte	0x1
 4115 01e8 55       		.uleb128 0x55
 4116 01e9 06       		.uleb128 0x6
 4117 01ea 00       		.byte	0
 4118 01eb 00       		.byte	0
 4119 01ec 28       		.uleb128 0x28
 4120 01ed 0B       		.uleb128 0xb
 4121 01ee 01       		.byte	0x1
 4122 01ef 11       		.uleb128 0x11
 4123 01f0 01       		.uleb128 0x1
 4124 01f1 12       		.uleb128 0x12
 4125 01f2 01       		.uleb128 0x1
 4126 01f3 01       		.uleb128 0x1
 4127 01f4 13       		.uleb128 0x13
 4128 01f5 00       		.byte	0
 4129 01f6 00       		.byte	0
 4130 01f7 29       		.uleb128 0x29
 4131 01f8 898201   		.uleb128 0x4109
 4132 01fb 01       		.byte	0x1
 4133 01fc 11       		.uleb128 0x11
 4134 01fd 01       		.uleb128 0x1
 4135 01fe 31       		.uleb128 0x31
 4136 01ff 13       		.uleb128 0x13
 4137 0200 01       		.uleb128 0x1
 4138 0201 13       		.uleb128 0x13
 4139 0202 00       		.byte	0
 4140 0203 00       		.byte	0
 4141 0204 2A       		.uleb128 0x2a
ARM GAS  C:\Users\3130\AppData\Local\Temp\ccaFL17a.s 			page 74


 4142 0205 898201   		.uleb128 0x4109
 4143 0208 00       		.byte	0
 4144 0209 11       		.uleb128 0x11
 4145 020a 01       		.uleb128 0x1
 4146 020b 31       		.uleb128 0x31
 4147 020c 13       		.uleb128 0x13
 4148 020d 00       		.byte	0
 4149 020e 00       		.byte	0
 4150 020f 2B       		.uleb128 0x2b
 4151 0210 1D       		.uleb128 0x1d
 4152 0211 01       		.byte	0x1
 4153 0212 31       		.uleb128 0x31
 4154 0213 13       		.uleb128 0x13
 4155 0214 11       		.uleb128 0x11
 4156 0215 01       		.uleb128 0x1
 4157 0216 12       		.uleb128 0x12
 4158 0217 01       		.uleb128 0x1
 4159 0218 58       		.uleb128 0x58
 4160 0219 0B       		.uleb128 0xb
 4161 021a 59       		.uleb128 0x59
 4162 021b 0B       		.uleb128 0xb
 4163 021c 01       		.uleb128 0x1
 4164 021d 13       		.uleb128 0x13
 4165 021e 00       		.byte	0
 4166 021f 00       		.byte	0
 4167 0220 2C       		.uleb128 0x2c
 4168 0221 0B       		.uleb128 0xb
 4169 0222 01       		.byte	0x1
 4170 0223 11       		.uleb128 0x11
 4171 0224 01       		.uleb128 0x1
 4172 0225 12       		.uleb128 0x12
 4173 0226 01       		.uleb128 0x1
 4174 0227 00       		.byte	0
 4175 0228 00       		.byte	0
 4176 0229 2D       		.uleb128 0x2d
 4177 022a 34       		.uleb128 0x34
 4178 022b 00       		.byte	0
 4179 022c 03       		.uleb128 0x3
 4180 022d 08       		.uleb128 0x8
 4181 022e 3A       		.uleb128 0x3a
 4182 022f 0B       		.uleb128 0xb
 4183 0230 3B       		.uleb128 0x3b
 4184 0231 0B       		.uleb128 0xb
 4185 0232 49       		.uleb128 0x49
 4186 0233 13       		.uleb128 0x13
 4187 0234 02       		.uleb128 0x2
 4188 0235 0A       		.uleb128 0xa
 4189 0236 00       		.byte	0
 4190 0237 00       		.byte	0
 4191 0238 2E       		.uleb128 0x2e
 4192 0239 34       		.uleb128 0x34
 4193 023a 00       		.byte	0
 4194 023b 03       		.uleb128 0x3
 4195 023c 0E       		.uleb128 0xe
 4196 023d 3A       		.uleb128 0x3a
 4197 023e 0B       		.uleb128 0xb
 4198 023f 3B       		.uleb128 0x3b
ARM GAS  C:\Users\3130\AppData\Local\Temp\ccaFL17a.s 			page 75


 4199 0240 0B       		.uleb128 0xb
 4200 0241 49       		.uleb128 0x49
 4201 0242 13       		.uleb128 0x13
 4202 0243 3F       		.uleb128 0x3f
 4203 0244 0C       		.uleb128 0xc
 4204 0245 3C       		.uleb128 0x3c
 4205 0246 0C       		.uleb128 0xc
 4206 0247 00       		.byte	0
 4207 0248 00       		.byte	0
 4208 0249 2F       		.uleb128 0x2f
 4209 024a 21       		.uleb128 0x21
 4210 024b 00       		.byte	0
 4211 024c 00       		.byte	0
 4212 024d 00       		.byte	0
 4213 024e 30       		.uleb128 0x30
 4214 024f 34       		.uleb128 0x34
 4215 0250 00       		.byte	0
 4216 0251 03       		.uleb128 0x3
 4217 0252 08       		.uleb128 0x8
 4218 0253 3A       		.uleb128 0x3a
 4219 0254 0B       		.uleb128 0xb
 4220 0255 3B       		.uleb128 0x3b
 4221 0256 0B       		.uleb128 0xb
 4222 0257 49       		.uleb128 0x49
 4223 0258 13       		.uleb128 0x13
 4224 0259 3F       		.uleb128 0x3f
 4225 025a 0C       		.uleb128 0xc
 4226 025b 3C       		.uleb128 0x3c
 4227 025c 0C       		.uleb128 0xc
 4228 025d 00       		.byte	0
 4229 025e 00       		.byte	0
 4230 025f 31       		.uleb128 0x31
 4231 0260 34       		.uleb128 0x34
 4232 0261 00       		.byte	0
 4233 0262 03       		.uleb128 0x3
 4234 0263 0E       		.uleb128 0xe
 4235 0264 3A       		.uleb128 0x3a
 4236 0265 0B       		.uleb128 0xb
 4237 0266 3B       		.uleb128 0x3b
 4238 0267 0B       		.uleb128 0xb
 4239 0268 49       		.uleb128 0x49
 4240 0269 13       		.uleb128 0x13
 4241 026a 3F       		.uleb128 0x3f
 4242 026b 0C       		.uleb128 0xc
 4243 026c 02       		.uleb128 0x2
 4244 026d 0A       		.uleb128 0xa
 4245 026e 00       		.byte	0
 4246 026f 00       		.byte	0
 4247 0270 32       		.uleb128 0x32
 4248 0271 2E       		.uleb128 0x2e
 4249 0272 01       		.byte	0x1
 4250 0273 3F       		.uleb128 0x3f
 4251 0274 0C       		.uleb128 0xc
 4252 0275 03       		.uleb128 0x3
 4253 0276 0E       		.uleb128 0xe
 4254 0277 3A       		.uleb128 0x3a
 4255 0278 0B       		.uleb128 0xb
ARM GAS  C:\Users\3130\AppData\Local\Temp\ccaFL17a.s 			page 76


 4256 0279 3B       		.uleb128 0x3b
 4257 027a 05       		.uleb128 0x5
 4258 027b 27       		.uleb128 0x27
 4259 027c 0C       		.uleb128 0xc
 4260 027d 49       		.uleb128 0x49
 4261 027e 13       		.uleb128 0x13
 4262 027f 3C       		.uleb128 0x3c
 4263 0280 0C       		.uleb128 0xc
 4264 0281 01       		.uleb128 0x1
 4265 0282 13       		.uleb128 0x13
 4266 0283 00       		.byte	0
 4267 0284 00       		.byte	0
 4268 0285 33       		.uleb128 0x33
 4269 0286 2E       		.uleb128 0x2e
 4270 0287 01       		.byte	0x1
 4271 0288 3F       		.uleb128 0x3f
 4272 0289 0C       		.uleb128 0xc
 4273 028a 03       		.uleb128 0x3
 4274 028b 0E       		.uleb128 0xe
 4275 028c 3A       		.uleb128 0x3a
 4276 028d 0B       		.uleb128 0xb
 4277 028e 3B       		.uleb128 0x3b
 4278 028f 05       		.uleb128 0x5
 4279 0290 27       		.uleb128 0x27
 4280 0291 0C       		.uleb128 0xc
 4281 0292 3C       		.uleb128 0x3c
 4282 0293 0C       		.uleb128 0xc
 4283 0294 01       		.uleb128 0x1
 4284 0295 13       		.uleb128 0x13
 4285 0296 00       		.byte	0
 4286 0297 00       		.byte	0
 4287 0298 34       		.uleb128 0x34
 4288 0299 2E       		.uleb128 0x2e
 4289 029a 01       		.byte	0x1
 4290 029b 3F       		.uleb128 0x3f
 4291 029c 0C       		.uleb128 0xc
 4292 029d 03       		.uleb128 0x3
 4293 029e 0E       		.uleb128 0xe
 4294 029f 3A       		.uleb128 0x3a
 4295 02a0 0B       		.uleb128 0xb
 4296 02a1 3B       		.uleb128 0x3b
 4297 02a2 0B       		.uleb128 0xb
 4298 02a3 27       		.uleb128 0x27
 4299 02a4 0C       		.uleb128 0xc
 4300 02a5 3C       		.uleb128 0x3c
 4301 02a6 0C       		.uleb128 0xc
 4302 02a7 01       		.uleb128 0x1
 4303 02a8 13       		.uleb128 0x13
 4304 02a9 00       		.byte	0
 4305 02aa 00       		.byte	0
 4306 02ab 35       		.uleb128 0x35
 4307 02ac 2E       		.uleb128 0x2e
 4308 02ad 01       		.byte	0x1
 4309 02ae 3F       		.uleb128 0x3f
 4310 02af 0C       		.uleb128 0xc
 4311 02b0 03       		.uleb128 0x3
 4312 02b1 0E       		.uleb128 0xe
ARM GAS  C:\Users\3130\AppData\Local\Temp\ccaFL17a.s 			page 77


 4313 02b2 3A       		.uleb128 0x3a
 4314 02b3 0B       		.uleb128 0xb
 4315 02b4 3B       		.uleb128 0x3b
 4316 02b5 0B       		.uleb128 0xb
 4317 02b6 27       		.uleb128 0x27
 4318 02b7 0C       		.uleb128 0xc
 4319 02b8 49       		.uleb128 0x49
 4320 02b9 13       		.uleb128 0x13
 4321 02ba 3C       		.uleb128 0x3c
 4322 02bb 0C       		.uleb128 0xc
 4323 02bc 01       		.uleb128 0x1
 4324 02bd 13       		.uleb128 0x13
 4325 02be 00       		.byte	0
 4326 02bf 00       		.byte	0
 4327 02c0 36       		.uleb128 0x36
 4328 02c1 2E       		.uleb128 0x2e
 4329 02c2 00       		.byte	0
 4330 02c3 3F       		.uleb128 0x3f
 4331 02c4 0C       		.uleb128 0xc
 4332 02c5 03       		.uleb128 0x3
 4333 02c6 0E       		.uleb128 0xe
 4334 02c7 3A       		.uleb128 0x3a
 4335 02c8 0B       		.uleb128 0xb
 4336 02c9 3B       		.uleb128 0x3b
 4337 02ca 0B       		.uleb128 0xb
 4338 02cb 27       		.uleb128 0x27
 4339 02cc 0C       		.uleb128 0xc
 4340 02cd 3C       		.uleb128 0x3c
 4341 02ce 0C       		.uleb128 0xc
 4342 02cf 00       		.byte	0
 4343 02d0 00       		.byte	0
 4344 02d1 37       		.uleb128 0x37
 4345 02d2 2E       		.uleb128 0x2e
 4346 02d3 01       		.byte	0x1
 4347 02d4 3F       		.uleb128 0x3f
 4348 02d5 0C       		.uleb128 0xc
 4349 02d6 03       		.uleb128 0x3
 4350 02d7 0E       		.uleb128 0xe
 4351 02d8 3A       		.uleb128 0x3a
 4352 02d9 0B       		.uleb128 0xb
 4353 02da 3B       		.uleb128 0x3b
 4354 02db 05       		.uleb128 0x5
 4355 02dc 27       		.uleb128 0x27
 4356 02dd 0C       		.uleb128 0xc
 4357 02de 3C       		.uleb128 0x3c
 4358 02df 0C       		.uleb128 0xc
 4359 02e0 00       		.byte	0
 4360 02e1 00       		.byte	0
 4361 02e2 00       		.byte	0
 4362              		.section	.debug_loc,"",%progbits
 4363              	.Ldebug_loc0:
 4364              	.LLST0:
 4365 0000 00000000 		.4byte	.LFB12
 4366 0004 02000000 		.4byte	.LCFI0
 4367 0008 0200     		.2byte	0x2
 4368 000a 7D       		.byte	0x7d
 4369 000b 00       		.sleb128 0
ARM GAS  C:\Users\3130\AppData\Local\Temp\ccaFL17a.s 			page 78


 4370 000c 02000000 		.4byte	.LCFI0
 4371 0010 14000000 		.4byte	.LFE12
 4372 0014 0200     		.2byte	0x2
 4373 0016 7D       		.byte	0x7d
 4374 0017 08       		.sleb128 8
 4375 0018 00000000 		.4byte	0
 4376 001c 00000000 		.4byte	0
 4377              	.LLST1:
 4378 0020 00000000 		.4byte	.LVL1
 4379 0024 04000000 		.4byte	.LVL2
 4380 0028 0100     		.2byte	0x1
 4381 002a 50       		.byte	0x50
 4382 002b 04000000 		.4byte	.LVL2
 4383 002f 14000000 		.4byte	.LFE12
 4384 0033 0400     		.2byte	0x4
 4385 0035 F3       		.byte	0xf3
 4386 0036 01       		.uleb128 0x1
 4387 0037 50       		.byte	0x50
 4388 0038 9F       		.byte	0x9f
 4389 0039 00000000 		.4byte	0
 4390 003d 00000000 		.4byte	0
 4391              	.LLST2:
 4392 0041 00000000 		.4byte	.LFB11
 4393 0045 02000000 		.4byte	.LCFI1
 4394 0049 0200     		.2byte	0x2
 4395 004b 7D       		.byte	0x7d
 4396 004c 00       		.sleb128 0
 4397 004d 02000000 		.4byte	.LCFI1
 4398 0051 06000000 		.4byte	.LCFI2
 4399 0055 0200     		.2byte	0x2
 4400 0057 7D       		.byte	0x7d
 4401 0058 04       		.sleb128 4
 4402 0059 06000000 		.4byte	.LCFI2
 4403 005d 28000000 		.4byte	.LFE11
 4404 0061 0200     		.2byte	0x2
 4405 0063 7D       		.byte	0x7d
 4406 0064 10       		.sleb128 16
 4407 0065 00000000 		.4byte	0
 4408 0069 00000000 		.4byte	0
 4409              	.LLST3:
 4410 006d 00000000 		.4byte	.LFB9
 4411 0071 02000000 		.4byte	.LCFI3
 4412 0075 0200     		.2byte	0x2
 4413 0077 7D       		.byte	0x7d
 4414 0078 00       		.sleb128 0
 4415 0079 02000000 		.4byte	.LCFI3
 4416 007d 14000000 		.4byte	.LFE9
 4417 0081 0200     		.2byte	0x2
 4418 0083 7D       		.byte	0x7d
 4419 0084 08       		.sleb128 8
 4420 0085 00000000 		.4byte	0
 4421 0089 00000000 		.4byte	0
 4422              	.LLST4:
 4423 008d 00000000 		.4byte	.LVL5
 4424 0091 04000000 		.4byte	.LVL6
 4425 0095 0100     		.2byte	0x1
 4426 0097 50       		.byte	0x50
ARM GAS  C:\Users\3130\AppData\Local\Temp\ccaFL17a.s 			page 79


 4427 0098 04000000 		.4byte	.LVL6
 4428 009c 14000000 		.4byte	.LFE9
 4429 00a0 0400     		.2byte	0x4
 4430 00a2 F3       		.byte	0xf3
 4431 00a3 01       		.uleb128 0x1
 4432 00a4 50       		.byte	0x50
 4433 00a5 9F       		.byte	0x9f
 4434 00a6 00000000 		.4byte	0
 4435 00aa 00000000 		.4byte	0
 4436              	.LLST5:
 4437 00ae 00000000 		.4byte	.LFB8
 4438 00b2 02000000 		.4byte	.LCFI4
 4439 00b6 0200     		.2byte	0x2
 4440 00b8 7D       		.byte	0x7d
 4441 00b9 00       		.sleb128 0
 4442 00ba 02000000 		.4byte	.LCFI4
 4443 00be 06000000 		.4byte	.LCFI5
 4444 00c2 0200     		.2byte	0x2
 4445 00c4 7D       		.byte	0x7d
 4446 00c5 04       		.sleb128 4
 4447 00c6 06000000 		.4byte	.LCFI5
 4448 00ca 28000000 		.4byte	.LFE8
 4449 00ce 0200     		.2byte	0x2
 4450 00d0 7D       		.byte	0x7d
 4451 00d1 10       		.sleb128 16
 4452 00d2 00000000 		.4byte	0
 4453 00d6 00000000 		.4byte	0
 4454              	.LLST6:
 4455 00da 00000000 		.4byte	.LFB13
 4456 00de 02000000 		.4byte	.LCFI6
 4457 00e2 0200     		.2byte	0x2
 4458 00e4 7D       		.byte	0x7d
 4459 00e5 00       		.sleb128 0
 4460 00e6 02000000 		.4byte	.LCFI6
 4461 00ea 04000000 		.4byte	.LCFI7
 4462 00ee 0200     		.2byte	0x2
 4463 00f0 7D       		.byte	0x7d
 4464 00f1 0C       		.sleb128 12
 4465 00f2 04000000 		.4byte	.LCFI7
 4466 00f6 14020000 		.4byte	.LFE13
 4467 00fa 0200     		.2byte	0x2
 4468 00fc 7D       		.byte	0x7d
 4469 00fd 20       		.sleb128 32
 4470 00fe 00000000 		.4byte	0
 4471 0102 00000000 		.4byte	0
 4472              	.LLST7:
 4473 0106 20000000 		.4byte	.LVL10
 4474 010a 2C000000 		.4byte	.LVL11
 4475 010e 0200     		.2byte	0x2
 4476 0110 30       		.byte	0x30
 4477 0111 9F       		.byte	0x9f
 4478 0112 2C000000 		.4byte	.LVL11
 4479 0116 38000000 		.4byte	.LVL12
 4480 011a 0200     		.2byte	0x2
 4481 011c 31       		.byte	0x31
 4482 011d 9F       		.byte	0x9f
 4483 011e 38000000 		.4byte	.LVL12
ARM GAS  C:\Users\3130\AppData\Local\Temp\ccaFL17a.s 			page 80


 4484 0122 46000000 		.4byte	.LVL13
 4485 0126 0200     		.2byte	0x2
 4486 0128 32       		.byte	0x32
 4487 0129 9F       		.byte	0x9f
 4488 012a 46000000 		.4byte	.LVL13
 4489 012e 50000000 		.4byte	.LVL14
 4490 0132 0200     		.2byte	0x2
 4491 0134 33       		.byte	0x33
 4492 0135 9F       		.byte	0x9f
 4493 0136 50000000 		.4byte	.LVL14
 4494 013a BE000000 		.4byte	.LVL30
 4495 013e 0200     		.2byte	0x2
 4496 0140 34       		.byte	0x34
 4497 0141 9F       		.byte	0x9f
 4498 0142 C2000000 		.4byte	.LVL31
 4499 0146 EC010000 		.4byte	.LVL53
 4500 014a 0200     		.2byte	0x2
 4501 014c 34       		.byte	0x34
 4502 014d 9F       		.byte	0x9f
 4503 014e F4010000 		.4byte	.LVL54
 4504 0152 14020000 		.4byte	.LFE13
 4505 0156 0200     		.2byte	0x2
 4506 0158 34       		.byte	0x34
 4507 0159 9F       		.byte	0x9f
 4508 015a 00000000 		.4byte	0
 4509 015e 00000000 		.4byte	0
 4510              	.LLST8:
 4511 0162 64000000 		.4byte	.LVL16
 4512 0166 74000000 		.4byte	.LVL19
 4513 016a 0200     		.2byte	0x2
 4514 016c 30       		.byte	0x30
 4515 016d 9F       		.byte	0x9f
 4516 016e 74000000 		.4byte	.LVL19
 4517 0172 84000000 		.4byte	.LVL22
 4518 0176 0200     		.2byte	0x2
 4519 0178 31       		.byte	0x31
 4520 0179 9F       		.byte	0x9f
 4521 017a 84000000 		.4byte	.LVL22
 4522 017e 94000000 		.4byte	.LVL25
 4523 0182 0200     		.2byte	0x2
 4524 0184 32       		.byte	0x32
 4525 0185 9F       		.byte	0x9f
 4526 0186 94000000 		.4byte	.LVL25
 4527 018a A4000000 		.4byte	.LVL28
 4528 018e 0200     		.2byte	0x2
 4529 0190 33       		.byte	0x33
 4530 0191 9F       		.byte	0x9f
 4531 0192 A4000000 		.4byte	.LVL28
 4532 0196 BE000000 		.4byte	.LVL30
 4533 019a 0200     		.2byte	0x2
 4534 019c 34       		.byte	0x34
 4535 019d 9F       		.byte	0x9f
 4536 019e C2000000 		.4byte	.LVL31
 4537 01a2 EC010000 		.4byte	.LVL53
 4538 01a6 0200     		.2byte	0x2
 4539 01a8 34       		.byte	0x34
 4540 01a9 9F       		.byte	0x9f
ARM GAS  C:\Users\3130\AppData\Local\Temp\ccaFL17a.s 			page 81


 4541 01aa F4010000 		.4byte	.LVL54
 4542 01ae 14020000 		.4byte	.LFE13
 4543 01b2 0200     		.2byte	0x2
 4544 01b4 34       		.byte	0x34
 4545 01b5 9F       		.byte	0x9f
 4546 01b6 00000000 		.4byte	0
 4547 01ba 00000000 		.4byte	0
 4548              	.LLST9:
 4549 01be F8000000 		.4byte	.LVL35
 4550 01c2 00010000 		.4byte	.LVL36
 4551 01c6 0100     		.2byte	0x1
 4552 01c8 50       		.byte	0x50
 4553 01c9 90010000 		.4byte	.LVL44
 4554 01cd 98010000 		.4byte	.LVL45
 4555 01d1 0100     		.2byte	0x1
 4556 01d3 50       		.byte	0x50
 4557 01d4 AC010000 		.4byte	.LVL47
 4558 01d8 B4010000 		.4byte	.LVL48
 4559 01dc 0100     		.2byte	0x1
 4560 01de 50       		.byte	0x50
 4561 01df 00000000 		.4byte	0
 4562 01e3 00000000 		.4byte	0
 4563              	.LLST10:
 4564 01e7 6C000000 		.4byte	.LVL17
 4565 01eb 70000000 		.4byte	.LVL18
 4566 01ef 0100     		.2byte	0x1
 4567 01f1 50       		.byte	0x50
 4568 01f2 7C000000 		.4byte	.LVL20
 4569 01f6 80000000 		.4byte	.LVL21
 4570 01fa 0100     		.2byte	0x1
 4571 01fc 50       		.byte	0x50
 4572 01fd 8C000000 		.4byte	.LVL23
 4573 0201 90000000 		.4byte	.LVL24
 4574 0205 0100     		.2byte	0x1
 4575 0207 50       		.byte	0x50
 4576 0208 9C000000 		.4byte	.LVL26
 4577 020c A0000000 		.4byte	.LVL27
 4578 0210 0100     		.2byte	0x1
 4579 0212 50       		.byte	0x50
 4580 0213 00000000 		.4byte	0
 4581 0217 00000000 		.4byte	0
 4582              	.LLST11:
 4583 021b 00000000 		.4byte	.LFB10
 4584 021f 02000000 		.4byte	.LCFI8
 4585 0223 0200     		.2byte	0x2
 4586 0225 7D       		.byte	0x7d
 4587 0226 00       		.sleb128 0
 4588 0227 02000000 		.4byte	.LCFI8
 4589 022b 04000000 		.4byte	.LCFI9
 4590 022f 0200     		.2byte	0x2
 4591 0231 7D       		.byte	0x7d
 4592 0232 0C       		.sleb128 12
 4593 0233 04000000 		.4byte	.LCFI9
 4594 0237 40020000 		.4byte	.LFE10
 4595 023b 0200     		.2byte	0x2
 4596 023d 7D       		.byte	0x7d
 4597 023e 20       		.sleb128 32
ARM GAS  C:\Users\3130\AppData\Local\Temp\ccaFL17a.s 			page 82


 4598 023f 00000000 		.4byte	0
 4599 0243 00000000 		.4byte	0
 4600              	.LLST12:
 4601 0247 1C000000 		.4byte	.LVL56
 4602 024b 24000000 		.4byte	.LVL57
 4603 024f 0200     		.2byte	0x2
 4604 0251 30       		.byte	0x30
 4605 0252 9F       		.byte	0x9f
 4606 0253 24000000 		.4byte	.LVL57
 4607 0257 2C000000 		.4byte	.LVL58
 4608 025b 0200     		.2byte	0x2
 4609 025d 31       		.byte	0x31
 4610 025e 9F       		.byte	0x9f
 4611 025f 2C000000 		.4byte	.LVL58
 4612 0263 34000000 		.4byte	.LVL59
 4613 0267 0200     		.2byte	0x2
 4614 0269 32       		.byte	0x32
 4615 026a 9F       		.byte	0x9f
 4616 026b 34000000 		.4byte	.LVL59
 4617 026f 3C000000 		.4byte	.LVL60
 4618 0273 0200     		.2byte	0x2
 4619 0275 33       		.byte	0x33
 4620 0276 9F       		.byte	0x9f
 4621 0277 3C000000 		.4byte	.LVL60
 4622 027b 58000000 		.4byte	.LVL62
 4623 027f 0200     		.2byte	0x2
 4624 0281 34       		.byte	0x34
 4625 0282 9F       		.byte	0x9f
 4626 0283 5C000000 		.4byte	.LVL63
 4627 0287 40020000 		.4byte	.LFE10
 4628 028b 0200     		.2byte	0x2
 4629 028d 34       		.byte	0x34
 4630 028e 9F       		.byte	0x9f
 4631 028f 00000000 		.4byte	0
 4632 0293 00000000 		.4byte	0
 4633              	.LLST13:
 4634 0297 78000000 		.4byte	.LVL66
 4635 029b 8A000000 		.4byte	.LVL68
 4636 029f 0200     		.2byte	0x2
 4637 02a1 30       		.byte	0x30
 4638 02a2 9F       		.byte	0x9f
 4639 02a3 8A000000 		.4byte	.LVL68
 4640 02a7 98000000 		.4byte	.LVL70
 4641 02ab 0200     		.2byte	0x2
 4642 02ad 31       		.byte	0x31
 4643 02ae 9F       		.byte	0x9f
 4644 02af 98000000 		.4byte	.LVL70
 4645 02b3 A8000000 		.4byte	.LVL72
 4646 02b7 0200     		.2byte	0x2
 4647 02b9 32       		.byte	0x32
 4648 02ba 9F       		.byte	0x9f
 4649 02bb A8000000 		.4byte	.LVL72
 4650 02bf B8000000 		.4byte	.LVL74
 4651 02c3 0200     		.2byte	0x2
 4652 02c5 33       		.byte	0x33
 4653 02c6 9F       		.byte	0x9f
 4654 02c7 B8000000 		.4byte	.LVL74
ARM GAS  C:\Users\3130\AppData\Local\Temp\ccaFL17a.s 			page 83


 4655 02cb DA000000 		.4byte	.LVL77
 4656 02cf 0200     		.2byte	0x2
 4657 02d1 34       		.byte	0x34
 4658 02d2 9F       		.byte	0x9f
 4659 02d3 DA000000 		.4byte	.LVL77
 4660 02d7 E2000000 		.4byte	.LVL78
 4661 02db 0200     		.2byte	0x2
 4662 02dd 30       		.byte	0x30
 4663 02de 9F       		.byte	0x9f
 4664 02df E2000000 		.4byte	.LVL78
 4665 02e3 EA000000 		.4byte	.LVL79
 4666 02e7 0200     		.2byte	0x2
 4667 02e9 31       		.byte	0x31
 4668 02ea 9F       		.byte	0x9f
 4669 02eb EA000000 		.4byte	.LVL79
 4670 02ef F2000000 		.4byte	.LVL80
 4671 02f3 0200     		.2byte	0x2
 4672 02f5 32       		.byte	0x32
 4673 02f6 9F       		.byte	0x9f
 4674 02f7 F2000000 		.4byte	.LVL80
 4675 02fb FA000000 		.4byte	.LVL81
 4676 02ff 0200     		.2byte	0x2
 4677 0301 33       		.byte	0x33
 4678 0302 9F       		.byte	0x9f
 4679 0303 FA000000 		.4byte	.LVL81
 4680 0307 34010000 		.4byte	.LVL86
 4681 030b 0200     		.2byte	0x2
 4682 030d 34       		.byte	0x34
 4683 030e 9F       		.byte	0x9f
 4684 030f 34010000 		.4byte	.LVL86
 4685 0313 3C010000 		.4byte	.LVL87
 4686 0317 0200     		.2byte	0x2
 4687 0319 30       		.byte	0x30
 4688 031a 9F       		.byte	0x9f
 4689 031b 3C010000 		.4byte	.LVL87
 4690 031f 44010000 		.4byte	.LVL88
 4691 0323 0200     		.2byte	0x2
 4692 0325 31       		.byte	0x31
 4693 0326 9F       		.byte	0x9f
 4694 0327 44010000 		.4byte	.LVL88
 4695 032b 4C010000 		.4byte	.LVL89
 4696 032f 0200     		.2byte	0x2
 4697 0331 32       		.byte	0x32
 4698 0332 9F       		.byte	0x9f
 4699 0333 4C010000 		.4byte	.LVL89
 4700 0337 54010000 		.4byte	.LVL90
 4701 033b 0200     		.2byte	0x2
 4702 033d 33       		.byte	0x33
 4703 033e 9F       		.byte	0x9f
 4704 033f 54010000 		.4byte	.LVL90
 4705 0343 20020000 		.4byte	.LVL106
 4706 0347 0200     		.2byte	0x2
 4707 0349 34       		.byte	0x34
 4708 034a 9F       		.byte	0x9f
 4709 034b 00000000 		.4byte	0
 4710 034f 00000000 		.4byte	0
 4711              	.LLST14:
ARM GAS  C:\Users\3130\AppData\Local\Temp\ccaFL17a.s 			page 84


 4712 0353 0C010000 		.4byte	.LVL82
 4713 0357 14010000 		.4byte	.LVL83
 4714 035b 0100     		.2byte	0x1
 4715 035d 50       		.byte	0x50
 4716 035e 62010000 		.4byte	.LVL91
 4717 0362 6A010000 		.4byte	.LVL92
 4718 0366 0100     		.2byte	0x1
 4719 0368 50       		.byte	0x50
 4720 0369 80010000 		.4byte	.LVL94
 4721 036d 88010000 		.4byte	.LVL95
 4722 0371 0100     		.2byte	0x1
 4723 0373 50       		.byte	0x50
 4724 0374 00000000 		.4byte	0
 4725 0378 00000000 		.4byte	0
 4726              		.section	.debug_aranges,"",%progbits
 4727 0000 4C000000 		.4byte	0x4c
 4728 0004 0200     		.2byte	0x2
 4729 0006 00000000 		.4byte	.Ldebug_info0
 4730 000a 04       		.byte	0x4
 4731 000b 00       		.byte	0
 4732 000c 0000     		.2byte	0
 4733 000e 0000     		.2byte	0
 4734 0010 00000000 		.4byte	.LFB7
 4735 0014 02000000 		.4byte	.LFE7-.LFB7
 4736 0018 00000000 		.4byte	.LFB12
 4737 001c 14000000 		.4byte	.LFE12-.LFB12
 4738 0020 00000000 		.4byte	.LFB11
 4739 0024 28000000 		.4byte	.LFE11-.LFB11
 4740 0028 00000000 		.4byte	.LFB9
 4741 002c 14000000 		.4byte	.LFE9-.LFB9
 4742 0030 00000000 		.4byte	.LFB8
 4743 0034 28000000 		.4byte	.LFE8-.LFB8
 4744 0038 00000000 		.4byte	.LFB13
 4745 003c 14020000 		.4byte	.LFE13-.LFB13
 4746 0040 00000000 		.4byte	.LFB10
 4747 0044 40020000 		.4byte	.LFE10-.LFB10
 4748 0048 00000000 		.4byte	0
 4749 004c 00000000 		.4byte	0
 4750              		.section	.debug_ranges,"",%progbits
 4751              	.Ldebug_ranges0:
 4752 0000 64000000 		.4byte	.LBB6
 4753 0004 BE000000 		.4byte	.LBE6
 4754 0008 C2000000 		.4byte	.LBB11
 4755 000c EC010000 		.4byte	.LBE11
 4756 0010 F4010000 		.4byte	.LBB12
 4757 0014 14020000 		.4byte	.LBE12
 4758 0018 00000000 		.4byte	0
 4759 001c 00000000 		.4byte	0
 4760 0020 64000000 		.4byte	.LBB7
 4761 0024 BE000000 		.4byte	.LBE7
 4762 0028 C2000000 		.4byte	.LBB9
 4763 002c EC010000 		.4byte	.LBE9
 4764 0030 F4010000 		.4byte	.LBB10
 4765 0034 14020000 		.4byte	.LBE10
 4766 0038 00000000 		.4byte	0
 4767 003c 00000000 		.4byte	0
 4768 0040 00000000 		.4byte	.LFB7
ARM GAS  C:\Users\3130\AppData\Local\Temp\ccaFL17a.s 			page 85


 4769 0044 02000000 		.4byte	.LFE7
 4770 0048 00000000 		.4byte	.LFB12
 4771 004c 14000000 		.4byte	.LFE12
 4772 0050 00000000 		.4byte	.LFB11
 4773 0054 28000000 		.4byte	.LFE11
 4774 0058 00000000 		.4byte	.LFB9
 4775 005c 14000000 		.4byte	.LFE9
 4776 0060 00000000 		.4byte	.LFB8
 4777 0064 28000000 		.4byte	.LFE8
 4778 0068 00000000 		.4byte	.LFB13
 4779 006c 14020000 		.4byte	.LFE13
 4780 0070 00000000 		.4byte	.LFB10
 4781 0074 40020000 		.4byte	.LFE10
 4782 0078 00000000 		.4byte	0
 4783 007c 00000000 		.4byte	0
 4784              		.section	.debug_line,"",%progbits
 4785              	.Ldebug_line0:
 4786 0000 DF020000 		.section	.debug_str,"MS",%progbits,1
 4786      0200D401 
 4786      00000201 
 4786      FB0E0D00 
 4786      01010101 
 4787              	.LASF99:
 4788 0000 63684F51 		.ascii	"chOQPutTimeout\000"
 4788      50757454 
 4788      696D656F 
 4788      757400
 4789              	.LASF67:
 4790 000f 7466756E 		.ascii	"tfunc_t\000"
 4790      635F7400 
 4791              	.LASF39:
 4792 0017 705F6D73 		.ascii	"p_msg\000"
 4792      6700
 4793              	.LASF2:
 4794 001d 73697A65 		.ascii	"size_t\000"
 4794      5F7400
 4795              	.LASF62:
 4796 0024 7264796D 		.ascii	"rdymsg\000"
 4796      736700
 4797              	.LASF102:
 4798 002b 63684951 		.ascii	"chIQInit\000"
 4798      496E6974 
 4798      00
 4799              	.LASF12:
 4800 0034 75696E74 		.ascii	"uint64_t\000"
 4800      36345F74 
 4800      00
 4801              	.LASF79:
 4802 003d 4F757470 		.ascii	"OutputQueue\000"
 4802      75745175 
 4802      65756500 
 4803              	.LASF111:
 4804 0049 63684951 		.ascii	"chIQReadTimeout\000"
 4804      52656164 
 4804      54696D65 
 4804      6F757400 
 4805              	.LASF98:
ARM GAS  C:\Users\3130\AppData\Local\Temp\ccaFL17a.s 			page 86


 4806 0059 70617474 		.ascii	"patternqueues\000"
 4806      65726E71 
 4806      75657565 
 4806      7300
 4807              	.LASF13:
 4808 0067 6C6F6E67 		.ascii	"long long unsigned int\000"
 4808      206C6F6E 
 4808      6720756E 
 4808      7369676E 
 4808      65642069 
 4809              	.LASF107:
 4810 007e 63684F51 		.ascii	"chOQWriteTimeout\000"
 4810      57726974 
 4810      6554696D 
 4810      656F7574 
 4810      00
 4811              	.LASF101:
 4812 008f 63684F51 		.ascii	"chOQInit\000"
 4812      496E6974 
 4812      00
 4813              	.LASF63:
 4814 0098 65786974 		.ascii	"exitcode\000"
 4814      636F6465 
 4814      00
 4815              	.LASF89:
 4816 00a1 71756575 		.ascii	"queues2_setup\000"
 4816      6573325F 
 4816      73657475 
 4816      7000
 4817              	.LASF95:
 4818 00af 74657374 		.ascii	"test\000"
 4818      00
 4819              	.LASF27:
 4820 00b4 705F7072 		.ascii	"p_prio\000"
 4820      696F00
 4821              	.LASF69:
 4822 00bb 715F7761 		.ascii	"q_waiting\000"
 4822      6974696E 
 4822      6700
 4823              	.LASF11:
 4824 00c5 6C6F6E67 		.ascii	"long long int\000"
 4824      206C6F6E 
 4824      6720696E 
 4824      7400
 4825              	.LASF1:
 4826 00d3 7369676E 		.ascii	"signed char\000"
 4826      65642063 
 4826      68617200 
 4827              	.LASF43:
 4828 00df 705F6D70 		.ascii	"p_mpool\000"
 4828      6F6F6C00 
 4829              	.LASF14:
 4830 00e7 626F6F6C 		.ascii	"bool_t\000"
 4830      5F7400
 4831              	.LASF59:
 4832 00ee 6D5F7175 		.ascii	"m_queue\000"
 4832      65756500 
ARM GAS  C:\Users\3130\AppData\Local\Temp\ccaFL17a.s 			page 87


 4833              	.LASF104:
 4834 00f6 74657374 		.ascii	"test_emit_token\000"
 4834      5F656D69 
 4834      745F746F 
 4834      6B656E00 
 4835              	.LASF19:
 4836 0106 74736C69 		.ascii	"tslices_t\000"
 4836      6365735F 
 4836      7400
 4837              	.LASF8:
 4838 0110 6C6F6E67 		.ascii	"long int\000"
 4838      20696E74 
 4838      00
 4839              	.LASF17:
 4840 0119 74737461 		.ascii	"tstate_t\000"
 4840      74655F74 
 4840      00
 4841              	.LASF103:
 4842 0122 63684F51 		.ascii	"chOQGetI\000"
 4842      47657449 
 4842      00
 4843              	.LASF71:
 4844 012b 715F6275 		.ascii	"q_buffer\000"
 4844      66666572 
 4844      00
 4845              	.LASF73:
 4846 0134 715F7772 		.ascii	"q_wrptr\000"
 4846      70747200 
 4847              	.LASF29:
 4848 013c 705F6E65 		.ascii	"p_newer\000"
 4848      77657200 
 4849              	.LASF54:
 4850 0144 725F6E65 		.ascii	"r_newer\000"
 4850      77657200 
 4851              	.LASF46:
 4852 014c 72656761 		.ascii	"regarm_t\000"
 4852      726D5F74 
 4852      00
 4853              	.LASF110:
 4854 0155 63684951 		.ascii	"chIQPutI\000"
 4854      50757449 
 4854      00
 4855              	.LASF0:
 4856 015e 756E7369 		.ascii	"unsigned int\000"
 4856      676E6564 
 4856      20696E74 
 4856      00
 4857              	.LASF117:
 4858 016b 63684951 		.ascii	"chIQResetI\000"
 4858      52657365 
 4858      744900
 4859              	.LASF10:
 4860 0176 6C6F6E67 		.ascii	"long unsigned int\000"
 4860      20756E73 
 4860      69676E65 
 4860      6420696E 
 4860      7400
ARM GAS  C:\Users\3130\AppData\Local\Temp\ccaFL17a.s 			page 88


 4861              	.LASF83:
 4862 0188 74656172 		.ascii	"teardown\000"
 4862      646F776E 
 4862      00
 4863              	.LASF81:
 4864 0191 6E616D65 		.ascii	"name\000"
 4864      00
 4865              	.LASF49:
 4866 0196 636F6E74 		.ascii	"context\000"
 4866      65787400 
 4867              	.LASF6:
 4868 019e 73686F72 		.ascii	"short unsigned int\000"
 4868      7420756E 
 4868      7369676E 
 4868      65642069 
 4868      6E7400
 4869              	.LASF87:
 4870 01b1 71756575 		.ascii	"queues1_execute\000"
 4870      6573315F 
 4870      65786563 
 4870      75746500 
 4871              	.LASF96:
 4872 01c1 74657374 		.ascii	"testqueues1\000"
 4872      71756575 
 4872      65733100 
 4873              	.LASF21:
 4874 01cd 6D73675F 		.ascii	"msg_t\000"
 4874      7400
 4875              	.LASF16:
 4876 01d3 746D6F64 		.ascii	"tmode_t\000"
 4876      655F7400 
 4877              	.LASF45:
 4878 01db 54687265 		.ascii	"ThreadsList\000"
 4878      6164734C 
 4878      69737400 
 4879              	.LASF22:
 4880 01e7 6576656E 		.ascii	"eventmask_t\000"
 4880      746D6173 
 4880      6B5F7400 
 4881              	.LASF78:
 4882 01f3 496E7075 		.ascii	"InputQueue\000"
 4882      74517565 
 4882      756500
 4883              	.LASF58:
 4884 01fe 4D757465 		.ascii	"Mutex\000"
 4884      7800
 4885              	.LASF68:
 4886 0204 47656E65 		.ascii	"GenericQueue\000"
 4886      72696351 
 4886      75657565 
 4886      00
 4887              	.LASF47:
 4888 0211 73746B61 		.ascii	"stkalign_t\000"
 4888      6C69676E 
 4888      5F7400
 4889              	.LASF108:
 4890 021c 63685468 		.ascii	"chThdCreateStatic\000"
ARM GAS  C:\Users\3130\AppData\Local\Temp\ccaFL17a.s 			page 89


 4890      64437265 
 4890      61746553 
 4890      74617469 
 4890      6300
 4891              	.LASF88:
 4892 022e 6E6F7469 		.ascii	"notify\000"
 4892      667900
 4893              	.LASF86:
 4894 0235 71756575 		.ascii	"queues2_execute\000"
 4894      6573325F 
 4894      65786563 
 4894      75746500 
 4895              	.LASF50:
 4896 0245 73697A65 		.ascii	"sizetype\000"
 4896      74797065 
 4896      00
 4897              	.LASF70:
 4898 024e 715F636F 		.ascii	"q_counter\000"
 4898      756E7465 
 4898      7200
 4899              	.LASF97:
 4900 0258 74657374 		.ascii	"testqueues2\000"
 4900      71756575 
 4900      65733200 
 4901              	.LASF116:
 4902 0264 74657374 		.ascii	"test_wait_threads\000"
 4902      5F776169 
 4902      745F7468 
 4902      72656164 
 4902      7300
 4903              	.LASF30:
 4904 0276 705F6F6C 		.ascii	"p_older\000"
 4904      64657200 
 4905              	.LASF91:
 4906 027e 74687265 		.ascii	"thread1\000"
 4906      61643100 
 4907              	.LASF90:
 4908 0286 74687265 		.ascii	"thread2\000"
 4908      61643200 
 4909              	.LASF53:
 4910 028e 725F6374 		.ascii	"r_ctx\000"
 4910      7800
 4911              	.LASF44:
 4912 0294 54687265 		.ascii	"ThreadsQueue\000"
 4912      61647351 
 4912      75657565 
 4912      00
 4913              	.LASF82:
 4914 02a1 73657475 		.ascii	"setup\000"
 4914      7000
 4915              	.LASF106:
 4916 02a7 5F746573 		.ascii	"_test_assert_sequence\000"
 4916      745F6173 
 4916      73657274 
 4916      5F736571 
 4916      75656E63 
 4917              	.LASF56:
ARM GAS  C:\Users\3130\AppData\Local\Temp\ccaFL17a.s 			page 90


 4918 02bd 725F6375 		.ascii	"r_current\000"
 4918      7272656E 
 4918      7400
 4919              	.LASF55:
 4920 02c7 725F6F6C 		.ascii	"r_older\000"
 4920      64657200 
 4921              	.LASF92:
 4922 02cf 71756575 		.ascii	"queues1_setup\000"
 4922      6573315F 
 4922      73657475 
 4922      7000
 4923              	.LASF18:
 4924 02dd 74726566 		.ascii	"trefs_t\000"
 4924      735F7400 
 4925              	.LASF77:
 4926 02e5 716E6F74 		.ascii	"qnotify_t\000"
 4926      6966795F 
 4926      7400
 4927              	.LASF26:
 4928 02ef 705F7072 		.ascii	"p_prev\000"
 4928      657600
 4929              	.LASF84:
 4930 02f6 65786563 		.ascii	"execute\000"
 4930      75746500 
 4931              	.LASF20:
 4932 02fe 74707269 		.ascii	"tprio_t\000"
 4932      6F5F7400 
 4933              	.LASF74:
 4934 0306 715F7264 		.ascii	"q_rdptr\000"
 4934      70747200 
 4935              	.LASF15:
 4936 030e 5F426F6F 		.ascii	"_Bool\000"
 4936      6C00
 4937              	.LASF7:
 4938 0314 696E7433 		.ascii	"int32_t\000"
 4938      325F7400 
 4939              	.LASF4:
 4940 031c 756E7369 		.ascii	"unsigned char\000"
 4940      676E6564 
 4940      20636861 
 4940      7200
 4941              	.LASF41:
 4942 032a 705F6D74 		.ascii	"p_mtxlist\000"
 4942      786C6973 
 4942      7400
 4943              	.LASF5:
 4944 0334 73686F72 		.ascii	"short int\000"
 4944      7420696E 
 4944      7400
 4945              	.LASF32:
 4946 033e 705F7374 		.ascii	"p_state\000"
 4946      61746500 
 4947              	.LASF35:
 4948 0346 705F7072 		.ascii	"p_preempt\000"
 4948      65656D70 
 4948      7400
 4949              	.LASF94:
ARM GAS  C:\Users\3130\AppData\Local\Temp\ccaFL17a.s 			page 91


 4950 0350 74687265 		.ascii	"threads\000"
 4950      61647300 
 4951              	.LASF52:
 4952 0358 725F7072 		.ascii	"r_prio\000"
 4952      696F00
 4953              	.LASF65:
 4954 035f 65776D61 		.ascii	"ewmask\000"
 4954      736B00
 4955              	.LASF25:
 4956 0366 705F6E65 		.ascii	"p_next\000"
 4956      787400
 4957              	.LASF33:
 4958 036d 705F666C 		.ascii	"p_flags\000"
 4958      61677300 
 4959              	.LASF24:
 4960 0375 54687265 		.ascii	"Thread\000"
 4960      616400
 4961              	.LASF80:
 4962 037c 74657374 		.ascii	"testcase\000"
 4962      63617365 
 4962      00
 4963              	.LASF113:
 4964 0385 2E2E2F2E 		.ascii	"../../ChibiOS_2.6.1/test/testqueues.c\000"
 4964      2E2F4368 
 4964      6962694F 
 4964      535F322E 
 4964      362E312F 
 4965              	.LASF40:
 4966 03ab 705F6570 		.ascii	"p_epending\000"
 4966      656E6469 
 4966      6E6700
 4967              	.LASF9:
 4968 03b6 75696E74 		.ascii	"uint32_t\000"
 4968      33325F74 
 4968      00
 4969              	.LASF51:
 4970 03bf 725F7175 		.ascii	"r_queue\000"
 4970      65756500 
 4971              	.LASF66:
 4972 03c7 63686172 		.ascii	"char\000"
 4972      00
 4973              	.LASF115:
 4974 03cc 74657374 		.ascii	"test_buffers\000"
 4974      5F627566 
 4974      66657273 
 4974      00
 4975              	.LASF61:
 4976 03d9 6D5F6E65 		.ascii	"m_next\000"
 4976      787400
 4977              	.LASF23:
 4978 03e0 73797374 		.ascii	"systime_t\000"
 4978      696D655F 
 4978      7400
 4979              	.LASF42:
 4980 03ea 705F7265 		.ascii	"p_realprio\000"
 4980      616C7072 
 4980      696F00
ARM GAS  C:\Users\3130\AppData\Local\Temp\ccaFL17a.s 			page 92


 4981              	.LASF85:
 4982 03f5 62756666 		.ascii	"buffer\000"
 4982      657200
 4983              	.LASF109:
 4984 03fc 63684F51 		.ascii	"chOQResetI\000"
 4984      52657365 
 4984      744900
 4985              	.LASF36:
 4986 0407 705F7469 		.ascii	"p_time\000"
 4986      6D6500
 4987              	.LASF114:
 4988 040e 433A5C73 		.ascii	"C:\\stm32f0-Discovery_Tools\\Projects\\ChibiOS_Temp"
 4988      746D3332 
 4988      66302D44 
 4988      6973636F 
 4988      76657279 
 4989 043e 6C617465 		.ascii	"late\000"
 4989      00
 4990              	.LASF48:
 4991 0443 696E7463 		.ascii	"intctx\000"
 4991      747800
 4992              	.LASF38:
 4993 044a 705F6D73 		.ascii	"p_msgqueue\000"
 4993      67717565 
 4993      756500
 4994              	.LASF72:
 4995 0455 715F746F 		.ascii	"q_top\000"
 4995      7000
 4996              	.LASF34:
 4997 045b 705F7265 		.ascii	"p_refs\000"
 4997      667300
 4998              	.LASF57:
 4999 0462 52656164 		.ascii	"ReadyList\000"
 4999      794C6973 
 4999      7400
 5000              	.LASF75:
 5001 046c 715F6E6F 		.ascii	"q_notify\000"
 5001      74696679 
 5001      00
 5002              	.LASF93:
 5003 0475 726C6973 		.ascii	"rlist\000"
 5003      7400
 5004              	.LASF3:
 5005 047b 75696E74 		.ascii	"uint8_t\000"
 5005      385F7400 
 5006              	.LASF112:
 5007 0483 474E5520 		.ascii	"GNU C 4.7.4 20130913 (prerelease)\000"
 5007      4320342E 
 5007      372E3420 
 5007      32303133 
 5007      30393133 
 5008              	.LASF64:
 5009 04a5 77746F62 		.ascii	"wtobjp\000"
 5009      6A7000
 5010              	.LASF31:
 5011 04ac 705F6E61 		.ascii	"p_name\000"
 5011      6D6500
ARM GAS  C:\Users\3130\AppData\Local\Temp\ccaFL17a.s 			page 93


 5012              	.LASF105:
 5013 04b3 5F746573 		.ascii	"_test_assert\000"
 5013      745F6173 
 5013      73657274 
 5013      00
 5014              	.LASF76:
 5015 04c0 715F6C69 		.ascii	"q_link\000"
 5015      6E6B00
 5016              	.LASF60:
 5017 04c7 6D5F6F77 		.ascii	"m_owner\000"
 5017      6E657200 
 5018              	.LASF28:
 5019 04cf 705F6374 		.ascii	"p_ctx\000"
 5019      7800
 5020              	.LASF37:
 5021 04d5 705F7761 		.ascii	"p_waiting\000"
 5021      6974696E 
 5021      6700
 5022              	.LASF100:
 5023 04df 63684951 		.ascii	"chIQGetTimeout\000"
 5023      47657454 
 5023      696D656F 
 5023      757400
 5024              		.ident	"GCC: (GNU Tools for ARM Embedded Processors / bleeding-edge-toolchain-131005) 4.7.4 201309
ARM GAS  C:\Users\3130\AppData\Local\Temp\ccaFL17a.s 			page 94


DEFINED SYMBOLS
                            *ABS*:00000000 testqueues.c
C:\Users\3130\AppData\Local\Temp\ccaFL17a.s:18     .text.notify:00000000 $t
C:\Users\3130\AppData\Local\Temp\ccaFL17a.s:23     .text.notify:00000000 notify
C:\Users\3130\AppData\Local\Temp\ccaFL17a.s:36     .text.thread2:00000000 $t
C:\Users\3130\AppData\Local\Temp\ccaFL17a.s:41     .text.thread2:00000000 thread2
C:\Users\3130\AppData\Local\Temp\ccaFL17a.s:65     .text.thread2:00000010 $d
C:\Users\3130\AppData\Local\Temp\ccaFL17a.s:70     .text.queues2_setup:00000000 $t
C:\Users\3130\AppData\Local\Temp\ccaFL17a.s:75     .text.queues2_setup:00000000 queues2_setup
C:\Users\3130\AppData\Local\Temp\ccaFL17a.s:105    .text.queues2_setup:0000001c $d
C:\Users\3130\AppData\Local\Temp\ccaFL17a.s:112    .text.thread1:00000000 $t
C:\Users\3130\AppData\Local\Temp\ccaFL17a.s:117    .text.thread1:00000000 thread1
C:\Users\3130\AppData\Local\Temp\ccaFL17a.s:140    .text.thread1:00000010 $d
C:\Users\3130\AppData\Local\Temp\ccaFL17a.s:145    .text.queues1_setup:00000000 $t
C:\Users\3130\AppData\Local\Temp\ccaFL17a.s:150    .text.queues1_setup:00000000 queues1_setup
C:\Users\3130\AppData\Local\Temp\ccaFL17a.s:180    .text.queues1_setup:0000001c $d
C:\Users\3130\AppData\Local\Temp\ccaFL17a.s:187    .text.queues2_execute:00000000 $t
C:\Users\3130\AppData\Local\Temp\ccaFL17a.s:192    .text.queues2_execute:00000000 queues2_execute
C:\Users\3130\AppData\Local\Temp\ccaFL17a.s:617    .text.queues2_execute:000001fc $d
C:\Users\3130\AppData\Local\Temp\ccaFL17a.s:629    .text.queues1_execute:00000000 $t
C:\Users\3130\AppData\Local\Temp\ccaFL17a.s:634    .text.queues1_execute:00000000 queues1_execute
C:\Users\3130\AppData\Local\Temp\ccaFL17a.s:1055   .text.queues1_execute:00000228 $d
C:\Users\3130\AppData\Local\Temp\ccaFL17a.s:1099   .rodata.patternqueues:00000000 patternqueues
C:\Users\3130\AppData\Local\Temp\ccaFL17a.s:1080   .rodata.testqueues2:00000000 testqueues2
C:\Users\3130\AppData\Local\Temp\ccaFL17a.s:1071   .rodata.testqueues1:00000000 testqueues1
C:\Users\3130\AppData\Local\Temp\ccaFL17a.s:1068   .rodata.testqueues1:00000000 $d
C:\Users\3130\AppData\Local\Temp\ccaFL17a.s:1077   .rodata.testqueues2:00000000 $d
C:\Users\3130\AppData\Local\Temp\ccaFL17a.s:1086   .rodata.str1.4:00000000 $d
C:\Users\3130\AppData\Local\Temp\ccaFL17a.s:1096   .rodata.patternqueues:00000000 $d
C:\Users\3130\AppData\Local\Temp\ccaFL17a.s:1104   .data.oq:00000000 $d
C:\Users\3130\AppData\Local\Temp\ccaFL17a.s:1108   .data.oq:00000000 oq
C:\Users\3130\AppData\Local\Temp\ccaFL17a.s:1119   .data.iq:00000000 $d
C:\Users\3130\AppData\Local\Temp\ccaFL17a.s:1123   .data.iq:00000000 iq
                     .debug_frame:00000010 $d
C:\Users\3130\AppData\Local\Temp\ccaFL17a.s:69     .text.thread2:00000014 $t
C:\Users\3130\AppData\Local\Temp\ccaFL17a.s:111    .text.queues2_setup:00000028 $t
C:\Users\3130\AppData\Local\Temp\ccaFL17a.s:144    .text.thread1:00000014 $t
C:\Users\3130\AppData\Local\Temp\ccaFL17a.s:186    .text.queues1_setup:00000028 $t
C:\Users\3130\AppData\Local\Temp\ccaFL17a.s:628    .text.queues2_execute:00000214 $t

UNDEFINED SYMBOLS
chOQPutTimeout
chOQInit
wa
chIQGetTimeout
chIQInit
_test_assert
chOQGetI
test_emit_token
_test_assert_sequence
chOQWriteTimeout
chThdCreateStatic
test_wait_threads
chOQResetI
rlist
threads
chIQPutI
ARM GAS  C:\Users\3130\AppData\Local\Temp\ccaFL17a.s 			page 95


chIQReadTimeout
chIQResetI
test
