ARM GAS  C:\Users\3130\AppData\Local\Temp\ccIJUwNH.s 			page 1


   1              		.cpu cortex-m0
   2              		.fpu softvfp
   3              		.eabi_attribute 20, 1
   4              		.eabi_attribute 21, 1
   5              		.eabi_attribute 23, 3
   6              		.eabi_attribute 24, 1
   7              		.eabi_attribute 25, 1
   8              		.eabi_attribute 26, 1
   9              		.eabi_attribute 30, 2
  10              		.eabi_attribute 34, 0
  11              		.eabi_attribute 18, 4
  12              		.code	16
  13              		.file	"test.c"
  14              		.text
  15              	.Ltext0:
  16              		.cfi_sections	.debug_frame
  17              		.section	.text.tmr,"ax",%progbits
  18              		.align	2
  19              		.p2align 4,,15
  20              		.code	16
  21              		.thumb_func
  22              		.type	tmr, %function
  23              	tmr:
  24              	.LFB54:
  25              		.file 1 "../../ChibiOS_2.6.1/test/test.c"
  26              		.loc 1 261 0
  27              		.cfi_startproc
  28              	.LVL0:
  29              		.loc 1 264 0
  30 0000 014B     		ldr	r3, .L2
  31 0002 0122     		mov	r2, #1
  32 0004 1A70     		strb	r2, [r3]
  33              		.loc 1 265 0
  34              		@ sp needed for prologue
  35 0006 7047     		bx	lr
  36              	.L3:
  37              		.align	2
  38              	.L2:
  39 0008 00000000 		.word	.LANCHOR0
  40              		.cfi_endproc
  41              	.LFE54:
  42              		.size	tmr, .-tmr
  43 000c C046C046 		.section	.text.print_line,"ax",%progbits
  44              		.align	2
  45              		.p2align 4,,15
  46              		.code	16
  47              		.thumb_func
  48              		.type	print_line, %function
  49              	print_line:
  50              	.LFB57:
  51              		.loc 1 300 0
  52              		.cfi_startproc
  53              	.LVL1:
  54 0000 38B5     		push	{r3, r4, r5, lr}
  55              	.LCFI0:
  56              		.cfi_def_cfa_offset 16
  57              		.cfi_offset 3, -16
ARM GAS  C:\Users\3130\AppData\Local\Temp\ccIJUwNH.s 			page 2


  58              		.cfi_offset 4, -12
  59              		.cfi_offset 5, -8
  60              		.cfi_offset 14, -4
  61 0002 0B4D     		ldr	r5, .L9
  62              		.loc 1 300 0
  63 0004 4C24     		mov	r4, #76
  64              	.LVL2:
  65              	.L5:
  66              		.loc 1 304 0 discriminator 2
  67 0006 2868     		ldr	r0, [r5]
  68 0008 2D21     		mov	r1, #45
  69 000a 0368     		ldr	r3, [r0]
  70 000c 023C     		sub	r4, r4, #2
  71 000e 9A68     		ldr	r2, [r3, #8]
  72 0010 9047     		blx	r2
  73              	.LVL3:
  74 0012 2868     		ldr	r0, [r5]
  75 0014 0168     		ldr	r1, [r0]
  76 0016 8B68     		ldr	r3, [r1, #8]
  77 0018 2D21     		mov	r1, #45
  78 001a 9847     		blx	r3
  79              	.LVL4:
  80              		.loc 1 303 0 discriminator 2
  81 001c 002C     		cmp	r4, #0
  82 001e F2D1     		bne	.L5
  83              		.loc 1 305 0
  84 0020 2868     		ldr	r0, [r5]
  85 0022 0449     		ldr	r1, .L9+4
  86 0024 0468     		ldr	r4, [r0]
  87 0026 0222     		mov	r2, #2
  88 0028 2568     		ldr	r5, [r4]
  89 002a A847     		blx	r5
  90              	.LVL5:
  91              		.loc 1 306 0
  92              		@ sp needed for prologue
  93 002c 38BD     		pop	{r3, r4, r5, pc}
  94              	.L10:
  95 002e C046     		.align	2
  96              	.L9:
  97 0030 00000000 		.word	.LANCHOR1
  98 0034 00000000 		.word	.LC2
  99              		.cfi_endproc
 100              	.LFE57:
 101              		.size	print_line, .-print_line
 102              		.global	__aeabi_uidivmod
 103              		.global	__aeabi_uidiv
 104 0038 C046C046 		.section	.text.test_printn,"ax",%progbits
 104      C046C046 
 105              		.align	2
 106              		.p2align 4,,15
 107              		.global	test_printn
 108              		.code	16
 109              		.thumb_func
 110              		.type	test_printn, %function
 111              	test_printn:
 112              	.LFB40:
 113              		.loc 1 91 0
ARM GAS  C:\Users\3130\AppData\Local\Temp\ccIJUwNH.s 			page 3


 114              		.cfi_startproc
 115              	.LVL6:
 116 0000 F0B5     		push	{r4, r5, r6, r7, lr}
 117              	.LCFI1:
 118              		.cfi_def_cfa_offset 20
 119              		.cfi_offset 4, -20
 120              		.cfi_offset 5, -16
 121              		.cfi_offset 6, -12
 122              		.cfi_offset 7, -8
 123              		.cfi_offset 14, -4
 124 0002 4746     		mov	r7, r8
 125 0004 80B4     		push	{r7}
 126              	.LCFI2:
 127              		.cfi_def_cfa_offset 24
 128              		.cfi_offset 8, -24
 129 0006 041C     		mov	r4, r0
 130 0008 84B0     		sub	sp, sp, #16
 131              	.LCFI3:
 132              		.cfi_def_cfa_offset 40
 133              		.loc 1 94 0
 134 000a 0028     		cmp	r0, #0
 135 000c 3BD0     		beq	.L25
 136              		.loc 1 97 0
 137 000e 6F46     		mov	r7, sp
 138 0010 6D46     		mov	r5, sp
 139              	.L12:
 140              		.loc 1 99 0
 141 0012 201C     		mov	r0, r4
 142              	.LVL7:
 143 0014 0A21     		mov	r1, #10
 144 0016 FFF7FEFF 		bl	__aeabi_uidivmod
 145              	.LVL8:
 146 001a 0E1C     		mov	r6, r1
 147 001c 3036     		add	r6, r6, #48
 148 001e F6B2     		uxtb	r6, r6
 149 0020 2E70     		strb	r6, [r5]
 150 0022 201C     		mov	r0, r4
 151 0024 0A21     		mov	r1, #10
 152 0026 FFF7FEFF 		bl	__aeabi_uidiv
 153              	.LVL9:
 154 002a 0135     		add	r5, r5, #1
 155              	.LVL10:
 156 002c 041E     		sub	r4, r0, #0
 157              	.LVL11:
 158              		.loc 1 98 0
 159 002e F0D1     		bne	.L12
 160              		.loc 1 100 0 discriminator 1
 161 0030 BD42     		cmp	r5, r7
 162 0032 24D9     		bls	.L11
 163 0034 0123     		mov	r3, #1
 164 0036 5842     		neg	r0, r3
 165              	.LVL12:
 166 0038 6844     		add	r0, r0, sp
 167              		.loc 1 91 0
 168 003a AC1E     		sub	r4, r5, #2
 169              	.LVL13:
 170 003c 154F     		ldr	r7, .L27
ARM GAS  C:\Users\3130\AppData\Local\Temp\ccIJUwNH.s 			page 4


 171 003e 8046     		mov	r8, r0
 172 0040 E307     		lsl	r3, r4, #31
 173 0042 15D4     		bmi	.L16
 174              		.loc 1 101 0
 175 0044 3868     		ldr	r0, [r7]
 176              	.LVL14:
 177 0046 0168     		ldr	r1, [r0]
 178 0048 8A68     		ldr	r2, [r1, #8]
 179 004a 311C     		mov	r1, r6
 180 004c 9047     		blx	r2
 181              	.LVL15:
 182 004e 3868     		ldr	r0, [r7]
 183 0050 2678     		ldrb	r6, [r4]
 184 0052 EC1E     		sub	r4, r5, #3
 185 0054 0568     		ldr	r5, [r0]
 186 0056 311C     		mov	r1, r6
 187 0058 AB68     		ldr	r3, [r5, #8]
 188 005a 9847     		blx	r3
 189              	.LVL16:
 190              		.loc 1 100 0
 191 005c 4445     		cmp	r4, r8
 192 005e 0ED0     		beq	.L11
 193              	.L26:
 194              		.loc 1 101 0
 195 0060 3868     		ldr	r0, [r7]
 196 0062 2178     		ldrb	r1, [r4]
 197 0064 0268     		ldr	r2, [r0]
 198 0066 661E     		sub	r6, r4, #1
 199 0068 9568     		ldr	r5, [r2, #8]
 200 006a A847     		blx	r5
 201              	.LVL17:
 202 006c 3678     		ldrb	r6, [r6]
 203 006e 023C     		sub	r4, r4, #2
 204              	.L16:
 205 0070 3868     		ldr	r0, [r7]
 206 0072 311C     		mov	r1, r6
 207 0074 0568     		ldr	r5, [r0]
 208 0076 AB68     		ldr	r3, [r5, #8]
 209 0078 9847     		blx	r3
 210              	.LVL18:
 211              		.loc 1 100 0
 212 007a 4445     		cmp	r4, r8
 213 007c F0D1     		bne	.L26
 214              	.L11:
 215              		.loc 1 103 0
 216 007e 04B0     		add	sp, sp, #16
 217              		@ sp needed for prologue
 218 0080 04BC     		pop	{r2}
 219 0082 9046     		mov	r8, r2
 220 0084 F0BD     		pop	{r4, r5, r6, r7, pc}
 221              	.LVL19:
 222              	.L25:
 223              	.LBB50:
 224              	.LBB51:
 225              		.loc 1 95 0
 226 0086 034F     		ldr	r7, .L27
 227 0088 3868     		ldr	r0, [r7]
ARM GAS  C:\Users\3130\AppData\Local\Temp\ccIJUwNH.s 			page 5


 228              	.LVL20:
 229 008a 0168     		ldr	r1, [r0]
 230 008c 8C68     		ldr	r4, [r1, #8]
 231              	.LVL21:
 232 008e 3021     		mov	r1, #48
 233 0090 A047     		blx	r4
 234              	.LVL22:
 235 0092 F4E7     		b	.L11
 236              	.L28:
 237              		.align	2
 238              	.L27:
 239 0094 00000000 		.word	.LANCHOR1
 240              	.LBE51:
 241              	.LBE50:
 242              		.cfi_endproc
 243              	.LFE40:
 244              		.size	test_printn, .-test_printn
 245 0098 C046C046 		.section	.text.test_print,"ax",%progbits
 245      C046C046 
 246              		.align	2
 247              		.p2align 4,,15
 248              		.global	test_print
 249              		.code	16
 250              		.thumb_func
 251              		.type	test_print, %function
 252              	test_print:
 253              	.LFB41:
 254              		.loc 1 110 0
 255              		.cfi_startproc
 256              	.LVL23:
 257 0000 38B5     		push	{r3, r4, r5, lr}
 258              	.LCFI4:
 259              		.cfi_def_cfa_offset 16
 260              		.cfi_offset 3, -16
 261              		.cfi_offset 4, -12
 262              		.cfi_offset 5, -8
 263              		.cfi_offset 14, -4
 264              		.loc 1 112 0
 265 0002 0178     		ldrb	r1, [r0]
 266              		.loc 1 110 0
 267 0004 041C     		mov	r4, r0
 268              		.loc 1 112 0
 269 0006 0029     		cmp	r1, #0
 270 0008 08D0     		beq	.L29
 271 000a 054D     		ldr	r5, .L35
 272              	.LVL24:
 273              	.L31:
 274              		.loc 1 113 0
 275 000c 2868     		ldr	r0, [r5]
 276 000e 0134     		add	r4, r4, #1
 277              	.LVL25:
 278 0010 0368     		ldr	r3, [r0]
 279 0012 9A68     		ldr	r2, [r3, #8]
 280 0014 9047     		blx	r2
 281              	.LVL26:
 282              		.loc 1 112 0
 283 0016 2178     		ldrb	r1, [r4]
ARM GAS  C:\Users\3130\AppData\Local\Temp\ccIJUwNH.s 			page 6


 284 0018 0029     		cmp	r1, #0
 285 001a F7D1     		bne	.L31
 286              	.L29:
 287              		.loc 1 114 0
 288              		@ sp needed for prologue
 289              	.LVL27:
 290 001c 38BD     		pop	{r3, r4, r5, pc}
 291              	.L36:
 292 001e C046     		.align	2
 293              	.L35:
 294 0020 00000000 		.word	.LANCHOR1
 295              		.cfi_endproc
 296              	.LFE41:
 297              		.size	test_print, .-test_print
 298 0024 C046C046 		.section	.text.test_println,"ax",%progbits
 298      C046C046 
 298      C046C046 
 299              		.align	2
 300              		.p2align 4,,15
 301              		.global	test_println
 302              		.code	16
 303              		.thumb_func
 304              		.type	test_println, %function
 305              	test_println:
 306              	.LFB42:
 307              		.loc 1 121 0
 308              		.cfi_startproc
 309              	.LVL28:
 310 0000 38B5     		push	{r3, r4, r5, lr}
 311              	.LCFI5:
 312              		.cfi_def_cfa_offset 16
 313              		.cfi_offset 3, -16
 314              		.cfi_offset 4, -12
 315              		.cfi_offset 5, -8
 316              		.cfi_offset 14, -4
 317              	.LBB52:
 318              	.LBB53:
 319              		.loc 1 112 0
 320 0002 0178     		ldrb	r1, [r0]
 321              	.LBE53:
 322              	.LBE52:
 323              		.loc 1 121 0
 324 0004 041C     		mov	r4, r0
 325 0006 094D     		ldr	r5, .L44
 326              	.LBB55:
 327              	.LBB54:
 328              		.loc 1 112 0
 329 0008 0029     		cmp	r1, #0
 330 000a 07D0     		beq	.L40
 331              	.LVL29:
 332              	.L39:
 333              		.loc 1 113 0
 334 000c 2868     		ldr	r0, [r5]
 335 000e 0134     		add	r4, r4, #1
 336              	.LVL30:
 337 0010 0368     		ldr	r3, [r0]
 338 0012 9A68     		ldr	r2, [r3, #8]
ARM GAS  C:\Users\3130\AppData\Local\Temp\ccIJUwNH.s 			page 7


 339 0014 9047     		blx	r2
 340              	.LVL31:
 341              		.loc 1 112 0
 342 0016 2178     		ldrb	r1, [r4]
 343 0018 0029     		cmp	r1, #0
 344 001a F7D1     		bne	.L39
 345              	.L40:
 346              	.LBE54:
 347              	.LBE55:
 348              		.loc 1 124 0
 349 001c 2868     		ldr	r0, [r5]
 350 001e 0222     		mov	r2, #2
 351 0020 0168     		ldr	r1, [r0]
 352              		.loc 1 125 0
 353              		@ sp needed for prologue
 354              		.loc 1 124 0
 355 0022 0C68     		ldr	r4, [r1]
 356              	.LVL32:
 357 0024 0249     		ldr	r1, .L44+4
 358 0026 A047     		blx	r4
 359              	.LVL33:
 360              		.loc 1 125 0
 361 0028 38BD     		pop	{r3, r4, r5, pc}
 362              	.L45:
 363 002a C046     		.align	2
 364              	.L44:
 365 002c 00000000 		.word	.LANCHOR1
 366 0030 00000000 		.word	.LC2
 367              		.cfi_endproc
 368              	.LFE42:
 369              		.size	test_println, .-test_println
 370 0034 C046C046 		.section	.text.test_emit_token,"ax",%progbits
 370      C046C046 
 370      C046C046 
 371              		.align	2
 372              		.p2align 4,,15
 373              		.global	test_emit_token
 374              		.code	16
 375              		.thumb_func
 376              		.type	test_emit_token, %function
 377              	test_emit_token:
 378              	.LFB45:
 379              		.loc 1 147 0
 380              		.cfi_startproc
 381              	.LVL34:
 382              		.loc 1 149 0
 383              	@ 149 "../../ChibiOS_2.6.1/test/test.c" 1
 384 0000 72B6     		cpsid   i
 385              	@ 0 "" 2
 386              		.loc 1 150 0
 387              		.code	16
 388 0002 034A     		ldr	r2, .L47
 389 0004 1368     		ldr	r3, [r2]
 390 0006 1870     		strb	r0, [r3]
 391 0008 0133     		add	r3, r3, #1
 392 000a 1360     		str	r3, [r2]
 393              		.loc 1 151 0
ARM GAS  C:\Users\3130\AppData\Local\Temp\ccIJUwNH.s 			page 8


 394              	@ 151 "../../ChibiOS_2.6.1/test/test.c" 1
 395 000c 62B6     		cpsie   i
 396              	@ 0 "" 2
 397              		.loc 1 152 0
 398              		.code	16
 399              		@ sp needed for prologue
 400 000e 7047     		bx	lr
 401              	.L48:
 402              		.align	2
 403              	.L47:
 404 0010 00000000 		.word	.LANCHOR2
 405              		.cfi_endproc
 406              	.LFE45:
 407              		.size	test_emit_token, .-test_emit_token
 408 0014 C046C046 		.section	.text._test_fail,"ax",%progbits
 408      C046C046 
 408      C046C046 
 409              		.align	2
 410              		.p2align 4,,15
 411              		.global	_test_fail
 412              		.code	16
 413              		.thumb_func
 414              		.type	_test_fail, %function
 415              	_test_fail:
 416              	.LFB46:
 417              		.loc 1 157 0
 418              		.cfi_startproc
 419              	.LVL35:
 420              		.loc 1 159 0
 421 0000 044A     		ldr	r2, .L50
 422              		.loc 1 160 0
 423 0002 0549     		ldr	r1, .L50+4
 424              		.loc 1 159 0
 425 0004 0123     		mov	r3, #1
 426 0006 1370     		strb	r3, [r2]
 427              		.loc 1 160 0
 428 0008 0B70     		strb	r3, [r1]
 429              		.loc 1 161 0
 430 000a 044B     		ldr	r3, .L50+8
 431              		.loc 1 163 0
 432              		@ sp needed for prologue
 433              		.loc 1 161 0
 434 000c 1860     		str	r0, [r3]
 435              		.loc 1 163 0
 436 000e 0120     		mov	r0, #1
 437              	.LVL36:
 438 0010 7047     		bx	lr
 439              	.L51:
 440 0012 C046     		.align	2
 441              	.L50:
 442 0014 00000000 		.word	.LANCHOR3
 443 0018 00000000 		.word	.LANCHOR4
 444 001c 00000000 		.word	.LANCHOR5
 445              		.cfi_endproc
 446              	.LFE46:
 447              		.size	_test_fail, .-_test_fail
 448              		.section	.text._test_assert,"ax",%progbits
ARM GAS  C:\Users\3130\AppData\Local\Temp\ccIJUwNH.s 			page 9


 449              		.align	2
 450              		.p2align 4,,15
 451              		.global	_test_assert
 452              		.code	16
 453              		.thumb_func
 454              		.type	_test_assert, %function
 455              	_test_assert:
 456              	.LFB47:
 457              		.loc 1 165 0
 458              		.cfi_startproc
 459              	.LVL37:
 460              		.loc 1 169 0
 461 0000 0022     		mov	r2, #0
 462              		.loc 1 167 0
 463 0002 0029     		cmp	r1, #0
 464 0004 07D1     		bne	.L53
 465              	.LVL38:
 466              	.LBB56:
 467              	.LBB57:
 468              		.loc 1 159 0
 469 0006 054A     		ldr	r2, .L55
 470              		.loc 1 160 0
 471 0008 0549     		ldr	r1, .L55+4
 472              	.LVL39:
 473              		.loc 1 159 0
 474 000a 0123     		mov	r3, #1
 475 000c 1370     		strb	r3, [r2]
 476              		.loc 1 160 0
 477 000e 0B70     		strb	r3, [r1]
 478              		.loc 1 161 0
 479 0010 044B     		ldr	r3, .L55+8
 480              	.LBE57:
 481              	.LBE56:
 482              		.loc 1 168 0
 483 0012 0122     		mov	r2, #1
 484              	.LBB59:
 485              	.LBB58:
 486              		.loc 1 161 0
 487 0014 1860     		str	r0, [r3]
 488              	.LVL40:
 489              	.L53:
 490              	.LBE58:
 491              	.LBE59:
 492              		.loc 1 170 0
 493 0016 101C     		mov	r0, r2
 494              	.LVL41:
 495              		@ sp needed for prologue
 496 0018 7047     		bx	lr
 497              	.L56:
 498 001a C046     		.align	2
 499              	.L55:
 500 001c 00000000 		.word	.LANCHOR3
 501 0020 00000000 		.word	.LANCHOR4
 502 0024 00000000 		.word	.LANCHOR5
 503              		.cfi_endproc
 504              	.LFE47:
 505              		.size	_test_assert, .-_test_assert
ARM GAS  C:\Users\3130\AppData\Local\Temp\ccIJUwNH.s 			page 10


 506 0028 C046C046 		.section	.text._test_assert_sequence,"ax",%progbits
 506      C046C046 
 507              		.align	2
 508              		.p2align 4,,15
 509              		.global	_test_assert_sequence
 510              		.code	16
 511              		.thumb_func
 512              		.type	_test_assert_sequence, %function
 513              	_test_assert_sequence:
 514              	.LFB48:
 515              		.loc 1 172 0
 516              		.cfi_startproc
 517              	.LVL42:
 518 0000 F0B5     		push	{r4, r5, r6, r7, lr}
 519              	.LCFI6:
 520              		.cfi_def_cfa_offset 20
 521              		.cfi_offset 4, -20
 522              		.cfi_offset 5, -16
 523              		.cfi_offset 6, -12
 524              		.cfi_offset 7, -8
 525              		.cfi_offset 14, -4
 526 0002 1F4A     		ldr	r2, .L73
 527 0004 4746     		mov	r7, r8
 528 0006 80B4     		push	{r7}
 529              	.LCFI7:
 530              		.cfi_def_cfa_offset 24
 531              		.cfi_offset 8, -24
 532              		.loc 1 172 0
 533 0008 8046     		mov	r8, r0
 534 000a 1768     		ldr	r7, [r2]
 535              		.loc 1 173 0
 536 000c 1D48     		ldr	r0, .L73+4
 537              	.LVL43:
 538 000e 9446     		mov	ip, r2
 539 0010 3C1A     		sub	r4, r7, r0
 540 0012 031C     		mov	r3, r0
 541 0014 E407     		lsl	r4, r4, #31
 542 0016 14D5     		bpl	.L58
 543              	.LVL44:
 544              		.loc 1 174 0
 545 0018 B842     		cmp	r0, r7
 546 001a 14D2     		bcs	.L70
 547              		.loc 1 175 0
 548 001c 0E78     		ldrb	r6, [r1]
 549 001e 0578     		ldrb	r5, [r0]
 550 0020 431C     		add	r3, r0, #1
 551              	.LVL45:
 552 0022 0131     		add	r1, r1, #1
 553              	.LVL46:
 554 0024 B542     		cmp	r5, r6
 555 0026 0CD0     		beq	.L58
 556 0028 16E0     		b	.L71
 557              	.L60:
 558 002a 1C78     		ldrb	r4, [r3]
 559 002c 0A78     		ldrb	r2, [r1]
 560 002e 5E1C     		add	r6, r3, #1
 561 0030 4D1C     		add	r5, r1, #1
ARM GAS  C:\Users\3130\AppData\Local\Temp\ccIJUwNH.s 			page 11


 562 0032 9442     		cmp	r4, r2
 563 0034 10D1     		bne	.L71
 564 0036 5C78     		ldrb	r4, [r3, #1]
 565 0038 4A78     		ldrb	r2, [r1, #1]
 566 003a 731C     		add	r3, r6, #1
 567              	.LVL47:
 568 003c 691C     		add	r1, r5, #1
 569              	.LVL48:
 570 003e 9442     		cmp	r4, r2
 571 0040 0AD1     		bne	.L71
 572              	.LVL49:
 573              	.L58:
 574              		.loc 1 174 0 discriminator 1
 575 0042 BB42     		cmp	r3, r7
 576 0044 F1D3     		bcc	.L60
 577              	.L70:
 578              		.loc 1 178 0
 579 0046 0978     		ldrb	r1, [r1]
 580              	.LVL50:
 581 0048 0029     		cmp	r1, #0
 582 004a 0FD1     		bne	.L72
 583              	.LBB60:
 584              	.LBB61:
 585              		.loc 1 132 0
 586 004c 6246     		mov	r2, ip
 587 004e 1060     		str	r0, [r2]
 588              	.LBE61:
 589              	.LBE60:
 590              		.loc 1 181 0
 591 0050 0020     		mov	r0, #0
 592              	.LVL51:
 593              	.L59:
 594              		.loc 1 182 0
 595              		@ sp needed for prologue
 596              	.LVL52:
 597 0052 04BC     		pop	{r2}
 598 0054 9046     		mov	r8, r2
 599 0056 F0BD     		pop	{r4, r5, r6, r7, pc}
 600              	.LVL53:
 601              	.L71:
 602              	.LBB62:
 603              	.LBB63:
 604              		.loc 1 160 0
 605 0058 0B48     		ldr	r0, .L73+8
 606              		.loc 1 159 0
 607 005a 0C4F     		ldr	r7, .L73+12
 608              		.loc 1 161 0
 609 005c 0C4E     		ldr	r6, .L73+16
 610              		.loc 1 159 0
 611 005e 0121     		mov	r1, #1
 612              		.loc 1 161 0
 613 0060 4546     		mov	r5, r8
 614              		.loc 1 160 0
 615 0062 0170     		strb	r1, [r0]
 616              		.loc 1 159 0
 617 0064 3970     		strb	r1, [r7]
 618              		.loc 1 161 0
ARM GAS  C:\Users\3130\AppData\Local\Temp\ccIJUwNH.s 			page 12


 619 0066 3560     		str	r5, [r6]
 620              	.LBE63:
 621              	.LBE62:
 622              		.loc 1 176 0
 623 0068 0120     		mov	r0, #1
 624 006a F2E7     		b	.L59
 625              	.LVL54:
 626              	.L72:
 627              	.LBB64:
 628              	.LBB65:
 629              		.loc 1 160 0
 630 006c 0648     		ldr	r0, .L73+8
 631              		.loc 1 159 0
 632 006e 074F     		ldr	r7, .L73+12
 633              		.loc 1 161 0
 634 0070 074D     		ldr	r5, .L73+16
 635              		.loc 1 159 0
 636 0072 0123     		mov	r3, #1
 637              	.LVL55:
 638              		.loc 1 161 0
 639 0074 4446     		mov	r4, r8
 640              		.loc 1 160 0
 641 0076 0370     		strb	r3, [r0]
 642              		.loc 1 159 0
 643 0078 3B70     		strb	r3, [r7]
 644              		.loc 1 161 0
 645 007a 2C60     		str	r4, [r5]
 646              	.LBE65:
 647              	.LBE64:
 648              		.loc 1 179 0
 649 007c 0120     		mov	r0, #1
 650 007e E8E7     		b	.L59
 651              	.L74:
 652              		.align	2
 653              	.L73:
 654 0080 00000000 		.word	.LANCHOR2
 655 0084 00000000 		.word	.LANCHOR6
 656 0088 00000000 		.word	.LANCHOR4
 657 008c 00000000 		.word	.LANCHOR3
 658 0090 00000000 		.word	.LANCHOR5
 659              		.cfi_endproc
 660              	.LFE48:
 661              		.size	_test_assert_sequence, .-_test_assert_sequence
 662 0094 C046C046 		.section	.text._test_assert_time_window,"ax",%progbits
 662      C046C046 
 662      C046C046 
 663              		.align	2
 664              		.p2align 4,,15
 665              		.global	_test_assert_time_window
 666              		.code	16
 667              		.thumb_func
 668              		.type	_test_assert_time_window, %function
 669              	_test_assert_time_window:
 670              	.LFB49:
 671              		.loc 1 184 0
 672              		.cfi_startproc
 673              	.LVL56:
ARM GAS  C:\Users\3130\AppData\Local\Temp\ccIJUwNH.s 			page 13


 674 0000 10B5     		push	{r4, lr}
 675              	.LCFI8:
 676              		.cfi_def_cfa_offset 8
 677              		.cfi_offset 4, -8
 678              		.cfi_offset 14, -4
 679              		.loc 1 184 0
 680 0002 041C     		mov	r4, r0
 681              		.loc 1 186 0
 682 0004 081C     		mov	r0, r1
 683              	.LVL57:
 684 0006 111C     		mov	r1, r2
 685              	.LVL58:
 686 0008 FFF7FEFF 		bl	chTimeIsWithin
 687              	.LVL59:
 688 000c 021C     		mov	r2, r0
 689              	.LVL60:
 690              	.LBB66:
 691              	.LBB67:
 692              		.loc 1 169 0
 693 000e 0020     		mov	r0, #0
 694              	.LVL61:
 695              		.loc 1 167 0
 696 0010 002A     		cmp	r2, #0
 697 0012 07D1     		bne	.L76
 698              	.LVL62:
 699              	.LBB68:
 700              	.LBB69:
 701              		.loc 1 159 0
 702 0014 0448     		ldr	r0, .L78
 703              		.loc 1 160 0
 704 0016 0549     		ldr	r1, .L78+4
 705              		.loc 1 161 0
 706 0018 054A     		ldr	r2, .L78+8
 707              	.LVL63:
 708              		.loc 1 159 0
 709 001a 0123     		mov	r3, #1
 710 001c 0370     		strb	r3, [r0]
 711              		.loc 1 160 0
 712 001e 0B70     		strb	r3, [r1]
 713              		.loc 1 161 0
 714 0020 1460     		str	r4, [r2]
 715              		.loc 1 168 0
 716 0022 0120     		mov	r0, #1
 717              	.LVL64:
 718              	.L76:
 719              	.LBE69:
 720              	.LBE68:
 721              	.LBE67:
 722              	.LBE66:
 723              		.loc 1 187 0
 724              		@ sp needed for prologue
 725              	.LVL65:
 726 0024 10BD     		pop	{r4, pc}
 727              	.L79:
 728 0026 C046     		.align	2
 729              	.L78:
 730 0028 00000000 		.word	.LANCHOR3
ARM GAS  C:\Users\3130\AppData\Local\Temp\ccIJUwNH.s 			page 14


 731 002c 00000000 		.word	.LANCHOR4
 732 0030 00000000 		.word	.LANCHOR5
 733              		.cfi_endproc
 734              	.LFE49:
 735              		.size	_test_assert_time_window, .-_test_assert_time_window
 736 0034 C046C046 		.section	.text.test_terminate_threads,"ax",%progbits
 736      C046C046 
 736      C046C046 
 737              		.align	2
 738              		.p2align 4,,15
 739              		.global	test_terminate_threads
 740              		.code	16
 741              		.thumb_func
 742              		.type	test_terminate_threads, %function
 743              	test_terminate_threads:
 744              	.LFB50:
 745              		.loc 1 196 0
 746              		.cfi_startproc
 747              	.LVL66:
 748 0000 10B5     		push	{r4, lr}
 749              	.LCFI9:
 750              		.cfi_def_cfa_offset 8
 751              		.cfi_offset 4, -8
 752              		.cfi_offset 14, -4
 753              		.loc 1 200 0
 754 0002 0D4C     		ldr	r4, .L101
 755 0004 2068     		ldr	r0, [r4]
 756 0006 0028     		cmp	r0, #0
 757 0008 01D0     		beq	.L81
 758              		.loc 1 201 0
 759 000a FFF7FEFF 		bl	chThdTerminate
 760              	.LVL67:
 761              	.L81:
 762              		.loc 1 200 0
 763 000e 6068     		ldr	r0, [r4, #4]
 764 0010 0028     		cmp	r0, #0
 765 0012 01D0     		beq	.L82
 766              		.loc 1 201 0
 767 0014 FFF7FEFF 		bl	chThdTerminate
 768              	.LVL68:
 769              	.L82:
 770              		.loc 1 200 0
 771 0018 A068     		ldr	r0, [r4, #8]
 772 001a 0028     		cmp	r0, #0
 773 001c 01D0     		beq	.L83
 774              		.loc 1 201 0
 775 001e FFF7FEFF 		bl	chThdTerminate
 776              	.LVL69:
 777              	.L83:
 778              		.loc 1 200 0
 779 0022 E068     		ldr	r0, [r4, #12]
 780 0024 0028     		cmp	r0, #0
 781 0026 01D0     		beq	.L84
 782              		.loc 1 201 0
 783 0028 FFF7FEFF 		bl	chThdTerminate
 784              	.LVL70:
 785              	.L84:
ARM GAS  C:\Users\3130\AppData\Local\Temp\ccIJUwNH.s 			page 15


 786              		.loc 1 200 0
 787 002c 2069     		ldr	r0, [r4, #16]
 788 002e 0028     		cmp	r0, #0
 789 0030 01D0     		beq	.L80
 790              		.loc 1 201 0
 791 0032 FFF7FEFF 		bl	chThdTerminate
 792              	.LVL71:
 793              	.L80:
 794              		.loc 1 202 0
 795              		@ sp needed for prologue
 796 0036 10BD     		pop	{r4, pc}
 797              	.L102:
 798              		.align	2
 799              	.L101:
 800 0038 00000000 		.word	.LANCHOR7
 801              		.cfi_endproc
 802              	.LFE50:
 803              		.size	test_terminate_threads, .-test_terminate_threads
 804 003c C046C046 		.section	.text.test_wait_threads,"ax",%progbits
 805              		.align	2
 806              		.p2align 4,,15
 807              		.global	test_wait_threads
 808              		.code	16
 809              		.thumb_func
 810              		.type	test_wait_threads, %function
 811              	test_wait_threads:
 812              	.LFB51:
 813              		.loc 1 207 0
 814              		.cfi_startproc
 815              	.LVL72:
 816 0000 10B5     		push	{r4, lr}
 817              	.LCFI10:
 818              		.cfi_def_cfa_offset 8
 819              		.cfi_offset 4, -8
 820              		.cfi_offset 14, -4
 821              		.loc 1 211 0
 822 0002 124C     		ldr	r4, .L124
 823 0004 2068     		ldr	r0, [r4]
 824 0006 0028     		cmp	r0, #0
 825 0008 03D0     		beq	.L104
 826              		.loc 1 212 0
 827 000a FFF7FEFF 		bl	chThdWait
 828              	.LVL73:
 829              		.loc 1 213 0
 830 000e 0023     		mov	r3, #0
 831 0010 2360     		str	r3, [r4]
 832              	.L104:
 833              	.LVL74:
 834              		.loc 1 211 0
 835 0012 6068     		ldr	r0, [r4, #4]
 836 0014 0028     		cmp	r0, #0
 837 0016 03D0     		beq	.L105
 838              		.loc 1 212 0
 839 0018 FFF7FEFF 		bl	chThdWait
 840              	.LVL75:
 841              		.loc 1 213 0
 842 001c 0020     		mov	r0, #0
ARM GAS  C:\Users\3130\AppData\Local\Temp\ccIJUwNH.s 			page 16


 843 001e 6060     		str	r0, [r4, #4]
 844              	.L105:
 845              	.LVL76:
 846              		.loc 1 211 0
 847 0020 A068     		ldr	r0, [r4, #8]
 848 0022 0028     		cmp	r0, #0
 849 0024 03D0     		beq	.L106
 850              		.loc 1 212 0
 851 0026 FFF7FEFF 		bl	chThdWait
 852              	.LVL77:
 853              		.loc 1 213 0
 854 002a 0021     		mov	r1, #0
 855 002c A160     		str	r1, [r4, #8]
 856              	.L106:
 857              	.LVL78:
 858              		.loc 1 211 0
 859 002e E068     		ldr	r0, [r4, #12]
 860 0030 0028     		cmp	r0, #0
 861 0032 03D0     		beq	.L107
 862              		.loc 1 212 0
 863 0034 FFF7FEFF 		bl	chThdWait
 864              	.LVL79:
 865              		.loc 1 213 0
 866 0038 0022     		mov	r2, #0
 867 003a E260     		str	r2, [r4, #12]
 868              	.L107:
 869              	.LVL80:
 870              		.loc 1 211 0
 871 003c 2069     		ldr	r0, [r4, #16]
 872 003e 0028     		cmp	r0, #0
 873 0040 03D0     		beq	.L103
 874              		.loc 1 212 0
 875 0042 FFF7FEFF 		bl	chThdWait
 876              	.LVL81:
 877              		.loc 1 213 0
 878 0046 0023     		mov	r3, #0
 879 0048 2361     		str	r3, [r4, #16]
 880              	.LVL82:
 881              	.L103:
 882              		.loc 1 215 0
 883              		@ sp needed for prologue
 884 004a 10BD     		pop	{r4, pc}
 885              	.L125:
 886              		.align	2
 887              	.L124:
 888 004c 00000000 		.word	.LANCHOR7
 889              		.cfi_endproc
 890              	.LFE51:
 891              		.size	test_wait_threads, .-test_wait_threads
 892              		.section	.text.test_cpu_pulse,"ax",%progbits
 893              		.align	2
 894              		.p2align 4,,15
 895              		.global	test_cpu_pulse
 896              		.code	16
 897              		.thumb_func
 898              		.type	test_cpu_pulse, %function
 899              	test_cpu_pulse:
ARM GAS  C:\Users\3130\AppData\Local\Temp\ccIJUwNH.s 			page 17


 900              	.LFB52:
 901              		.loc 1 224 0
 902              		.cfi_startproc
 903              	.LVL83:
 904              		.loc 1 228 0
 905 0000 FA21     		mov	r1, #250
 906 0002 8900     		lsl	r1, r1, #2
 907 0004 4843     		mul	r0, r1
 908              	.LVL84:
 909              		.loc 1 227 0
 910 0006 0B4B     		ldr	r3, .L138
 911              		.loc 1 224 0
 912 0008 70B5     		push	{r4, r5, r6, lr}
 913              	.LCFI11:
 914              		.cfi_def_cfa_offset 16
 915              		.cfi_offset 4, -16
 916              		.cfi_offset 5, -12
 917              		.cfi_offset 6, -8
 918              		.cfi_offset 14, -4
 919              		.loc 1 228 0
 920 000a 0138     		sub	r0, r0, #1
 921              		.loc 1 227 0
 922 000c 9D69     		ldr	r5, [r3, #24]
 923              		.loc 1 228 0
 924 000e FFF7FEFF 		bl	__aeabi_uidiv
 925              	.LVL85:
 926              		.loc 1 227 0
 927 0012 2C6A     		ldr	r4, [r5, #32]
 928              	.LVL86:
 929              		.loc 1 228 0
 930 0014 661C     		add	r6, r4, #1
 931 0016 3018     		add	r0, r6, r0
 932              	.LVL87:
 933              	.L136:
 934              		.loc 1 230 0
 935 0018 2A6A     		ldr	r2, [r5, #32]
 936              	.LVL88:
 937              		.loc 1 235 0
 938 001a 8442     		cmp	r4, r0
 939 001c 02D2     		bcs	.L127
 940              		.loc 1 235 0 is_stmt 0 discriminator 1
 941 001e 9442     		cmp	r4, r2
 942 0020 02D9     		bls	.L137
 943              	.L134:
 944              		.loc 1 237 0 is_stmt 1
 945              		@ sp needed for prologue
 946              	.LVL89:
 947 0022 70BD     		pop	{r4, r5, r6, pc}
 948              	.LVL90:
 949              	.L127:
 950              		.loc 1 236 0
 951 0024 9442     		cmp	r4, r2
 952 0026 F7D9     		bls	.L136
 953              	.L137:
 954              		.loc 1 236 0 is_stmt 0 discriminator 2
 955 0028 8242     		cmp	r2, r0
 956 002a 9B41     		sbc	r3, r3, r3
ARM GAS  C:\Users\3130\AppData\Local\Temp\ccIJUwNH.s 			page 18


 957 002c 5E42     		neg	r6, r3
 958 002e 002E     		cmp	r6, #0
 959 0030 F2D1     		bne	.L136
 960 0032 F6E7     		b	.L134
 961              	.L139:
 962              		.align	2
 963              	.L138:
 964 0034 00000000 		.word	rlist
 965              		.cfi_endproc
 966              	.LFE52:
 967              		.size	test_cpu_pulse, .-test_cpu_pulse
 968 0038 C046C046 		.section	.text.test_wait_tick,"ax",%progbits
 968      C046C046 
 969              		.align	2
 970              		.p2align 4,,15
 971              		.global	test_wait_tick
 972              		.code	16
 973              		.thumb_func
 974              		.type	test_wait_tick, %function
 975              	test_wait_tick:
 976              	.LFB53:
 977              		.loc 1 245 0 is_stmt 1
 978              		.cfi_startproc
 979 0000 08B5     		push	{r3, lr}
 980              	.LCFI12:
 981              		.cfi_def_cfa_offset 8
 982              		.cfi_offset 3, -8
 983              		.cfi_offset 14, -4
 984              		.loc 1 247 0
 985 0002 0120     		mov	r0, #1
 986 0004 FFF7FEFF 		bl	chThdSleep
 987              	.LVL91:
 988              		.loc 1 248 0
 989 0008 014B     		ldr	r3, .L141
 990              		.loc 1 249 0
 991              		@ sp needed for prologue
 992              		.loc 1 248 0
 993 000a D868     		ldr	r0, [r3, #12]
 994              		.loc 1 249 0
 995 000c 08BD     		pop	{r3, pc}
 996              	.L142:
 997 000e C046     		.align	2
 998              	.L141:
 999 0010 00000000 		.word	vtlist
 1000              		.cfi_endproc
 1001              	.LFE53:
 1002              		.size	test_wait_tick, .-test_wait_tick
 1003 0014 C046C046 		.section	.text.test_start_timer,"ax",%progbits
 1003      C046C046 
 1003      C046C046 
 1004              		.align	2
 1005              		.p2align 4,,15
 1006              		.global	test_start_timer
 1007              		.code	16
 1008              		.thumb_func
 1009              		.type	test_start_timer, %function
 1010              	test_start_timer:
ARM GAS  C:\Users\3130\AppData\Local\Temp\ccIJUwNH.s 			page 19


 1011              	.LFB55:
 1012              		.loc 1 272 0
 1013              		.cfi_startproc
 1014              	.LVL92:
 1015 0000 08B5     		push	{r3, lr}
 1016              	.LCFI13:
 1017              		.cfi_def_cfa_offset 8
 1018              		.cfi_offset 3, -8
 1019              		.cfi_offset 14, -4
 1020              		.loc 1 275 0
 1021 0002 094B     		ldr	r3, .L144
 1022 0004 0022     		mov	r2, #0
 1023 0006 1A70     		strb	r2, [r3]
 1024              		.loc 1 276 0
 1025              	@ 276 "../../ChibiOS_2.6.1/test/test.c" 1
 1026 0008 72B6     		cpsid   i
 1027              	@ 0 "" 2
 1028              		.loc 1 274 0
 1029              		.code	16
 1030 000a FA21     		mov	r1, #250
 1031 000c 8900     		lsl	r1, r1, #2
 1032 000e 4843     		mul	r0, r1
 1033              	.LVL93:
 1034 0010 0138     		sub	r0, r0, #1
 1035 0012 FFF7FEFF 		bl	__aeabi_uidiv
 1036              	.LVL94:
 1037              		.loc 1 276 0
 1038 0016 054A     		ldr	r2, .L144+4
 1039              		.loc 1 274 0
 1040 0018 411C     		add	r1, r0, #1
 1041              		.loc 1 276 0
 1042 001a 0023     		mov	r3, #0
 1043 001c 0448     		ldr	r0, .L144+8
 1044 001e FFF7FEFF 		bl	chVTSetI
 1045              	.LVL95:
 1046              	@ 276 "../../ChibiOS_2.6.1/test/test.c" 1
 1047 0022 62B6     		cpsie   i
 1048              	@ 0 "" 2
 1049              		.loc 1 277 0
 1050              		.code	16
 1051              		@ sp needed for prologue
 1052 0024 08BD     		pop	{r3, pc}
 1053              	.L145:
 1054 0026 C046     		.align	2
 1055              	.L144:
 1056 0028 00000000 		.word	.LANCHOR0
 1057 002c 00000000 		.word	tmr
 1058 0030 00000000 		.word	.LANCHOR8
 1059              		.cfi_endproc
 1060              	.LFE55:
 1061              		.size	test_start_timer, .-test_start_timer
 1062 0034 C046C046 		.section	.text.TestThread,"ax",%progbits
 1062      C046C046 
 1062      C046C046 
 1063              		.align	2
 1064              		.p2align 4,,15
 1065              		.global	TestThread
ARM GAS  C:\Users\3130\AppData\Local\Temp\ccIJUwNH.s 			page 20


 1066              		.code	16
 1067              		.thumb_func
 1068              		.type	TestThread, %function
 1069              	TestThread:
 1070              	.LFB58:
 1071              		.loc 1 314 0
 1072              		.cfi_startproc
 1073              	.LVL96:
 1074 0000 F0B5     		push	{r4, r5, r6, r7, lr}
 1075              	.LCFI14:
 1076              		.cfi_def_cfa_offset 20
 1077              		.cfi_offset 4, -20
 1078              		.cfi_offset 5, -16
 1079              		.cfi_offset 6, -12
 1080              		.cfi_offset 7, -8
 1081              		.cfi_offset 14, -4
 1082 0002 4D46     		mov	r5, r9
 1083 0004 4446     		mov	r4, r8
 1084 0006 5F46     		mov	r7, fp
 1085 0008 5646     		mov	r6, sl
 1086 000a F0B4     		push	{r4, r5, r6, r7}
 1087              	.LCFI15:
 1088              		.cfi_def_cfa_offset 36
 1089              		.cfi_offset 8, -36
 1090              		.cfi_offset 9, -32
 1091              		.cfi_offset 10, -28
 1092              		.cfi_offset 11, -24
 1093              		.loc 1 317 0
 1094 000c A44C     		ldr	r4, .L223
 1095              		.loc 1 314 0
 1096 000e 83B0     		sub	sp, sp, #12
 1097              	.LCFI16:
 1098              		.cfi_def_cfa_offset 48
 1099              		.loc 1 317 0
 1100 0010 2060     		str	r0, [r4]
 1101              		.loc 1 318 0
 1102 0012 A448     		ldr	r0, .L223+4
 1103              	.LVL97:
 1104 0014 FFF7FEFF 		bl	test_println
 1105              	.LVL98:
 1106              		.loc 1 319 0
 1107 0018 A348     		ldr	r0, .L223+8
 1108 001a FFF7FEFF 		bl	test_println
 1109              	.LVL99:
 1110              		.loc 1 320 0
 1111 001e A348     		ldr	r0, .L223+12
 1112 0020 FFF7FEFF 		bl	test_println
 1113              	.LVL100:
 1114 0024 A24D     		ldr	r5, .L223+16
 1115              		.loc 1 112 0
 1116 0026 2A21     		mov	r1, #42
 1117              	.LVL101:
 1118              	.L147:
 1119              	.LBB106:
 1120              	.LBB107:
 1121              		.loc 1 113 0
 1122 0028 2068     		ldr	r0, [r4]
ARM GAS  C:\Users\3130\AppData\Local\Temp\ccIJUwNH.s 			page 21


 1123 002a 0135     		add	r5, r5, #1
 1124 002c 0368     		ldr	r3, [r0]
 1125 002e 9A68     		ldr	r2, [r3, #8]
 1126 0030 9047     		blx	r2
 1127              	.LVL102:
 1128              		.loc 1 314 0
 1129 0032 681E     		sub	r0, r5, #1
 1130              		.loc 1 112 0
 1131 0034 0178     		ldrb	r1, [r0]
 1132 0036 0029     		cmp	r1, #0
 1133 0038 F6D1     		bne	.L147
 1134              	.LBE107:
 1135              	.LBE106:
 1136              		.loc 1 322 0
 1137 003a 9E48     		ldr	r0, .L223+20
 1138 003c FFF7FEFF 		bl	test_println
 1139              	.LVL103:
 1140 0040 9D4E     		ldr	r6, .L223+24
 1141              		.loc 1 112 0
 1142 0042 2A21     		mov	r1, #42
 1143              	.LVL104:
 1144              	.L149:
 1145              	.LBB108:
 1146              	.LBB109:
 1147              		.loc 1 113 0
 1148 0044 2068     		ldr	r0, [r4]
 1149 0046 0136     		add	r6, r6, #1
 1150 0048 0768     		ldr	r7, [r0]
 1151 004a BD68     		ldr	r5, [r7, #8]
 1152 004c A847     		blx	r5
 1153              	.LVL105:
 1154              		.loc 1 314 0
 1155 004e 711E     		sub	r1, r6, #1
 1156              		.loc 1 112 0
 1157 0050 0978     		ldrb	r1, [r1]
 1158 0052 0029     		cmp	r1, #0
 1159 0054 F6D1     		bne	.L149
 1160              	.LBE109:
 1161              	.LBE108:
 1162              		.loc 1 324 0
 1163 0056 9948     		ldr	r0, .L223+28
 1164 0058 FFF7FEFF 		bl	test_println
 1165              	.LVL106:
 1166 005c 984E     		ldr	r6, .L223+32
 1167              		.loc 1 112 0
 1168 005e 2A21     		mov	r1, #42
 1169              	.LVL107:
 1170              	.L151:
 1171              	.LBB110:
 1172              	.LBB111:
 1173              		.loc 1 113 0
 1174 0060 2068     		ldr	r0, [r4]
 1175 0062 0136     		add	r6, r6, #1
 1176 0064 0368     		ldr	r3, [r0]
 1177 0066 9A68     		ldr	r2, [r3, #8]
 1178 0068 9047     		blx	r2
 1179              	.LVL108:
ARM GAS  C:\Users\3130\AppData\Local\Temp\ccIJUwNH.s 			page 22


 1180              		.loc 1 314 0
 1181 006a 701E     		sub	r0, r6, #1
 1182              		.loc 1 112 0
 1183 006c 0178     		ldrb	r1, [r0]
 1184 006e 0029     		cmp	r1, #0
 1185 0070 F6D1     		bne	.L151
 1186              	.LBE111:
 1187              	.LBE110:
 1188              		.loc 1 327 0
 1189 0072 9448     		ldr	r0, .L223+36
 1190 0074 FFF7FEFF 		bl	test_println
 1191              	.LVL109:
 1192 0078 934F     		ldr	r7, .L223+40
 1193              		.loc 1 112 0
 1194 007a 2A21     		mov	r1, #42
 1195              	.LVL110:
 1196              	.L153:
 1197              	.LBB112:
 1198              	.LBB113:
 1199              		.loc 1 113 0
 1200 007c 2068     		ldr	r0, [r4]
 1201 007e 0137     		add	r7, r7, #1
 1202 0080 0568     		ldr	r5, [r0]
 1203 0082 AE68     		ldr	r6, [r5, #8]
 1204 0084 B047     		blx	r6
 1205              	.LVL111:
 1206              		.loc 1 314 0
 1207 0086 791E     		sub	r1, r7, #1
 1208              		.loc 1 112 0
 1209 0088 0978     		ldrb	r1, [r1]
 1210 008a 0029     		cmp	r1, #0
 1211 008c F6D1     		bne	.L153
 1212              	.LBE113:
 1213              	.LBE112:
 1214              		.loc 1 330 0
 1215 008e 8F48     		ldr	r0, .L223+44
 1216 0090 FFF7FEFF 		bl	test_println
 1217              	.LVL112:
 1218 0094 8E4F     		ldr	r7, .L223+48
 1219              		.loc 1 112 0
 1220 0096 2A21     		mov	r1, #42
 1221              	.LVL113:
 1222              	.L155:
 1223              	.LBB114:
 1224              	.LBB115:
 1225              		.loc 1 113 0
 1226 0098 2068     		ldr	r0, [r4]
 1227 009a 0137     		add	r7, r7, #1
 1228 009c 0368     		ldr	r3, [r0]
 1229 009e 9A68     		ldr	r2, [r3, #8]
 1230 00a0 9047     		blx	r2
 1231              	.LVL114:
 1232              		.loc 1 314 0
 1233 00a2 781E     		sub	r0, r7, #1
 1234              		.loc 1 112 0
 1235 00a4 0178     		ldrb	r1, [r0]
 1236 00a6 0029     		cmp	r1, #0
ARM GAS  C:\Users\3130\AppData\Local\Temp\ccIJUwNH.s 			page 23


 1237 00a8 F6D1     		bne	.L155
 1238              	.LBE115:
 1239              	.LBE114:
 1240              		.loc 1 333 0
 1241 00aa 8A48     		ldr	r0, .L223+52
 1242 00ac FFF7FEFF 		bl	test_println
 1243              	.LVL115:
 1244 00b0 894D     		ldr	r5, .L223+56
 1245              		.loc 1 112 0
 1246 00b2 2A21     		mov	r1, #42
 1247              	.LVL116:
 1248              	.L157:
 1249              	.LBB116:
 1250              	.LBB117:
 1251              		.loc 1 113 0
 1252 00b4 2068     		ldr	r0, [r4]
 1253 00b6 0135     		add	r5, r5, #1
 1254 00b8 0668     		ldr	r6, [r0]
 1255 00ba B768     		ldr	r7, [r6, #8]
 1256 00bc B847     		blx	r7
 1257              	.LVL117:
 1258              		.loc 1 314 0
 1259 00be 691E     		sub	r1, r5, #1
 1260              		.loc 1 112 0
 1261 00c0 0978     		ldrb	r1, [r1]
 1262 00c2 0029     		cmp	r1, #0
 1263 00c4 F6D1     		bne	.L157
 1264              	.LBE117:
 1265              	.LBE116:
 1266              		.loc 1 337 0
 1267 00c6 8548     		ldr	r0, .L223+60
 1268 00c8 FFF7FEFF 		bl	test_println
 1269              	.LVL118:
 1270 00cc 844D     		ldr	r5, .L223+64
 1271              		.loc 1 112 0
 1272 00ce 2A21     		mov	r1, #42
 1273              	.LVL119:
 1274              	.L159:
 1275              	.LBB118:
 1276              	.LBB119:
 1277              		.loc 1 113 0
 1278 00d0 2068     		ldr	r0, [r4]
 1279 00d2 0135     		add	r5, r5, #1
 1280 00d4 0368     		ldr	r3, [r0]
 1281 00d6 9A68     		ldr	r2, [r3, #8]
 1282 00d8 9047     		blx	r2
 1283              	.LVL120:
 1284              		.loc 1 314 0
 1285 00da 681E     		sub	r0, r5, #1
 1286              		.loc 1 112 0
 1287 00dc 0178     		ldrb	r1, [r0]
 1288 00de 0029     		cmp	r1, #0
 1289 00e0 F6D1     		bne	.L159
 1290              	.LBE119:
 1291              	.LBE118:
 1292              		.loc 1 341 0
 1293 00e2 8048     		ldr	r0, .L223+68
ARM GAS  C:\Users\3130\AppData\Local\Temp\ccIJUwNH.s 			page 24


 1294 00e4 FFF7FEFF 		bl	test_println
 1295              	.LVL121:
 1296              		.loc 1 112 0
 1297 00e8 2A27     		mov	r7, #42
 1298 00ea 7F4E     		ldr	r6, .L223+72
 1299 00ec 391C     		mov	r1, r7
 1300              	.LVL122:
 1301              	.L161:
 1302              	.LBB120:
 1303              	.LBB121:
 1304              		.loc 1 113 0
 1305 00ee 2068     		ldr	r0, [r4]
 1306 00f0 0136     		add	r6, r6, #1
 1307 00f2 0568     		ldr	r5, [r0]
 1308 00f4 AB68     		ldr	r3, [r5, #8]
 1309 00f6 9847     		blx	r3
 1310              	.LVL123:
 1311              		.loc 1 314 0
 1312 00f8 711E     		sub	r1, r6, #1
 1313              		.loc 1 112 0
 1314 00fa 0978     		ldrb	r1, [r1]
 1315 00fc 0029     		cmp	r1, #0
 1316 00fe F6D1     		bne	.L161
 1317              	.LBE121:
 1318              	.LBE120:
 1319              		.loc 1 345 0
 1320 0100 7A48     		ldr	r0, .L223+76
 1321 0102 0E1C     		mov	r6, r1
 1322 0104 FFF7FEFF 		bl	test_println
 1323              	.LVL124:
 1324              		.loc 1 347 0
 1325 0108 6648     		ldr	r0, .L223+4
 1326 010a FFF7FEFF 		bl	test_println
 1327              	.LVL125:
 1328 010e 7848     		ldr	r0, .L223+80
 1329              		.loc 1 349 0
 1330 0110 784A     		ldr	r2, .L223+84
 1331 0112 794F     		ldr	r7, .L223+88
 1332              	.LBB122:
 1333              	.LBB123:
 1334              	.LBB124:
 1335              	.LBB125:
 1336              		.loc 1 132 0
 1337 0114 794B     		ldr	r3, .L223+92
 1338 0116 0430     		add	r0, r0, #4
 1339              	.LBE125:
 1340              	.LBE124:
 1341              	.LBE123:
 1342              	.LBE122:
 1343              		.loc 1 350 0
 1344 0118 0025     		mov	r5, #0
 1345              		.loc 1 349 0
 1346 011a 1670     		strb	r6, [r2]
 1347              	.LVL126:
 1348 011c 0190     		str	r0, [sp, #4]
 1349              		.loc 1 350 0
 1350 011e 0095     		str	r5, [sp]
ARM GAS  C:\Users\3130\AppData\Local\Temp\ccIJUwNH.s 			page 25


 1351              	.LBB137:
 1352              	.LBB134:
 1353              	.LBB130:
 1354              	.LBB126:
 1355              		.loc 1 132 0
 1356 0120 9B46     		mov	fp, r3
 1357 0122 3E1C     		mov	r6, r7
 1358              	.LVL127:
 1359              	.L185:
 1360 0124 0099     		ldr	r1, [sp]
 1361 0126 7648     		ldr	r0, .L223+96
 1362 0128 0131     		add	r1, r1, #1
 1363              	.LBE126:
 1364              	.LBE130:
 1365              	.LBE134:
 1366              	.LBE137:
 1367              	.LBB138:
 1368              	.LBB139:
 1369              		.loc 1 138 0 discriminator 1
 1370 012a 0022     		mov	r2, #0
 1371 012c 0091     		str	r1, [sp]
 1372 012e 9046     		mov	r8, r2
 1373 0130 8246     		mov	sl, r0
 1374              	.L217:
 1375              	.LVL128:
 1376              	.LBE139:
 1377              	.LBE138:
 1378              		.loc 1 353 0 discriminator 1
 1379 0132 3768     		ldr	r7, [r6]
 1380 0134 002F     		cmp	r7, #0
 1381 0136 00D1     		bne	.LCB1236
 1382 0138 84E0     		b	.L221	@long jump
 1383              	.LCB1236:
 1384              	.L179:
 1385              		.loc 1 354 0
 1386 013a FFF7FEFF 		bl	print_line
 1387              	.LVL129:
 1388 013e 5746     		mov	r7, sl
 1389              		.loc 1 112 0
 1390 0140 2D21     		mov	r1, #45
 1391              	.LVL130:
 1392              	.L163:
 1393              	.LBB141:
 1394              	.LBB142:
 1395              		.loc 1 113 0
 1396 0142 2068     		ldr	r0, [r4]
 1397 0144 0137     		add	r7, r7, #1
 1398 0146 0368     		ldr	r3, [r0]
 1399 0148 9A68     		ldr	r2, [r3, #8]
 1400 014a 9047     		blx	r2
 1401              	.LVL131:
 1402              		.loc 1 314 0
 1403 014c 791E     		sub	r1, r7, #1
 1404              		.loc 1 112 0
 1405 014e 0978     		ldrb	r1, [r1]
 1406 0150 0029     		cmp	r1, #0
 1407 0152 F6D1     		bne	.L163
ARM GAS  C:\Users\3130\AppData\Local\Temp\ccIJUwNH.s 			page 26


 1408              	.LBE142:
 1409              	.LBE141:
 1410              		.loc 1 356 0
 1411 0154 0098     		ldr	r0, [sp]
 1412 0156 FFF7FEFF 		bl	test_printn
 1413              	.LVL132:
 1414              	.LBB143:
 1415              	.LBB144:
 1416              		.loc 1 113 0
 1417 015a 2068     		ldr	r0, [r4]
 1418              	.LVL133:
 1419 015c 2E21     		mov	r1, #46
 1420 015e 0568     		ldr	r5, [r0]
 1421 0160 AF68     		ldr	r7, [r5, #8]
 1422 0162 B847     		blx	r7
 1423              	.LVL134:
 1424              	.LBE144:
 1425              	.LBE143:
 1426              		.loc 1 358 0
 1427 0164 0120     		mov	r0, #1
 1428 0166 8044     		add	r8, r8, r0
 1429              	.LVL135:
 1430 0168 4046     		mov	r0, r8
 1431 016a FFF7FEFF 		bl	test_printn
 1432              	.LVL136:
 1433 016e 654D     		ldr	r5, .L223+100
 1434              		.loc 1 112 0
 1435 0170 2021     		mov	r1, #32
 1436              	.LVL137:
 1437              	.L165:
 1438              	.LBB145:
 1439              	.LBB146:
 1440              		.loc 1 113 0
 1441 0172 2068     		ldr	r0, [r4]
 1442 0174 0135     		add	r5, r5, #1
 1443 0176 0368     		ldr	r3, [r0]
 1444 0178 9A68     		ldr	r2, [r3, #8]
 1445 017a 9047     		blx	r2
 1446              	.LVL138:
 1447              		.loc 1 314 0
 1448 017c 691E     		sub	r1, r5, #1
 1449              		.loc 1 112 0
 1450 017e 0978     		ldrb	r1, [r1]
 1451 0180 0029     		cmp	r1, #0
 1452 0182 F6D1     		bne	.L165
 1453              	.LBE146:
 1454              	.LBE145:
 1455              		.loc 1 360 0
 1456 0184 3768     		ldr	r7, [r6]
 1457 0186 3D68     		ldr	r5, [r7]
 1458              	.LVL139:
 1459              	.LBB147:
 1460              	.LBB148:
 1461              		.loc 1 112 0
 1462 0188 2978     		ldrb	r1, [r5]
 1463 018a 0029     		cmp	r1, #0
 1464 018c 07D0     		beq	.L170
ARM GAS  C:\Users\3130\AppData\Local\Temp\ccIJUwNH.s 			page 27


 1465              	.L190:
 1466              		.loc 1 113 0
 1467 018e 2068     		ldr	r0, [r4]
 1468 0190 0135     		add	r5, r5, #1
 1469              	.LVL140:
 1470 0192 0368     		ldr	r3, [r0]
 1471 0194 9A68     		ldr	r2, [r3, #8]
 1472 0196 9047     		blx	r2
 1473              	.LVL141:
 1474              		.loc 1 112 0
 1475 0198 2978     		ldrb	r1, [r5]
 1476 019a 0029     		cmp	r1, #0
 1477 019c F7D1     		bne	.L190
 1478              	.L170:
 1479              	.LBE148:
 1480              	.LBE147:
 1481              		.loc 1 361 0
 1482 019e 5A48     		ldr	r0, .L223+104
 1483 01a0 FFF7FEFF 		bl	test_println
 1484              	.LVL142:
 1485              		.loc 1 363 0
 1486 01a4 C820     		mov	r0, #200
 1487 01a6 FFF7FEFF 		bl	chThdSleep
 1488              	.LVL143:
 1489              	.LBB149:
 1490              	.LBB135:
 1491              	.LBB131:
 1492              	.LBB127:
 1493              		.loc 1 132 0
 1494 01aa 584F     		ldr	r7, .L223+108
 1495              	.LBE127:
 1496              	.LBE131:
 1497              		.loc 1 287 0
 1498 01ac 5849     		ldr	r1, .L223+112
 1499              	.LBB132:
 1500              	.LBB128:
 1501              		.loc 1 132 0
 1502 01ae 5846     		mov	r0, fp
 1503              	.LBE128:
 1504              	.LBE132:
 1505              		.loc 1 287 0
 1506 01b0 0023     		mov	r3, #0
 1507              	.LBB133:
 1508              	.LBB129:
 1509              		.loc 1 132 0
 1510 01b2 3860     		str	r0, [r7]
 1511              	.LBE129:
 1512              	.LBE133:
 1513              		.loc 1 289 0
 1514 01b4 5748     		ldr	r0, .L223+116
 1515              	.LBE135:
 1516              	.LBE149:
 1517              		.loc 1 365 0
 1518 01b6 20CE     		ldmia	r6!, {r5}
 1519              	.LVL144:
 1520              	.LBB150:
 1521              	.LBB136:
ARM GAS  C:\Users\3130\AppData\Local\Temp\ccIJUwNH.s 			page 28


 1522              		.loc 1 287 0
 1523 01b8 0B70     		strb	r3, [r1]
 1524              	.LVL145:
 1525 01ba 8946     		mov	r9, r1
 1526              		.loc 1 289 0
 1527 01bc 0021     		mov	r1, #0
 1528 01be 0160     		str	r1, [r0]
 1529              	.LVL146:
 1530 01c0 4160     		str	r1, [r0, #4]
 1531              	.LVL147:
 1532 01c2 8160     		str	r1, [r0, #8]
 1533              	.LVL148:
 1534 01c4 C160     		str	r1, [r0, #12]
 1535              	.LVL149:
 1536 01c6 0161     		str	r1, [r0, #16]
 1537              	.LVL150:
 1538              		.loc 1 291 0
 1539 01c8 6B68     		ldr	r3, [r5, #4]
 1540 01ca 002B     		cmp	r3, #0
 1541 01cc 00D0     		beq	.L168
 1542              		.loc 1 292 0
 1543 01ce 9847     		blx	r3
 1544              	.LVL151:
 1545              	.L168:
 1546              		.loc 1 293 0
 1547 01d0 EA68     		ldr	r2, [r5, #12]
 1548 01d2 9047     		blx	r2
 1549              	.LVL152:
 1550              		.loc 1 294 0
 1551 01d4 AD68     		ldr	r5, [r5, #8]
 1552              	.LVL153:
 1553 01d6 002D     		cmp	r5, #0
 1554 01d8 00D0     		beq	.L171
 1555              		.loc 1 295 0
 1556 01da A847     		blx	r5
 1557              	.LVL154:
 1558              	.L171:
 1559              		.loc 1 297 0
 1560 01dc FFF7FEFF 		bl	test_wait_threads
 1561              	.LVL155:
 1562              	.LBE136:
 1563              	.LBE150:
 1564              		.loc 1 366 0
 1565 01e0 4846     		mov	r0, r9
 1566 01e2 0178     		ldrb	r1, [r0]
 1567 01e4 0029     		cmp	r1, #0
 1568 01e6 53D0     		beq	.L172
 1569 01e8 4B4D     		ldr	r5, .L223+120
 1570              		.loc 1 112 0
 1571 01ea 2D21     		mov	r1, #45
 1572              	.L173:
 1573              	.LBB151:
 1574              	.LBB152:
 1575              		.loc 1 113 0
 1576 01ec 2068     		ldr	r0, [r4]
 1577              	.LVL156:
 1578 01ee 0135     		add	r5, r5, #1
ARM GAS  C:\Users\3130\AppData\Local\Temp\ccIJUwNH.s 			page 29


 1579 01f0 0368     		ldr	r3, [r0]
 1580 01f2 9A68     		ldr	r2, [r3, #8]
 1581 01f4 9047     		blx	r2
 1582              	.LVL157:
 1583              		.loc 1 314 0
 1584 01f6 681E     		sub	r0, r5, #1
 1585              		.loc 1 112 0
 1586 01f8 0178     		ldrb	r1, [r0]
 1587 01fa 0029     		cmp	r1, #0
 1588 01fc F6D1     		bne	.L173
 1589              	.LBE152:
 1590              	.LBE151:
 1591              		.loc 1 368 0
 1592 01fe 4749     		ldr	r1, .L223+124
 1593 0200 0868     		ldr	r0, [r1]
 1594 0202 FFF7FEFF 		bl	test_printn
 1595              	.LVL158:
 1596 0206 464D     		ldr	r5, .L223+128
 1597              		.loc 1 112 0
 1598 0208 2021     		mov	r1, #32
 1599              	.LVL159:
 1600              	.L175:
 1601              	.LBB153:
 1602              	.LBB154:
 1603              		.loc 1 113 0
 1604 020a 2068     		ldr	r0, [r4]
 1605 020c 0135     		add	r5, r5, #1
 1606 020e 0368     		ldr	r3, [r0]
 1607 0210 9A68     		ldr	r2, [r3, #8]
 1608 0212 9047     		blx	r2
 1609              	.LVL160:
 1610              		.loc 1 314 0
 1611 0214 681E     		sub	r0, r5, #1
 1612              		.loc 1 112 0
 1613 0216 0178     		ldrb	r1, [r0]
 1614 0218 0029     		cmp	r1, #0
 1615 021a F6D1     		bne	.L175
 1616              	.LVL161:
 1617              	.LBE154:
 1618              	.LBE153:
 1619              	.LBB155:
 1620              	.LBB140:
 1621              		.loc 1 138 0
 1622 021c 3968     		ldr	r1, [r7]
 1623 021e 5D46     		mov	r5, fp
 1624 0220 5945     		cmp	r1, fp
 1625 0222 08D9     		bls	.L178
 1626              	.LVL162:
 1627              	.L189:
 1628              		.loc 1 139 0
 1629 0224 2068     		ldr	r0, [r4]
 1630 0226 2978     		ldrb	r1, [r5]
 1631 0228 0368     		ldr	r3, [r0]
 1632 022a 0135     		add	r5, r5, #1
 1633              	.LVL163:
 1634 022c 9A68     		ldr	r2, [r3, #8]
 1635 022e 9047     		blx	r2
ARM GAS  C:\Users\3130\AppData\Local\Temp\ccIJUwNH.s 			page 30


 1636              	.LVL164:
 1637              		.loc 1 138 0
 1638 0230 3868     		ldr	r0, [r7]
 1639 0232 8542     		cmp	r5, r0
 1640 0234 F6D3     		bcc	.L189
 1641              	.LVL165:
 1642              	.L178:
 1643              	.LBE140:
 1644              	.LBE155:
 1645              		.loc 1 371 0
 1646 0236 3B48     		ldr	r0, .L223+132
 1647 0238 FFF7FEFF 		bl	test_println
 1648              	.LVL166:
 1649              		.loc 1 353 0
 1650 023c 3768     		ldr	r7, [r6]
 1651 023e 002F     		cmp	r7, #0
 1652 0240 00D0     		beq	.LCB1488
 1653 0242 7AE7     		b	.L179	@long jump
 1654              	.LCB1488:
 1655              	.LVL167:
 1656              	.L221:
 1657              		.loc 1 351 0
 1658 0244 019D     		ldr	r5, [sp, #4]
 1659 0246 40CD     		ldmia	r5!, {r6}
 1660 0248 0195     		str	r5, [sp, #4]
 1661 024a 002E     		cmp	r6, #0
 1662 024c 00D0     		beq	.LCB1504
 1663 024e 69E7     		b	.L185	@long jump
 1664              	.LCB1504:
 1665              		.loc 1 379 0
 1666 0250 FFF7FEFF 		bl	print_line
 1667              	.LVL168:
 1668              		.loc 1 380 0
 1669 0254 1348     		ldr	r0, .L223+4
 1670 0256 FFF7FEFF 		bl	test_println
 1671              	.LVL169:
 1672 025a 334F     		ldr	r7, .L223+136
 1673              		.loc 1 112 0
 1674 025c 4621     		mov	r1, #70
 1675              	.LVL170:
 1676              	.L182:
 1677              	.LBB156:
 1678              	.LBB157:
 1679              		.loc 1 113 0
 1680 025e 2068     		ldr	r0, [r4]
 1681 0260 0137     		add	r7, r7, #1
 1682 0262 0368     		ldr	r3, [r0]
 1683 0264 9A68     		ldr	r2, [r3, #8]
 1684 0266 9047     		blx	r2
 1685              	.LVL171:
 1686              		.loc 1 314 0
 1687 0268 791E     		sub	r1, r7, #1
 1688              		.loc 1 112 0
 1689 026a 0978     		ldrb	r1, [r1]
 1690 026c 0029     		cmp	r1, #0
 1691 026e F6D1     		bne	.L182
 1692              	.LBE157:
ARM GAS  C:\Users\3130\AppData\Local\Temp\ccIJUwNH.s 			page 31


 1693              	.LBE156:
 1694              		.loc 1 382 0
 1695 0270 204C     		ldr	r4, .L223+84
 1696 0272 2078     		ldrb	r0, [r4]
 1697 0274 0028     		cmp	r0, #0
 1698 0276 0FD1     		bne	.L222
 1699              		.loc 1 385 0
 1700 0278 2C48     		ldr	r0, .L223+140
 1701 027a FFF7FEFF 		bl	test_println
 1702              	.LVL172:
 1703              	.L184:
 1704              		.loc 1 387 0
 1705 027e 1D4D     		ldr	r5, .L223+84
 1706 0280 2878     		ldrb	r0, [r5]
 1707              		.loc 1 388 0
 1708 0282 03B0     		add	sp, sp, #12
 1709              	.LVL173:
 1710              		@ sp needed for prologue
 1711              	.LVL174:
 1712 0284 3CBC     		pop	{r2, r3, r4, r5}
 1713 0286 9046     		mov	r8, r2
 1714 0288 9946     		mov	r9, r3
 1715 028a A246     		mov	sl, r4
 1716 028c AB46     		mov	fp, r5
 1717 028e F0BD     		pop	{r4, r5, r6, r7, pc}
 1718              	.LVL175:
 1719              	.L172:
 1720              		.loc 1 374 0
 1721 0290 2748     		ldr	r0, .L223+144
 1722 0292 FFF7FEFF 		bl	test_println
 1723              	.LVL176:
 1724 0296 4CE7     		b	.L217
 1725              	.LVL177:
 1726              	.L222:
 1727              		.loc 1 383 0
 1728 0298 2648     		ldr	r0, .L223+148
 1729 029a FFF7FEFF 		bl	test_println
 1730              	.LVL178:
 1731 029e EEE7     		b	.L184
 1732              	.L224:
 1733              		.align	2
 1734              	.L223:
 1735 02a0 00000000 		.word	.LANCHOR1
 1736 02a4 04000000 		.word	.LC37
 1737 02a8 08000000 		.word	.LC39
 1738 02ac 24000000 		.word	.LC41
 1739 02b0 01000000 		.word	.LC43+1
 1740 02b4 90000000 		.word	.LC63
 1741 02b8 01000000 		.word	.LC65+1
 1742 02bc AC000000 		.word	.LC67
 1743 02c0 01000000 		.word	.LC69+1
 1744 02c4 D8000000 		.word	.LC71
 1745 02c8 01000000 		.word	.LC73+1
 1746 02cc 0C010000 		.word	.LC75
 1747 02d0 01000000 		.word	.LC77+1
 1748 02d4 28010000 		.word	.LC79
 1749 02d8 01000000 		.word	.LC81+1
ARM GAS  C:\Users\3130\AppData\Local\Temp\ccIJUwNH.s 			page 32


 1750 02dc 48010000 		.word	.LC83
 1751 02e0 01000000 		.word	.LC85+1
 1752 02e4 74010000 		.word	.LC87
 1753 02e8 01000000 		.word	.LC89+1
 1754 02ec A0010000 		.word	.LC91
 1755 02f0 00000000 		.word	.LANCHOR9
 1756 02f4 00000000 		.word	.LANCHOR4
 1757 02f8 00000000 		.word	patternthd
 1758 02fc 00000000 		.word	.LANCHOR6
 1759 0300 01000000 		.word	.LC45+1
 1760 0304 01000000 		.word	.LC94+1
 1761 0308 4C000000 		.word	.LC47
 1762 030c 00000000 		.word	.LANCHOR2
 1763 0310 00000000 		.word	.LANCHOR3
 1764 0314 00000000 		.word	.LANCHOR7
 1765 0318 01000000 		.word	.LC52+1
 1766 031c 00000000 		.word	.LANCHOR5
 1767 0320 01000000 		.word	.LC97+1
 1768 0324 68000000 		.word	.LC54
 1769 0328 01000000 		.word	.LC99+1
 1770 032c 88000000 		.word	.LC61
 1771 0330 6C000000 		.word	.LC56
 1772 0334 80000000 		.word	.LC59
 1773              		.cfi_endproc
 1774              	.LFE58:
 1775              		.size	TestThread, .-TestThread
 1776              		.global	test_timer_done
 1777              		.global	wa
 1778              		.global	threads
 1779              		.global	test
 1780 0338 C046C046 		.section	.bss.test,"aw",%nobits
 1780      C046C046 
 1781              		.align	3
 1782              		.type	test, %object
 1783              		.size	test, 1520
 1784              	test:
 1785 0000 00000000 		.space	1520
 1785      00000000 
 1785      00000000 
 1785      00000000 
 1785      00000000 
 1786              		.section	.bss.failpoint,"aw",%nobits
 1787              		.align	2
 1788              		.set	.LANCHOR5,. + 0
 1789              		.type	failpoint, %object
 1790              		.size	failpoint, 4
 1791              	failpoint:
 1792 0000 00000000 		.space	4
 1793              		.section	.bss.local_fail,"aw",%nobits
 1794              		.set	.LANCHOR3,. + 0
 1795              		.type	local_fail, %object
 1796              		.size	local_fail, 1
 1797              	local_fail:
 1798 0000 00       		.space	1
 1799              		.section	.bss.test_timer_done,"aw",%nobits
 1800              		.set	.LANCHOR0,. + 0
 1801              		.type	test_timer_done, %object
ARM GAS  C:\Users\3130\AppData\Local\Temp\ccIJUwNH.s 			page 33


 1802              		.size	test_timer_done, 1
 1803              	test_timer_done:
 1804 0000 00       		.space	1
 1805              		.section	.rodata.wa,"a",%progbits
 1806              		.align	2
 1807              		.type	wa, %object
 1808              		.size	wa, 20
 1809              	wa:
 1810 0000 00000000 		.word	test
 1811 0004 30010000 		.word	test+304
 1812 0008 60020000 		.word	test+608
 1813 000c 90030000 		.word	test+912
 1814 0010 C0040000 		.word	test+1216
 1815              		.section	.bss.tokp,"aw",%nobits
 1816              		.align	2
 1817              		.set	.LANCHOR2,. + 0
 1818              		.type	tokp, %object
 1819              		.size	tokp, 4
 1820              	tokp:
 1821 0000 00000000 		.space	4
 1822              		.section	.bss.global_fail,"aw",%nobits
 1823              		.set	.LANCHOR4,. + 0
 1824              		.type	global_fail, %object
 1825              		.size	global_fail, 1
 1826              	global_fail:
 1827 0000 00       		.space	1
 1828              		.section	.rodata.str1.4,"aMS",%progbits,1
 1829              		.align	2
 1830              	.LC2:
 1831 0000 0D0A00   		.ascii	"\015\012\000"
 1832 0003 00       		.space	1
 1833              	.LC37:
 1834 0004 00       		.ascii	"\000"
 1835 0005 000000   		.space	3
 1836              	.LC39:
 1837 0008 2A2A2A20 		.ascii	"*** ChibiOS/RT test suite\000"
 1837      43686962 
 1837      694F532F 
 1837      52542074 
 1837      65737420 
 1838 0022 0000     		.space	2
 1839              	.LC41:
 1840 0024 2A2A2A00 		.ascii	"***\000"
 1841              	.LC43:
 1842 0028 2A2A2A20 		.ascii	"*** Kernel:       \000"
 1842      4B65726E 
 1842      656C3A20 
 1842      20202020 
 1842      202000
 1843 003b 00       		.space	1
 1844              	.LC45:
 1845 003c 2D2D2D20 		.ascii	"--- Test Case \000"
 1845      54657374 
 1845      20436173 
 1845      652000
 1846 004b 00       		.space	1
 1847              	.LC47:
ARM GAS  C:\Users\3130\AppData\Local\Temp\ccIJUwNH.s 			page 34


 1848 004c 2900     		.ascii	")\000"
 1849 004e 0000     		.space	2
 1850              	.LC52:
 1851 0050 2D2D2D20 		.ascii	"--- Result: FAILURE (#\000"
 1851      52657375 
 1851      6C743A20 
 1851      4641494C 
 1851      55524520 
 1852 0067 00       		.space	1
 1853              	.LC54:
 1854 0068 5D2900   		.ascii	"])\000"
 1855 006b 00       		.space	1
 1856              	.LC56:
 1857 006c 2D2D2D20 		.ascii	"--- Result: SUCCESS\000"
 1857      52657375 
 1857      6C743A20 
 1857      53554343 
 1857      45535300 
 1858              	.LC59:
 1859 0080 4641494C 		.ascii	"FAILURE\000"
 1859      55524500 
 1860              	.LC61:
 1861 0088 53554343 		.ascii	"SUCCESS\000"
 1861      45535300 
 1862              	.LC63:
 1863 0090 322E362E 		.ascii	"2.6.1\000"
 1863      3100
 1864 0096 0000     		.space	2
 1865              	.LC65:
 1866 0098 2A2A2A20 		.ascii	"*** Compiled:     \000"
 1866      436F6D70 
 1866      696C6564 
 1866      3A202020 
 1866      202000
 1867 00ab 00       		.space	1
 1868              	.LC67:
 1869 00ac 4E6F7620 		.ascii	"Nov  8 2013 - 00:16:32\000"
 1869      20382032 
 1869      30313320 
 1869      2D203030 
 1869      3A31363A 
 1870 00c3 00       		.space	1
 1871              	.LC69:
 1872 00c4 2A2A2A20 		.ascii	"*** Compiler:     \000"
 1872      436F6D70 
 1872      696C6572 
 1872      3A202020 
 1872      202000
 1873 00d7 00       		.space	1
 1874              	.LC71:
 1875 00d8 47434320 		.ascii	"GCC 4.7.4 20130913 (prerelease)\000"
 1875      342E372E 
 1875      34203230 
 1875      31333039 
 1875      31332028 
 1876              	.LC73:
 1877 00f8 2A2A2A20 		.ascii	"*** Architecture: \000"
ARM GAS  C:\Users\3130\AppData\Local\Temp\ccIJUwNH.s 			page 35


 1877      41726368 
 1877      69746563 
 1877      74757265 
 1877      3A2000
 1878 010b 00       		.space	1
 1879              	.LC75:
 1880 010c 41524D76 		.ascii	"ARMv6-M\000"
 1880      362D4D00 
 1881              	.LC77:
 1882 0114 2A2A2A20 		.ascii	"*** Core Variant: \000"
 1882      436F7265 
 1882      20566172 
 1882      69616E74 
 1882      3A2000
 1883 0127 00       		.space	1
 1884              	.LC79:
 1885 0128 436F7274 		.ascii	"Cortex-M0\000"
 1885      65782D4D 
 1885      3000
 1886 0132 0000     		.space	2
 1887              	.LC81:
 1888 0134 2A2A2A20 		.ascii	"*** Port Info:    \000"
 1888      506F7274 
 1888      20496E66 
 1888      6F3A2020 
 1888      202000
 1889 0147 00       		.space	1
 1890              	.LC83:
 1891 0148 50726565 		.ascii	"Preemption through NMI\000"
 1891      6D707469 
 1891      6F6E2074 
 1891      68726F75 
 1891      6768204E 
 1892 015f 00       		.space	1
 1893              	.LC85:
 1894 0160 2A2A2A20 		.ascii	"*** Platform:     \000"
 1894      506C6174 
 1894      666F726D 
 1894      3A202020 
 1894      202000
 1895 0173 00       		.space	1
 1896              	.LC87:
 1897 0174 53544D33 		.ascii	"STM32F05x Entry Level\000"
 1897      32463035 
 1897      7820456E 
 1897      74727920 
 1897      4C657665 
 1898 018a 0000     		.space	2
 1899              	.LC89:
 1900 018c 2A2A2A20 		.ascii	"*** Test Board:   \000"
 1900      54657374 
 1900      20426F61 
 1900      72643A20 
 1900      202000
 1901 019f 00       		.space	1
 1902              	.LC91:
 1903 01a0 53542053 		.ascii	"ST STM32F0-Discovery\000"
ARM GAS  C:\Users\3130\AppData\Local\Temp\ccIJUwNH.s 			page 36


 1903      544D3332 
 1903      46302D44 
 1903      6973636F 
 1903      76657279 
 1904 01b5 000000   		.space	3
 1905              	.LC94:
 1906 01b8 202800   		.ascii	" (\000"
 1907 01bb 00       		.space	1
 1908              	.LC97:
 1909 01bc 205B00   		.ascii	" [\000"
 1910 01bf 00       		.space	1
 1911              	.LC99:
 1912 01c0 46696E61 		.ascii	"Final result: \000"
 1912      6C207265 
 1912      73756C74 
 1912      3A2000
 1913 01cf 00       		.section	.bss.vt,"aw",%nobits
 1914              		.align	2
 1915              		.set	.LANCHOR8,. + 0
 1916              		.type	vt, %object
 1917              		.size	vt, 20
 1918              	vt:
 1919 0000 00000000 		.space	20
 1919      00000000 
 1919      00000000 
 1919      00000000 
 1919      00000000 
 1920              		.section	.bss.threads,"aw",%nobits
 1921              		.align	2
 1922              		.set	.LANCHOR7,. + 0
 1923              		.type	threads, %object
 1924              		.size	threads, 20
 1925              	threads:
 1926 0000 00000000 		.space	20
 1926      00000000 
 1926      00000000 
 1926      00000000 
 1926      00000000 
 1927              		.section	.rodata.patterns,"a",%progbits
 1928              		.align	2
 1929              		.set	.LANCHOR9,. + 0
 1930              		.type	patterns, %object
 1931              		.size	patterns, 48
 1932              	patterns:
 1933 0000 00000000 		.word	patternthd
 1934 0004 00000000 		.word	patternsem
 1935 0008 00000000 		.word	patternmtx
 1936 000c 00000000 		.word	patternmsg
 1937 0010 00000000 		.word	patternmbox
 1938 0014 00000000 		.word	patternevt
 1939 0018 00000000 		.word	patternheap
 1940 001c 00000000 		.word	patternpools
 1941 0020 00000000 		.word	patterndyn
 1942 0024 00000000 		.word	patternqueues
 1943 0028 00000000 		.word	patternbmk
 1944 002c 00000000 		.word	0
 1945              		.section	.bss.chp,"aw",%nobits
ARM GAS  C:\Users\3130\AppData\Local\Temp\ccIJUwNH.s 			page 37


 1946              		.align	2
 1947              		.set	.LANCHOR1,. + 0
 1948              		.type	chp, %object
 1949              		.size	chp, 4
 1950              	chp:
 1951 0000 00000000 		.space	4
 1952              		.section	.bss.tokens_buffer,"aw",%nobits
 1953              		.align	2
 1954              		.set	.LANCHOR6,. + 0
 1955              		.type	tokens_buffer, %object
 1956              		.size	tokens_buffer, 16
 1957              	tokens_buffer:
 1958 0000 00000000 		.space	16
 1958      00000000 
 1958      00000000 
 1958      00000000 
 1959              		.text
 1960              	.Letext0:
 1961              		.file 2 "c:\\stm32f0-discovery_tools\\gcc-arm-none-eabi\\bin\\../lib/gcc/arm-none-eabi/4.7.4/inclu
 1962              		.file 3 "c:\\stm32f0-discovery_tools\\gcc-arm-none-eabi\\bin\\../lib/gcc/arm-none-eabi/4.7.4/../..
 1963              		.file 4 "../../ChibiOS_2.6.1/os/ports/GCC/ARMCMx/chtypes.h"
 1964              		.file 5 "../../ChibiOS_2.6.1/os/kernel/include/chlists.h"
 1965              		.file 6 "../../ChibiOS_2.6.1/os/kernel/include/chthreads.h"
 1966              		.file 7 "../../ChibiOS_2.6.1/os/ports/GCC/ARMCMx/chcore_v6m.h"
 1967              		.file 8 "../../ChibiOS_2.6.1/os/kernel/include/chvt.h"
 1968              		.file 9 "../../ChibiOS_2.6.1/os/kernel/include/chschd.h"
 1969              		.file 10 "../../ChibiOS_2.6.1/os/kernel/include/chmtx.h"
 1970              		.file 11 "../../ChibiOS_2.6.1/os/kernel/include/chstreams.h"
 1971              		.file 12 "../../ChibiOS_2.6.1/test/test.h"
 1972              		.file 13 "../../ChibiOS_2.6.1/test/testthd.h"
 1973              		.file 14 "../../ChibiOS_2.6.1/test/testsem.h"
 1974              		.file 15 "../../ChibiOS_2.6.1/test/testmtx.h"
 1975              		.file 16 "../../ChibiOS_2.6.1/test/testmsg.h"
 1976              		.file 17 "../../ChibiOS_2.6.1/test/testmbox.h"
 1977              		.file 18 "../../ChibiOS_2.6.1/test/testevt.h"
 1978              		.file 19 "../../ChibiOS_2.6.1/test/testheap.h"
 1979              		.file 20 "../../ChibiOS_2.6.1/test/testpools.h"
 1980              		.file 21 "../../ChibiOS_2.6.1/test/testdyn.h"
 1981              		.file 22 "../../ChibiOS_2.6.1/test/testqueues.h"
 1982              		.file 23 "../../ChibiOS_2.6.1/test/testbmk.h"