ARM GAS  C:\Users\3130\AppData\Local\Temp\ccaFL17a.s 			page 1


   1              		.cpu cortex-m0
   2              		.fpu softvfp
   3              		.eabi_attribute 20, 1
   4              		.eabi_attribute 21, 1
   5              		.eabi_attribute 23, 3
   6              		.eabi_attribute 24, 1
   7              		.eabi_attribute 25, 1
   8              		.eabi_attribute 26, 1
   9              		.eabi_attribute 30, 2
  10              		.eabi_attribute 34, 0
  11              		.eabi_attribute 18, 4
  12              		.code	16
  13              		.file	"testqueues.c"
  14              		.text
  15              	.Ltext0:
  16              		.cfi_sections	.debug_frame
  17              		.section	.text.notify,"ax",%progbits
  18              		.align	2
  19              		.p2align 4,,15
  20              		.code	16
  21              		.thumb_func
  22              		.type	notify, %function
  23              	notify:
  24              	.LFB7:
  25              		.file 1 "../../ChibiOS_2.6.1/test/testqueues.c"
  26              		.loc 1 57 0
  27              		.cfi_startproc
  28              	.LVL0:
  29              		.loc 1 59 0
  30              		@ sp needed for prologue
  31 0000 7047     		bx	lr
  32              		.cfi_endproc
  33              	.LFE7:
  34              		.size	notify, .-notify
  35 0002 C046C046 		.section	.text.thread2,"ax",%progbits
  35      C046C046 
  35      C046C046 
  35      C046
  36              		.align	2
  37              		.p2align 4,,15
  38              		.code	16
  39              		.thumb_func
  40              		.type	thread2, %function
  41              	thread2:
  42              	.LFB12:
  43              		.loc 1 170 0
  44              		.cfi_startproc
  45              	.LVL1:
  46 0000 08B5     		push	{r3, lr}
  47              	.LCFI0:
  48              		.cfi_def_cfa_offset 8
  49              		.cfi_offset 3, -8
  50              		.cfi_offset 14, -4
  51              		.loc 1 173 0
  52 0002 0348     		ldr	r0, .L3
  53              	.LVL2:
  54 0004 0021     		mov	r1, #0
ARM GAS  C:\Users\3130\AppData\Local\Temp\ccaFL17a.s 			page 2


  55 0006 C822     		mov	r2, #200
  56 0008 FFF7FEFF 		bl	chOQPutTimeout
  57              	.LVL3:
  58              		.loc 1 175 0
  59              		@ sp needed for prologue
  60 000c 0020     		mov	r0, #0
  61 000e 08BD     		pop	{r3, pc}
  62              	.L4:
  63              		.align	2
  64              	.L3:
  65 0010 00000000 		.word	.LANCHOR0
  66              		.cfi_endproc
  67              	.LFE12:
  68              		.size	thread2, .-thread2
  69 0014 C046C046 		.section	.text.queues2_setup,"ax",%progbits
  69      C046C046 
  69      C046C046 
  70              		.align	2
  71              		.p2align 4,,15
  72              		.code	16
  73              		.thumb_func
  74              		.type	queues2_setup, %function
  75              	queues2_setup:
  76              	.LFB11:
  77              		.loc 1 165 0
  78              		.cfi_startproc
  79 0000 00B5     		push	{lr}
  80              	.LCFI1:
  81              		.cfi_def_cfa_offset 4
  82              		.cfi_offset 14, -4
  83              		.loc 1 167 0
  84 0002 064B     		ldr	r3, .L6
  85              		.loc 1 165 0
  86 0004 83B0     		sub	sp, sp, #12
  87              	.LCFI2:
  88              		.cfi_def_cfa_offset 16
  89              		.loc 1 167 0
  90 0006 0020     		mov	r0, #0
  91 0008 1968     		ldr	r1, [r3]
  92 000a 0090     		str	r0, [sp]
  93 000c 0422     		mov	r2, #4
  94 000e 0448     		ldr	r0, .L6+4
  95 0010 044B     		ldr	r3, .L6+8
  96 0012 FFF7FEFF 		bl	chOQInit
  97              	.LVL4:
  98              		.loc 1 168 0
  99 0016 03B0     		add	sp, sp, #12
 100              		@ sp needed for prologue
 101 0018 00BD     		pop	{pc}
 102              	.L7:
 103 001a C046     		.align	2
 104              	.L6:
 105 001c 00000000 		.word	wa
 106 0020 00000000 		.word	.LANCHOR0
 107 0024 00000000 		.word	notify
 108              		.cfi_endproc
 109              	.LFE11:
ARM GAS  C:\Users\3130\AppData\Local\Temp\ccaFL17a.s 			page 3


 110              		.size	queues2_setup, .-queues2_setup
 111 0028 C046C046 		.section	.text.thread1,"ax",%progbits
 111      C046C046 
 112              		.align	2
 113              		.p2align 4,,15
 114              		.code	16
 115              		.thumb_func
 116              		.type	thread1, %function
 117              	thread1:
 118              	.LFB9:
 119              		.loc 1 83 0
 120              		.cfi_startproc
 121              	.LVL5:
 122 0000 08B5     		push	{r3, lr}
 123              	.LCFI3:
 124              		.cfi_def_cfa_offset 8
 125              		.cfi_offset 3, -8
 126              		.cfi_offset 14, -4
 127              		.loc 1 86 0
 128 0002 0348     		ldr	r0, .L9
 129              	.LVL6:
 130 0004 C821     		mov	r1, #200
 131 0006 FFF7FEFF 		bl	chIQGetTimeout
 132              	.LVL7:
 133              		.loc 1 88 0
 134              		@ sp needed for prologue
 135 000a 0020     		mov	r0, #0
 136 000c 08BD     		pop	{r3, pc}
 137              	.L10:
 138 000e C046     		.align	2
 139              	.L9:
 140 0010 00000000 		.word	.LANCHOR1
 141              		.cfi_endproc
 142              	.LFE9:
 143              		.size	thread1, .-thread1
 144 0014 C046C046 		.section	.text.queues1_setup,"ax",%progbits
 144      C046C046 
 144      C046C046 
 145              		.align	2
 146              		.p2align 4,,15
 147              		.code	16
 148              		.thumb_func
 149              		.type	queues1_setup, %function
 150              	queues1_setup:
 151              	.LFB8:
 152              		.loc 1 78 0
 153              		.cfi_startproc
 154 0000 00B5     		push	{lr}
 155              	.LCFI4:
 156              		.cfi_def_cfa_offset 4
 157              		.cfi_offset 14, -4
 158              		.loc 1 80 0
 159 0002 064B     		ldr	r3, .L12
 160              		.loc 1 78 0
 161 0004 83B0     		sub	sp, sp, #12
 162              	.LCFI5:
 163              		.cfi_def_cfa_offset 16
ARM GAS  C:\Users\3130\AppData\Local\Temp\ccaFL17a.s 			page 4


 164              		.loc 1 80 0
 165 0006 0020     		mov	r0, #0
 166 0008 1968     		ldr	r1, [r3]
 167 000a 0090     		str	r0, [sp]
 168 000c 0422     		mov	r2, #4
 169 000e 0448     		ldr	r0, .L12+4
 170 0010 044B     		ldr	r3, .L12+8
 171 0012 FFF7FEFF 		bl	chIQInit
 172              	.LVL8:
 173              		.loc 1 81 0
 174 0016 03B0     		add	sp, sp, #12
 175              		@ sp needed for prologue
 176 0018 00BD     		pop	{pc}
 177              	.L13:
 178 001a C046     		.align	2
 179              	.L12:
 180 001c 00000000 		.word	wa
 181 0020 00000000 		.word	.LANCHOR1
 182 0024 00000000 		.word	notify
 183              		.cfi_endproc
 184              	.LFE8:
 185              		.size	queues1_setup, .-queues1_setup
 186 0028 C046C046 		.section	.text.queues2_execute,"ax",%progbits
 186      C046C046 
 187              		.align	2
 188              		.p2align 4,,15
 189              		.code	16
 190              		.thumb_func
 191              		.type	queues2_execute, %function
 192              	queues2_execute:
 193              	.LFB13:
 194              		.loc 1 177 0
 195              		.cfi_startproc
 196 0000 30B5     		push	{r4, r5, lr}
 197              	.LCFI6:
 198              		.cfi_def_cfa_offset 12
 199              		.cfi_offset 4, -12
 200              		.cfi_offset 5, -8
 201              		.cfi_offset 14, -4
 202 0002 85B0     		sub	sp, sp, #20
 203              	.LCFI7:
 204              		.cfi_def_cfa_offset 32
 205              		.loc 1 182 0
 206              	@ 182 "../../ChibiOS_2.6.1/test/testqueues.c" 1
 207 0004 72B6     		cpsid   i
 208              	@ 0 "" 2
 209              		.code	16
 210 0006 7D4C     		ldr	r4, .L33
 211 0008 0021     		mov	r1, #0
 212 000a 6269     		ldr	r2, [r4, #20]
 213 000c A369     		ldr	r3, [r4, #24]
 214 000e 9A42     		cmp	r2, r3
 215 0010 00D1     		bne	.LCB159
 216 0012 EBE0     		b	.L31	@long jump
 217              	.LCB159:
 218              	.L15:
 219              		.loc 1 182 0 is_stmt 0 discriminator 4
ARM GAS  C:\Users\3130\AppData\Local\Temp\ccaFL17a.s 			page 5


 220 0014 0120     		mov	r0, #1
 221 0016 FFF7FEFF 		bl	_test_assert
 222              	.LVL9:
 223              	@ 182 "../../ChibiOS_2.6.1/test/testqueues.c" 1
 224 001a 62B6     		cpsie   i
 225              	@ 0 "" 2
 226              		.code	16
 227 001c 0028     		cmp	r0, #0
 228 001e 4ED1     		bne	.L14
 229              	.LVL10:
 230              		.loc 1 186 0 is_stmt 1 discriminator 6
 231 0020 0125     		mov	r5, #1
 232 0022 6A42     		neg	r2, r5
 233 0024 201C     		mov	r0, r4
 234 0026 4121     		mov	r1, #65
 235 0028 FFF7FEFF 		bl	chOQPutTimeout
 236              	.LVL11:
 237 002c 0122     		mov	r2, #1
 238 002e 201C     		mov	r0, r4
 239 0030 4221     		mov	r1, #66
 240 0032 5242     		neg	r2, r2
 241 0034 FFF7FEFF 		bl	chOQPutTimeout
 242              	.LVL12:
 243 0038 0123     		mov	r3, #1
 244 003a 5A42     		neg	r2, r3
 245 003c 201C     		mov	r0, r4
 246 003e 4321     		mov	r1, #67
 247 0040 0125     		mov	r5, #1
 248 0042 FFF7FEFF 		bl	chOQPutTimeout
 249              	.LVL13:
 250 0046 201C     		mov	r0, r4
 251 0048 4421     		mov	r1, #68
 252 004a 6A42     		neg	r2, r5
 253 004c FFF7FEFF 		bl	chOQPutTimeout
 254              	.LVL14:
 255              		.loc 1 187 0 discriminator 6
 256              	@ 187 "../../ChibiOS_2.6.1/test/testqueues.c" 1
 257 0050 72B6     		cpsid   i
 258              	@ 0 "" 2
 259              		.code	16
 260 0052 A068     		ldr	r0, [r4, #8]
 261 0054 4142     		neg	r1, r0
 262 0056 4141     		adc	r1, r1, r0
 263 0058 0220     		mov	r0, #2
 264 005a FFF7FEFF 		bl	_test_assert
 265              	.LVL15:
 266              	@ 187 "../../ChibiOS_2.6.1/test/testqueues.c" 1
 267 005e 62B6     		cpsie   i
 268              	@ 0 "" 2
 269              		.code	16
 270 0060 0028     		cmp	r0, #0
 271 0062 2CD1     		bne	.L14
 272              	.LVL16:
 273              	.LBB6:
 274              	.LBB7:
 275              	.LBB8:
 276              		.loc 1 193 0
ARM GAS  C:\Users\3130\AppData\Local\Temp\ccaFL17a.s 			page 6


 277              	@ 193 "../../ChibiOS_2.6.1/test/testqueues.c" 1
 278 0064 72B6     		cpsid   i
 279              	@ 0 "" 2
 280              		.loc 1 194 0
 281              		.code	16
 282 0066 201C     		mov	r0, r4
 283 0068 FFF7FEFF 		bl	chOQGetI
 284              	.LVL17:
 285              		.loc 1 195 0
 286              	@ 195 "../../ChibiOS_2.6.1/test/testqueues.c" 1
 287 006c 62B6     		cpsie   i
 288              	@ 0 "" 2
 289              		.loc 1 196 0
 290              		.code	16
 291 006e C0B2     		uxtb	r0, r0
 292              	.LVL18:
 293 0070 FFF7FEFF 		bl	test_emit_token
 294              	.LVL19:
 295              		.loc 1 193 0
 296              	@ 193 "../../ChibiOS_2.6.1/test/testqueues.c" 1
 297 0074 72B6     		cpsid   i
 298              	@ 0 "" 2
 299              		.loc 1 194 0
 300              		.code	16
 301 0076 201C     		mov	r0, r4
 302 0078 FFF7FEFF 		bl	chOQGetI
 303              	.LVL20:
 304              		.loc 1 195 0
 305              	@ 195 "../../ChibiOS_2.6.1/test/testqueues.c" 1
 306 007c 62B6     		cpsie   i
 307              	@ 0 "" 2
 308              		.loc 1 196 0
 309              		.code	16
 310 007e C0B2     		uxtb	r0, r0
 311              	.LVL21:
 312 0080 FFF7FEFF 		bl	test_emit_token
 313              	.LVL22:
 314              		.loc 1 193 0
 315              	@ 193 "../../ChibiOS_2.6.1/test/testqueues.c" 1
 316 0084 72B6     		cpsid   i
 317              	@ 0 "" 2
 318              		.loc 1 194 0
 319              		.code	16
 320 0086 201C     		mov	r0, r4
 321 0088 FFF7FEFF 		bl	chOQGetI
 322              	.LVL23:
 323              		.loc 1 195 0
 324              	@ 195 "../../ChibiOS_2.6.1/test/testqueues.c" 1
 325 008c 62B6     		cpsie   i
 326              	@ 0 "" 2
 327              		.loc 1 196 0
 328              		.code	16
 329 008e C0B2     		uxtb	r0, r0
 330              	.LVL24:
 331 0090 FFF7FEFF 		bl	test_emit_token
 332              	.LVL25:
 333              		.loc 1 193 0
ARM GAS  C:\Users\3130\AppData\Local\Temp\ccaFL17a.s 			page 7


 334              	@ 193 "../../ChibiOS_2.6.1/test/testqueues.c" 1
 335 0094 72B6     		cpsid   i
 336              	@ 0 "" 2
 337              		.loc 1 194 0
 338              		.code	16
 339 0096 201C     		mov	r0, r4
 340 0098 FFF7FEFF 		bl	chOQGetI
 341              	.LVL26:
 342              		.loc 1 195 0
 343              	@ 195 "../../ChibiOS_2.6.1/test/testqueues.c" 1
 344 009c 62B6     		cpsie   i
 345              	@ 0 "" 2
 346              		.loc 1 196 0
 347              		.code	16
 348 009e C0B2     		uxtb	r0, r0
 349              	.LVL27:
 350 00a0 FFF7FEFF 		bl	test_emit_token
 351              	.LVL28:
 352              	.LBE8:
 353              		.loc 1 198 0
 354              	@ 198 "../../ChibiOS_2.6.1/test/testqueues.c" 1
 355 00a4 72B6     		cpsid   i
 356              	@ 0 "" 2
 357              		.code	16
 358 00a6 6369     		ldr	r3, [r4, #20]
 359 00a8 A269     		ldr	r2, [r4, #24]
 360 00aa 0021     		mov	r1, #0
 361 00ac 9342     		cmp	r3, r2
 362 00ae 00D1     		bne	.LCB264
 363 00b0 A0E0     		b	.L32	@long jump
 364              	.LCB264:
 365              	.L19:
 366 00b2 0320     		mov	r0, #3
 367 00b4 FFF7FEFF 		bl	_test_assert
 368              	.LVL29:
 369              	@ 198 "../../ChibiOS_2.6.1/test/testqueues.c" 1
 370 00b8 62B6     		cpsie   i
 371              	@ 0 "" 2
 372              		.code	16
 373 00ba 0028     		cmp	r0, #0
 374 00bc 01D0     		beq	.L20
 375              	.LVL30:
 376              	.L14:
 377              	.LBE7:
 378              	.LBE6:
 379              		.loc 1 225 0
 380 00be 05B0     		add	sp, sp, #20
 381              		@ sp needed for prologue
 382 00c0 30BD     		pop	{r4, r5, pc}
 383              	.LVL31:
 384              	.L20:
 385              	.LBB11:
 386              	.LBB9:
 387              		.loc 1 199 0
 388 00c2 0420     		mov	r0, #4
 389 00c4 4E49     		ldr	r1, .L33+4
 390 00c6 FFF7FEFF 		bl	_test_assert_sequence
ARM GAS  C:\Users\3130\AppData\Local\Temp\ccaFL17a.s 			page 8


 391              	.LVL32:
 392 00ca 0028     		cmp	r0, #0
 393 00cc F7D1     		bne	.L14
 394              		.loc 1 200 0
 395              	@ 200 "../../ChibiOS_2.6.1/test/testqueues.c" 1
 396 00ce 72B6     		cpsid   i
 397              	@ 0 "" 2
 398              		.code	16
 399 00d0 201C     		mov	r0, r4
 400 00d2 FFF7FEFF 		bl	chOQGetI
 401              	.LVL33:
 402 00d6 C11C     		add	r1, r0, #3
 403 00d8 4B42     		neg	r3, r1
 404 00da 5941     		adc	r1, r1, r3
 405 00dc 0520     		mov	r0, #5
 406 00de FFF7FEFF 		bl	_test_assert
 407              	.LVL34:
 408              	@ 200 "../../ChibiOS_2.6.1/test/testqueues.c" 1
 409 00e2 62B6     		cpsie   i
 410              	@ 0 "" 2
 411              		.code	16
 412 00e4 0028     		cmp	r0, #0
 413 00e6 EAD1     		bne	.L14
 414              		.loc 1 203 0
 415 00e8 464D     		ldr	r5, .L33+8
 416 00ea 0023     		mov	r3, #0
 417 00ec 6968     		ldr	r1, [r5, #4]
 418 00ee 201C     		mov	r0, r4
 419 00f0 0822     		mov	r2, #8
 420 00f2 0291     		str	r1, [sp, #8]
 421 00f4 FFF7FEFF 		bl	chOQWriteTimeout
 422              	.LVL35:
 423              		.loc 1 204 0
 424 00f8 011F     		sub	r1, r0, #4
 425 00fa 4B42     		neg	r3, r1
 426 00fc 5941     		adc	r1, r1, r3
 427 00fe 0620     		mov	r0, #6
 428              	.LVL36:
 429 0100 FFF7FEFF 		bl	_test_assert
 430              	.LVL37:
 431 0104 0028     		cmp	r0, #0
 432 0106 DAD1     		bne	.L14
 433              		.loc 1 205 0
 434              	@ 205 "../../ChibiOS_2.6.1/test/testqueues.c" 1
 435 0108 72B6     		cpsid   i
 436              	@ 0 "" 2
 437              		.code	16
 438 010a A068     		ldr	r0, [r4, #8]
 439 010c 4142     		neg	r1, r0
 440 010e 4141     		adc	r1, r1, r0
 441 0110 0720     		mov	r0, #7
 442 0112 FFF7FEFF 		bl	_test_assert
 443              	.LVL38:
 444              	@ 205 "../../ChibiOS_2.6.1/test/testqueues.c" 1
 445 0116 62B6     		cpsie   i
 446              	@ 0 "" 2
 447              		.code	16
ARM GAS  C:\Users\3130\AppData\Local\Temp\ccaFL17a.s 			page 9


 448 0118 0028     		cmp	r0, #0
 449 011a D0D1     		bne	.L14
 450              		.loc 1 206 0
 451 011c 3A4B     		ldr	r3, .L33+12
 452 011e 2D68     		ldr	r5, [r5]
 453 0120 9A69     		ldr	r2, [r3, #24]
 454 0122 9821     		mov	r1, #152
 455 0124 9268     		ldr	r2, [r2, #8]
 456 0126 4900     		lsl	r1, r1, #1
 457 0128 0090     		str	r0, [sp]
 458 012a 0132     		add	r2, r2, #1
 459 012c 281C     		mov	r0, r5
 460 012e 374B     		ldr	r3, .L33+16
 461 0130 0395     		str	r5, [sp, #12]
 462 0132 FFF7FEFF 		bl	chThdCreateStatic
 463              	.LVL39:
 464 0136 364D     		ldr	r5, .L33+20
 465 0138 2860     		str	r0, [r5]
 466              		.loc 1 207 0
 467              	@ 207 "../../ChibiOS_2.6.1/test/testqueues.c" 1
 468 013a 72B6     		cpsid   i
 469              	@ 0 "" 2
 470              		.code	16
 471 013c 2069     		ldr	r0, [r4, #16]
 472 013e E368     		ldr	r3, [r4, #12]
 473 0140 A168     		ldr	r1, [r4, #8]
 474 0142 C21A     		sub	r2, r0, r3
 475 0144 511A     		sub	r1, r2, r1
 476 0146 0439     		sub	r1, r1, #4
 477 0148 4B42     		neg	r3, r1
 478 014a 5941     		adc	r1, r1, r3
 479 014c 0820     		mov	r0, #8
 480 014e FFF7FEFF 		bl	_test_assert
 481              	.LVL40:
 482              	@ 207 "../../ChibiOS_2.6.1/test/testqueues.c" 1
 483 0152 62B6     		cpsie   i
 484              	@ 0 "" 2
 485              		.code	16
 486 0154 0028     		cmp	r0, #0
 487 0156 B2D1     		bne	.L14
 488              		.loc 1 208 0
 489 0158 FFF7FEFF 		bl	test_wait_threads
 490              	.LVL41:
 491              		.loc 1 211 0
 492              	@ 211 "../../ChibiOS_2.6.1/test/testqueues.c" 1
 493 015c 72B6     		cpsid   i
 494              	@ 0 "" 2
 495              		.loc 1 212 0
 496              		.code	16
 497 015e 201C     		mov	r0, r4
 498 0160 FFF7FEFF 		bl	chOQResetI
 499              	.LVL42:
 500              		.loc 1 213 0
 501              	@ 213 "../../ChibiOS_2.6.1/test/testqueues.c" 1
 502 0164 62B6     		cpsie   i
 503              	@ 0 "" 2
 504              		.loc 1 214 0
ARM GAS  C:\Users\3130\AppData\Local\Temp\ccaFL17a.s 			page 10


 505              	@ 214 "../../ChibiOS_2.6.1/test/testqueues.c" 1
 506 0166 72B6     		cpsid   i
 507              	@ 0 "" 2
 508              		.code	16
 509 0168 E068     		ldr	r0, [r4, #12]
 510 016a 2569     		ldr	r5, [r4, #16]
 511 016c A268     		ldr	r2, [r4, #8]
 512 016e 2B1A     		sub	r3, r5, r0
 513 0170 991A     		sub	r1, r3, r2
 514 0172 4B42     		neg	r3, r1
 515 0174 5941     		adc	r1, r1, r3
 516 0176 0920     		mov	r0, #9
 517 0178 FFF7FEFF 		bl	_test_assert
 518              	.LVL43:
 519              	@ 214 "../../ChibiOS_2.6.1/test/testqueues.c" 1
 520 017c 62B6     		cpsie   i
 521              	@ 0 "" 2
 522              		.code	16
 523 017e 0028     		cmp	r0, #0
 524 0180 00D0     		beq	.LCB402
 525 0182 9CE7     		b	.L14	@long jump
 526              	.LCB402:
 527              		.loc 1 217 0
 528 0184 0023     		mov	r3, #0
 529 0186 0299     		ldr	r1, [sp, #8]
 530 0188 0222     		mov	r2, #2
 531 018a 201C     		mov	r0, r4
 532 018c FFF7FEFF 		bl	chOQWriteTimeout
 533              	.LVL44:
 534              		.loc 1 218 0
 535 0190 811E     		sub	r1, r0, #2
 536 0192 4B42     		neg	r3, r1
 537 0194 5941     		adc	r1, r1, r3
 538 0196 0A20     		mov	r0, #10
 539              	.LVL45:
 540 0198 FFF7FEFF 		bl	_test_assert
 541              	.LVL46:
 542 019c 031E     		sub	r3, r0, #0
 543 019e 00D0     		beq	.LCB420
 544 01a0 8DE7     		b	.L14	@long jump
 545              	.LCB420:
 546              		.loc 1 219 0
 547 01a2 0299     		ldr	r1, [sp, #8]
 548 01a4 201C     		mov	r0, r4
 549 01a6 0222     		mov	r2, #2
 550 01a8 FFF7FEFF 		bl	chOQWriteTimeout
 551              	.LVL47:
 552              		.loc 1 220 0
 553 01ac 811E     		sub	r1, r0, #2
 554 01ae 4B42     		neg	r3, r1
 555 01b0 5941     		adc	r1, r1, r3
 556 01b2 0B20     		mov	r0, #11
 557              	.LVL48:
 558 01b4 FFF7FEFF 		bl	_test_assert
 559              	.LVL49:
 560 01b8 0028     		cmp	r0, #0
 561 01ba 00D0     		beq	.LCB436
ARM GAS  C:\Users\3130\AppData\Local\Temp\ccaFL17a.s 			page 11


 562 01bc 7FE7     		b	.L14	@long jump
 563              	.LCB436:
 564              		.loc 1 221 0
 565              	@ 221 "../../ChibiOS_2.6.1/test/testqueues.c" 1
 566 01be 72B6     		cpsid   i
 567              	@ 0 "" 2
 568              		.code	16
 569 01c0 A568     		ldr	r5, [r4, #8]
 570 01c2 0C20     		mov	r0, #12
 571 01c4 6942     		neg	r1, r5
 572 01c6 6941     		adc	r1, r1, r5
 573 01c8 FFF7FEFF 		bl	_test_assert
 574              	.LVL50:
 575              	@ 221 "../../ChibiOS_2.6.1/test/testqueues.c" 1
 576 01cc 62B6     		cpsie   i
 577              	@ 0 "" 2
 578              		.code	16
 579 01ce 0028     		cmp	r0, #0
 580 01d0 00D0     		beq	.LCB448
 581 01d2 74E7     		b	.L14	@long jump
 582              	.LCB448:
 583              		.loc 1 224 0
 584 01d4 201C     		mov	r0, r4
 585 01d6 0021     		mov	r1, #0
 586 01d8 0A22     		mov	r2, #10
 587 01da FFF7FEFF 		bl	chOQPutTimeout
 588              	.LVL51:
 589 01de 411C     		add	r1, r0, #1
 590 01e0 4B42     		neg	r3, r1
 591 01e2 5941     		adc	r1, r1, r3
 592 01e4 0D20     		mov	r0, #13
 593 01e6 FFF7FEFF 		bl	_test_assert
 594              	.LVL52:
 595 01ea 68E7     		b	.L14
 596              	.LVL53:
 597              	.L31:
 598              	.LBE9:
 599              	.LBE11:
 600              		.loc 1 182 0 discriminator 1
 601 01ec A168     		ldr	r1, [r4, #8]
 602 01ee 4B1E     		sub	r3, r1, #1
 603 01f0 9941     		sbc	r1, r1, r3
 604 01f2 0FE7     		b	.L15
 605              	.LVL54:
 606              	.L32:
 607              	.LBB12:
 608              	.LBB10:
 609              		.loc 1 198 0
 610 01f4 A168     		ldr	r1, [r4, #8]
 611 01f6 4B1E     		sub	r3, r1, #1
 612 01f8 9941     		sbc	r1, r1, r3
 613 01fa 5AE7     		b	.L19
 614              	.L34:
 615              		.align	2
 616              	.L33:
 617 01fc 00000000 		.word	.LANCHOR0
 618 0200 00000000 		.word	.LC9
ARM GAS  C:\Users\3130\AppData\Local\Temp\ccaFL17a.s 			page 12


 619 0204 00000000 		.word	wa
 620 0208 00000000 		.word	rlist
 621 020c 00000000 		.word	thread2
 622 0210 00000000 		.word	threads
 623              	.LBE10:
 624              	.LBE12:
 625              		.cfi_endproc
 626              	.LFE13:
 627              		.size	queues2_execute, .-queues2_execute
 628 0214 C046C046 		.section	.text.queues1_execute,"ax",%progbits
 628      C046C046 
 628      C046C046 
 629              		.align	2
 630              		.p2align 4,,15
 631              		.code	16
 632              		.thumb_func
 633              		.type	queues1_execute, %function
 634              	queues1_execute:
 635              	.LFB10:
 636              		.loc 1 90 0
 637              		.cfi_startproc
 638 0000 30B5     		push	{r4, r5, lr}
 639              	.LCFI8:
 640              		.cfi_def_cfa_offset 12
 641              		.cfi_offset 4, -12
 642              		.cfi_offset 5, -8
 643              		.cfi_offset 14, -4
 644 0002 85B0     		sub	sp, sp, #20
 645              	.LCFI9:
 646              		.cfi_def_cfa_offset 32
 647              		.loc 1 95 0
 648              	@ 95 "../../ChibiOS_2.6.1/test/testqueues.c" 1
 649 0004 72B6     		cpsid   i
 650              	@ 0 "" 2
 651              		.code	16
 652 0006 884C     		ldr	r4, .L50
 653 0008 0120     		mov	r0, #1
 654 000a A268     		ldr	r2, [r4, #8]
 655 000c 5142     		neg	r1, r2
 656 000e 5141     		adc	r1, r1, r2
 657 0010 FFF7FEFF 		bl	_test_assert
 658              	.LVL55:
 659              	@ 95 "../../ChibiOS_2.6.1/test/testqueues.c" 1
 660 0014 62B6     		cpsie   i
 661              	@ 0 "" 2
 662              		.code	16
 663 0016 0028     		cmp	r0, #0
 664 0018 1ED1     		bne	.L35
 665              		.loc 1 98 0 discriminator 2
 666              	@ 98 "../../ChibiOS_2.6.1/test/testqueues.c" 1
 667 001a 72B6     		cpsid   i
 668              	@ 0 "" 2
 669              	.LVL56:
 670              		.loc 1 100 0 discriminator 2
 671              		.code	16
 672 001c 4121     		mov	r1, #65
 673 001e 201C     		mov	r0, r4
ARM GAS  C:\Users\3130\AppData\Local\Temp\ccaFL17a.s 			page 13


 674 0020 FFF7FEFF 		bl	chIQPutI
 675              	.LVL57:
 676 0024 201C     		mov	r0, r4
 677 0026 4221     		mov	r1, #66
 678 0028 FFF7FEFF 		bl	chIQPutI
 679              	.LVL58:
 680 002c 201C     		mov	r0, r4
 681 002e 4321     		mov	r1, #67
 682 0030 FFF7FEFF 		bl	chIQPutI
 683              	.LVL59:
 684 0034 201C     		mov	r0, r4
 685 0036 4421     		mov	r1, #68
 686 0038 FFF7FEFF 		bl	chIQPutI
 687              	.LVL60:
 688              		.loc 1 101 0 discriminator 2
 689              	@ 101 "../../ChibiOS_2.6.1/test/testqueues.c" 1
 690 003c 62B6     		cpsie   i
 691              	@ 0 "" 2
 692              		.loc 1 102 0 discriminator 2
 693              	@ 102 "../../ChibiOS_2.6.1/test/testqueues.c" 1
 694 003e 72B6     		cpsid   i
 695              	@ 0 "" 2
 696              		.code	16
 697 0040 6369     		ldr	r3, [r4, #20]
 698 0042 A069     		ldr	r0, [r4, #24]
 699 0044 0021     		mov	r1, #0
 700 0046 8342     		cmp	r3, r0
 701 0048 00D1     		bne	.LCB562
 702 004a E9E0     		b	.L49	@long jump
 703              	.LCB562:
 704              	.L38:
 705              		.loc 1 102 0 is_stmt 0 discriminator 4
 706 004c 0220     		mov	r0, #2
 707 004e FFF7FEFF 		bl	_test_assert
 708              	.LVL61:
 709              	@ 102 "../../ChibiOS_2.6.1/test/testqueues.c" 1
 710 0052 62B6     		cpsie   i
 711              	@ 0 "" 2
 712              		.code	16
 713 0054 0028     		cmp	r0, #0
 714 0056 01D0     		beq	.L39
 715              	.LVL62:
 716              	.L35:
 717              		.loc 1 147 0 is_stmt 1
 718 0058 05B0     		add	sp, sp, #20
 719              		@ sp needed for prologue
 720 005a 30BD     		pop	{r4, r5, pc}
 721              	.LVL63:
 722              	.L39:
 723              	.LBB15:
 724              	.LBB16:
 725              		.loc 1 103 0
 726              	@ 103 "../../ChibiOS_2.6.1/test/testqueues.c" 1
 727 005c 72B6     		cpsid   i
 728              	@ 0 "" 2
 729              		.code	16
 730 005e 0021     		mov	r1, #0
ARM GAS  C:\Users\3130\AppData\Local\Temp\ccaFL17a.s 			page 14


 731 0060 201C     		mov	r0, r4
 732 0062 FFF7FEFF 		bl	chIQPutI
 733              	.LVL64:
 734 0066 011D     		add	r1, r0, #4
 735 0068 4B42     		neg	r3, r1
 736 006a 5941     		adc	r1, r1, r3
 737 006c 0320     		mov	r0, #3
 738 006e FFF7FEFF 		bl	_test_assert
 739              	.LVL65:
 740              	@ 103 "../../ChibiOS_2.6.1/test/testqueues.c" 1
 741 0072 62B6     		cpsie   i
 742              	@ 0 "" 2
 743              		.code	16
 744 0074 0028     		cmp	r0, #0
 745 0076 EFD1     		bne	.L35
 746              	.LVL66:
 747              		.loc 1 107 0
 748 0078 0121     		mov	r1, #1
 749 007a 4942     		neg	r1, r1
 750 007c 201C     		mov	r0, r4
 751 007e FFF7FEFF 		bl	chIQGetTimeout
 752              	.LVL67:
 753 0082 0125     		mov	r5, #1
 754 0084 C0B2     		uxtb	r0, r0
 755 0086 FFF7FEFF 		bl	test_emit_token
 756              	.LVL68:
 757 008a 6942     		neg	r1, r5
 758 008c 201C     		mov	r0, r4
 759 008e FFF7FEFF 		bl	chIQGetTimeout
 760              	.LVL69:
 761 0092 C0B2     		uxtb	r0, r0
 762 0094 FFF7FEFF 		bl	test_emit_token
 763              	.LVL70:
 764 0098 0122     		mov	r2, #1
 765 009a 5142     		neg	r1, r2
 766 009c 201C     		mov	r0, r4
 767 009e FFF7FEFF 		bl	chIQGetTimeout
 768              	.LVL71:
 769 00a2 C0B2     		uxtb	r0, r0
 770 00a4 FFF7FEFF 		bl	test_emit_token
 771              	.LVL72:
 772 00a8 0123     		mov	r3, #1
 773 00aa 5942     		neg	r1, r3
 774 00ac 201C     		mov	r0, r4
 775 00ae FFF7FEFF 		bl	chIQGetTimeout
 776              	.LVL73:
 777 00b2 C0B2     		uxtb	r0, r0
 778 00b4 FFF7FEFF 		bl	test_emit_token
 779              	.LVL74:
 780              		.loc 1 108 0
 781              	@ 108 "../../ChibiOS_2.6.1/test/testqueues.c" 1
 782 00b8 72B6     		cpsid   i
 783              	@ 0 "" 2
 784              		.code	16
 785 00ba A068     		ldr	r0, [r4, #8]
 786 00bc 4142     		neg	r1, r0
 787 00be 4141     		adc	r1, r1, r0
ARM GAS  C:\Users\3130\AppData\Local\Temp\ccaFL17a.s 			page 15


 788 00c0 0420     		mov	r0, #4
 789 00c2 FFF7FEFF 		bl	_test_assert
 790              	.LVL75:
 791              	@ 108 "../../ChibiOS_2.6.1/test/testqueues.c" 1
 792 00c6 62B6     		cpsie   i
 793              	@ 0 "" 2
 794              		.code	16
 795 00c8 0028     		cmp	r0, #0
 796 00ca C5D1     		bne	.L35
 797              		.loc 1 109 0
 798 00cc 0520     		mov	r0, #5
 799 00ce 5749     		ldr	r1, .L50+4
 800 00d0 FFF7FEFF 		bl	_test_assert_sequence
 801              	.LVL76:
 802 00d4 0028     		cmp	r0, #0
 803 00d6 BFD1     		bne	.L35
 804              		.loc 1 112 0
 805              	@ 112 "../../ChibiOS_2.6.1/test/testqueues.c" 1
 806 00d8 72B6     		cpsid   i
 807              	@ 0 "" 2
 808              	.LVL77:
 809              		.loc 1 114 0
 810              		.code	16
 811 00da 4121     		mov	r1, #65
 812 00dc 201C     		mov	r0, r4
 813 00de FFF7FEFF 		bl	chIQPutI
 814              	.LVL78:
 815 00e2 201C     		mov	r0, r4
 816 00e4 4221     		mov	r1, #66
 817 00e6 FFF7FEFF 		bl	chIQPutI
 818              	.LVL79:
 819 00ea 201C     		mov	r0, r4
 820 00ec 4321     		mov	r1, #67
 821 00ee FFF7FEFF 		bl	chIQPutI
 822              	.LVL80:
 823 00f2 201C     		mov	r0, r4
 824 00f4 4421     		mov	r1, #68
 825 00f6 FFF7FEFF 		bl	chIQPutI
 826              	.LVL81:
 827              		.loc 1 115 0
 828              	@ 115 "../../ChibiOS_2.6.1/test/testqueues.c" 1
 829 00fa 62B6     		cpsie   i
 830              	@ 0 "" 2
 831              		.loc 1 118 0
 832              		.code	16
 833 00fc 4C4D     		ldr	r5, .L50+8
 834 00fe 0023     		mov	r3, #0
 835 0100 6968     		ldr	r1, [r5, #4]
 836 0102 201C     		mov	r0, r4
 837 0104 0822     		mov	r2, #8
 838 0106 0391     		str	r1, [sp, #12]
 839 0108 FFF7FEFF 		bl	chIQReadTimeout
 840              	.LVL82:
 841              		.loc 1 119 0
 842 010c 011F     		sub	r1, r0, #4
 843 010e 4B42     		neg	r3, r1
 844 0110 5941     		adc	r1, r1, r3
ARM GAS  C:\Users\3130\AppData\Local\Temp\ccaFL17a.s 			page 16


 845 0112 0620     		mov	r0, #6
 846              	.LVL83:
 847 0114 FFF7FEFF 		bl	_test_assert
 848              	.LVL84:
 849 0118 0028     		cmp	r0, #0
 850 011a 9DD1     		bne	.L35
 851              		.loc 1 120 0
 852              	@ 120 "../../ChibiOS_2.6.1/test/testqueues.c" 1
 853 011c 72B6     		cpsid   i
 854              	@ 0 "" 2
 855              		.code	16
 856 011e A268     		ldr	r2, [r4, #8]
 857 0120 0720     		mov	r0, #7
 858 0122 5142     		neg	r1, r2
 859 0124 5141     		adc	r1, r1, r2
 860 0126 FFF7FEFF 		bl	_test_assert
 861              	.LVL85:
 862              	@ 120 "../../ChibiOS_2.6.1/test/testqueues.c" 1
 863 012a 62B6     		cpsie   i
 864              	@ 0 "" 2
 865              		.code	16
 866 012c 0028     		cmp	r0, #0
 867 012e 00D0     		beq	.LCB708
 868 0130 92E7     		b	.L35	@long jump
 869              	.LCB708:
 870              		.loc 1 123 0
 871              	@ 123 "../../ChibiOS_2.6.1/test/testqueues.c" 1
 872 0132 72B6     		cpsid   i
 873              	@ 0 "" 2
 874              	.LVL86:
 875              		.loc 1 125 0
 876              		.code	16
 877 0134 4121     		mov	r1, #65
 878 0136 201C     		mov	r0, r4
 879 0138 FFF7FEFF 		bl	chIQPutI
 880              	.LVL87:
 881 013c 201C     		mov	r0, r4
 882 013e 4221     		mov	r1, #66
 883 0140 FFF7FEFF 		bl	chIQPutI
 884              	.LVL88:
 885 0144 201C     		mov	r0, r4
 886 0146 4321     		mov	r1, #67
 887 0148 FFF7FEFF 		bl	chIQPutI
 888              	.LVL89:
 889 014c 201C     		mov	r0, r4
 890 014e 4421     		mov	r1, #68
 891 0150 FFF7FEFF 		bl	chIQPutI
 892              	.LVL90:
 893              		.loc 1 126 0
 894              	@ 126 "../../ChibiOS_2.6.1/test/testqueues.c" 1
 895 0154 62B6     		cpsie   i
 896              	@ 0 "" 2
 897              		.loc 1 129 0
 898              		.code	16
 899 0156 0023     		mov	r3, #0
 900 0158 0399     		ldr	r1, [sp, #12]
 901 015a 201C     		mov	r0, r4
ARM GAS  C:\Users\3130\AppData\Local\Temp\ccaFL17a.s 			page 17


 902 015c 0222     		mov	r2, #2
 903 015e FFF7FEFF 		bl	chIQReadTimeout
 904              	.LVL91:
 905              		.loc 1 130 0
 906 0162 811E     		sub	r1, r0, #2
 907 0164 4B42     		neg	r3, r1
 908 0166 5941     		adc	r1, r1, r3
 909 0168 0820     		mov	r0, #8
 910              	.LVL92:
 911 016a FFF7FEFF 		bl	_test_assert
 912              	.LVL93:
 913 016e 0028     		cmp	r0, #0
 914 0170 00D0     		beq	.LCB748
 915 0172 71E7     		b	.L35	@long jump
 916              	.LCB748:
 917              		.loc 1 131 0
 918 0174 0399     		ldr	r1, [sp, #12]
 919 0176 0023     		mov	r3, #0
 920 0178 201C     		mov	r0, r4
 921 017a 0222     		mov	r2, #2
 922 017c FFF7FEFF 		bl	chIQReadTimeout
 923              	.LVL94:
 924              		.loc 1 132 0
 925 0180 811E     		sub	r1, r0, #2
 926 0182 4B42     		neg	r3, r1
 927 0184 5941     		adc	r1, r1, r3
 928 0186 0920     		mov	r0, #9
 929              	.LVL95:
 930 0188 FFF7FEFF 		bl	_test_assert
 931              	.LVL96:
 932 018c 0028     		cmp	r0, #0
 933 018e 00D0     		beq	.LCB765
 934 0190 62E7     		b	.L35	@long jump
 935              	.LCB765:
 936              		.loc 1 133 0
 937              	@ 133 "../../ChibiOS_2.6.1/test/testqueues.c" 1
 938 0192 72B6     		cpsid   i
 939              	@ 0 "" 2
 940              		.code	16
 941 0194 A368     		ldr	r3, [r4, #8]
 942 0196 0A20     		mov	r0, #10
 943 0198 5942     		neg	r1, r3
 944 019a 5941     		adc	r1, r1, r3
 945 019c FFF7FEFF 		bl	_test_assert
 946              	.LVL97:
 947              	@ 133 "../../ChibiOS_2.6.1/test/testqueues.c" 1
 948 01a0 62B6     		cpsie   i
 949              	@ 0 "" 2
 950              		.code	16
 951 01a2 0028     		cmp	r0, #0
 952 01a4 00D0     		beq	.LCB777
 953 01a6 57E7     		b	.L35	@long jump
 954              	.LCB777:
 955              		.loc 1 136 0
 956              	@ 136 "../../ChibiOS_2.6.1/test/testqueues.c" 1
 957 01a8 72B6     		cpsid   i
 958              	@ 0 "" 2
ARM GAS  C:\Users\3130\AppData\Local\Temp\ccaFL17a.s 			page 18


 959              		.loc 1 137 0
 960              		.code	16
 961 01aa 0021     		mov	r1, #0
 962 01ac 201C     		mov	r0, r4
 963 01ae FFF7FEFF 		bl	chIQPutI
 964              	.LVL98:
 965              		.loc 1 138 0
 966 01b2 201C     		mov	r0, r4
 967 01b4 FFF7FEFF 		bl	chIQResetI
 968              	.LVL99:
 969              		.loc 1 139 0
 970              	@ 139 "../../ChibiOS_2.6.1/test/testqueues.c" 1
 971 01b8 62B6     		cpsie   i
 972              	@ 0 "" 2
 973              		.loc 1 140 0
 974              	@ 140 "../../ChibiOS_2.6.1/test/testqueues.c" 1
 975 01ba 72B6     		cpsid   i
 976              	@ 0 "" 2
 977              		.code	16
 978 01bc A068     		ldr	r0, [r4, #8]
 979 01be 4142     		neg	r1, r0
 980 01c0 4141     		adc	r1, r1, r0
 981 01c2 0B20     		mov	r0, #11
 982 01c4 FFF7FEFF 		bl	_test_assert
 983              	.LVL100:
 984              	@ 140 "../../ChibiOS_2.6.1/test/testqueues.c" 1
 985 01c8 62B6     		cpsie   i
 986              	@ 0 "" 2
 987              		.code	16
 988 01ca 0028     		cmp	r0, #0
 989 01cc 00D0     		beq	.LCB798
 990 01ce 43E7     		b	.L35	@long jump
 991              	.LCB798:
 992              		.loc 1 141 0
 993 01d0 1849     		ldr	r1, .L50+12
 994 01d2 2D68     		ldr	r5, [r5]
 995 01d4 8A69     		ldr	r2, [r1, #24]
 996 01d6 0395     		str	r5, [sp, #12]
 997 01d8 9268     		ldr	r2, [r2, #8]
 998 01da 0023     		mov	r3, #0
 999 01dc 281C     		mov	r0, r5
 1000 01de 9825     		mov	r5, #152
 1001 01e0 0093     		str	r3, [sp]
 1002 01e2 6900     		lsl	r1, r5, #1
 1003 01e4 0132     		add	r2, r2, #1
 1004 01e6 144B     		ldr	r3, .L50+16
 1005 01e8 FFF7FEFF 		bl	chThdCreateStatic
 1006              	.LVL101:
 1007 01ec 1349     		ldr	r1, .L50+20
 1008 01ee 0860     		str	r0, [r1]
 1009              		.loc 1 142 0
 1010              	@ 142 "../../ChibiOS_2.6.1/test/testqueues.c" 1
 1011 01f0 72B6     		cpsid   i
 1012              	@ 0 "" 2
 1013              		.code	16
 1014 01f2 A068     		ldr	r0, [r4, #8]
 1015 01f4 4142     		neg	r1, r0
ARM GAS  C:\Users\3130\AppData\Local\Temp\ccaFL17a.s 			page 19


 1016 01f6 4141     		adc	r1, r1, r0
 1017 01f8 0C20     		mov	r0, #12
 1018 01fa FFF7FEFF 		bl	_test_assert
 1019              	.LVL102:
 1020              	@ 142 "../../ChibiOS_2.6.1/test/testqueues.c" 1
 1021 01fe 62B6     		cpsie   i
 1022              	@ 0 "" 2
 1023              		.code	16
 1024 0200 0028     		cmp	r0, #0
 1025 0202 00D0     		beq	.LCB826
 1026 0204 28E7     		b	.L35	@long jump
 1027              	.LCB826:
 1028              		.loc 1 143 0
 1029 0206 FFF7FEFF 		bl	test_wait_threads
 1030              	.LVL103:
 1031              		.loc 1 146 0
 1032 020a 201C     		mov	r0, r4
 1033 020c 0A21     		mov	r1, #10
 1034 020e FFF7FEFF 		bl	chIQGetTimeout
 1035              	.LVL104:
 1036 0212 411C     		add	r1, r0, #1
 1037 0214 4B42     		neg	r3, r1
 1038 0216 5941     		adc	r1, r1, r3
 1039 0218 0D20     		mov	r0, #13
 1040 021a FFF7FEFF 		bl	_test_assert
 1041              	.LVL105:
 1042 021e 1BE7     		b	.L35
 1043              	.LVL106:
 1044              	.L49:
 1045              	.LBE16:
 1046              	.LBE15:
 1047              		.loc 1 102 0 discriminator 1
 1048 0220 A168     		ldr	r1, [r4, #8]
 1049 0222 4B1E     		sub	r3, r1, #1
 1050 0224 9941     		sbc	r1, r1, r3
 1051 0226 11E7     		b	.L38
 1052              	.L51:
 1053              		.align	2
 1054              	.L50:
 1055 0228 00000000 		.word	.LANCHOR1
 1056 022c 00000000 		.word	.LC9
 1057 0230 00000000 		.word	wa
 1058 0234 00000000 		.word	rlist
 1059 0238 00000000 		.word	thread1
 1060 023c 00000000 		.word	threads
 1061              		.cfi_endproc
 1062              	.LFE10:
 1063              		.size	queues1_execute, .-queues1_execute
 1064              		.global	patternqueues
 1065              		.global	testqueues2
 1066              		.global	testqueues1
 1067              		.section	.rodata.testqueues1,"a",%progbits
 1068              		.align	2
 1069              		.type	testqueues1, %object
 1070              		.size	testqueues1, 16
 1071              	testqueues1:
 1072 0000 20000000 		.word	.LC22
ARM GAS  C:\Users\3130\AppData\Local\Temp\ccaFL17a.s 			page 20


 1073 0004 00000000 		.word	queues1_setup
 1074 0008 00000000 		.word	0
 1075 000c 00000000 		.word	queues1_execute
 1076              		.section	.rodata.testqueues2,"a",%progbits
 1077              		.align	2
 1078              		.type	testqueues2, %object
 1079              		.size	testqueues2, 16
 1080              	testqueues2:
 1081 0000 08000000 		.word	.LC21
 1082 0004 00000000 		.word	queues2_setup
 1083 0008 00000000 		.word	0
 1084 000c 00000000 		.word	queues2_execute
 1085              		.section	.rodata.str1.4,"aMS",%progbits,1
 1086              		.align	2
 1087              	.LC9:
 1088 0000 41424344 		.ascii	"ABCD\000"
 1088      00
 1089 0005 000000   		.space	3
 1090              	.LC21:
 1091 0008 51756575 		.ascii	"Queues, output queues\000"
 1091      65732C20 
 1091      6F757470 
 1091      75742071 
 1091      75657565 
 1092 001e 0000     		.space	2
 1093              	.LC22:
 1094 0020 51756575 		.ascii	"Queues, input queues\000"
 1094      65732C20 
 1094      696E7075 
 1094      74207175 
 1094      65756573 
 1095 0035 000000   		.section	.rodata.patternqueues,"a",%progbits
 1096              		.align	2
 1097              		.type	patternqueues, %object
 1098              		.size	patternqueues, 12
 1099              	patternqueues:
 1100 0000 00000000 		.word	testqueues1
 1101 0004 00000000 		.word	testqueues2
 1102 0008 00000000 		.word	0
 1103              		.section	.data.oq,"aw",%progbits
 1104              		.align	2
 1105              		.set	.LANCHOR0,. + 0
 1106              		.type	oq, %object
 1107              		.size	oq, 36
 1108              	oq:
 1109 0000 00000000 		.word	oq
 1110 0004 00000000 		.word	oq
 1111 0008 04000000 		.word	4
 1112 000c 30010000 		.word	test+304
 1113 0010 34010000 		.word	test+308
 1114 0014 30010000 		.word	test+304
 1115 0018 30010000 		.word	test+304
 1116 001c 00000000 		.word	notify
 1117 0020 00000000 		.word	0
 1118              		.section	.data.iq,"aw",%progbits
 1119              		.align	2
 1120              		.set	.LANCHOR1,. + 0
ARM GAS  C:\Users\3130\AppData\Local\Temp\ccaFL17a.s 			page 21


 1121              		.type	iq, %object
 1122              		.size	iq, 36
 1123              	iq:
 1124 0000 00000000 		.word	iq
 1125 0004 00000000 		.word	iq
 1126 0008 00000000 		.word	0
 1127 000c 00000000 		.word	test
 1128 0010 04000000 		.word	test+4
 1129 0014 00000000 		.word	test
 1130 0018 00000000 		.word	test
 1131 001c 00000000 		.word	notify
 1132 0020 00000000 		.word	0
 1133              		.text
 1134              	.Letext0:
 1135              		.file 2 "c:\\stm32f0-discovery_tools\\gcc-arm-none-eabi\\bin\\../lib/gcc/arm-none-eabi/4.7.4/inclu
 1136              		.file 3 "c:\\stm32f0-discovery_tools\\gcc-arm-none-eabi\\bin\\../lib/gcc/arm-none-eabi/4.7.4/../..
 1137              		.file 4 "../../ChibiOS_2.6.1/os/ports/GCC/ARMCMx/chtypes.h"
 1138              		.file 5 "../../ChibiOS_2.6.1/os/kernel/include/chlists.h"
 1139              		.file 6 "../../ChibiOS_2.6.1/os/kernel/include/chthreads.h"
 1140              		.file 7 "../../ChibiOS_2.6.1/os/ports/GCC/ARMCMx/chcore_v6m.h"
 1141              		.file 8 "../../ChibiOS_2.6.1/os/kernel/include/chschd.h"
 1142              		.file 9 "../../ChibiOS_2.6.1/os/kernel/include/chmtx.h"
 1143              		.file 10 "../../ChibiOS_2.6.1/os/kernel/include/chqueues.h"
 1144              		.file 11 "../../ChibiOS_2.6.1/test/test.h"