ARM GAS  C:\Users\3130\AppData\Local\Temp\cc4JqOac.s 			page 1


   1              		.cpu cortex-m0
   2              		.fpu softvfp
   3              		.eabi_attribute 20, 1
   4              		.eabi_attribute 21, 1
   5              		.eabi_attribute 23, 3
   6              		.eabi_attribute 24, 1
   7              		.eabi_attribute 25, 1
   8              		.eabi_attribute 26, 1
   9              		.eabi_attribute 30, 2
  10              		.eabi_attribute 34, 0
  11              		.eabi_attribute 18, 4
  12              		.code	16
  13              		.file	"testdyn.c"
  14              		.text
  15              	.Ltext0:
  16              		.cfi_sections	.debug_frame
  17              		.section	.text.regfind,"ax",%progbits
  18              		.align	2
  19              		.p2align 4,,15
  20              		.code	16
  21              		.thumb_func
  22              		.type	regfind, %function
  23              	regfind:
  24              	.LFB12:
  25              		.file 1 "../../ChibiOS_2.6.1/test/testdyn.c"
  26              		.loc 1 191 0
  27              		.cfi_startproc
  28              	.LVL0:
  29 0000 38B5     		push	{r3, r4, r5, lr}
  30              	.LCFI0:
  31              		.cfi_def_cfa_offset 16
  32              		.cfi_offset 3, -16
  33              		.cfi_offset 4, -12
  34              		.cfi_offset 5, -8
  35              		.cfi_offset 14, -4
  36              		.loc 1 191 0
  37 0002 051C     		mov	r5, r0
  38              		.loc 1 195 0
  39 0004 FFF7FEFF 		bl	chRegFirstThread
  40              	.LVL1:
  41              		.loc 1 193 0
  42 0008 0024     		mov	r4, #0
  43              	.LVL2:
  44              	.L2:
  45              		.loc 1 197 0 discriminator 1
  46 000a 431B     		sub	r3, r0, r5
  47 000c 5A42     		neg	r2, r3
  48 000e 5341     		adc	r3, r3, r2
  49 0010 1C43     		orr	r4, r3
  50              	.LVL3:
  51              		.loc 1 198 0 discriminator 1
  52 0012 FFF7FEFF 		bl	chRegNextThread
  53              	.LVL4:
  54              		.loc 1 199 0 discriminator 1
  55 0016 0028     		cmp	r0, #0
  56 0018 F7D1     		bne	.L2
  57              		.loc 1 201 0
ARM GAS  C:\Users\3130\AppData\Local\Temp\cc4JqOac.s 			page 2


  58 001a 201C     		mov	r0, r4
  59              	.LVL5:
  60              		@ sp needed for prologue
  61              	.LVL6:
  62              	.LVL7:
  63 001c 38BD     		pop	{r3, r4, r5, pc}
  64              		.cfi_endproc
  65              	.LFE12:
  66              		.size	regfind, .-regfind
  67 001e C046     		.section	.text.dyn3_execute,"ax",%progbits
  68              		.align	2
  69              		.p2align 4,,15
  70              		.code	16
  71              		.thumb_func
  72              		.type	dyn3_execute, %function
  73              	dyn3_execute:
  74              	.LFB14:
  75              		.loc 1 208 0
  76              		.cfi_startproc
  77              	.LVL8:
  78 0000 10B5     		push	{r4, lr}
  79              	.LCFI1:
  80              		.cfi_def_cfa_offset 8
  81              		.cfi_offset 4, -8
  82              		.cfi_offset 14, -4
  83              		.loc 1 210 0
  84 0002 434B     		ldr	r3, .L10
  85              		.loc 1 213 0
  86 0004 4349     		ldr	r1, .L10+4
  87              		.loc 1 210 0
  88 0006 9869     		ldr	r0, [r3, #24]
  89              		.loc 1 208 0
  90 0008 82B0     		sub	sp, sp, #8
  91              	.LCFI2:
  92              		.cfi_def_cfa_offset 16
  93              		.loc 1 213 0
  94 000a 8268     		ldr	r2, [r0, #8]
  95 000c 9824     		mov	r4, #152
  96 000e 0091     		str	r1, [sp]
  97 0010 414B     		ldr	r3, .L10+8
  98 0012 6100     		lsl	r1, r4, #1
  99 0014 013A     		sub	r2, r2, #1
 100 0016 4148     		ldr	r0, .L10+12
 101 0018 FFF7FEFF 		bl	chThdCreateFromHeap
 102              	.LVL9:
 103              		.loc 1 214 0
 104 001c 817F     		ldrb	r1, [r0, #30]
 105              		.loc 1 213 0
 106 001e 041C     		mov	r4, r0
 107              	.LVL10:
 108              		.loc 1 214 0
 109 0020 0139     		sub	r1, r1, #1
 110 0022 4B42     		neg	r3, r1
 111 0024 5941     		adc	r1, r1, r3
 112 0026 0120     		mov	r0, #1
 113              	.LVL11:
 114 0028 FFF7FEFF 		bl	_test_assert
ARM GAS  C:\Users\3130\AppData\Local\Temp\cc4JqOac.s 			page 3


 115              	.LVL12:
 116 002c 0028     		cmp	r0, #0
 117 002e 01D0     		beq	.L9
 118              	.L5:
 119              		.loc 1 236 0
 120 0030 02B0     		add	sp, sp, #8
 121              		@ sp needed for prologue
 122              	.LVL13:
 123 0032 10BD     		pop	{r4, pc}
 124              	.LVL14:
 125              	.L9:
 126              		.loc 1 215 0
 127 0034 201C     		mov	r0, r4
 128 0036 FFF7FEFF 		bl	chThdAddRef
 129              	.LVL15:
 130              		.loc 1 216 0
 131 003a A17F     		ldrb	r1, [r4, #30]
 132 003c 0220     		mov	r0, #2
 133 003e 0239     		sub	r1, r1, #2
 134 0040 4B42     		neg	r3, r1
 135 0042 5941     		adc	r1, r1, r3
 136 0044 FFF7FEFF 		bl	_test_assert
 137              	.LVL16:
 138 0048 0028     		cmp	r0, #0
 139 004a F1D1     		bne	.L5
 140              		.loc 1 217 0
 141 004c 201C     		mov	r0, r4
 142 004e FFF7FEFF 		bl	chThdRelease
 143              	.LVL17:
 144              		.loc 1 218 0
 145 0052 A17F     		ldrb	r1, [r4, #30]
 146 0054 0320     		mov	r0, #3
 147 0056 0139     		sub	r1, r1, #1
 148 0058 4B42     		neg	r3, r1
 149 005a 5941     		adc	r1, r1, r3
 150 005c FFF7FEFF 		bl	_test_assert
 151              	.LVL18:
 152 0060 0028     		cmp	r0, #0
 153 0062 E5D1     		bne	.L5
 154              		.loc 1 221 0
 155 0064 201C     		mov	r0, r4
 156 0066 FFF7FEFF 		bl	regfind
 157              	.LVL19:
 158 006a 011C     		mov	r1, r0
 159 006c 0420     		mov	r0, #4
 160 006e FFF7FEFF 		bl	_test_assert
 161              	.LVL20:
 162 0072 0028     		cmp	r0, #0
 163 0074 DCD1     		bne	.L5
 164              		.loc 1 222 0
 165 0076 201C     		mov	r0, r4
 166 0078 FFF7FEFF 		bl	regfind
 167              	.LVL21:
 168 007c 011C     		mov	r1, r0
 169 007e 0520     		mov	r0, #5
 170 0080 FFF7FEFF 		bl	_test_assert
 171              	.LVL22:
ARM GAS  C:\Users\3130\AppData\Local\Temp\cc4JqOac.s 			page 4


 172 0084 0028     		cmp	r0, #0
 173 0086 D3D1     		bne	.L5
 174              		.loc 1 225 0
 175 0088 201C     		mov	r0, r4
 176 008a FFF7FEFF 		bl	chThdRelease
 177              	.LVL23:
 178              		.loc 1 226 0
 179 008e A17F     		ldrb	r1, [r4, #30]
 180 0090 0620     		mov	r0, #6
 181 0092 4B42     		neg	r3, r1
 182 0094 5941     		adc	r1, r1, r3
 183 0096 FFF7FEFF 		bl	_test_assert
 184              	.LVL24:
 185 009a 0028     		cmp	r0, #0
 186 009c C8D1     		bne	.L5
 187              		.loc 1 227 0
 188 009e 217F     		ldrb	r1, [r4, #28]
 189 00a0 0720     		mov	r0, #7
 190 00a2 4B42     		neg	r3, r1
 191 00a4 5941     		adc	r1, r1, r3
 192 00a6 FFF7FEFF 		bl	_test_assert
 193              	.LVL25:
 194 00aa 0028     		cmp	r0, #0
 195 00ac C0D1     		bne	.L5
 196              		.loc 1 228 0
 197 00ae 201C     		mov	r0, r4
 198 00b0 FFF7FEFF 		bl	regfind
 199              	.LVL26:
 200 00b4 011C     		mov	r1, r0
 201 00b6 0820     		mov	r0, #8
 202 00b8 FFF7FEFF 		bl	_test_assert
 203              	.LVL27:
 204 00bc 0028     		cmp	r0, #0
 205 00be B7D1     		bne	.L5
 206              		.loc 1 229 0
 207 00c0 201C     		mov	r0, r4
 208 00c2 FFF7FEFF 		bl	regfind
 209              	.LVL28:
 210 00c6 011C     		mov	r1, r0
 211 00c8 0920     		mov	r0, #9
 212 00ca FFF7FEFF 		bl	_test_assert
 213              	.LVL29:
 214 00ce 0028     		cmp	r0, #0
 215 00d0 AED1     		bne	.L5
 216              		.loc 1 230 0
 217 00d2 3220     		mov	r0, #50
 218 00d4 FFF7FEFF 		bl	chThdSleep
 219              	.LVL30:
 220              		.loc 1 231 0
 221 00d8 217F     		ldrb	r1, [r4, #28]
 222 00da 0A20     		mov	r0, #10
 223 00dc 0E39     		sub	r1, r1, #14
 224 00de 4B42     		neg	r3, r1
 225 00e0 5941     		adc	r1, r1, r3
 226 00e2 FFF7FEFF 		bl	_test_assert
 227              	.LVL31:
 228 00e6 0028     		cmp	r0, #0
ARM GAS  C:\Users\3130\AppData\Local\Temp\cc4JqOac.s 			page 5


 229 00e8 A2D1     		bne	.L5
 230              		.loc 1 234 0
 231 00ea 201C     		mov	r0, r4
 232 00ec FFF7FEFF 		bl	regfind
 233              	.LVL32:
 234 00f0 011C     		mov	r1, r0
 235 00f2 0B20     		mov	r0, #11
 236 00f4 FFF7FEFF 		bl	_test_assert
 237              	.LVL33:
 238 00f8 0028     		cmp	r0, #0
 239 00fa 99D1     		bne	.L5
 240              		.loc 1 235 0
 241 00fc 201C     		mov	r0, r4
 242 00fe FFF7FEFF 		bl	regfind
 243              	.LVL34:
 244 0102 0122     		mov	r2, #1
 245 0104 4240     		eor	r2, r0
 246 0106 D1B2     		uxtb	r1, r2
 247 0108 0C20     		mov	r0, #12
 248 010a FFF7FEFF 		bl	_test_assert
 249              	.LVL35:
 250 010e 8FE7     		b	.L5
 251              	.L11:
 252              		.align	2
 253              	.L10:
 254 0110 00000000 		.word	rlist
 255 0114 00000000 		.word	.LC3
 256 0118 00000000 		.word	thread
 257 011c 00000000 		.word	.LANCHOR0
 258              		.cfi_endproc
 259              	.LFE14:
 260              		.size	dyn3_execute, .-dyn3_execute
 261              		.section	.text.thread,"ax",%progbits
 262              		.align	2
 263              		.p2align 4,,15
 264              		.code	16
 265              		.thumb_func
 266              		.type	thread, %function
 267              	thread:
 268              	.LFB7:
 269              		.loc 1 71 0
 270              		.cfi_startproc
 271              	.LVL36:
 272 0000 08B5     		push	{r3, lr}
 273              	.LCFI3:
 274              		.cfi_def_cfa_offset 8
 275              		.cfi_offset 3, -8
 276              		.cfi_offset 14, -4
 277              		.loc 1 73 0
 278 0002 0078     		ldrb	r0, [r0]
 279              	.LVL37:
 280 0004 FFF7FEFF 		bl	test_emit_token
 281              	.LVL38:
 282              		.loc 1 75 0
 283              		@ sp needed for prologue
 284 0008 0020     		mov	r0, #0
 285 000a 08BD     		pop	{r3, pc}
ARM GAS  C:\Users\3130\AppData\Local\Temp\cc4JqOac.s 			page 6


 286              		.cfi_endproc
 287              	.LFE7:
 288              		.size	thread, .-thread
 289 000c C046C046 		.section	.text.dyn3_setup,"ax",%progbits
 290              		.align	2
 291              		.p2align 4,,15
 292              		.code	16
 293              		.thumb_func
 294              		.type	dyn3_setup, %function
 295              	dyn3_setup:
 296              	.LFB13:
 297              		.loc 1 203 0
 298              		.cfi_startproc
 299 0000 08B5     		push	{r3, lr}
 300              	.LCFI4:
 301              		.cfi_def_cfa_offset 8
 302              		.cfi_offset 3, -8
 303              		.cfi_offset 14, -4
 304              		.loc 1 205 0
 305 0002 BE22     		mov	r2, #190
 306 0004 0248     		ldr	r0, .L14
 307 0006 0349     		ldr	r1, .L14+4
 308 0008 D200     		lsl	r2, r2, #3
 309 000a FFF7FEFF 		bl	chHeapInit
 310              	.LVL39:
 311              		.loc 1 206 0
 312              		@ sp needed for prologue
 313 000e 08BD     		pop	{r3, pc}
 314              	.L15:
 315              		.align	2
 316              	.L14:
 317 0010 00000000 		.word	.LANCHOR0
 318 0014 00000000 		.word	test
 319              		.cfi_endproc
 320              	.LFE13:
 321              		.size	dyn3_setup, .-dyn3_setup
 322 0018 C046C046 		.section	.text.dyn1_setup,"ax",%progbits
 322      C046C046 
 323              		.align	2
 324              		.p2align 4,,15
 325              		.code	16
 326              		.thumb_func
 327              		.type	dyn1_setup, %function
 328              	dyn1_setup:
 329              	.LFB8:
 330              		.loc 1 78 0
 331              		.cfi_startproc
 332 0000 08B5     		push	{r3, lr}
 333              	.LCFI5:
 334              		.cfi_def_cfa_offset 8
 335              		.cfi_offset 3, -8
 336              		.cfi_offset 14, -4
 337              		.loc 1 80 0
 338 0002 BE22     		mov	r2, #190
 339 0004 0248     		ldr	r0, .L17
 340 0006 0349     		ldr	r1, .L17+4
 341 0008 D200     		lsl	r2, r2, #3
ARM GAS  C:\Users\3130\AppData\Local\Temp\cc4JqOac.s 			page 7


 342 000a FFF7FEFF 		bl	chHeapInit
 343              	.LVL40:
 344              		.loc 1 81 0
 345              		@ sp needed for prologue
 346 000e 08BD     		pop	{r3, pc}
 347              	.L18:
 348              		.align	2
 349              	.L17:
 350 0010 00000000 		.word	.LANCHOR0
 351 0014 00000000 		.word	test
 352              		.cfi_endproc
 353              	.LFE8:
 354              		.size	dyn1_setup, .-dyn1_setup
 355 0018 C046C046 		.section	.text.dyn2_execute,"ax",%progbits
 355      C046C046 
 356              		.align	2
 357              		.p2align 4,,15
 358              		.code	16
 359              		.thumb_func
 360              		.type	dyn2_execute, %function
 361              	dyn2_execute:
 362              	.LFB11:
 363              		.loc 1 141 0
 364              		.cfi_startproc
 365 0000 F0B5     		push	{r4, r5, r6, r7, lr}
 366              	.LCFI6:
 367              		.cfi_def_cfa_offset 20
 368              		.cfi_offset 4, -20
 369              		.cfi_offset 5, -16
 370              		.cfi_offset 6, -12
 371              		.cfi_offset 7, -8
 372              		.cfi_offset 14, -4
 373              		.loc 1 143 0
 374 0002 4D4B     		ldr	r3, .L29
 375              		.loc 1 147 0
 376 0004 4D4D     		ldr	r5, .L29+4
 377 0006 4E4C     		ldr	r4, .L29+8
 378              		.loc 1 143 0
 379 0008 9869     		ldr	r0, [r3, #24]
 380              		.loc 1 147 0
 381 000a 2968     		ldr	r1, [r5]
 382              		.loc 1 141 0
 383 000c 83B0     		sub	sp, sp, #12
 384              	.LCFI7:
 385              		.cfi_def_cfa_offset 32
 386              		.loc 1 143 0
 387 000e 8768     		ldr	r7, [r0, #8]
 388              	.LVL41:
 389              		.loc 1 147 0
 390 0010 201C     		mov	r0, r4
 391 0012 0191     		str	r1, [sp, #4]
 392 0014 FFF7FEFF 		bl	chPoolFree
 393              	.LVL42:
 394 0018 6A68     		ldr	r2, [r5, #4]
 395 001a 201C     		mov	r0, r4
 396 001c 111C     		mov	r1, r2
 397 001e 0192     		str	r2, [sp, #4]
ARM GAS  C:\Users\3130\AppData\Local\Temp\cc4JqOac.s 			page 8


 398 0020 FFF7FEFF 		bl	chPoolFree
 399              	.LVL43:
 400 0024 AE68     		ldr	r6, [r5, #8]
 401 0026 201C     		mov	r0, r4
 402 0028 311C     		mov	r1, r6
 403 002a 0196     		str	r6, [sp, #4]
 404 002c FFF7FEFF 		bl	chPoolFree
 405              	.LVL44:
 406 0030 EB68     		ldr	r3, [r5, #12]
 407 0032 201C     		mov	r0, r4
 408 0034 191C     		mov	r1, r3
 409 0036 0193     		str	r3, [sp, #4]
 410 0038 FFF7FEFF 		bl	chPoolFree
 411              	.LVL45:
 412              		.loc 1 150 0
 413 003c 414E     		ldr	r6, .L29+12
 414 003e 791E     		sub	r1, r7, #1
 415 0040 321C     		mov	r2, r6
 416 0042 414B     		ldr	r3, .L29+16
 417 0044 201C     		mov	r0, r4
 418 0046 FFF7FEFF 		bl	chThdCreateFromMemoryPool
 419              	.LVL46:
 420 004a 404D     		ldr	r5, .L29+20
 421              		.loc 1 151 0
 422 004c B91E     		sub	r1, r7, #2
 423              		.loc 1 150 0
 424 004e 2860     		str	r0, [r5]
 425              		.loc 1 151 0
 426 0050 321C     		mov	r2, r6
 427 0052 3F4B     		ldr	r3, .L29+24
 428 0054 201C     		mov	r0, r4
 429 0056 FFF7FEFF 		bl	chThdCreateFromMemoryPool
 430              	.LVL47:
 431              		.loc 1 152 0
 432 005a F91E     		sub	r1, r7, #3
 433              		.loc 1 151 0
 434 005c 6860     		str	r0, [r5, #4]
 435              		.loc 1 152 0
 436 005e 321C     		mov	r2, r6
 437 0060 3C4B     		ldr	r3, .L29+28
 438 0062 201C     		mov	r0, r4
 439 0064 FFF7FEFF 		bl	chThdCreateFromMemoryPool
 440              	.LVL48:
 441              		.loc 1 153 0
 442 0068 391F     		sub	r1, r7, #4
 443              		.loc 1 152 0
 444 006a A860     		str	r0, [r5, #8]
 445              		.loc 1 153 0
 446 006c 321C     		mov	r2, r6
 447 006e 3A4B     		ldr	r3, .L29+32
 448 0070 201C     		mov	r0, r4
 449 0072 FFF7FEFF 		bl	chThdCreateFromMemoryPool
 450              	.LVL49:
 451              		.loc 1 154 0
 452 0076 791F     		sub	r1, r7, #5
 453              		.loc 1 153 0
 454 0078 E860     		str	r0, [r5, #12]
ARM GAS  C:\Users\3130\AppData\Local\Temp\cc4JqOac.s 			page 9


 455              		.loc 1 154 0
 456 007a 321C     		mov	r2, r6
 457 007c 201C     		mov	r0, r4
 458 007e 374B     		ldr	r3, .L29+36
 459 0080 FFF7FEFF 		bl	chThdCreateFromMemoryPool
 460              	.LVL50:
 461              		.loc 1 156 0
 462 0084 2F68     		ldr	r7, [r5]
 463              	.LVL51:
 464              		.loc 1 154 0
 465 0086 2861     		str	r0, [r5, #16]
 466              		.loc 1 156 0
 467 0088 002F     		cmp	r7, #0
 468 008a 11D0     		beq	.L27
 469              		.loc 1 156 0 is_stmt 0 discriminator 1
 470 008c 6968     		ldr	r1, [r5, #4]
 471 008e 0029     		cmp	r1, #0
 472 0090 0ED0     		beq	.L27
 473              		.loc 1 156 0 discriminator 3
 474 0092 AA68     		ldr	r2, [r5, #8]
 475 0094 002A     		cmp	r2, #0
 476 0096 0BD0     		beq	.L27
 477              		.loc 1 156 0 discriminator 4
 478 0098 EB68     		ldr	r3, [r5, #12]
 479 009a 002B     		cmp	r3, #0
 480 009c 08D0     		beq	.L27
 481              		.loc 1 156 0 discriminator 5
 482 009e 4142     		neg	r1, r0
 483 00a0 4141     		adc	r1, r1, r0
 484 00a2 0120     		mov	r0, #1
 485 00a4 FFF7FEFF 		bl	_test_assert
 486              	.LVL52:
 487 00a8 0028     		cmp	r0, #0
 488 00aa 07D0     		beq	.L28
 489              	.LVL53:
 490              	.L19:
 491              		.loc 1 171 0 is_stmt 1
 492 00ac 03B0     		add	sp, sp, #12
 493              		@ sp needed for prologue
 494 00ae F0BD     		pop	{r4, r5, r6, r7, pc}
 495              	.LVL54:
 496              	.L27:
 497              		.loc 1 156 0
 498 00b0 0021     		mov	r1, #0
 499 00b2 0120     		mov	r0, #1
 500 00b4 FFF7FEFF 		bl	_test_assert
 501              	.LVL55:
 502 00b8 0028     		cmp	r0, #0
 503 00ba F7D1     		bne	.L19
 504              	.L28:
 505              		.loc 1 164 0
 506 00bc FFF7FEFF 		bl	test_wait_threads
 507              	.LVL56:
 508              		.loc 1 165 0
 509 00c0 0220     		mov	r0, #2
 510 00c2 2749     		ldr	r1, .L29+40
 511 00c4 FFF7FEFF 		bl	_test_assert_sequence
ARM GAS  C:\Users\3130\AppData\Local\Temp\cc4JqOac.s 			page 10


 512              	.LVL57:
 513 00c8 0028     		cmp	r0, #0
 514 00ca EFD1     		bne	.L19
 515              		.loc 1 169 0
 516 00cc 201C     		mov	r0, r4
 517 00ce FFF7FEFF 		bl	chPoolAlloc
 518              	.LVL58:
 519 00d2 011C     		mov	r1, r0
 520 00d4 481E     		sub	r0, r1, #1
 521 00d6 8141     		sbc	r1, r1, r0
 522 00d8 0320     		mov	r0, #3
 523 00da FFF7FEFF 		bl	_test_assert
 524              	.LVL59:
 525 00de 0028     		cmp	r0, #0
 526 00e0 E4D1     		bne	.L19
 527              	.LVL60:
 528 00e2 201C     		mov	r0, r4
 529 00e4 FFF7FEFF 		bl	chPoolAlloc
 530              	.LVL61:
 531 00e8 011C     		mov	r1, r0
 532 00ea 481E     		sub	r0, r1, #1
 533 00ec 8141     		sbc	r1, r1, r0
 534 00ee 0320     		mov	r0, #3
 535 00f0 FFF7FEFF 		bl	_test_assert
 536              	.LVL62:
 537 00f4 0028     		cmp	r0, #0
 538 00f6 D9D1     		bne	.L19
 539              	.LVL63:
 540 00f8 201C     		mov	r0, r4
 541 00fa FFF7FEFF 		bl	chPoolAlloc
 542              	.LVL64:
 543 00fe 011C     		mov	r1, r0
 544 0100 481E     		sub	r0, r1, #1
 545 0102 8141     		sbc	r1, r1, r0
 546 0104 0320     		mov	r0, #3
 547 0106 FFF7FEFF 		bl	_test_assert
 548              	.LVL65:
 549 010a 0028     		cmp	r0, #0
 550 010c CED1     		bne	.L19
 551              	.LVL66:
 552 010e 201C     		mov	r0, r4
 553 0110 FFF7FEFF 		bl	chPoolAlloc
 554              	.LVL67:
 555 0114 011C     		mov	r1, r0
 556 0116 481E     		sub	r0, r1, #1
 557 0118 8141     		sbc	r1, r1, r0
 558 011a 0320     		mov	r0, #3
 559 011c FFF7FEFF 		bl	_test_assert
 560              	.LVL68:
 561 0120 0028     		cmp	r0, #0
 562 0122 C3D1     		bne	.L19
 563              	.LVL69:
 564              		.loc 1 170 0
 565 0124 201C     		mov	r0, r4
 566 0126 FFF7FEFF 		bl	chPoolAlloc
 567              	.LVL70:
 568 012a 4142     		neg	r1, r0
ARM GAS  C:\Users\3130\AppData\Local\Temp\cc4JqOac.s 			page 11


 569 012c 4141     		adc	r1, r1, r0
 570 012e 0420     		mov	r0, #4
 571 0130 FFF7FEFF 		bl	_test_assert
 572              	.LVL71:
 573 0134 BAE7     		b	.L19
 574              	.L30:
 575 0136 C046     		.align	2
 576              	.L29:
 577 0138 00000000 		.word	rlist
 578 013c 00000000 		.word	wa
 579 0140 00000000 		.word	.LANCHOR1
 580 0144 00000000 		.word	thread
 581 0148 00000000 		.word	.LC3
 582 014c 00000000 		.word	threads
 583 0150 04000000 		.word	.LC15
 584 0154 08000000 		.word	.LC17
 585 0158 0C000000 		.word	.LC19
 586 015c 10000000 		.word	.LC21
 587 0160 14000000 		.word	.LC23
 588              		.cfi_endproc
 589              	.LFE11:
 590              		.size	dyn2_execute, .-dyn2_execute
 591 0164 C046C046 		.section	.text.dyn2_setup,"ax",%progbits
 591      C046C046 
 591      C046C046 
 592              		.align	2
 593              		.p2align 4,,15
 594              		.code	16
 595              		.thumb_func
 596              		.type	dyn2_setup, %function
 597              	dyn2_setup:
 598              	.LFB10:
 599              		.loc 1 136 0
 600              		.cfi_startproc
 601 0000 08B5     		push	{r3, lr}
 602              	.LCFI8:
 603              		.cfi_def_cfa_offset 8
 604              		.cfi_offset 3, -8
 605              		.cfi_offset 14, -4
 606              		.loc 1 138 0
 607 0002 9821     		mov	r1, #152
 608 0004 0248     		ldr	r0, .L32
 609 0006 4900     		lsl	r1, r1, #1
 610 0008 0022     		mov	r2, #0
 611 000a FFF7FEFF 		bl	chPoolInit
 612              	.LVL72:
 613              		.loc 1 139 0
 614              		@ sp needed for prologue
 615 000e 08BD     		pop	{r3, pc}
 616              	.L33:
 617              		.align	2
 618              	.L32:
 619 0010 00000000 		.word	.LANCHOR1
 620              		.cfi_endproc
 621              	.LFE10:
 622              		.size	dyn2_setup, .-dyn2_setup
 623 0014 C046C046 		.section	.text.dyn1_execute,"ax",%progbits
ARM GAS  C:\Users\3130\AppData\Local\Temp\cc4JqOac.s 			page 12


 623      C046C046 
 623      C046C046 
 624              		.align	2
 625              		.p2align 4,,15
 626              		.code	16
 627              		.thumb_func
 628              		.type	dyn1_execute, %function
 629              	dyn1_execute:
 630              	.LFB9:
 631              		.loc 1 83 0
 632              		.cfi_startproc
 633 0000 F0B5     		push	{r4, r5, r6, r7, lr}
 634              	.LCFI9:
 635              		.cfi_def_cfa_offset 20
 636              		.cfi_offset 4, -20
 637              		.cfi_offset 5, -16
 638              		.cfi_offset 6, -12
 639              		.cfi_offset 7, -8
 640              		.cfi_offset 14, -4
 641 0002 4746     		mov	r7, r8
 642 0004 80B4     		push	{r7}
 643              	.LCFI10:
 644              		.cfi_def_cfa_offset 24
 645              		.cfi_offset 8, -24
 646              		.loc 1 86 0
 647 0006 374B     		ldr	r3, .L44
 648              		.loc 1 88 0
 649 0008 374C     		ldr	r4, .L44+4
 650              		.loc 1 86 0
 651 000a 9869     		ldr	r0, [r3, #24]
 652              		.loc 1 83 0
 653 000c 84B0     		sub	sp, sp, #16
 654              	.LCFI11:
 655              		.cfi_def_cfa_offset 40
 656              		.loc 1 86 0
 657 000e 8768     		ldr	r7, [r0, #8]
 658              	.LVL73:
 659              		.loc 1 88 0
 660 0010 03A9     		add	r1, sp, #12
 661 0012 201C     		mov	r0, r4
 662 0014 FFF7FEFF 		bl	chHeapStatus
 663              	.LVL74:
 664              		.loc 1 90 0
 665 0018 344E     		ldr	r6, .L44+8
 666 001a 3549     		ldr	r1, .L44+12
 667 001c 9825     		mov	r5, #152
 668 001e 7A1E     		sub	r2, r7, #1
 669 0020 0091     		str	r1, [sp]
 670 0022 331C     		mov	r3, r6
 671 0024 6900     		lsl	r1, r5, #1
 672 0026 201C     		mov	r0, r4
 673 0028 FFF7FEFF 		bl	chThdCreateFromHeap
 674              	.LVL75:
 675 002c 314D     		ldr	r5, .L44+16
 676              		.loc 1 92 0
 677 002e 324B     		ldr	r3, .L44+20
 678 0030 9821     		mov	r1, #152
ARM GAS  C:\Users\3130\AppData\Local\Temp\cc4JqOac.s 			page 13


 679 0032 BA1E     		sub	r2, r7, #2
 680              		.loc 1 90 0
 681 0034 2860     		str	r0, [r5]
 682              		.loc 1 92 0
 683 0036 4900     		lsl	r1, r1, #1
 684 0038 0093     		str	r3, [sp]
 685 003a 201C     		mov	r0, r4
 686 003c 331C     		mov	r3, r6
 687 003e FFF7FEFF 		bl	chThdCreateFromHeap
 688              	.LVL76:
 689              		.loc 1 95 0
 690 0042 02A9     		add	r1, sp, #8
 691              		.loc 1 92 0
 692 0044 6860     		str	r0, [r5, #4]
 693              		.loc 1 95 0
 694 0046 201C     		mov	r0, r4
 695 0048 FFF7FEFF 		bl	chHeapStatus
 696              	.LVL77:
 697              		.loc 1 96 0
 698 004c 0299     		ldr	r1, [sp, #8]
 699 004e 201C     		mov	r0, r4
 700 0050 FFF7FEFF 		bl	chHeapAlloc
 701              	.LVL78:
 702 0054 8046     		mov	r8, r0
 703              	.LVL79:
 704              		.loc 1 97 0
 705 0056 2948     		ldr	r0, .L44+24
 706              	.LVL80:
 707 0058 FA1E     		sub	r2, r7, #3
 708 005a 9827     		mov	r7, #152
 709              	.LVL81:
 710 005c 0090     		str	r0, [sp]
 711 005e 7900     		lsl	r1, r7, #1
 712 0060 331C     		mov	r3, r6
 713 0062 201C     		mov	r0, r4
 714 0064 FFF7FEFF 		bl	chThdCreateFromHeap
 715              	.LVL82:
 716 0068 A860     		str	r0, [r5, #8]
 717              		.loc 1 99 0
 718 006a 4046     		mov	r0, r8
 719 006c FFF7FEFF 		bl	chHeapFree
 720              	.LVL83:
 721              		.loc 1 101 0
 722 0070 2A68     		ldr	r2, [r5]
 723 0072 002A     		cmp	r2, #0
 724 0074 2CD0     		beq	.L38
 725              		.loc 1 101 0 is_stmt 0 discriminator 1
 726 0076 6E68     		ldr	r6, [r5, #4]
 727 0078 0021     		mov	r1, #0
 728 007a 002E     		cmp	r6, #0
 729 007c 02D0     		beq	.L35
 730              		.loc 1 101 0 discriminator 3
 731 007e AB68     		ldr	r3, [r5, #8]
 732 0080 002B     		cmp	r3, #0
 733 0082 27D0     		beq	.L42
 734              	.L35:
 735              		.loc 1 101 0 discriminator 7
ARM GAS  C:\Users\3130\AppData\Local\Temp\cc4JqOac.s 			page 14


 736 0084 0120     		mov	r0, #1
 737 0086 FFF7FEFF 		bl	_test_assert
 738              	.LVL84:
 739 008a 0028     		cmp	r0, #0
 740 008c 03D0     		beq	.L43
 741              	.LVL85:
 742              	.L34:
 743              		.loc 1 115 0 is_stmt 1
 744 008e 04B0     		add	sp, sp, #16
 745              		@ sp needed for prologue
 746              	.LVL86:
 747 0090 04BC     		pop	{r2}
 748 0092 9046     		mov	r8, r2
 749 0094 F0BD     		pop	{r4, r5, r6, r7, pc}
 750              	.LVL87:
 751              	.L43:
 752              		.loc 1 109 0
 753 0096 FFF7FEFF 		bl	test_wait_threads
 754              	.LVL88:
 755              		.loc 1 110 0
 756 009a 0220     		mov	r0, #2
 757 009c 1849     		ldr	r1, .L44+28
 758 009e FFF7FEFF 		bl	_test_assert_sequence
 759              	.LVL89:
 760 00a2 0028     		cmp	r0, #0
 761 00a4 F3D1     		bne	.L34
 762              		.loc 1 113 0
 763 00a6 02A9     		add	r1, sp, #8
 764 00a8 201C     		mov	r0, r4
 765 00aa FFF7FEFF 		bl	chHeapStatus
 766              	.LVL90:
 767 00ae 411E     		sub	r1, r0, #1
 768 00b0 4B42     		neg	r3, r1
 769 00b2 5941     		adc	r1, r1, r3
 770 00b4 0320     		mov	r0, #3
 771 00b6 FFF7FEFF 		bl	_test_assert
 772              	.LVL91:
 773 00ba 0028     		cmp	r0, #0
 774 00bc E7D1     		bne	.L34
 775              		.loc 1 114 0
 776 00be 029C     		ldr	r4, [sp, #8]
 777              	.LVL92:
 778 00c0 039D     		ldr	r5, [sp, #12]
 779 00c2 0420     		mov	r0, #4
 780 00c4 611B     		sub	r1, r4, r5
 781 00c6 4B42     		neg	r3, r1
 782 00c8 5941     		adc	r1, r1, r3
 783 00ca FFF7FEFF 		bl	_test_assert
 784              	.LVL93:
 785 00ce DEE7     		b	.L34
 786              	.LVL94:
 787              	.L38:
 788              		.loc 1 101 0
 789 00d0 0021     		mov	r1, #0
 790 00d2 D7E7     		b	.L35
 791              	.L42:
 792              		.loc 1 101 0 is_stmt 0 discriminator 4
ARM GAS  C:\Users\3130\AppData\Local\Temp\cc4JqOac.s 			page 15


 793 00d4 E868     		ldr	r0, [r5, #12]
 794 00d6 0028     		cmp	r0, #0
 795 00d8 D4D1     		bne	.L35
 796              		.loc 1 101 0 discriminator 5
 797 00da 2969     		ldr	r1, [r5, #16]
 798 00dc 4B42     		neg	r3, r1
 799 00de 5941     		adc	r1, r1, r3
 800 00e0 D0E7     		b	.L35
 801              	.L45:
 802 00e2 C046     		.align	2
 803              	.L44:
 804 00e4 00000000 		.word	rlist
 805 00e8 00000000 		.word	.LANCHOR0
 806 00ec 00000000 		.word	thread
 807 00f0 00000000 		.word	.LC3
 808 00f4 00000000 		.word	threads
 809 00f8 04000000 		.word	.LC15
 810 00fc 08000000 		.word	.LC17
 811 0100 1C000000 		.word	.LC33
 812              		.cfi_endproc
 813              	.LFE9:
 814              		.size	dyn1_execute, .-dyn1_execute
 815              		.global	patterndyn
 816              		.global	testdyn3
 817              		.global	testdyn2
 818              		.global	testdyn1
 819 0104 C046C046 		.section	.rodata.testdyn1,"a",%progbits
 819      C046C046 
 819      C046C046 
 820              		.align	2
 821              		.type	testdyn1, %object
 822              		.size	testdyn1, 16
 823              	testdyn1:
 824 0000 78000000 		.word	.LC37
 825 0004 00000000 		.word	dyn1_setup
 826 0008 00000000 		.word	0
 827 000c 00000000 		.word	dyn1_execute
 828              		.section	.rodata.testdyn2,"a",%progbits
 829              		.align	2
 830              		.type	testdyn2, %object
 831              		.size	testdyn2, 16
 832              	testdyn2:
 833 0000 48000000 		.word	.LC36
 834 0004 00000000 		.word	dyn2_setup
 835 0008 00000000 		.word	0
 836 000c 00000000 		.word	dyn2_execute
 837              		.section	.rodata.testdyn3,"a",%progbits
 838              		.align	2
 839              		.type	testdyn3, %object
 840              		.size	testdyn3, 16
 841              	testdyn3:
 842 0000 20000000 		.word	.LC35
 843 0004 00000000 		.word	dyn3_setup
 844 0008 00000000 		.word	0
 845 000c 00000000 		.word	dyn3_execute
 846              		.section	.bss.mp1,"aw",%nobits
 847              		.align	2
ARM GAS  C:\Users\3130\AppData\Local\Temp\cc4JqOac.s 			page 16


 848              		.set	.LANCHOR1,. + 0
 849              		.type	mp1, %object
 850              		.size	mp1, 12
 851              	mp1:
 852 0000 00000000 		.space	12
 852      00000000 
 852      00000000 
 853              		.section	.rodata.str1.4,"aMS",%progbits,1
 854              		.align	2
 855              	.LC3:
 856 0000 4100     		.ascii	"A\000"
 857 0002 0000     		.space	2
 858              	.LC15:
 859 0004 4200     		.ascii	"B\000"
 860 0006 0000     		.space	2
 861              	.LC17:
 862 0008 4300     		.ascii	"C\000"
 863 000a 0000     		.space	2
 864              	.LC19:
 865 000c 4400     		.ascii	"D\000"
 866 000e 0000     		.space	2
 867              	.LC21:
 868 0010 4500     		.ascii	"E\000"
 869 0012 0000     		.space	2
 870              	.LC23:
 871 0014 41424344 		.ascii	"ABCD\000"
 871      00
 872 0019 000000   		.space	3
 873              	.LC33:
 874 001c 414200   		.ascii	"AB\000"
 875 001f 00       		.space	1
 876              	.LC35:
 877 0020 44796E61 		.ascii	"Dynamic APIs, registry and references\000"
 877      6D696320 
 877      41504973 
 877      2C207265 
 877      67697374 
 878 0046 0000     		.space	2
 879              	.LC36:
 880 0048 44796E61 		.ascii	"Dynamic APIs, threads creation from memory pool\000"
 880      6D696320 
 880      41504973 
 880      2C207468 
 880      72656164 
 881              	.LC37:
 882 0078 44796E61 		.ascii	"Dynamic APIs, threads creation from heap\000"
 882      6D696320 
 882      41504973 
 882      2C207468 
 882      72656164 
 883 00a1 000000   		.section	.rodata.patterndyn,"a",%progbits
 884              		.align	2
 885              		.type	patterndyn, %object
 886              		.size	patterndyn, 16
 887              	patterndyn:
 888 0000 00000000 		.word	testdyn1
 889 0004 00000000 		.word	testdyn2
ARM GAS  C:\Users\3130\AppData\Local\Temp\cc4JqOac.s 			page 17


 890 0008 00000000 		.word	testdyn3
 891 000c 00000000 		.word	0
 892              		.section	.bss.heap1,"aw",%nobits
 893              		.align	3
 894              		.set	.LANCHOR0,. + 0
 895              		.type	heap1, %object
 896              		.size	heap1, 32
 897              	heap1:
 898 0000 00000000 		.space	32
 898      00000000 
 898      00000000 
 898      00000000 
 898      00000000 
 899              		.text
 900              	.Letext0:
 901              		.file 2 "c:\\stm32f0-discovery_tools\\gcc-arm-none-eabi\\bin\\../lib/gcc/arm-none-eabi/4.7.4/inclu
 902              		.file 3 "c:\\stm32f0-discovery_tools\\gcc-arm-none-eabi\\bin\\../lib/gcc/arm-none-eabi/4.7.4/../..
 903              		.file 4 "../../ChibiOS_2.6.1/os/ports/GCC/ARMCMx/chtypes.h"
 904              		.file 5 "../../ChibiOS_2.6.1/os/kernel/include/chlists.h"
 905              		.file 6 "../../ChibiOS_2.6.1/os/kernel/include/chthreads.h"
 906              		.file 7 "../../ChibiOS_2.6.1/os/ports/GCC/ARMCMx/chcore_v6m.h"
 907              		.file 8 "../../ChibiOS_2.6.1/os/kernel/include/chschd.h"
 908              		.file 9 "../../ChibiOS_2.6.1/os/kernel/include/chmtx.h"
 909              		.file 10 "../../ChibiOS_2.6.1/os/kernel/include/chmemcore.h"
 910              		.file 11 "../../ChibiOS_2.6.1/os/kernel/include/chheap.h"
 911              		.file 12 "../../ChibiOS_2.6.1/os/kernel/include/chmempools.h"
 912              		.file 13 "../../ChibiOS_2.6.1/test/test.h"
 913              		.file 14 "../../ChibiOS_2.6.1/os/kernel/include/chregistry.h"
 914              		.file 15 "../../ChibiOS_2.6.1/os/kernel/include/chdynamic.h"