ARM GAS  C:\Users\3130\AppData\Local\Temp\ccPAZpBF.s 			page 1


   1              		.cpu cortex-m0
   2              		.fpu softvfp
   3              		.eabi_attribute 20, 1
   4              		.eabi_attribute 21, 1
   5              		.eabi_attribute 23, 3
   6              		.eabi_attribute 24, 1
   7              		.eabi_attribute 25, 1
   8              		.eabi_attribute 26, 1
   9              		.eabi_attribute 30, 2
  10              		.eabi_attribute 34, 0
  11              		.eabi_attribute 18, 4
  12              		.code	16
  13              		.file	"testevt.c"
  14              		.text
  15              	.Ltext0:
  16              		.cfi_sections	.debug_frame
  17              		.section	.text.evt3_setup,"ax",%progbits
  18              		.align	2
  19              		.p2align 4,,15
  20              		.code	16
  21              		.thumb_func
  22              		.type	evt3_setup, %function
  23              	evt3_setup:
  24              	.LFB16:
  25              		.file 1 "../../ChibiOS_2.6.1/test/testevt.c"
  26              		.loc 1 247 0
  27              		.cfi_startproc
  28 0000 08B5     		push	{r3, lr}
  29              	.LCFI0:
  30              		.cfi_def_cfa_offset 8
  31              		.cfi_offset 3, -8
  32              		.cfi_offset 14, -4
  33              		.loc 1 249 0
  34 0002 0120     		mov	r0, #1
  35 0004 4042     		neg	r0, r0
  36 0006 FFF7FEFF 		bl	chEvtGetAndClearEvents
  37              	.LVL0:
  38              		.loc 1 250 0
  39              		@ sp needed for prologue
  40 000a 08BD     		pop	{r3, pc}
  41              		.cfi_endproc
  42              	.LFE16:
  43              		.size	evt3_setup, .-evt3_setup
  44 000c C046C046 		.section	.text.evt2_setup,"ax",%progbits
  45              		.align	2
  46              		.p2align 4,,15
  47              		.code	16
  48              		.thumb_func
  49              		.type	evt2_setup, %function
  50              	evt2_setup:
  51              	.LFB12:
  52              		.loc 1 128 0
  53              		.cfi_startproc
  54 0000 08B5     		push	{r3, lr}
  55              	.LCFI1:
  56              		.cfi_def_cfa_offset 8
  57              		.cfi_offset 3, -8
ARM GAS  C:\Users\3130\AppData\Local\Temp\ccPAZpBF.s 			page 2


  58              		.cfi_offset 14, -4
  59              		.loc 1 130 0
  60 0002 0120     		mov	r0, #1
  61 0004 4042     		neg	r0, r0
  62 0006 FFF7FEFF 		bl	chEvtGetAndClearEvents
  63              	.LVL1:
  64              		.loc 1 131 0
  65              		@ sp needed for prologue
  66 000a 08BD     		pop	{r3, pc}
  67              		.cfi_endproc
  68              	.LFE12:
  69              		.size	evt2_setup, .-evt2_setup
  70 000c C046C046 		.section	.text.evt1_setup,"ax",%progbits
  71              		.align	2
  72              		.p2align 4,,15
  73              		.code	16
  74              		.thumb_func
  75              		.type	evt1_setup, %function
  76              	evt1_setup:
  77              	.LFB7:
  78              		.loc 1 75 0
  79              		.cfi_startproc
  80 0000 08B5     		push	{r3, lr}
  81              	.LCFI2:
  82              		.cfi_def_cfa_offset 8
  83              		.cfi_offset 3, -8
  84              		.cfi_offset 14, -4
  85              		.loc 1 77 0
  86 0002 0120     		mov	r0, #1
  87 0004 4042     		neg	r0, r0
  88 0006 FFF7FEFF 		bl	chEvtGetAndClearEvents
  89              	.LVL2:
  90              		.loc 1 78 0
  91              		@ sp needed for prologue
  92 000a 08BD     		pop	{r3, pc}
  93              		.cfi_endproc
  94              	.LFE7:
  95              		.size	evt1_setup, .-evt1_setup
  96 000c C046C046 		.section	.text.evt2_execute,"ax",%progbits
  97              		.align	2
  98              		.p2align 4,,15
  99              		.code	16
 100              		.thumb_func
 101              		.type	evt2_execute, %function
 102              	evt2_execute:
 103              	.LFB15:
 104              		.loc 1 149 0
 105              		.cfi_startproc
 106 0000 F0B5     		push	{r4, r5, r6, r7, lr}
 107              	.LCFI3:
 108              		.cfi_def_cfa_offset 20
 109              		.cfi_offset 4, -20
 110              		.cfi_offset 5, -16
 111              		.cfi_offset 6, -12
 112              		.cfi_offset 7, -8
 113              		.cfi_offset 14, -4
 114 0002 4F46     		mov	r7, r9
ARM GAS  C:\Users\3130\AppData\Local\Temp\ccPAZpBF.s 			page 3


 115 0004 4646     		mov	r6, r8
 116 0006 C0B4     		push	{r6, r7}
 117              	.LCFI4:
 118              		.cfi_def_cfa_offset 28
 119              		.cfi_offset 8, -28
 120              		.cfi_offset 9, -24
 121              		.loc 1 157 0
 122 0008 0520     		mov	r0, #5
 123              		.loc 1 149 0
 124 000a 8DB0     		sub	sp, sp, #52
 125              	.LCFI5:
 126              		.cfi_def_cfa_offset 80
 127              		.loc 1 157 0
 128 000c FFF7FEFF 		bl	chEvtAddEvents
 129              	.LVL3:
 130              		.loc 1 158 0
 131 0010 0120     		mov	r0, #1
 132 0012 4042     		neg	r0, r0
 133 0014 FFF7FEFF 		bl	chEvtWaitOne
 134              	.LVL4:
 135              		.loc 1 159 0
 136 0018 411E     		sub	r1, r0, #1
 137 001a 4B42     		neg	r3, r1
 138 001c 5941     		adc	r1, r1, r3
 139 001e 0120     		mov	r0, #1
 140              	.LVL5:
 141 0020 FFF7FEFF 		bl	_test_assert
 142              	.LVL6:
 143 0024 0028     		cmp	r0, #0
 144 0026 04D0     		beq	.L8
 145              	.L4:
 146              		.loc 1 222 0
 147 0028 0DB0     		add	sp, sp, #52
 148              		@ sp needed for prologue
 149 002a 0CBC     		pop	{r2, r3}
 150 002c 9046     		mov	r8, r2
 151 002e 9946     		mov	r9, r3
 152 0030 F0BD     		pop	{r4, r5, r6, r7, pc}
 153              	.L8:
 154              		.loc 1 160 0
 155 0032 0121     		mov	r1, #1
 156 0034 4842     		neg	r0, r1
 157 0036 FFF7FEFF 		bl	chEvtWaitOne
 158              	.LVL7:
 159              		.loc 1 161 0
 160 003a 011F     		sub	r1, r0, #4
 161 003c 4B42     		neg	r3, r1
 162 003e 5941     		adc	r1, r1, r3
 163 0040 0220     		mov	r0, #2
 164              	.LVL8:
 165 0042 FFF7FEFF 		bl	_test_assert
 166              	.LVL9:
 167 0046 0028     		cmp	r0, #0
 168 0048 EED1     		bne	.L4
 169              		.loc 1 162 0
 170 004a 0122     		mov	r2, #1
 171 004c 5042     		neg	r0, r2
ARM GAS  C:\Users\3130\AppData\Local\Temp\ccPAZpBF.s 			page 4


 172 004e FFF7FEFF 		bl	chEvtGetAndClearEvents
 173              	.LVL10:
 174              		.loc 1 163 0
 175 0052 4142     		neg	r1, r0
 176 0054 4141     		adc	r1, r1, r0
 177              	.LVL11:
 178 0056 0320     		mov	r0, #3
 179 0058 FFF7FEFF 		bl	_test_assert
 180              	.LVL12:
 181 005c 0028     		cmp	r0, #0
 182 005e E3D1     		bne	.L4
 183              		.loc 1 168 0
 184 0060 FFF7FEFF 		bl	test_wait_tick
 185              	.LVL13:
 186              		.loc 1 170 0
 187 0064 6D4E     		ldr	r6, .L9
 188 0066 6E4B     		ldr	r3, .L9+4
 189 0068 B069     		ldr	r0, [r6, #24]
 190 006a 1D68     		ldr	r5, [r3]
 191 006c 8268     		ldr	r2, [r0, #8]
 192              		.loc 1 169 0
 193 006e 6D4F     		ldr	r7, .L9+8
 194              		.loc 1 170 0
 195 0070 0395     		str	r5, [sp, #12]
 196 0072 6D4B     		ldr	r3, .L9+12
 197 0074 9821     		mov	r1, #152
 198              		.loc 1 169 0
 199 0076 FC68     		ldr	r4, [r7, #12]
 200              	.LVL14:
 201              		.loc 1 170 0
 202 0078 4900     		lsl	r1, r1, #1
 203 007a 013A     		sub	r2, r2, #1
 204 007c 0090     		str	r0, [sp]
 205 007e 0398     		ldr	r0, [sp, #12]
 206 0080 9846     		mov	r8, r3
 207 0082 FFF7FEFF 		bl	chThdCreateStatic
 208              	.LVL15:
 209 0086 694D     		ldr	r5, .L9+16
 210              		.loc 1 172 0
 211 0088 0122     		mov	r2, #1
 212              		.loc 1 170 0
 213 008a 2860     		str	r0, [r5]
 214              		.loc 1 172 0
 215 008c 5042     		neg	r0, r2
 216 008e FFF7FEFF 		bl	chEvtWaitOne
 217              	.LVL16:
 218              		.loc 1 169 0
 219 0092 211C     		mov	r1, r4
 220              		.loc 1 173 0
 221 0094 221C     		mov	r2, r4
 222              		.loc 1 172 0
 223 0096 8146     		mov	r9, r0
 224              	.LVL17:
 225              		.loc 1 169 0
 226 0098 3231     		add	r1, r1, #50
 227              	.LVL18:
 228              		.loc 1 173 0
ARM GAS  C:\Users\3130\AppData\Local\Temp\ccPAZpBF.s 			page 5


 229 009a 3732     		add	r2, r2, #55
 230 009c 0420     		mov	r0, #4
 231              	.LVL19:
 232 009e FFF7FEFF 		bl	_test_assert_time_window
 233              	.LVL20:
 234 00a2 0028     		cmp	r0, #0
 235 00a4 C0D1     		bne	.L4
 236              		.loc 1 174 0
 237 00a6 4946     		mov	r1, r9
 238 00a8 0139     		sub	r1, r1, #1
 239 00aa 4B42     		neg	r3, r1
 240 00ac 5941     		adc	r1, r1, r3
 241 00ae 0520     		mov	r0, #5
 242 00b0 FFF7FEFF 		bl	_test_assert
 243              	.LVL21:
 244 00b4 0028     		cmp	r0, #0
 245 00b6 B7D1     		bne	.L4
 246              		.loc 1 175 0
 247 00b8 0124     		mov	r4, #1
 248              	.LVL22:
 249 00ba 6042     		neg	r0, r4
 250 00bc FFF7FEFF 		bl	chEvtGetAndClearEvents
 251              	.LVL23:
 252              		.loc 1 176 0
 253 00c0 4142     		neg	r1, r0
 254 00c2 4141     		adc	r1, r1, r0
 255              	.LVL24:
 256 00c4 0620     		mov	r0, #6
 257 00c6 FFF7FEFF 		bl	_test_assert
 258              	.LVL25:
 259 00ca 0028     		cmp	r0, #0
 260 00cc ACD1     		bne	.L4
 261              		.loc 1 177 0
 262 00ce FFF7FEFF 		bl	test_wait_threads
 263              	.LVL26:
 264              		.loc 1 182 0
 265 00d2 0520     		mov	r0, #5
 266 00d4 FFF7FEFF 		bl	chEvtAddEvents
 267              	.LVL27:
 268              		.loc 1 183 0
 269 00d8 0123     		mov	r3, #1
 270 00da 5842     		neg	r0, r3
 271 00dc FFF7FEFF 		bl	chEvtWaitAny
 272              	.LVL28:
 273              		.loc 1 184 0
 274 00e0 411F     		sub	r1, r0, #5
 275 00e2 4B42     		neg	r3, r1
 276 00e4 5941     		adc	r1, r1, r3
 277 00e6 0720     		mov	r0, #7
 278              	.LVL29:
 279 00e8 FFF7FEFF 		bl	_test_assert
 280              	.LVL30:
 281 00ec 0028     		cmp	r0, #0
 282 00ee 9BD1     		bne	.L4
 283              		.loc 1 185 0
 284 00f0 0120     		mov	r0, #1
 285 00f2 4042     		neg	r0, r0
ARM GAS  C:\Users\3130\AppData\Local\Temp\ccPAZpBF.s 			page 6


 286 00f4 FFF7FEFF 		bl	chEvtGetAndClearEvents
 287              	.LVL31:
 288              		.loc 1 186 0
 289 00f8 4142     		neg	r1, r0
 290 00fa 4141     		adc	r1, r1, r0
 291              	.LVL32:
 292 00fc 0820     		mov	r0, #8
 293 00fe FFF7FEFF 		bl	_test_assert
 294              	.LVL33:
 295 0102 0028     		cmp	r0, #0
 296 0104 00D0     		beq	.LCB239
 297 0106 8FE7     		b	.L4	@long jump
 298              	.LCB239:
 299              		.loc 1 191 0
 300 0108 FFF7FEFF 		bl	test_wait_tick
 301              	.LVL34:
 302              		.loc 1 193 0
 303 010c B169     		ldr	r1, [r6, #24]
 304 010e 9823     		mov	r3, #152
 305 0110 8A68     		ldr	r2, [r1, #8]
 306              		.loc 1 192 0
 307 0112 FC68     		ldr	r4, [r7, #12]
 308              	.LVL35:
 309              		.loc 1 193 0
 310 0114 013A     		sub	r2, r2, #1
 311 0116 0091     		str	r1, [sp]
 312 0118 0398     		ldr	r0, [sp, #12]
 313 011a 5900     		lsl	r1, r3, #1
 314 011c 4346     		mov	r3, r8
 315 011e FFF7FEFF 		bl	chThdCreateStatic
 316              	.LVL36:
 317              		.loc 1 195 0
 318 0122 0122     		mov	r2, #1
 319              		.loc 1 193 0
 320 0124 2860     		str	r0, [r5]
 321              		.loc 1 195 0
 322 0126 5042     		neg	r0, r2
 323 0128 FFF7FEFF 		bl	chEvtWaitAny
 324              	.LVL37:
 325              		.loc 1 192 0
 326 012c 211C     		mov	r1, r4
 327              		.loc 1 196 0
 328 012e 221C     		mov	r2, r4
 329              		.loc 1 195 0
 330 0130 8046     		mov	r8, r0
 331              	.LVL38:
 332              		.loc 1 192 0
 333 0132 3231     		add	r1, r1, #50
 334              	.LVL39:
 335              		.loc 1 196 0
 336 0134 3732     		add	r2, r2, #55
 337 0136 0920     		mov	r0, #9
 338              	.LVL40:
 339 0138 FFF7FEFF 		bl	_test_assert_time_window
 340              	.LVL41:
 341 013c 0028     		cmp	r0, #0
 342 013e 00D0     		beq	.LCB273
ARM GAS  C:\Users\3130\AppData\Local\Temp\ccPAZpBF.s 			page 7


 343 0140 72E7     		b	.L4	@long jump
 344              	.LCB273:
 345              		.loc 1 197 0
 346 0142 4146     		mov	r1, r8
 347 0144 0139     		sub	r1, r1, #1
 348 0146 4B42     		neg	r3, r1
 349 0148 5941     		adc	r1, r1, r3
 350 014a 0A20     		mov	r0, #10
 351 014c FFF7FEFF 		bl	_test_assert
 352              	.LVL42:
 353 0150 0028     		cmp	r0, #0
 354 0152 00D0     		beq	.LCB283
 355 0154 68E7     		b	.L4	@long jump
 356              	.LCB283:
 357              		.loc 1 198 0
 358 0156 0120     		mov	r0, #1
 359 0158 4042     		neg	r0, r0
 360 015a FFF7FEFF 		bl	chEvtGetAndClearEvents
 361              	.LVL43:
 362              		.loc 1 199 0
 363 015e 4142     		neg	r1, r0
 364 0160 4141     		adc	r1, r1, r0
 365              	.LVL44:
 366 0162 0B20     		mov	r0, #11
 367 0164 FFF7FEFF 		bl	_test_assert
 368              	.LVL45:
 369 0168 0028     		cmp	r0, #0
 370 016a 00D0     		beq	.LCB297
 371 016c 5CE7     		b	.L4	@long jump
 372              	.LCB297:
 373              		.loc 1 200 0
 374 016e FFF7FEFF 		bl	test_wait_threads
 375              	.LVL46:
 376              		.loc 1 205 0
 377 0172 2F4C     		ldr	r4, .L9+20
 378              	.LVL47:
 379              		.loc 1 207 0
 380 0174 0122     		mov	r2, #1
 381              		.loc 1 205 0
 382 0176 211C     		mov	r1, r4
 383 0178 0C60     		str	r4, [r1]
 384 017a A146     		mov	r9, r4
 385              		.loc 1 206 0
 386 017c 2D4C     		ldr	r4, .L9+24
 387              		.loc 1 207 0
 388 017e 4846     		mov	r0, r9
 389 0180 04A9     		add	r1, sp, #16
 390              		.loc 1 206 0
 391 0182 2460     		str	r4, [r4]
 392              		.loc 1 207 0
 393 0184 FFF7FEFF 		bl	chEvtRegisterMask
 394              	.LVL48:
 395              		.loc 1 208 0
 396 0188 08A9     		add	r1, sp, #32
 397 018a 0422     		mov	r2, #4
 398 018c 201C     		mov	r0, r4
 399 018e FFF7FEFF 		bl	chEvtRegisterMask
ARM GAS  C:\Users\3130\AppData\Local\Temp\ccPAZpBF.s 			page 8


 400              	.LVL49:
 401              		.loc 1 209 0
 402 0192 FFF7FEFF 		bl	test_wait_tick
 403              	.LVL50:
 404              		.loc 1 211 0
 405 0196 B669     		ldr	r6, [r6, #24]
 406 0198 274B     		ldr	r3, .L9+28
 407 019a B268     		ldr	r2, [r6, #8]
 408 019c 9821     		mov	r1, #152
 409              		.loc 1 210 0
 410 019e FF68     		ldr	r7, [r7, #12]
 411              	.LVL51:
 412              		.loc 1 211 0
 413 01a0 013A     		sub	r2, r2, #1
 414 01a2 4900     		lsl	r1, r1, #1
 415 01a4 0093     		str	r3, [sp]
 416 01a6 0398     		ldr	r0, [sp, #12]
 417 01a8 244B     		ldr	r3, .L9+32
 418 01aa FFF7FEFF 		bl	chThdCreateStatic
 419              	.LVL52:
 420 01ae 2860     		str	r0, [r5]
 421              		.loc 1 213 0
 422 01b0 0520     		mov	r0, #5
 423 01b2 FFF7FEFF 		bl	chEvtWaitAll
 424              	.LVL53:
 425              		.loc 1 210 0
 426 01b6 391C     		mov	r1, r7
 427              		.loc 1 214 0
 428 01b8 3A1C     		mov	r2, r7
 429              		.loc 1 210 0
 430 01ba 3231     		add	r1, r1, #50
 431              	.LVL54:
 432              		.loc 1 214 0
 433 01bc 3732     		add	r2, r2, #55
 434 01be 0C20     		mov	r0, #12
 435 01c0 FFF7FEFF 		bl	_test_assert_time_window
 436              	.LVL55:
 437 01c4 0028     		cmp	r0, #0
 438 01c6 00D0     		beq	.LCB349
 439 01c8 2EE7     		b	.L4	@long jump
 440              	.LCB349:
 441              		.loc 1 215 0
 442 01ca 0125     		mov	r5, #1
 443 01cc 6842     		neg	r0, r5
 444 01ce FFF7FEFF 		bl	chEvtGetAndClearEvents
 445              	.LVL56:
 446              		.loc 1 216 0
 447 01d2 4142     		neg	r1, r0
 448 01d4 4141     		adc	r1, r1, r0
 449              	.LVL57:
 450 01d6 0D20     		mov	r0, #13
 451 01d8 FFF7FEFF 		bl	_test_assert
 452              	.LVL58:
 453 01dc 0028     		cmp	r0, #0
 454 01de 00D0     		beq	.LCB363
 455 01e0 22E7     		b	.L4	@long jump
 456              	.LCB363:
ARM GAS  C:\Users\3130\AppData\Local\Temp\ccPAZpBF.s 			page 9


 457              		.loc 1 217 0
 458 01e2 FFF7FEFF 		bl	test_wait_threads
 459              	.LVL59:
 460              		.loc 1 218 0
 461 01e6 4846     		mov	r0, r9
 462 01e8 04A9     		add	r1, sp, #16
 463 01ea FFF7FEFF 		bl	chEvtUnregister
 464              	.LVL60:
 465              		.loc 1 219 0
 466 01ee 201C     		mov	r0, r4
 467 01f0 08A9     		add	r1, sp, #32
 468 01f2 FFF7FEFF 		bl	chEvtUnregister
 469              	.LVL61:
 470              		.loc 1 220 0
 471 01f6 4A46     		mov	r2, r9
 472 01f8 1068     		ldr	r0, [r2]
 473 01fa 811A     		sub	r1, r0, r2
 474 01fc 4B42     		neg	r3, r1
 475 01fe 5941     		adc	r1, r1, r3
 476 0200 0E20     		mov	r0, #14
 477 0202 FFF7FEFF 		bl	_test_assert
 478              	.LVL62:
 479 0206 0028     		cmp	r0, #0
 480 0208 00D0     		beq	.LCB385
 481 020a 0DE7     		b	.L4	@long jump
 482              	.LCB385:
 483              		.loc 1 221 0
 484 020c 2668     		ldr	r6, [r4]
 485 020e 0F20     		mov	r0, #15
 486 0210 311B     		sub	r1, r6, r4
 487 0212 4C42     		neg	r4, r1
 488 0214 6141     		adc	r1, r1, r4
 489 0216 FFF7FEFF 		bl	_test_assert
 490              	.LVL63:
 491 021a 05E7     		b	.L4
 492              	.L10:
 493              		.align	2
 494              	.L9:
 495 021c 00000000 		.word	rlist
 496 0220 00000000 		.word	wa
 497 0224 00000000 		.word	vtlist
 498 0228 00000000 		.word	thread1
 499 022c 00000000 		.word	threads
 500 0230 00000000 		.word	.LANCHOR0
 501 0234 00000000 		.word	.LANCHOR1
 502 0238 00000000 		.word	.LC8
 503 023c 00000000 		.word	thread2
 504              		.cfi_endproc
 505              	.LFE15:
 506              		.size	evt2_execute, .-evt2_execute
 507              		.section	.text.thread2,"ax",%progbits
 508              		.align	2
 509              		.p2align 4,,15
 510              		.code	16
 511              		.thumb_func
 512              		.type	thread2, %function
 513              	thread2:
ARM GAS  C:\Users\3130\AppData\Local\Temp\ccPAZpBF.s 			page 10


 514              	.LFB14:
 515              		.loc 1 140 0
 516              		.cfi_startproc
 517              	.LVL64:
 518 0000 08B5     		push	{r3, lr}
 519              	.LCFI6:
 520              		.cfi_def_cfa_offset 8
 521              		.cfi_offset 3, -8
 522              		.cfi_offset 14, -4
 523              		.loc 1 143 0
 524 0002 0021     		mov	r1, #0
 525 0004 0548     		ldr	r0, .L12
 526              	.LVL65:
 527 0006 FFF7FEFF 		bl	chEvtBroadcastFlags
 528              	.LVL66:
 529              		.loc 1 144 0
 530 000a 3220     		mov	r0, #50
 531 000c FFF7FEFF 		bl	chThdSleep
 532              	.LVL67:
 533              		.loc 1 145 0
 534 0010 0348     		ldr	r0, .L12+4
 535 0012 0021     		mov	r1, #0
 536 0014 FFF7FEFF 		bl	chEvtBroadcastFlags
 537              	.LVL68:
 538              		.loc 1 147 0
 539              		@ sp needed for prologue
 540 0018 0020     		mov	r0, #0
 541 001a 08BD     		pop	{r3, pc}
 542              	.L13:
 543              		.align	2
 544              	.L12:
 545 001c 00000000 		.word	.LANCHOR0
 546 0020 00000000 		.word	.LANCHOR1
 547              		.cfi_endproc
 548              	.LFE14:
 549              		.size	thread2, .-thread2
 550 0024 C046C046 		.section	.text.thread1,"ax",%progbits
 550      C046C046 
 550      C046C046 
 551              		.align	2
 552              		.p2align 4,,15
 553              		.code	16
 554              		.thumb_func
 555              		.type	thread1, %function
 556              	thread1:
 557              	.LFB13:
 558              		.loc 1 133 0
 559              		.cfi_startproc
 560              	.LVL69:
 561 0000 10B5     		push	{r4, lr}
 562              	.LCFI7:
 563              		.cfi_def_cfa_offset 8
 564              		.cfi_offset 4, -8
 565              		.cfi_offset 14, -4
 566              		.loc 1 133 0
 567 0002 041C     		mov	r4, r0
 568              		.loc 1 135 0
ARM GAS  C:\Users\3130\AppData\Local\Temp\ccPAZpBF.s 			page 11


 569 0004 3220     		mov	r0, #50
 570              	.LVL70:
 571 0006 FFF7FEFF 		bl	chThdSleep
 572              	.LVL71:
 573              		.loc 1 136 0
 574 000a 201C     		mov	r0, r4
 575 000c 0121     		mov	r1, #1
 576 000e FFF7FEFF 		bl	chEvtSignal
 577              	.LVL72:
 578              		.loc 1 138 0
 579              		@ sp needed for prologue
 580 0012 0020     		mov	r0, #0
 581              	.LVL73:
 582 0014 10BD     		pop	{r4, pc}
 583              		.cfi_endproc
 584              	.LFE13:
 585              		.size	thread1, .-thread1
 586 0016 C046C046 		.section	.text.evt1_execute,"ax",%progbits
 586      C046C046 
 586      C046
 587              		.align	2
 588              		.p2align 4,,15
 589              		.code	16
 590              		.thumb_func
 591              		.type	evt1_execute, %function
 592              	evt1_execute:
 593              	.LFB11:
 594              		.loc 1 85 0
 595              		.cfi_startproc
 596 0000 10B5     		push	{r4, lr}
 597              	.LCFI8:
 598              		.cfi_def_cfa_offset 8
 599              		.cfi_offset 4, -8
 600              		.cfi_offset 14, -4
 601              		.loc 1 91 0
 602 0002 1D4C     		ldr	r4, .L19
 603              		.loc 1 85 0
 604 0004 88B0     		sub	sp, sp, #32
 605              	.LCFI9:
 606              		.cfi_def_cfa_offset 40
 607              		.loc 1 92 0
 608 0006 201C     		mov	r0, r4
 609 0008 6946     		mov	r1, sp
 610 000a 0122     		mov	r2, #1
 611              		.loc 1 91 0
 612 000c 2460     		str	r4, [r4]
 613              		.loc 1 92 0
 614 000e FFF7FEFF 		bl	chEvtRegisterMask
 615              	.LVL74:
 616              		.loc 1 93 0
 617 0012 201C     		mov	r0, r4
 618 0014 04A9     		add	r1, sp, #16
 619 0016 0222     		mov	r2, #2
 620 0018 FFF7FEFF 		bl	chEvtRegisterMask
 621              	.LVL75:
 622              		.loc 1 94 0
 623 001c 2368     		ldr	r3, [r4]
ARM GAS  C:\Users\3130\AppData\Local\Temp\ccPAZpBF.s 			page 12


 624 001e 0120     		mov	r0, #1
 625 0020 191B     		sub	r1, r3, r4
 626 0022 4B1E     		sub	r3, r1, #1
 627 0024 9941     		sbc	r1, r1, r3
 628 0026 FFF7FEFF 		bl	_test_assert
 629              	.LVL76:
 630 002a 0028     		cmp	r0, #0
 631 002c 01D0     		beq	.L18
 632              	.L15:
 633              		.loc 1 105 0
 634 002e 08B0     		add	sp, sp, #32
 635              		@ sp needed for prologue
 636 0030 10BD     		pop	{r4, pc}
 637              	.L18:
 638              		.loc 1 95 0
 639 0032 201C     		mov	r0, r4
 640 0034 6946     		mov	r1, sp
 641 0036 FFF7FEFF 		bl	chEvtUnregister
 642              	.LVL77:
 643              		.loc 1 96 0
 644 003a 2068     		ldr	r0, [r4]
 645 003c 011B     		sub	r1, r0, r4
 646 003e 4B1E     		sub	r3, r1, #1
 647 0040 9941     		sbc	r1, r1, r3
 648 0042 0220     		mov	r0, #2
 649 0044 FFF7FEFF 		bl	_test_assert
 650              	.LVL78:
 651 0048 0028     		cmp	r0, #0
 652 004a F0D1     		bne	.L15
 653              		.loc 1 97 0
 654 004c 201C     		mov	r0, r4
 655 004e 04A9     		add	r1, sp, #16
 656 0050 FFF7FEFF 		bl	chEvtUnregister
 657              	.LVL79:
 658              		.loc 1 98 0
 659 0054 2168     		ldr	r1, [r4]
 660 0056 0320     		mov	r0, #3
 661 0058 0A1B     		sub	r2, r1, r4
 662 005a 5142     		neg	r1, r2
 663 005c 5141     		adc	r1, r1, r2
 664 005e FFF7FEFF 		bl	_test_assert
 665              	.LVL80:
 666 0062 0028     		cmp	r0, #0
 667 0064 E3D1     		bne	.L15
 668              		.loc 1 103 0
 669 0066 0548     		ldr	r0, .L19+4
 670 0068 0721     		mov	r1, #7
 671 006a FFF7FEFF 		bl	chEvtDispatch
 672              	.LVL81:
 673              		.loc 1 104 0
 674 006e 0449     		ldr	r1, .L19+8
 675 0070 0420     		mov	r0, #4
 676 0072 FFF7FEFF 		bl	_test_assert_sequence
 677              	.LVL82:
 678 0076 DAE7     		b	.L15
 679              	.L20:
 680              		.align	2
ARM GAS  C:\Users\3130\AppData\Local\Temp\ccPAZpBF.s 			page 13


 681              	.L19:
 682 0078 00000000 		.word	.LANCHOR0
 683 007c 00000000 		.word	.LANCHOR2
 684 0080 04000000 		.word	.LC14
 685              		.cfi_endproc
 686              	.LFE11:
 687              		.size	evt1_execute, .-evt1_execute
 688 0084 C046C046 		.section	.text.h3,"ax",%progbits
 688      C046C046 
 688      C046C046 
 689              		.align	2
 690              		.p2align 4,,15
 691              		.code	16
 692              		.thumb_func
 693              		.type	h3, %function
 694              	h3:
 695              	.LFB10:
 696              		.loc 1 82 0
 697              		.cfi_startproc
 698              	.LVL83:
 699 0000 08B5     		push	{r3, lr}
 700              	.LCFI10:
 701              		.cfi_def_cfa_offset 8
 702              		.cfi_offset 3, -8
 703              		.cfi_offset 14, -4
 704              		.loc 1 82 0
 705 0002 4320     		mov	r0, #67
 706              	.LVL84:
 707 0004 FFF7FEFF 		bl	test_emit_token
 708              	.LVL85:
 709              		@ sp needed for prologue
 710 0008 08BD     		pop	{r3, pc}
 711              		.cfi_endproc
 712              	.LFE10:
 713              		.size	h3, .-h3
 714 000a C046C046 		.section	.text.h2,"ax",%progbits
 714      C046
 715              		.align	2
 716              		.p2align 4,,15
 717              		.code	16
 718              		.thumb_func
 719              		.type	h2, %function
 720              	h2:
 721              	.LFB9:
 722              		.loc 1 81 0
 723              		.cfi_startproc
 724              	.LVL86:
 725 0000 08B5     		push	{r3, lr}
 726              	.LCFI11:
 727              		.cfi_def_cfa_offset 8
 728              		.cfi_offset 3, -8
 729              		.cfi_offset 14, -4
 730              		.loc 1 81 0
 731 0002 4220     		mov	r0, #66
 732              	.LVL87:
 733 0004 FFF7FEFF 		bl	test_emit_token
 734              	.LVL88:
ARM GAS  C:\Users\3130\AppData\Local\Temp\ccPAZpBF.s 			page 14


 735              		@ sp needed for prologue
 736 0008 08BD     		pop	{r3, pc}
 737              		.cfi_endproc
 738              	.LFE9:
 739              		.size	h2, .-h2
 740 000a C046C046 		.section	.text.h1,"ax",%progbits
 740      C046
 741              		.align	2
 742              		.p2align 4,,15
 743              		.code	16
 744              		.thumb_func
 745              		.type	h1, %function
 746              	h1:
 747              	.LFB8:
 748              		.loc 1 80 0
 749              		.cfi_startproc
 750              	.LVL89:
 751 0000 08B5     		push	{r3, lr}
 752              	.LCFI12:
 753              		.cfi_def_cfa_offset 8
 754              		.cfi_offset 3, -8
 755              		.cfi_offset 14, -4
 756              		.loc 1 80 0
 757 0002 4120     		mov	r0, #65
 758              	.LVL90:
 759 0004 FFF7FEFF 		bl	test_emit_token
 760              	.LVL91:
 761              		@ sp needed for prologue
 762 0008 08BD     		pop	{r3, pc}
 763              		.cfi_endproc
 764              	.LFE8:
 765              		.size	h1, .-h1
 766 000a C046C046 		.section	.text.evt3_execute,"ax",%progbits
 766      C046
 767              		.align	2
 768              		.p2align 4,,15
 769              		.code	16
 770              		.thumb_func
 771              		.type	evt3_execute, %function
 772              	evt3_execute:
 773              	.LFB17:
 774              		.loc 1 252 0
 775              		.cfi_startproc
 776              		.loc 1 258 0
 777 0000 0120     		mov	r0, #1
 778              		.loc 1 252 0
 779 0002 08B5     		push	{r3, lr}
 780              	.LCFI13:
 781              		.cfi_def_cfa_offset 8
 782              		.cfi_offset 3, -8
 783              		.cfi_offset 14, -4
 784              		.loc 1 258 0
 785 0004 0021     		mov	r1, #0
 786 0006 4042     		neg	r0, r0
 787 0008 FFF7FEFF 		bl	chEvtWaitOneTimeout
 788              	.LVL92:
 789              		.loc 1 259 0
ARM GAS  C:\Users\3130\AppData\Local\Temp\ccPAZpBF.s 			page 15


 790 000c 4142     		neg	r1, r0
 791 000e 4141     		adc	r1, r1, r0
 792              	.LVL93:
 793 0010 0120     		mov	r0, #1
 794 0012 FFF7FEFF 		bl	_test_assert
 795              	.LVL94:
 796 0016 0028     		cmp	r0, #0
 797 0018 00D0     		beq	.L28
 798              	.L24:
 799              		.loc 1 270 0
 800              		@ sp needed for prologue
 801 001a 08BD     		pop	{r3, pc}
 802              	.L28:
 803              		.loc 1 260 0
 804 001c 0121     		mov	r1, #1
 805 001e 4842     		neg	r0, r1
 806 0020 0021     		mov	r1, #0
 807 0022 FFF7FEFF 		bl	chEvtWaitAnyTimeout
 808              	.LVL95:
 809              		.loc 1 261 0
 810 0026 4142     		neg	r1, r0
 811 0028 4141     		adc	r1, r1, r0
 812              	.LVL96:
 813 002a 0220     		mov	r0, #2
 814 002c FFF7FEFF 		bl	_test_assert
 815              	.LVL97:
 816 0030 0028     		cmp	r0, #0
 817 0032 F2D1     		bne	.L24
 818              		.loc 1 262 0
 819 0034 0122     		mov	r2, #1
 820 0036 0021     		mov	r1, #0
 821 0038 5042     		neg	r0, r2
 822 003a FFF7FEFF 		bl	chEvtWaitAllTimeout
 823              	.LVL98:
 824              		.loc 1 263 0
 825 003e 4142     		neg	r1, r0
 826 0040 4141     		adc	r1, r1, r0
 827              	.LVL99:
 828 0042 0320     		mov	r0, #3
 829 0044 FFF7FEFF 		bl	_test_assert
 830              	.LVL100:
 831 0048 0028     		cmp	r0, #0
 832 004a E6D1     		bne	.L24
 833              	.LBB4:
 834              	.LBB5:
 835              		.loc 1 264 0
 836 004c 0123     		mov	r3, #1
 837 004e 0A21     		mov	r1, #10
 838 0050 5842     		neg	r0, r3
 839 0052 FFF7FEFF 		bl	chEvtWaitOneTimeout
 840              	.LVL101:
 841              		.loc 1 265 0
 842 0056 4142     		neg	r1, r0
 843 0058 4141     		adc	r1, r1, r0
 844              	.LVL102:
 845 005a 0420     		mov	r0, #4
 846 005c FFF7FEFF 		bl	_test_assert
ARM GAS  C:\Users\3130\AppData\Local\Temp\ccPAZpBF.s 			page 16


 847              	.LVL103:
 848 0060 0028     		cmp	r0, #0
 849 0062 DAD1     		bne	.L24
 850              		.loc 1 266 0
 851 0064 0120     		mov	r0, #1
 852 0066 0A21     		mov	r1, #10
 853 0068 4042     		neg	r0, r0
 854 006a FFF7FEFF 		bl	chEvtWaitAnyTimeout
 855              	.LVL104:
 856              		.loc 1 267 0
 857 006e 4142     		neg	r1, r0
 858 0070 4141     		adc	r1, r1, r0
 859              	.LVL105:
 860 0072 0520     		mov	r0, #5
 861 0074 FFF7FEFF 		bl	_test_assert
 862              	.LVL106:
 863 0078 0028     		cmp	r0, #0
 864 007a CED1     		bne	.L24
 865              		.loc 1 268 0
 866 007c 0121     		mov	r1, #1
 867 007e 4842     		neg	r0, r1
 868 0080 0A21     		mov	r1, #10
 869 0082 FFF7FEFF 		bl	chEvtWaitAllTimeout
 870              	.LVL107:
 871              		.loc 1 269 0
 872 0086 4142     		neg	r1, r0
 873 0088 4141     		adc	r1, r1, r0
 874              	.LVL108:
 875 008a 0620     		mov	r0, #6
 876 008c FFF7FEFF 		bl	_test_assert
 877              	.LVL109:
 878 0090 C3E7     		b	.L24
 879              	.LBE5:
 880              	.LBE4:
 881              		.cfi_endproc
 882              	.LFE17:
 883              		.size	evt3_execute, .-evt3_execute
 884              		.global	patternevt
 885              		.global	testevt3
 886              		.global	testevt2
 887              		.global	testevt1
 888 0092 C046C046 		.section	.rodata.patternevt,"a",%progbits
 888      C046C046 
 888      C046C046 
 888      C046
 889              		.align	2
 890              		.type	patternevt, %object
 891              		.size	patternevt, 16
 892              	patternevt:
 893 0000 00000000 		.word	testevt1
 894 0004 00000000 		.word	testevt2
 895 0008 00000000 		.word	testevt3
 896 000c 00000000 		.word	0
 897              		.section	.rodata.testevt2,"a",%progbits
 898              		.align	2
 899              		.type	testevt2, %object
 900              		.size	testevt2, 16
ARM GAS  C:\Users\3130\AppData\Local\Temp\ccPAZpBF.s 			page 17


 901              	testevt2:
 902 0000 1C000000 		.word	.LC17
 903 0004 00000000 		.word	evt2_setup
 904 0008 00000000 		.word	0
 905 000c 00000000 		.word	evt2_execute
 906              		.section	.rodata.str1.4,"aMS",%progbits,1
 907              		.align	2
 908              	.LC8:
 909 0000 4100     		.ascii	"A\000"
 910 0002 0000     		.space	2
 911              	.LC14:
 912 0004 41424300 		.ascii	"ABC\000"
 913              	.LC16:
 914 0008 4576656E 		.ascii	"Events, timeouts\000"
 914      74732C20 
 914      74696D65 
 914      6F757473 
 914      00
 915 0019 000000   		.space	3
 916              	.LC17:
 917 001c 4576656E 		.ascii	"Events, wait and broadcast\000"
 917      74732C20 
 917      77616974 
 917      20616E64 
 917      2062726F 
 918 0037 00       		.space	1
 919              	.LC18:
 920 0038 4576656E 		.ascii	"Events, registration and dispatch\000"
 920      74732C20 
 920      72656769 
 920      73747261 
 920      74696F6E 
 921 005a 0000     		.section	.rodata.testevt1,"a",%progbits
 922              		.align	2
 923              		.type	testevt1, %object
 924              		.size	testevt1, 16
 925              	testevt1:
 926 0000 38000000 		.word	.LC18
 927 0004 00000000 		.word	evt1_setup
 928 0008 00000000 		.word	0
 929 000c 00000000 		.word	evt1_execute
 930              		.section	.rodata.evhndl,"a",%progbits
 931              		.align	2
 932              		.set	.LANCHOR2,. + 0
 933              		.type	evhndl, %object
 934              		.size	evhndl, 12
 935              	evhndl:
 936 0000 00000000 		.word	h1
 937 0004 00000000 		.word	h2
 938 0008 00000000 		.word	h3
 939              		.section	.rodata.testevt3,"a",%progbits
 940              		.align	2
 941              		.type	testevt3, %object
 942              		.size	testevt3, 16
 943              	testevt3:
 944 0000 08000000 		.word	.LC16
 945 0004 00000000 		.word	evt3_setup
ARM GAS  C:\Users\3130\AppData\Local\Temp\ccPAZpBF.s 			page 18


 946 0008 00000000 		.word	0
 947 000c 00000000 		.word	evt3_execute
 948              		.section	.data.es1,"aw",%progbits
 949              		.align	2
 950              		.set	.LANCHOR0,. + 0
 951              		.type	es1, %object
 952              		.size	es1, 4
 953              	es1:
 954 0000 00000000 		.word	es1
 955              		.section	.data.es2,"aw",%progbits
 956              		.align	2
 957              		.set	.LANCHOR1,. + 0
 958              		.type	es2, %object
 959              		.size	es2, 4
 960              	es2:
 961 0000 00000000 		.word	es2
 962              		.text
 963              	.Letext0:
 964              		.file 2 "c:\\stm32f0-discovery_tools\\gcc-arm-none-eabi\\bin\\../lib/gcc/arm-none-eabi/4.7.4/inclu
 965              		.file 3 "c:\\stm32f0-discovery_tools\\gcc-arm-none-eabi\\bin\\../lib/gcc/arm-none-eabi/4.7.4/../..
 966              		.file 4 "../../ChibiOS_2.6.1/os/ports/GCC/ARMCMx/chtypes.h"
 967              		.file 5 "../../ChibiOS_2.6.1/os/kernel/include/chlists.h"
 968              		.file 6 "../../ChibiOS_2.6.1/os/kernel/include/chthreads.h"
 969              		.file 7 "../../ChibiOS_2.6.1/os/ports/GCC/ARMCMx/chcore_v6m.h"
 970              		.file 8 "../../ChibiOS_2.6.1/os/kernel/include/chvt.h"
 971              		.file 9 "../../ChibiOS_2.6.1/os/kernel/include/chschd.h"
 972              		.file 10 "../../ChibiOS_2.6.1/os/kernel/include/chmtx.h"
 973              		.file 11 "../../ChibiOS_2.6.1/os/kernel/include/chevents.h"
 974              		.file 12 "../../ChibiOS_2.6.1/test/test.h"