ARM GAS  C:\Users\3130\AppData\Local\Temp\ccbyNKTe.s 			page 1


   1              		.cpu cortex-m0
   2              		.fpu softvfp
   3              		.eabi_attribute 20, 1
   4              		.eabi_attribute 21, 1
   5              		.eabi_attribute 23, 3
   6              		.eabi_attribute 24, 1
   7              		.eabi_attribute 25, 1
   8              		.eabi_attribute 26, 1
   9              		.eabi_attribute 30, 2
  10              		.eabi_attribute 34, 0
  11              		.eabi_attribute 18, 4
  12              		.code	16
  13              		.file	"testmsg.c"
  14              		.text
  15              	.Ltext0:
  16              		.cfi_sections	.debug_frame
  17              		.section	.text.msg1_execute,"ax",%progbits
  18              		.align	2
  19              		.p2align 4,,15
  20              		.code	16
  21              		.thumb_func
  22              		.type	msg1_execute, %function
  23              	msg1_execute:
  24              	.LFB8:
  25              		.file 1 "../../ChibiOS_2.6.1/test/testmsg.c"
  26              		.loc 1 67 0
  27              		.cfi_startproc
  28 0000 10B5     		push	{r4, lr}
  29              	.LCFI0:
  30              		.cfi_def_cfa_offset 8
  31              		.cfi_offset 4, -8
  32              		.cfi_offset 14, -4
  33              		.loc 1 74 0
  34 0002 184B     		ldr	r3, .L2
  35 0004 184A     		ldr	r2, .L2+4
  36 0006 9969     		ldr	r1, [r3, #24]
  37 0008 1068     		ldr	r0, [r2]
  38 000a 8A68     		ldr	r2, [r1, #8]
  39              		.loc 1 67 0
  40 000c 82B0     		sub	sp, sp, #8
  41              	.LCFI1:
  42              		.cfi_def_cfa_offset 16
  43              		.loc 1 74 0
  44 000e 9824     		mov	r4, #152
  45 0010 0132     		add	r2, r2, #1
  46 0012 0091     		str	r1, [sp]
  47 0014 154B     		ldr	r3, .L2+8
  48 0016 6100     		lsl	r1, r4, #1
  49 0018 FFF7FEFF 		bl	chThdCreateStatic
  50              	.LVL0:
  51 001c 144B     		ldr	r3, .L2+12
  52 001e 1860     		str	r0, [r3]
  53              		.loc 1 76 0
  54 0020 FFF7FEFF 		bl	chMsgWait
  55              	.LVL1:
  56              		.loc 1 77 0
  57 0024 446B     		ldr	r4, [r0, #52]
ARM GAS  C:\Users\3130\AppData\Local\Temp\ccbyNKTe.s 			page 2


  58              	.LVL2:
  59              		.loc 1 78 0
  60 0026 211C     		mov	r1, r4
  61 0028 FFF7FEFF 		bl	chMsgRelease
  62              	.LVL3:
  63              		.loc 1 79 0
  64 002c E0B2     		uxtb	r0, r4
  65 002e FFF7FEFF 		bl	test_emit_token
  66              	.LVL4:
  67              		.loc 1 80 0
  68 0032 FFF7FEFF 		bl	chMsgWait
  69              	.LVL5:
  70              		.loc 1 81 0
  71 0036 446B     		ldr	r4, [r0, #52]
  72              	.LVL6:
  73              		.loc 1 82 0
  74 0038 211C     		mov	r1, r4
  75 003a FFF7FEFF 		bl	chMsgRelease
  76              	.LVL7:
  77              		.loc 1 83 0
  78 003e E0B2     		uxtb	r0, r4
  79 0040 FFF7FEFF 		bl	test_emit_token
  80              	.LVL8:
  81              		.loc 1 84 0
  82 0044 FFF7FEFF 		bl	chMsgWait
  83              	.LVL9:
  84              		.loc 1 85 0
  85 0048 446B     		ldr	r4, [r0, #52]
  86              	.LVL10:
  87              		.loc 1 86 0
  88 004a 211C     		mov	r1, r4
  89 004c FFF7FEFF 		bl	chMsgRelease
  90              	.LVL11:
  91              		.loc 1 87 0
  92 0050 E0B2     		uxtb	r0, r4
  93 0052 FFF7FEFF 		bl	test_emit_token
  94              	.LVL12:
  95              		.loc 1 88 0
  96 0056 0749     		ldr	r1, .L2+16
  97 0058 0120     		mov	r0, #1
  98 005a FFF7FEFF 		bl	_test_assert_sequence
  99              	.LVL13:
 100              		.loc 1 89 0
 101 005e 02B0     		add	sp, sp, #8
 102              		@ sp needed for prologue
 103              	.LVL14:
 104 0060 10BD     		pop	{r4, pc}
 105              	.L3:
 106 0062 C046     		.align	2
 107              	.L2:
 108 0064 00000000 		.word	rlist
 109 0068 00000000 		.word	wa
 110 006c 00000000 		.word	thread
 111 0070 00000000 		.word	threads
 112 0074 00000000 		.word	.LC4
 113              		.cfi_endproc
 114              	.LFE8:
ARM GAS  C:\Users\3130\AppData\Local\Temp\ccbyNKTe.s 			page 3


 115              		.size	msg1_execute, .-msg1_execute
 116 0078 C046C046 		.section	.text.thread,"ax",%progbits
 116      C046C046 
 117              		.align	2
 118              		.p2align 4,,15
 119              		.code	16
 120              		.thumb_func
 121              		.type	thread, %function
 122              	thread:
 123              	.LFB7:
 124              		.loc 1 59 0
 125              		.cfi_startproc
 126              	.LVL15:
 127 0000 10B5     		push	{r4, lr}
 128              	.LCFI2:
 129              		.cfi_def_cfa_offset 8
 130              		.cfi_offset 4, -8
 131              		.cfi_offset 14, -4
 132              		.loc 1 61 0
 133 0002 4121     		mov	r1, #65
 134              		.loc 1 59 0
 135 0004 041C     		mov	r4, r0
 136              		.loc 1 61 0
 137 0006 FFF7FEFF 		bl	chMsgSend
 138              	.LVL16:
 139              		.loc 1 62 0
 140 000a 201C     		mov	r0, r4
 141 000c 4221     		mov	r1, #66
 142 000e FFF7FEFF 		bl	chMsgSend
 143              	.LVL17:
 144              		.loc 1 63 0
 145 0012 201C     		mov	r0, r4
 146 0014 4321     		mov	r1, #67
 147 0016 FFF7FEFF 		bl	chMsgSend
 148              	.LVL18:
 149              		.loc 1 65 0
 150              		@ sp needed for prologue
 151 001a 0020     		mov	r0, #0
 152              	.LVL19:
 153 001c 10BD     		pop	{r4, pc}
 154              		.cfi_endproc
 155              	.LFE7:
 156              		.size	thread, .-thread
 157              		.global	patternmsg
 158              		.global	testmsg1
 159 001e C046     		.section	.rodata.testmsg1,"a",%progbits
 160              		.align	2
 161              		.type	testmsg1, %object
 162              		.size	testmsg1, 16
 163              	testmsg1:
 164 0000 04000000 		.word	.LC6
 165 0004 00000000 		.word	0
 166 0008 00000000 		.word	0
 167 000c 00000000 		.word	msg1_execute
 168              		.section	.rodata.str1.4,"aMS",%progbits,1
 169              		.align	2
 170              	.LC4:
ARM GAS  C:\Users\3130\AppData\Local\Temp\ccbyNKTe.s 			page 4


 171 0000 41424300 		.ascii	"ABC\000"
 172              	.LC6:
 173 0004 4D657373 		.ascii	"Messages, loop\000"
 173      61676573 
 173      2C206C6F 
 173      6F7000
 174 0013 00       		.section	.rodata.patternmsg,"a",%progbits
 175              		.align	2
 176              		.type	patternmsg, %object
 177              		.size	patternmsg, 8
 178              	patternmsg:
 179 0000 00000000 		.word	testmsg1
 180 0004 00000000 		.word	0
 181              		.text
 182              	.Letext0:
 183              		.file 2 "c:\\stm32f0-discovery_tools\\gcc-arm-none-eabi\\bin\\../lib/gcc/arm-none-eabi/4.7.4/inclu
 184              		.file 3 "c:\\stm32f0-discovery_tools\\gcc-arm-none-eabi\\bin\\../lib/gcc/arm-none-eabi/4.7.4/../..
 185              		.file 4 "../../ChibiOS_2.6.1/os/ports/GCC/ARMCMx/chtypes.h"
 186              		.file 5 "../../ChibiOS_2.6.1/os/kernel/include/chlists.h"
 187              		.file 6 "../../ChibiOS_2.6.1/os/kernel/include/chthreads.h"
 188              		.file 7 "../../ChibiOS_2.6.1/os/ports/GCC/ARMCMx/chcore_v6m.h"
 189              		.file 8 "../../ChibiOS_2.6.1/os/kernel/include/chschd.h"
 190              		.file 9 "../../ChibiOS_2.6.1/os/kernel/include/chmtx.h"
 191              		.file 10 "../../ChibiOS_2.6.1/test/test.h"
 192              		.file 11 "../../ChibiOS_2.6.1/os/kernel/include/chmsg.h"