ARM GAS  C:\Users\3130\AppData\Local\Temp\ccqgvhoQ.s 			page 1


   1              		.cpu cortex-m0
   2              		.fpu softvfp
   3              		.eabi_attribute 20, 1
   4              		.eabi_attribute 21, 1
   5              		.eabi_attribute 23, 3
   6              		.eabi_attribute 24, 1
   7              		.eabi_attribute 25, 1
   8              		.eabi_attribute 26, 1
   9              		.eabi_attribute 30, 2
  10              		.eabi_attribute 34, 0
  11              		.eabi_attribute 18, 4
  12              		.code	16
  13              		.file	"testsem.c"
  14              		.text
  15              	.Ltext0:
  16              		.cfi_sections	.debug_frame
  17              		.section	.text.sem3_setup,"ax",%progbits
  18              		.align	2
  19              		.p2align 4,,15
  20              		.code	16
  21              		.thumb_func
  22              		.type	sem3_setup, %function
  23              	sem3_setup:
  24              	.LFB13:
  25              		.file 1 "../../ChibiOS_2.6.1/test/testsem.c"
  26              		.loc 1 204 0
  27              		.cfi_startproc
  28 0000 08B5     		push	{r3, lr}
  29              	.LCFI0:
  30              		.cfi_def_cfa_offset 8
  31              		.cfi_offset 3, -8
  32              		.cfi_offset 14, -4
  33              		.loc 1 206 0
  34 0002 0248     		ldr	r0, .L2
  35 0004 0021     		mov	r1, #0
  36 0006 FFF7FEFF 		bl	chSemInit
  37              	.LVL0:
  38              		.loc 1 207 0
  39              		@ sp needed for prologue
  40 000a 08BD     		pop	{r3, pc}
  41              	.L3:
  42              		.align	2
  43              	.L2:
  44 000c 00000000 		.word	.LANCHOR0
  45              		.cfi_endproc
  46              	.LFE13:
  47              		.size	sem3_setup, .-sem3_setup
  48              		.section	.text.sem2_setup,"ax",%progbits
  49              		.align	2
  50              		.p2align 4,,15
  51              		.code	16
  52              		.thumb_func
  53              		.type	sem2_setup, %function
  54              	sem2_setup:
  55              	.LFB10:
  56              		.loc 1 128 0
  57              		.cfi_startproc
ARM GAS  C:\Users\3130\AppData\Local\Temp\ccqgvhoQ.s 			page 2


  58 0000 08B5     		push	{r3, lr}
  59              	.LCFI1:
  60              		.cfi_def_cfa_offset 8
  61              		.cfi_offset 3, -8
  62              		.cfi_offset 14, -4
  63              		.loc 1 130 0
  64 0002 0248     		ldr	r0, .L5
  65 0004 0021     		mov	r1, #0
  66 0006 FFF7FEFF 		bl	chSemInit
  67              	.LVL1:
  68              		.loc 1 131 0
  69              		@ sp needed for prologue
  70 000a 08BD     		pop	{r3, pc}
  71              	.L6:
  72              		.align	2
  73              	.L5:
  74 000c 00000000 		.word	.LANCHOR0
  75              		.cfi_endproc
  76              	.LFE10:
  77              		.size	sem2_setup, .-sem2_setup
  78              		.section	.text.sem1_setup,"ax",%progbits
  79              		.align	2
  80              		.p2align 4,,15
  81              		.code	16
  82              		.thumb_func
  83              		.type	sem1_setup, %function
  84              	sem1_setup:
  85              	.LFB7:
  86              		.loc 1 72 0
  87              		.cfi_startproc
  88 0000 08B5     		push	{r3, lr}
  89              	.LCFI2:
  90              		.cfi_def_cfa_offset 8
  91              		.cfi_offset 3, -8
  92              		.cfi_offset 14, -4
  93              		.loc 1 74 0
  94 0002 0248     		ldr	r0, .L8
  95 0004 0021     		mov	r1, #0
  96 0006 FFF7FEFF 		bl	chSemInit
  97              	.LVL2:
  98              		.loc 1 75 0
  99              		@ sp needed for prologue
 100 000a 08BD     		pop	{r3, pc}
 101              	.L9:
 102              		.align	2
 103              	.L8:
 104 000c 00000000 		.word	.LANCHOR0
 105              		.cfi_endproc
 106              	.LFE7:
 107              		.size	sem1_setup, .-sem1_setup
 108              		.section	.text.sem4_execute,"ax",%progbits
 109              		.align	2
 110              		.p2align 4,,15
 111              		.code	16
 112              		.thumb_func
 113              		.type	sem4_execute, %function
 114              	sem4_execute:
ARM GAS  C:\Users\3130\AppData\Local\Temp\ccqgvhoQ.s 			page 3


 115              	.LFB17:
 116              		.loc 1 251 0
 117              		.cfi_startproc
 118 0000 00B5     		push	{lr}
 119              	.LCFI3:
 120              		.cfi_def_cfa_offset 4
 121              		.cfi_offset 14, -4
 122 0002 87B0     		sub	sp, sp, #28
 123              	.LCFI4:
 124              		.cfi_def_cfa_offset 32
 125              		.loc 1 255 0
 126 0004 03A8     		add	r0, sp, #12
 127 0006 0021     		mov	r1, #0
 128 0008 FFF7FEFF 		bl	chSemInit
 129              	.LVL3:
 130              		.loc 1 256 0
 131 000c 03A8     		add	r0, sp, #12
 132 000e 0021     		mov	r1, #0
 133 0010 FFF7FEFF 		bl	chSemReset
 134              	.LVL4:
 135              		.loc 1 257 0
 136 0014 059B     		ldr	r3, [sp, #20]
 137 0016 0120     		mov	r0, #1
 138 0018 591E     		sub	r1, r3, #1
 139 001a 0B43     		orr	r3, r1
 140 001c D90F     		lsr	r1, r3, #31
 141 001e FFF7FEFF 		bl	_test_assert
 142              	.LVL5:
 143 0022 0028     		cmp	r0, #0
 144 0024 01D0     		beq	.L16
 145              	.L10:
 146              		.loc 1 279 0
 147 0026 07B0     		add	sp, sp, #28
 148              		@ sp needed for prologue
 149 0028 00BD     		pop	{pc}
 150              	.L16:
 151              		.loc 1 261 0
 152 002a 2A48     		ldr	r0, .L19
 153              		.loc 1 260 0
 154 002c 2A49     		ldr	r1, .L19+4
 155              		.loc 1 261 0
 156 002e 8269     		ldr	r2, [r0, #24]
 157              		.loc 1 260 0
 158 0030 03AB     		add	r3, sp, #12
 159 0032 9268     		ldr	r2, [r2, #8]
 160 0034 0093     		str	r3, [sp]
 161 0036 9823     		mov	r3, #152
 162 0038 013A     		sub	r2, r2, #1
 163 003a 0868     		ldr	r0, [r1]
 164 003c 5900     		lsl	r1, r3, #1
 165 003e 274B     		ldr	r3, .L19+8
 166 0040 FFF7FEFF 		bl	chThdCreateStatic
 167              	.LVL6:
 168 0044 264A     		ldr	r2, .L19+12
 169 0046 1060     		str	r0, [r2]
 170              		.loc 1 264 0
 171 0048 03A8     		add	r0, sp, #12
ARM GAS  C:\Users\3130\AppData\Local\Temp\ccqgvhoQ.s 			page 4


 172 004a FFF7FEFF 		bl	chSemWait
 173              	.LVL7:
 174              		.loc 1 267 0
 175 004e 0598     		ldr	r0, [sp, #20]
 176 0050 411E     		sub	r1, r0, #1
 177 0052 0843     		orr	r0, r1
 178 0054 C10F     		lsr	r1, r0, #31
 179 0056 0220     		mov	r0, #2
 180 0058 FFF7FEFF 		bl	_test_assert
 181              	.LVL8:
 182 005c 0028     		cmp	r0, #0
 183 005e E2D1     		bne	.L10
 184              		.loc 1 271 0
 185              	@ 271 "../../ChibiOS_2.6.1/test/testsem.c" 1
 186 0060 72B6     		cpsid   i
 187              	@ 0 "" 2
 188              		.code	16
 189 0062 059B     		ldr	r3, [sp, #20]
 190 0064 002B     		cmp	r3, #0
 191 0066 2CDD     		ble	.L17
 192              	.L12:
 193              		.loc 1 271 0 is_stmt 0 discriminator 2
 194 0068 FFF7FEFF 		bl	chSchRescheduleS
 195              	.LVL9:
 196              	@ 271 "../../ChibiOS_2.6.1/test/testsem.c" 1
 197 006c 62B6     		cpsie   i
 198              	@ 0 "" 2
 199              		.loc 1 272 0 is_stmt 1 discriminator 2
 200              		.code	16
 201 006e 059A     		ldr	r2, [sp, #20]
 202 0070 D017     		asr	r0, r2, #31
 203 0072 811A     		sub	r1, r0, r2
 204 0074 C90F     		lsr	r1, r1, #31
 205 0076 0320     		mov	r0, #3
 206 0078 FFF7FEFF 		bl	_test_assert
 207              	.LVL10:
 208 007c 0028     		cmp	r0, #0
 209 007e D2D1     		bne	.L10
 210              		.loc 1 273 0
 211 0080 0599     		ldr	r1, [sp, #20]
 212 0082 0420     		mov	r0, #4
 213 0084 0139     		sub	r1, r1, #1
 214 0086 4B42     		neg	r3, r1
 215 0088 5941     		adc	r1, r1, r3
 216 008a FFF7FEFF 		bl	_test_assert
 217              	.LVL11:
 218 008e 0028     		cmp	r0, #0
 219 0090 C9D1     		bne	.L10
 220              		.loc 1 276 0
 221              	@ 276 "../../ChibiOS_2.6.1/test/testsem.c" 1
 222 0092 72B6     		cpsid   i
 223              	@ 0 "" 2
 224              		.code	16
 225 0094 059B     		ldr	r3, [sp, #20]
 226 0096 002B     		cmp	r3, #0
 227 0098 17DD     		ble	.L18
 228              	.L13:
ARM GAS  C:\Users\3130\AppData\Local\Temp\ccqgvhoQ.s 			page 5


 229              		.loc 1 276 0 is_stmt 0 discriminator 2
 230 009a FFF7FEFF 		bl	chSchRescheduleS
 231              	.LVL12:
 232              	@ 276 "../../ChibiOS_2.6.1/test/testsem.c" 1
 233 009e 62B6     		cpsie   i
 234              	@ 0 "" 2
 235              		.loc 1 277 0 is_stmt 1 discriminator 2
 236              		.code	16
 237 00a0 059A     		ldr	r2, [sp, #20]
 238 00a2 D017     		asr	r0, r2, #31
 239 00a4 811A     		sub	r1, r0, r2
 240 00a6 C90F     		lsr	r1, r1, #31
 241 00a8 0320     		mov	r0, #3
 242 00aa FFF7FEFF 		bl	_test_assert
 243              	.LVL13:
 244 00ae 0028     		cmp	r0, #0
 245 00b0 B9D1     		bne	.L10
 246              		.loc 1 278 0
 247 00b2 0599     		ldr	r1, [sp, #20]
 248 00b4 0520     		mov	r0, #5
 249 00b6 0139     		sub	r1, r1, #1
 250 00b8 4B42     		neg	r3, r1
 251 00ba 5941     		adc	r1, r1, r3
 252 00bc FFF7FEFF 		bl	_test_assert
 253              	.LVL14:
 254 00c0 B1E7     		b	.L10
 255              	.L17:
 256              		.loc 1 271 0 discriminator 1
 257 00c2 03A8     		add	r0, sp, #12
 258 00c4 FFF7FEFF 		bl	chSemSignalI
 259              	.LVL15:
 260 00c8 CEE7     		b	.L12
 261              	.L18:
 262              		.loc 1 276 0 discriminator 1
 263 00ca 03A8     		add	r0, sp, #12
 264 00cc FFF7FEFF 		bl	chSemSignalI
 265              	.LVL16:
 266 00d0 E3E7     		b	.L13
 267              	.L20:
 268 00d2 C046     		.align	2
 269              	.L19:
 270 00d4 00000000 		.word	rlist
 271 00d8 00000000 		.word	wa
 272 00dc 00000000 		.word	thread4
 273 00e0 00000000 		.word	threads
 274              		.cfi_endproc
 275              	.LFE17:
 276              		.size	sem4_execute, .-sem4_execute
 277 00e4 C046C046 		.section	.text.thread4,"ax",%progbits
 277      C046C046 
 277      C046C046 
 278              		.align	2
 279              		.p2align 4,,15
 280              		.code	16
 281              		.thumb_func
 282              		.type	thread4, %function
 283              	thread4:
ARM GAS  C:\Users\3130\AppData\Local\Temp\ccqgvhoQ.s 			page 6


 284              	.LFB16:
 285              		.loc 1 245 0
 286              		.cfi_startproc
 287              	.LVL17:
 288 0000 08B5     		push	{r3, lr}
 289              	.LCFI5:
 290              		.cfi_def_cfa_offset 8
 291              		.cfi_offset 3, -8
 292              		.cfi_offset 14, -4
 293              		.loc 1 247 0
 294              	@ 247 "../../ChibiOS_2.6.1/test/testsem.c" 1
 295 0002 72B6     		cpsid   i
 296              	@ 0 "" 2
 297              		.code	16
 298 0004 8368     		ldr	r3, [r0, #8]
 299 0006 002B     		cmp	r3, #0
 300 0008 04DD     		ble	.L23
 301              	.LVL18:
 302              	.L22:
 303              		.loc 1 247 0 is_stmt 0 discriminator 2
 304 000a FFF7FEFF 		bl	chSchRescheduleS
 305              	.LVL19:
 306              	@ 247 "../../ChibiOS_2.6.1/test/testsem.c" 1
 307 000e 62B6     		cpsie   i
 308              	@ 0 "" 2
 309              		.loc 1 249 0 is_stmt 1 discriminator 2
 310              		.code	16
 311 0010 0020     		mov	r0, #0
 312              		@ sp needed for prologue
 313 0012 08BD     		pop	{r3, pc}
 314              	.LVL20:
 315              	.L23:
 316              		.loc 1 247 0 discriminator 1
 317 0014 FFF7FEFF 		bl	chSemSignalI
 318              	.LVL21:
 319 0018 F7E7     		b	.L22
 320              		.cfi_endproc
 321              	.LFE16:
 322              		.size	thread4, .-thread4
 323 001a C046C046 		.section	.text.thread3,"ax",%progbits
 323      C046
 324              		.align	2
 325              		.p2align 4,,15
 326              		.code	16
 327              		.thumb_func
 328              		.type	thread3, %function
 329              	thread3:
 330              	.LFB14:
 331              		.loc 1 209 0
 332              		.cfi_startproc
 333              	.LVL22:
 334 0000 10B5     		push	{r4, lr}
 335              	.LCFI6:
 336              		.cfi_def_cfa_offset 8
 337              		.cfi_offset 4, -8
 338              		.cfi_offset 14, -4
 339              		.loc 1 212 0
ARM GAS  C:\Users\3130\AppData\Local\Temp\ccqgvhoQ.s 			page 7


 340 0002 044C     		ldr	r4, .L25
 341              		.loc 1 215 0
 342              		@ sp needed for prologue
 343              		.loc 1 212 0
 344 0004 201C     		mov	r0, r4
 345              	.LVL23:
 346 0006 FFF7FEFF 		bl	chSemWait
 347              	.LVL24:
 348              		.loc 1 213 0
 349 000a 201C     		mov	r0, r4
 350 000c FFF7FEFF 		bl	chSemSignal
 351              	.LVL25:
 352              		.loc 1 215 0
 353 0010 0020     		mov	r0, #0
 354 0012 10BD     		pop	{r4, pc}
 355              	.L26:
 356              		.align	2
 357              	.L25:
 358 0014 00000000 		.word	.LANCHOR0
 359              		.cfi_endproc
 360              	.LFE14:
 361              		.size	thread3, .-thread3
 362 0018 C046C046 		.section	.text.thread1,"ax",%progbits
 362      C046C046 
 363              		.align	2
 364              		.p2align 4,,15
 365              		.code	16
 366              		.thumb_func
 367              		.type	thread1, %function
 368              	thread1:
 369              	.LFB8:
 370              		.loc 1 77 0
 371              		.cfi_startproc
 372              	.LVL26:
 373 0000 10B5     		push	{r4, lr}
 374              	.LCFI7:
 375              		.cfi_def_cfa_offset 8
 376              		.cfi_offset 4, -8
 377              		.cfi_offset 14, -4
 378              		.loc 1 77 0
 379 0002 041C     		mov	r4, r0
 380              		.loc 1 79 0
 381 0004 0348     		ldr	r0, .L28
 382              	.LVL27:
 383 0006 FFF7FEFF 		bl	chSemWait
 384              	.LVL28:
 385              		.loc 1 80 0
 386 000a 2078     		ldrb	r0, [r4]
 387 000c FFF7FEFF 		bl	test_emit_token
 388              	.LVL29:
 389              		.loc 1 82 0
 390              		@ sp needed for prologue
 391 0010 0020     		mov	r0, #0
 392              	.LVL30:
 393 0012 10BD     		pop	{r4, pc}
 394              	.L29:
 395              		.align	2
ARM GAS  C:\Users\3130\AppData\Local\Temp\ccqgvhoQ.s 			page 8


 396              	.L28:
 397 0014 00000000 		.word	.LANCHOR0
 398              		.cfi_endproc
 399              	.LFE8:
 400              		.size	thread1, .-thread1
 401 0018 C046C046 		.section	.text.thread2,"ax",%progbits
 401      C046C046 
 402              		.align	2
 403              		.p2align 4,,15
 404              		.code	16
 405              		.thumb_func
 406              		.type	thread2, %function
 407              	thread2:
 408              	.LFB11:
 409              		.loc 1 133 0
 410              		.cfi_startproc
 411              	.LVL31:
 412 0000 08B5     		push	{r3, lr}
 413              	.LCFI8:
 414              		.cfi_def_cfa_offset 8
 415              		.cfi_offset 3, -8
 416              		.cfi_offset 14, -4
 417              		.loc 1 136 0
 418 0002 3220     		mov	r0, #50
 419              	.LVL32:
 420 0004 FFF7FEFF 		bl	chThdSleep
 421              	.LVL33:
 422              		.loc 1 137 0
 423              	@ 137 "../../ChibiOS_2.6.1/test/testsem.c" 1
 424 0008 72B6     		cpsid   i
 425              	@ 0 "" 2
 426              		.loc 1 138 0
 427              		.code	16
 428 000a 0448     		ldr	r0, .L31
 429 000c FFF7FEFF 		bl	chSemSignalI
 430              	.LVL34:
 431              		.loc 1 139 0
 432 0010 FFF7FEFF 		bl	chSchRescheduleS
 433              	.LVL35:
 434              		.loc 1 140 0
 435              	@ 140 "../../ChibiOS_2.6.1/test/testsem.c" 1
 436 0014 62B6     		cpsie   i
 437              	@ 0 "" 2
 438              		.loc 1 142 0
 439              		.code	16
 440 0016 0020     		mov	r0, #0
 441              		@ sp needed for prologue
 442 0018 08BD     		pop	{r3, pc}
 443              	.L32:
 444 001a C046     		.align	2
 445              	.L31:
 446 001c 00000000 		.word	.LANCHOR0
 447              		.cfi_endproc
 448              	.LFE11:
 449              		.size	thread2, .-thread2
 450              		.section	.text.sem1_execute,"ax",%progbits
 451              		.align	2
ARM GAS  C:\Users\3130\AppData\Local\Temp\ccqgvhoQ.s 			page 9


 452              		.p2align 4,,15
 453              		.code	16
 454              		.thumb_func
 455              		.type	sem1_execute, %function
 456              	sem1_execute:
 457              	.LFB9:
 458              		.loc 1 84 0
 459              		.cfi_startproc
 460 0000 F0B5     		push	{r4, r5, r6, r7, lr}
 461              	.LCFI9:
 462              		.cfi_def_cfa_offset 20
 463              		.cfi_offset 4, -20
 464              		.cfi_offset 5, -16
 465              		.cfi_offset 6, -12
 466              		.cfi_offset 7, -8
 467              		.cfi_offset 14, -4
 468 0002 4746     		mov	r7, r8
 469 0004 80B4     		push	{r7}
 470              	.LCFI10:
 471              		.cfi_def_cfa_offset 24
 472              		.cfi_offset 8, -24
 473              		.loc 1 86 0
 474 0006 414F     		ldr	r7, .L35
 475 0008 414C     		ldr	r4, .L35+4
 476 000a B869     		ldr	r0, [r7, #24]
 477 000c 2368     		ldr	r3, [r4]
 478              		.loc 1 84 0
 479 000e 84B0     		sub	sp, sp, #16
 480              	.LCFI11:
 481              		.cfi_def_cfa_offset 40
 482              		.loc 1 86 0
 483 0010 404E     		ldr	r6, .L35+8
 484 0012 8268     		ldr	r2, [r0, #8]
 485 0014 4049     		ldr	r1, .L35+12
 486 0016 0393     		str	r3, [sp, #12]
 487 0018 9825     		mov	r5, #152
 488 001a 0532     		add	r2, r2, #5
 489 001c 0091     		str	r1, [sp]
 490 001e 331C     		mov	r3, r6
 491 0020 8846     		mov	r8, r1
 492 0022 0398     		ldr	r0, [sp, #12]
 493 0024 6900     		lsl	r1, r5, #1
 494 0026 FFF7FEFF 		bl	chThdCreateStatic
 495              	.LVL36:
 496 002a 3C4D     		ldr	r5, .L35+16
 497              		.loc 1 87 0
 498 002c 6268     		ldr	r2, [r4, #4]
 499 002e BB69     		ldr	r3, [r7, #24]
 500              		.loc 1 86 0
 501 0030 2860     		str	r0, [r5]
 502              		.loc 1 87 0
 503 0032 0292     		str	r2, [sp, #8]
 504 0034 3A48     		ldr	r0, .L35+20
 505 0036 9A68     		ldr	r2, [r3, #8]
 506 0038 9821     		mov	r1, #152
 507 003a 0132     		add	r2, r2, #1
 508 003c 0090     		str	r0, [sp]
ARM GAS  C:\Users\3130\AppData\Local\Temp\ccqgvhoQ.s 			page 10


 509 003e 4900     		lsl	r1, r1, #1
 510 0040 331C     		mov	r3, r6
 511 0042 0298     		ldr	r0, [sp, #8]
 512 0044 FFF7FEFF 		bl	chThdCreateStatic
 513              	.LVL37:
 514              		.loc 1 88 0
 515 0048 A268     		ldr	r2, [r4, #8]
 516 004a BB69     		ldr	r3, [r7, #24]
 517              		.loc 1 87 0
 518 004c 6860     		str	r0, [r5, #4]
 519              		.loc 1 88 0
 520 004e 0292     		str	r2, [sp, #8]
 521 0050 3448     		ldr	r0, .L35+24
 522 0052 9A68     		ldr	r2, [r3, #8]
 523 0054 9821     		mov	r1, #152
 524 0056 0332     		add	r2, r2, #3
 525 0058 0090     		str	r0, [sp]
 526 005a 4900     		lsl	r1, r1, #1
 527 005c 331C     		mov	r3, r6
 528 005e 0298     		ldr	r0, [sp, #8]
 529 0060 FFF7FEFF 		bl	chThdCreateStatic
 530              	.LVL38:
 531              		.loc 1 89 0
 532 0064 E268     		ldr	r2, [r4, #12]
 533 0066 BB69     		ldr	r3, [r7, #24]
 534              		.loc 1 88 0
 535 0068 A860     		str	r0, [r5, #8]
 536              		.loc 1 89 0
 537 006a 0292     		str	r2, [sp, #8]
 538 006c 2E48     		ldr	r0, .L35+28
 539 006e 9A68     		ldr	r2, [r3, #8]
 540 0070 9821     		mov	r1, #152
 541 0072 0432     		add	r2, r2, #4
 542 0074 0090     		str	r0, [sp]
 543 0076 4900     		lsl	r1, r1, #1
 544 0078 331C     		mov	r3, r6
 545 007a 0298     		ldr	r0, [sp, #8]
 546 007c FFF7FEFF 		bl	chThdCreateStatic
 547              	.LVL39:
 548              		.loc 1 90 0
 549 0080 BA69     		ldr	r2, [r7, #24]
 550 0082 2469     		ldr	r4, [r4, #16]
 551 0084 9268     		ldr	r2, [r2, #8]
 552 0086 294B     		ldr	r3, .L35+32
 553 0088 9821     		mov	r1, #152
 554 008a 4900     		lsl	r1, r1, #1
 555 008c 0232     		add	r2, r2, #2
 556              		.loc 1 89 0
 557 008e E860     		str	r0, [r5, #12]
 558              		.loc 1 90 0
 559 0090 0093     		str	r3, [sp]
 560 0092 201C     		mov	r0, r4
 561 0094 331C     		mov	r3, r6
 562 0096 0294     		str	r4, [sp, #8]
 563 0098 FFF7FEFF 		bl	chThdCreateStatic
 564              	.LVL40:
 565              		.loc 1 91 0
ARM GAS  C:\Users\3130\AppData\Local\Temp\ccqgvhoQ.s 			page 11


 566 009c 244C     		ldr	r4, .L35+36
 567              		.loc 1 90 0
 568 009e 2861     		str	r0, [r5, #16]
 569              		.loc 1 91 0
 570 00a0 201C     		mov	r0, r4
 571 00a2 FFF7FEFF 		bl	chSemSignal
 572              	.LVL41:
 573              		.loc 1 92 0
 574 00a6 201C     		mov	r0, r4
 575 00a8 FFF7FEFF 		bl	chSemSignal
 576              	.LVL42:
 577              		.loc 1 93 0
 578 00ac 201C     		mov	r0, r4
 579 00ae FFF7FEFF 		bl	chSemSignal
 580              	.LVL43:
 581              		.loc 1 94 0
 582 00b2 201C     		mov	r0, r4
 583 00b4 FFF7FEFF 		bl	chSemSignal
 584              	.LVL44:
 585              		.loc 1 95 0
 586 00b8 201C     		mov	r0, r4
 587 00ba FFF7FEFF 		bl	chSemSignal
 588              	.LVL45:
 589              		.loc 1 96 0
 590 00be FFF7FEFF 		bl	test_wait_threads
 591              	.LVL46:
 592              		.loc 1 100 0
 593 00c2 0120     		mov	r0, #1
 594 00c4 1B49     		ldr	r1, .L35+40
 595 00c6 FFF7FEFF 		bl	_test_assert_sequence
 596              	.LVL47:
 597 00ca 0028     		cmp	r0, #0
 598 00cc 1AD1     		bne	.L33
 599              		.loc 1 102 0
 600 00ce BF69     		ldr	r7, [r7, #24]
 601 00d0 4046     		mov	r0, r8
 602 00d2 BA68     		ldr	r2, [r7, #8]
 603 00d4 9823     		mov	r3, #152
 604 00d6 0090     		str	r0, [sp]
 605 00d8 5900     		lsl	r1, r3, #1
 606 00da 0532     		add	r2, r2, #5
 607 00dc 0398     		ldr	r0, [sp, #12]
 608 00de 331C     		mov	r3, r6
 609 00e0 FFF7FEFF 		bl	chThdCreateStatic
 610              	.LVL48:
 611 00e4 2860     		str	r0, [r5]
 612              		.loc 1 103 0
 613              	@ 103 "../../ChibiOS_2.6.1/test/testsem.c" 1
 614 00e6 72B6     		cpsid   i
 615              	@ 0 "" 2
 616              		.loc 1 104 0
 617              		.code	16
 618 00e8 0221     		mov	r1, #2
 619 00ea 201C     		mov	r0, r4
 620 00ec FFF7FEFF 		bl	chSemAddCounterI
 621              	.LVL49:
 622              		.loc 1 105 0
ARM GAS  C:\Users\3130\AppData\Local\Temp\ccqgvhoQ.s 			page 12


 623              	@ 105 "../../ChibiOS_2.6.1/test/testsem.c" 1
 624 00f0 62B6     		cpsie   i
 625              	@ 0 "" 2
 626              		.loc 1 106 0
 627              		.code	16
 628 00f2 FFF7FEFF 		bl	test_wait_threads
 629              	.LVL50:
 630              		.loc 1 107 0
 631 00f6 A168     		ldr	r1, [r4, #8]
 632 00f8 0220     		mov	r0, #2
 633 00fa 0139     		sub	r1, r1, #1
 634 00fc 4B42     		neg	r3, r1
 635 00fe 5941     		adc	r1, r1, r3
 636 0100 FFF7FEFF 		bl	_test_assert
 637              	.LVL51:
 638              	.L33:
 639              		.loc 1 108 0
 640 0104 04B0     		add	sp, sp, #16
 641              		@ sp needed for prologue
 642 0106 04BC     		pop	{r2}
 643 0108 9046     		mov	r8, r2
 644 010a F0BD     		pop	{r4, r5, r6, r7, pc}
 645              	.L36:
 646              		.align	2
 647              	.L35:
 648 010c 00000000 		.word	rlist
 649 0110 00000000 		.word	wa
 650 0114 00000000 		.word	thread1
 651 0118 00000000 		.word	.LC13
 652 011c 00000000 		.word	threads
 653 0120 04000000 		.word	.LC16
 654 0124 08000000 		.word	.LC18
 655 0128 0C000000 		.word	.LC20
 656 012c 10000000 		.word	.LC22
 657 0130 00000000 		.word	.LANCHOR0
 658 0134 14000000 		.word	.LC25
 659              		.cfi_endproc
 660              	.LFE9:
 661              		.size	sem1_execute, .-sem1_execute
 662 0138 C046C046 		.section	.text.sem3_execute,"ax",%progbits
 662      C046C046 
 663              		.align	2
 664              		.p2align 4,,15
 665              		.code	16
 666              		.thumb_func
 667              		.type	sem3_execute, %function
 668              	sem3_execute:
 669              	.LFB15:
 670              		.loc 1 217 0
 671              		.cfi_startproc
 672 0000 10B5     		push	{r4, lr}
 673              	.LCFI12:
 674              		.cfi_def_cfa_offset 8
 675              		.cfi_offset 4, -8
 676              		.cfi_offset 14, -4
 677              		.loc 1 219 0
 678 0002 1E4B     		ldr	r3, .L42
ARM GAS  C:\Users\3130\AppData\Local\Temp\ccqgvhoQ.s 			page 13


 679 0004 1E4C     		ldr	r4, .L42+4
 680 0006 9869     		ldr	r0, [r3, #24]
 681              		.loc 1 217 0
 682 0008 82B0     		sub	sp, sp, #8
 683              	.LCFI13:
 684              		.cfi_def_cfa_offset 16
 685              		.loc 1 219 0
 686 000a 8268     		ldr	r2, [r0, #8]
 687 000c 0021     		mov	r1, #0
 688 000e 9823     		mov	r3, #152
 689 0010 0132     		add	r2, r2, #1
 690 0012 0091     		str	r1, [sp]
 691 0014 2068     		ldr	r0, [r4]
 692 0016 5900     		lsl	r1, r3, #1
 693 0018 1A4B     		ldr	r3, .L42+8
 694 001a FFF7FEFF 		bl	chThdCreateStatic
 695              	.LVL52:
 696              		.loc 1 220 0
 697 001e 1A4C     		ldr	r4, .L42+12
 698              		.loc 1 219 0
 699 0020 1A4A     		ldr	r2, .L42+16
 700              		.loc 1 220 0
 701 0022 211C     		mov	r1, r4
 702              		.loc 1 219 0
 703 0024 1060     		str	r0, [r2]
 704              		.loc 1 220 0
 705 0026 201C     		mov	r0, r4
 706 0028 FFF7FEFF 		bl	chSemSignalWait
 707              	.LVL53:
 708              		.loc 1 221 0
 709 002c 2068     		ldr	r0, [r4]
 710 002e 011B     		sub	r1, r0, r4
 711 0030 4B42     		neg	r3, r1
 712 0032 5941     		adc	r1, r1, r3
 713 0034 0120     		mov	r0, #1
 714 0036 FFF7FEFF 		bl	_test_assert
 715              	.LVL54:
 716 003a 0028     		cmp	r0, #0
 717 003c 01D0     		beq	.L41
 718              	.L37:
 719              		.loc 1 227 0
 720 003e 02B0     		add	sp, sp, #8
 721              		@ sp needed for prologue
 722 0040 10BD     		pop	{r4, pc}
 723              	.L41:
 724              		.loc 1 222 0
 725 0042 A368     		ldr	r3, [r4, #8]
 726 0044 0220     		mov	r0, #2
 727 0046 5942     		neg	r1, r3
 728 0048 5941     		adc	r1, r1, r3
 729 004a FFF7FEFF 		bl	_test_assert
 730              	.LVL55:
 731 004e 0028     		cmp	r0, #0
 732 0050 F5D1     		bne	.L37
 733              	.LBB4:
 734              	.LBB5:
 735              		.loc 1 224 0
ARM GAS  C:\Users\3130\AppData\Local\Temp\ccqgvhoQ.s 			page 14


 736 0052 211C     		mov	r1, r4
 737 0054 201C     		mov	r0, r4
 738 0056 FFF7FEFF 		bl	chSemSignalWait
 739              	.LVL56:
 740              		.loc 1 225 0
 741 005a 2168     		ldr	r1, [r4]
 742 005c 0320     		mov	r0, #3
 743 005e 091B     		sub	r1, r1, r4
 744 0060 4B42     		neg	r3, r1
 745 0062 5941     		adc	r1, r1, r3
 746 0064 FFF7FEFF 		bl	_test_assert
 747              	.LVL57:
 748 0068 0028     		cmp	r0, #0
 749 006a E8D1     		bne	.L37
 750              		.loc 1 226 0
 751 006c A168     		ldr	r1, [r4, #8]
 752 006e 0420     		mov	r0, #4
 753 0070 4B42     		neg	r3, r1
 754 0072 5941     		adc	r1, r1, r3
 755 0074 FFF7FEFF 		bl	_test_assert
 756              	.LVL58:
 757 0078 E1E7     		b	.L37
 758              	.L43:
 759 007a C046     		.align	2
 760              	.L42:
 761 007c 00000000 		.word	rlist
 762 0080 00000000 		.word	wa
 763 0084 00000000 		.word	thread3
 764 0088 00000000 		.word	.LANCHOR0
 765 008c 00000000 		.word	threads
 766              	.LBE5:
 767              	.LBE4:
 768              		.cfi_endproc
 769              	.LFE15:
 770              		.size	sem3_execute, .-sem3_execute
 771              		.section	.text.sem2_execute,"ax",%progbits
 772              		.align	2
 773              		.p2align 4,,15
 774              		.code	16
 775              		.thumb_func
 776              		.type	sem2_execute, %function
 777              	sem2_execute:
 778              	.LFB12:
 779              		.loc 1 144 0
 780              		.cfi_startproc
 781 0000 30B5     		push	{r4, r5, lr}
 782              	.LCFI14:
 783              		.cfi_def_cfa_offset 12
 784              		.cfi_offset 4, -12
 785              		.cfi_offset 5, -8
 786              		.cfi_offset 14, -4
 787              		.loc 1 152 0
 788 0002 894C     		ldr	r4, .L49
 789              		.loc 1 144 0
 790 0004 83B0     		sub	sp, sp, #12
 791              	.LCFI15:
 792              		.cfi_def_cfa_offset 24
ARM GAS  C:\Users\3130\AppData\Local\Temp\ccqgvhoQ.s 			page 15


 793              		.loc 1 152 0
 794 0006 0021     		mov	r1, #0
 795 0008 201C     		mov	r0, r4
 796 000a FFF7FEFF 		bl	chSemWaitTimeout
 797              	.LVL59:
 798              		.loc 1 153 0
 799 000e 411C     		add	r1, r0, #1
 800 0010 4B42     		neg	r3, r1
 801 0012 5941     		adc	r1, r1, r3
 802 0014 0120     		mov	r0, #1
 803              	.LVL60:
 804 0016 FFF7FEFF 		bl	_test_assert
 805              	.LVL61:
 806 001a 0028     		cmp	r0, #0
 807 001c 01D0     		beq	.L48
 808              	.L44:
 809              		.loc 1 182 0
 810 001e 03B0     		add	sp, sp, #12
 811              		@ sp needed for prologue
 812 0020 30BD     		pop	{r4, r5, pc}
 813              	.L48:
 814              		.loc 1 154 0
 815 0022 2268     		ldr	r2, [r4]
 816 0024 0220     		mov	r0, #2
 817 0026 111B     		sub	r1, r2, r4
 818 0028 4B42     		neg	r3, r1
 819 002a 5941     		adc	r1, r1, r3
 820 002c FFF7FEFF 		bl	_test_assert
 821              	.LVL62:
 822 0030 0028     		cmp	r0, #0
 823 0032 F4D1     		bne	.L44
 824              		.loc 1 155 0
 825 0034 A068     		ldr	r0, [r4, #8]
 826 0036 4142     		neg	r1, r0
 827 0038 4141     		adc	r1, r1, r0
 828 003a 0320     		mov	r0, #3
 829 003c FFF7FEFF 		bl	_test_assert
 830              	.LVL63:
 831 0040 0028     		cmp	r0, #0
 832 0042 ECD1     		bne	.L44
 833              	.LBB8:
 834              	.LBB9:
 835              		.loc 1 160 0
 836 0044 794B     		ldr	r3, .L49+4
 837 0046 7A4D     		ldr	r5, .L49+8
 838 0048 9969     		ldr	r1, [r3, #24]
 839 004a 9823     		mov	r3, #152
 840 004c 8A68     		ldr	r2, [r1, #8]
 841 004e 5900     		lsl	r1, r3, #1
 842 0050 013A     		sub	r2, r2, #1
 843 0052 784B     		ldr	r3, .L49+12
 844 0054 0090     		str	r0, [sp]
 845 0056 2868     		ldr	r0, [r5]
 846 0058 FFF7FEFF 		bl	chThdCreateStatic
 847              	.LVL64:
 848 005c 764A     		ldr	r2, .L49+16
 849              		.loc 1 162 0
ARM GAS  C:\Users\3130\AppData\Local\Temp\ccqgvhoQ.s 			page 16


 850 005e FA21     		mov	r1, #250
 851              		.loc 1 160 0
 852 0060 1060     		str	r0, [r2]
 853              		.loc 1 162 0
 854 0062 4900     		lsl	r1, r1, #1
 855 0064 201C     		mov	r0, r4
 856 0066 FFF7FEFF 		bl	chSemWaitTimeout
 857              	.LVL65:
 858 006a 051C     		mov	r5, r0
 859              	.LVL66:
 860              		.loc 1 163 0
 861 006c FFF7FEFF 		bl	test_wait_threads
 862              	.LVL67:
 863              		.loc 1 164 0
 864 0070 6942     		neg	r1, r5
 865 0072 6941     		adc	r1, r1, r5
 866              	.LVL68:
 867 0074 0420     		mov	r0, #4
 868 0076 FFF7FEFF 		bl	_test_assert
 869              	.LVL69:
 870 007a 0028     		cmp	r0, #0
 871 007c CFD1     		bne	.L44
 872              		.loc 1 165 0
 873 007e 2068     		ldr	r0, [r4]
 874 0080 011B     		sub	r1, r0, r4
 875 0082 4B42     		neg	r3, r1
 876 0084 5941     		adc	r1, r1, r3
 877 0086 0520     		mov	r0, #5
 878 0088 FFF7FEFF 		bl	_test_assert
 879              	.LVL70:
 880 008c 0028     		cmp	r0, #0
 881 008e C6D1     		bne	.L44
 882              		.loc 1 166 0
 883 0090 A368     		ldr	r3, [r4, #8]
 884 0092 0620     		mov	r0, #6
 885 0094 5942     		neg	r1, r3
 886 0096 5941     		adc	r1, r1, r3
 887 0098 FFF7FEFF 		bl	_test_assert
 888              	.LVL71:
 889 009c 0028     		cmp	r0, #0
 890 009e BED1     		bne	.L44
 891              		.loc 1 171 0
 892 00a0 FFF7FEFF 		bl	test_wait_tick
 893              	.LVL72:
 894              		.loc 1 172 0
 895 00a4 654A     		ldr	r2, .L49+20
 896              		.loc 1 174 0
 897 00a6 4120     		mov	r0, #65
 898              		.loc 1 172 0
 899 00a8 D568     		ldr	r5, [r2, #12]
 900              	.LVL73:
 901              		.loc 1 174 0
 902 00aa FFF7FEFF 		bl	test_emit_token
 903              	.LVL74:
 904              		.loc 1 175 0
 905 00ae FA21     		mov	r1, #250
 906 00b0 4900     		lsl	r1, r1, #1
ARM GAS  C:\Users\3130\AppData\Local\Temp\ccqgvhoQ.s 			page 17


 907 00b2 201C     		mov	r0, r4
 908 00b4 FFF7FEFF 		bl	chSemWaitTimeout
 909              	.LVL75:
 910              		.loc 1 176 0
 911 00b8 411C     		add	r1, r0, #1
 912 00ba 4B42     		neg	r3, r1
 913 00bc 5941     		adc	r1, r1, r3
 914 00be 0720     		mov	r0, #7
 915              	.LVL76:
 916 00c0 FFF7FEFF 		bl	_test_assert
 917              	.LVL77:
 918 00c4 0028     		cmp	r0, #0
 919 00c6 AAD1     		bne	.L44
 920              		.loc 1 177 0
 921 00c8 2068     		ldr	r0, [r4]
 922 00ca 011B     		sub	r1, r0, r4
 923 00cc 4B42     		neg	r3, r1
 924 00ce 5941     		adc	r1, r1, r3
 925 00d0 0820     		mov	r0, #8
 926 00d2 FFF7FEFF 		bl	_test_assert
 927              	.LVL78:
 928 00d6 0028     		cmp	r0, #0
 929 00d8 A1D1     		bne	.L44
 930              		.loc 1 178 0
 931 00da A368     		ldr	r3, [r4, #8]
 932 00dc 0920     		mov	r0, #9
 933 00de 5942     		neg	r1, r3
 934 00e0 5941     		adc	r1, r1, r3
 935 00e2 FFF7FEFF 		bl	_test_assert
 936              	.LVL79:
 937 00e6 0028     		cmp	r0, #0
 938 00e8 99D1     		bne	.L44
 939              	.LVL80:
 940              		.loc 1 174 0
 941 00ea 4220     		mov	r0, #66
 942 00ec FFF7FEFF 		bl	test_emit_token
 943              	.LVL81:
 944              		.loc 1 175 0
 945 00f0 FA22     		mov	r2, #250
 946 00f2 5100     		lsl	r1, r2, #1
 947 00f4 201C     		mov	r0, r4
 948 00f6 FFF7FEFF 		bl	chSemWaitTimeout
 949              	.LVL82:
 950              		.loc 1 176 0
 951 00fa 411C     		add	r1, r0, #1
 952 00fc 4B42     		neg	r3, r1
 953 00fe 5941     		adc	r1, r1, r3
 954 0100 0720     		mov	r0, #7
 955              	.LVL83:
 956 0102 FFF7FEFF 		bl	_test_assert
 957              	.LVL84:
 958 0106 0028     		cmp	r0, #0
 959 0108 00D0     		beq	.LCB821
 960 010a 88E7     		b	.L44	@long jump
 961              	.LCB821:
 962              		.loc 1 177 0
 963 010c 2168     		ldr	r1, [r4]
ARM GAS  C:\Users\3130\AppData\Local\Temp\ccqgvhoQ.s 			page 18


 964 010e 0820     		mov	r0, #8
 965 0110 091B     		sub	r1, r1, r4
 966 0112 4B42     		neg	r3, r1
 967 0114 5941     		adc	r1, r1, r3
 968 0116 FFF7FEFF 		bl	_test_assert
 969              	.LVL85:
 970 011a 0028     		cmp	r0, #0
 971 011c 00D0     		beq	.LCB832
 972 011e 7EE7     		b	.L44	@long jump
 973              	.LCB832:
 974              		.loc 1 178 0
 975 0120 A068     		ldr	r0, [r4, #8]
 976 0122 4142     		neg	r1, r0
 977 0124 4141     		adc	r1, r1, r0
 978 0126 0920     		mov	r0, #9
 979 0128 FFF7FEFF 		bl	_test_assert
 980              	.LVL86:
 981 012c 0028     		cmp	r0, #0
 982 012e 00D0     		beq	.LCB842
 983 0130 75E7     		b	.L44	@long jump
 984              	.LCB842:
 985              	.LVL87:
 986              		.loc 1 174 0
 987 0132 4320     		mov	r0, #67
 988 0134 FFF7FEFF 		bl	test_emit_token
 989              	.LVL88:
 990              		.loc 1 175 0
 991 0138 FA23     		mov	r3, #250
 992 013a 5900     		lsl	r1, r3, #1
 993 013c 201C     		mov	r0, r4
 994 013e FFF7FEFF 		bl	chSemWaitTimeout
 995              	.LVL89:
 996              		.loc 1 176 0
 997 0142 411C     		add	r1, r0, #1
 998 0144 4B42     		neg	r3, r1
 999 0146 5941     		adc	r1, r1, r3
 1000 0148 0720     		mov	r0, #7
 1001              	.LVL90:
 1002 014a FFF7FEFF 		bl	_test_assert
 1003              	.LVL91:
 1004 014e 0028     		cmp	r0, #0
 1005 0150 00D0     		beq	.LCB862
 1006 0152 64E7     		b	.L44	@long jump
 1007              	.LCB862:
 1008              		.loc 1 177 0
 1009 0154 2268     		ldr	r2, [r4]
 1010 0156 0820     		mov	r0, #8
 1011 0158 111B     		sub	r1, r2, r4
 1012 015a 4B42     		neg	r3, r1
 1013 015c 5941     		adc	r1, r1, r3
 1014 015e FFF7FEFF 		bl	_test_assert
 1015              	.LVL92:
 1016 0162 0028     		cmp	r0, #0
 1017 0164 00D0     		beq	.LCB873
 1018 0166 5AE7     		b	.L44	@long jump
 1019              	.LCB873:
 1020              		.loc 1 178 0
ARM GAS  C:\Users\3130\AppData\Local\Temp\ccqgvhoQ.s 			page 19


 1021 0168 A068     		ldr	r0, [r4, #8]
 1022 016a 4142     		neg	r1, r0
 1023 016c 4141     		adc	r1, r1, r0
 1024 016e 0920     		mov	r0, #9
 1025 0170 FFF7FEFF 		bl	_test_assert
 1026              	.LVL93:
 1027 0174 0028     		cmp	r0, #0
 1028 0176 00D0     		beq	.LCB883
 1029 0178 51E7     		b	.L44	@long jump
 1030              	.LCB883:
 1031              	.LVL94:
 1032              		.loc 1 174 0
 1033 017a 4420     		mov	r0, #68
 1034 017c FFF7FEFF 		bl	test_emit_token
 1035              	.LVL95:
 1036              		.loc 1 175 0
 1037 0180 FA21     		mov	r1, #250
 1038 0182 4900     		lsl	r1, r1, #1
 1039 0184 201C     		mov	r0, r4
 1040 0186 FFF7FEFF 		bl	chSemWaitTimeout
 1041              	.LVL96:
 1042              		.loc 1 176 0
 1043 018a 411C     		add	r1, r0, #1
 1044 018c 4B42     		neg	r3, r1
 1045 018e 5941     		adc	r1, r1, r3
 1046 0190 0720     		mov	r0, #7
 1047              	.LVL97:
 1048 0192 FFF7FEFF 		bl	_test_assert
 1049              	.LVL98:
 1050 0196 0028     		cmp	r0, #0
 1051 0198 00D0     		beq	.LCB903
 1052 019a 40E7     		b	.L44	@long jump
 1053              	.LCB903:
 1054              		.loc 1 177 0
 1055 019c 2368     		ldr	r3, [r4]
 1056 019e 0820     		mov	r0, #8
 1057 01a0 191B     		sub	r1, r3, r4
 1058 01a2 4B42     		neg	r3, r1
 1059 01a4 5941     		adc	r1, r1, r3
 1060 01a6 FFF7FEFF 		bl	_test_assert
 1061              	.LVL99:
 1062 01aa 0028     		cmp	r0, #0
 1063 01ac 00D0     		beq	.LCB914
 1064 01ae 36E7     		b	.L44	@long jump
 1065              	.LCB914:
 1066              		.loc 1 178 0
 1067 01b0 A268     		ldr	r2, [r4, #8]
 1068 01b2 0920     		mov	r0, #9
 1069 01b4 5142     		neg	r1, r2
 1070 01b6 5141     		adc	r1, r1, r2
 1071 01b8 FFF7FEFF 		bl	_test_assert
 1072              	.LVL100:
 1073 01bc 0028     		cmp	r0, #0
 1074 01be 00D0     		beq	.LCB924
 1075 01c0 2DE7     		b	.L44	@long jump
 1076              	.LCB924:
 1077              	.LVL101:
ARM GAS  C:\Users\3130\AppData\Local\Temp\ccqgvhoQ.s 			page 20


 1078              		.loc 1 174 0
 1079 01c2 4520     		mov	r0, #69
 1080 01c4 FFF7FEFF 		bl	test_emit_token
 1081              	.LVL102:
 1082              		.loc 1 175 0
 1083 01c8 FA21     		mov	r1, #250
 1084 01ca 4900     		lsl	r1, r1, #1
 1085 01cc 201C     		mov	r0, r4
 1086 01ce FFF7FEFF 		bl	chSemWaitTimeout
 1087              	.LVL103:
 1088              		.loc 1 176 0
 1089 01d2 411C     		add	r1, r0, #1
 1090 01d4 4B42     		neg	r3, r1
 1091 01d6 5941     		adc	r1, r1, r3
 1092 01d8 0720     		mov	r0, #7
 1093              	.LVL104:
 1094 01da FFF7FEFF 		bl	_test_assert
 1095              	.LVL105:
 1096 01de 0028     		cmp	r0, #0
 1097 01e0 00D0     		beq	.LCB944
 1098 01e2 1CE7     		b	.L44	@long jump
 1099              	.LCB944:
 1100              		.loc 1 177 0
 1101 01e4 2068     		ldr	r0, [r4]
 1102 01e6 011B     		sub	r1, r0, r4
 1103 01e8 4B42     		neg	r3, r1
 1104 01ea 5941     		adc	r1, r1, r3
 1105 01ec 0820     		mov	r0, #8
 1106 01ee FFF7FEFF 		bl	_test_assert
 1107              	.LVL106:
 1108 01f2 0028     		cmp	r0, #0
 1109 01f4 00D0     		beq	.LCB955
 1110 01f6 12E7     		b	.L44	@long jump
 1111              	.LCB955:
 1112              		.loc 1 178 0
 1113 01f8 A168     		ldr	r1, [r4, #8]
 1114 01fa 0920     		mov	r0, #9
 1115 01fc 4B42     		neg	r3, r1
 1116 01fe 5941     		adc	r1, r1, r3
 1117 0200 FFF7FEFF 		bl	_test_assert
 1118              	.LVL107:
 1119 0204 0028     		cmp	r0, #0
 1120 0206 00D0     		beq	.LCB964
 1121 0208 09E7     		b	.L44	@long jump
 1122              	.LCB964:
 1123              	.LVL108:
 1124              		.loc 1 180 0
 1125 020a 0A20     		mov	r0, #10
 1126 020c 0C49     		ldr	r1, .L49+24
 1127 020e FFF7FEFF 		bl	_test_assert_sequence
 1128              	.LVL109:
 1129 0212 0028     		cmp	r0, #0
 1130 0214 00D0     		beq	.LCB971
 1131 0216 02E7     		b	.L44	@long jump
 1132              	.LCB971:
 1133              		.loc 1 172 0
 1134 0218 0A4C     		ldr	r4, .L49+28
ARM GAS  C:\Users\3130\AppData\Local\Temp\ccqgvhoQ.s 			page 21


 1135              		.loc 1 181 0
 1136 021a 0B4B     		ldr	r3, .L49+32
 1137              		.loc 1 172 0
 1138 021c 2919     		add	r1, r5, r4
 1139              	.LVL110:
 1140              		.loc 1 181 0
 1141 021e EA18     		add	r2, r5, r3
 1142 0220 0B20     		mov	r0, #11
 1143 0222 FFF7FEFF 		bl	_test_assert_time_window
 1144              	.LVL111:
 1145 0226 FAE6     		b	.L44
 1146              	.L50:
 1147              		.align	2
 1148              	.L49:
 1149 0228 00000000 		.word	.LANCHOR0
 1150 022c 00000000 		.word	rlist
 1151 0230 00000000 		.word	wa
 1152 0234 00000000 		.word	thread2
 1153 0238 00000000 		.word	threads
 1154 023c 00000000 		.word	vtlist
 1155 0240 14000000 		.word	.LC25
 1156 0244 C4090000 		.word	2500
 1157 0248 C9090000 		.word	2505
 1158              	.LBE9:
 1159              	.LBE8:
 1160              		.cfi_endproc
 1161              	.LFE12:
 1162              		.size	sem2_execute, .-sem2_execute
 1163              		.global	patternsem
 1164              		.global	testsem4
 1165              		.global	testsem3
 1166              		.global	testsem2
 1167              		.global	testsem1
 1168 024c C046C046 		.section	.rodata.testsem1,"a",%progbits
 1169              		.align	2
 1170              		.type	testsem1, %object
 1171              		.size	testsem1, 16
 1172              	testsem1:
 1173 0000 74000000 		.word	.LC42
 1174 0004 00000000 		.word	sem1_setup
 1175 0008 00000000 		.word	0
 1176 000c 00000000 		.word	sem1_execute
 1177              		.section	.rodata.testsem2,"a",%progbits
 1178              		.align	2
 1179              		.type	testsem2, %object
 1180              		.size	testsem2, 16
 1181              	testsem2:
 1182 0000 60000000 		.word	.LC41
 1183 0004 00000000 		.word	sem2_setup
 1184 0008 00000000 		.word	0
 1185 000c 00000000 		.word	sem2_execute
 1186              		.section	.rodata.testsem3,"a",%progbits
 1187              		.align	2
 1188              		.type	testsem3, %object
 1189              		.size	testsem3, 16
 1190              	testsem3:
 1191 0000 40000000 		.word	.LC40
ARM GAS  C:\Users\3130\AppData\Local\Temp\ccqgvhoQ.s 			page 22


 1192 0004 00000000 		.word	sem3_setup
 1193 0008 00000000 		.word	0
 1194 000c 00000000 		.word	sem3_execute
 1195              		.section	.rodata.testsem4,"a",%progbits
 1196              		.align	2
 1197              		.type	testsem4, %object
 1198              		.size	testsem4, 16
 1199              	testsem4:
 1200 0000 1C000000 		.word	.LC39
 1201 0004 00000000 		.word	0
 1202 0008 00000000 		.word	0
 1203 000c 00000000 		.word	sem4_execute
 1204              		.section	.data.sem1,"aw",%progbits
 1205              		.align	2
 1206              		.set	.LANCHOR0,. + 0
 1207              		.type	sem1, %object
 1208              		.size	sem1, 12
 1209              	sem1:
 1210 0000 00000000 		.word	sem1
 1211 0004 00000000 		.word	sem1
 1212 0008 00000000 		.word	0
 1213              		.section	.rodata.patternsem,"a",%progbits
 1214              		.align	2
 1215              		.type	patternsem, %object
 1216              		.size	patternsem, 20
 1217              	patternsem:
 1218 0000 00000000 		.word	testsem1
 1219 0004 00000000 		.word	testsem2
 1220 0008 00000000 		.word	testsem3
 1221 000c 00000000 		.word	testsem4
 1222 0010 00000000 		.word	0
 1223              		.section	.rodata.str1.4,"aMS",%progbits,1
 1224              		.align	2
 1225              	.LC13:
 1226 0000 4100     		.ascii	"A\000"
 1227 0002 0000     		.space	2
 1228              	.LC16:
 1229 0004 4200     		.ascii	"B\000"
 1230 0006 0000     		.space	2
 1231              	.LC18:
 1232 0008 4300     		.ascii	"C\000"
 1233 000a 0000     		.space	2
 1234              	.LC20:
 1235 000c 4400     		.ascii	"D\000"
 1236 000e 0000     		.space	2
 1237              	.LC22:
 1238 0010 4500     		.ascii	"E\000"
 1239 0012 0000     		.space	2
 1240              	.LC25:
 1241 0014 41424344 		.ascii	"ABCDE\000"
 1241      4500
 1242 001a 0000     		.space	2
 1243              	.LC39:
 1244 001c 42696E61 		.ascii	"Binary Semaphores, functionality\000"
 1244      72792053 
 1244      656D6170 
 1244      686F7265 
ARM GAS  C:\Users\3130\AppData\Local\Temp\ccqgvhoQ.s 			page 23


 1244      732C2066 
 1245 003d 000000   		.space	3
 1246              	.LC40:
 1247 0040 53656D61 		.ascii	"Semaphores, atomic signal-wait\000"
 1247      70686F72 
 1247      65732C20 
 1247      61746F6D 
 1247      69632073 
 1248 005f 00       		.space	1
 1249              	.LC41:
 1250 0060 53656D61 		.ascii	"Semaphores, timeout\000"
 1250      70686F72 
 1250      65732C20 
 1250      74696D65 
 1250      6F757400 
 1251              	.LC42:
 1252 0074 53656D61 		.ascii	"Semaphores, enqueuing\000"
 1252      70686F72 
 1252      65732C20 
 1252      656E7175 
 1252      6575696E 
 1253 008a 0000     		.text
 1254              	.Letext0:
 1255              		.file 2 "c:\\stm32f0-discovery_tools\\gcc-arm-none-eabi\\bin\\../lib/gcc/arm-none-eabi/4.7.4/inclu
 1256              		.file 3 "c:\\stm32f0-discovery_tools\\gcc-arm-none-eabi\\bin\\../lib/gcc/arm-none-eabi/4.7.4/../..
 1257              		.file 4 "../../ChibiOS_2.6.1/os/ports/GCC/ARMCMx/chtypes.h"
 1258              		.file 5 "../../ChibiOS_2.6.1/os/kernel/include/chlists.h"
 1259              		.file 6 "../../ChibiOS_2.6.1/os/kernel/include/chthreads.h"
 1260              		.file 7 "../../ChibiOS_2.6.1/os/ports/GCC/ARMCMx/chcore_v6m.h"
 1261              		.file 8 "../../ChibiOS_2.6.1/os/kernel/include/chvt.h"
 1262              		.file 9 "../../ChibiOS_2.6.1/os/kernel/include/chschd.h"
 1263              		.file 10 "../../ChibiOS_2.6.1/os/kernel/include/chsem.h"
 1264              		.file 11 "../../ChibiOS_2.6.1/os/kernel/include/chbsem.h"
 1265              		.file 12 "../../ChibiOS_2.6.1/os/kernel/include/chmtx.h"
 1266              		.file 13 "../../ChibiOS_2.6.1/test/test.h"