ARM GAS  C:\Users\3130\AppData\Local\Temp\ccEXtTs3.s 			page 1


   1              		.cpu cortex-m0
   2              		.fpu softvfp
   3              		.eabi_attribute 20, 1
   4              		.eabi_attribute 21, 1
   5              		.eabi_attribute 23, 3
   6              		.eabi_attribute 24, 1
   7              		.eabi_attribute 25, 1
   8              		.eabi_attribute 26, 1
   9              		.eabi_attribute 30, 2
  10              		.eabi_attribute 34, 0
  11              		.eabi_attribute 18, 4
  12              		.code	16
  13              		.file	"testmtx.c"
  14              		.text
  15              	.Ltext0:
  16              		.cfi_sections	.debug_frame
  17              		.section	.text.mtx8_execute,"ax",%progbits
  18              		.align	2
  19              		.p2align 4,,15
  20              		.code	16
  21              		.thumb_func
  22              		.type	mtx8_execute, %function
  23              	mtx8_execute:
  24              	.LFB36:
  25              		.file 1 "../../ChibiOS_2.6.1/test/testmtx.c"
  26              		.loc 1 595 0
  27              		.cfi_startproc
  28 0000 F0B5     		push	{r4, r5, r6, r7, lr}
  29              	.LCFI0:
  30              		.cfi_def_cfa_offset 20
  31              		.cfi_offset 4, -20
  32              		.cfi_offset 5, -16
  33              		.cfi_offset 6, -12
  34              		.cfi_offset 7, -8
  35              		.cfi_offset 14, -4
  36              		.loc 1 597 0
  37 0002 194B     		ldr	r3, .L2
  38              		.loc 1 598 0
  39 0004 194F     		ldr	r7, .L2+4
  40              		.loc 1 597 0
  41 0006 9869     		ldr	r0, [r3, #24]
  42              		.loc 1 598 0
  43 0008 1949     		ldr	r1, .L2+8
  44              		.loc 1 597 0
  45 000a 8668     		ldr	r6, [r0, #8]
  46              	.LVL0:
  47              		.loc 1 598 0
  48 000c 9825     		mov	r5, #152
  49              		.loc 1 595 0
  50 000e 83B0     		sub	sp, sp, #12
  51              	.LCFI1:
  52              		.cfi_def_cfa_offset 32
  53              		.loc 1 598 0
  54 0010 6D00     		lsl	r5, r5, #1
  55 0012 721C     		add	r2, r6, #1
  56 0014 0091     		str	r1, [sp]
  57 0016 3868     		ldr	r0, [r7]
ARM GAS  C:\Users\3130\AppData\Local\Temp\ccEXtTs3.s 			page 2


  58 0018 291C     		mov	r1, r5
  59 001a 164B     		ldr	r3, .L2+12
  60 001c FFF7FEFF 		bl	chThdCreateStatic
  61              	.LVL1:
  62 0020 154C     		ldr	r4, .L2+16
  63              		.loc 1 599 0
  64 0022 164B     		ldr	r3, .L2+20
  65              		.loc 1 598 0
  66 0024 2060     		str	r0, [r4]
  67              		.loc 1 599 0
  68 0026 B21C     		add	r2, r6, #2
  69 0028 0093     		str	r3, [sp]
  70 002a 291C     		mov	r1, r5
  71 002c 7868     		ldr	r0, [r7, #4]
  72 002e 144B     		ldr	r3, .L2+24
  73 0030 FFF7FEFF 		bl	chThdCreateStatic
  74              	.LVL2:
  75              		.loc 1 600 0
  76 0034 F21C     		add	r2, r6, #3
  77 0036 134E     		ldr	r6, .L2+28
  78              	.LVL3:
  79 0038 291C     		mov	r1, r5
  80 003a 134B     		ldr	r3, .L2+32
  81              		.loc 1 599 0
  82 003c 6060     		str	r0, [r4, #4]
  83              		.loc 1 600 0
  84 003e B868     		ldr	r0, [r7, #8]
  85 0040 0096     		str	r6, [sp]
  86 0042 FFF7FEFF 		bl	chThdCreateStatic
  87              	.LVL4:
  88              		.loc 1 601 0
  89 0046 114F     		ldr	r7, .L2+36
  90              		.loc 1 600 0
  91 0048 A060     		str	r0, [r4, #8]
  92              		.loc 1 601 0
  93 004a 381C     		mov	r0, r7
  94 004c FFF7FEFF 		bl	chCondSignal
  95              	.LVL5:
  96              		.loc 1 602 0
  97 0050 381C     		mov	r0, r7
  98 0052 FFF7FEFF 		bl	chCondSignal
  99              	.LVL6:
 100              		.loc 1 603 0
 101 0056 FFF7FEFF 		bl	test_wait_threads
 102              	.LVL7:
 103              		.loc 1 604 0
 104 005a 0D49     		ldr	r1, .L2+40
 105 005c 0120     		mov	r0, #1
 106 005e FFF7FEFF 		bl	_test_assert_sequence
 107              	.LVL8:
 108              		.loc 1 605 0
 109 0062 03B0     		add	sp, sp, #12
 110              		@ sp needed for prologue
 111 0064 F0BD     		pop	{r4, r5, r6, r7, pc}
 112              	.L3:
 113 0066 C046     		.align	2
 114              	.L2:
ARM GAS  C:\Users\3130\AppData\Local\Temp\ccEXtTs3.s 			page 3


 115 0068 00000000 		.word	rlist
 116 006c 00000000 		.word	wa
 117 0070 00000000 		.word	.LC3
 118 0074 00000000 		.word	thread11
 119 0078 00000000 		.word	threads
 120 007c 04000000 		.word	.LC7
 121 0080 00000000 		.word	thread10
 122 0084 08000000 		.word	.LC10
 123 0088 00000000 		.word	thread12
 124 008c 00000000 		.word	.LANCHOR0
 125 0090 0C000000 		.word	.LC13
 126              		.cfi_endproc
 127              	.LFE36:
 128              		.size	mtx8_execute, .-mtx8_execute
 129 0094 C046C046 		.section	.text.thread12,"ax",%progbits
 129      C046C046 
 129      C046C046 
 130              		.align	2
 131              		.p2align 4,,15
 132              		.code	16
 133              		.thumb_func
 134              		.type	thread12, %function
 135              	thread12:
 136              	.LFB35:
 137              		.loc 1 587 0
 138              		.cfi_startproc
 139              	.LVL9:
 140 0000 10B5     		push	{r4, lr}
 141              	.LCFI2:
 142              		.cfi_def_cfa_offset 8
 143              		.cfi_offset 4, -8
 144              		.cfi_offset 14, -4
 145              		.loc 1 587 0
 146 0002 041C     		mov	r4, r0
 147              		.loc 1 589 0
 148 0004 0448     		ldr	r0, .L5
 149              	.LVL10:
 150 0006 FFF7FEFF 		bl	chMtxLock
 151              	.LVL11:
 152              		.loc 1 590 0
 153 000a 2078     		ldrb	r0, [r4]
 154 000c FFF7FEFF 		bl	test_emit_token
 155              	.LVL12:
 156              		.loc 1 593 0
 157              		@ sp needed for prologue
 158              		.loc 1 591 0
 159 0010 FFF7FEFF 		bl	chMtxUnlock
 160              	.LVL13:
 161              		.loc 1 593 0
 162 0014 0020     		mov	r0, #0
 163              	.LVL14:
 164 0016 10BD     		pop	{r4, pc}
 165              	.L6:
 166              		.align	2
 167              	.L5:
 168 0018 00000000 		.word	.LANCHOR1
 169              		.cfi_endproc
ARM GAS  C:\Users\3130\AppData\Local\Temp\ccEXtTs3.s 			page 4


 170              	.LFE35:
 171              		.size	thread12, .-thread12
 172 001c C046C046 		.section	.text.thread1,"ax",%progbits
 173              		.align	2
 174              		.p2align 4,,15
 175              		.code	16
 176              		.thumb_func
 177              		.type	thread1, %function
 178              	thread1:
 179              	.LFB8:
 180              		.loc 1 89 0
 181              		.cfi_startproc
 182              	.LVL15:
 183 0000 10B5     		push	{r4, lr}
 184              	.LCFI3:
 185              		.cfi_def_cfa_offset 8
 186              		.cfi_offset 4, -8
 187              		.cfi_offset 14, -4
 188              		.loc 1 89 0
 189 0002 041C     		mov	r4, r0
 190              		.loc 1 91 0
 191 0004 0448     		ldr	r0, .L8
 192              	.LVL16:
 193 0006 FFF7FEFF 		bl	chMtxLock
 194              	.LVL17:
 195              		.loc 1 92 0
 196 000a 2078     		ldrb	r0, [r4]
 197 000c FFF7FEFF 		bl	test_emit_token
 198              	.LVL18:
 199              		.loc 1 95 0
 200              		@ sp needed for prologue
 201              		.loc 1 93 0
 202 0010 FFF7FEFF 		bl	chMtxUnlock
 203              	.LVL19:
 204              		.loc 1 95 0
 205 0014 0020     		mov	r0, #0
 206              	.LVL20:
 207 0016 10BD     		pop	{r4, pc}
 208              	.L9:
 209              		.align	2
 210              	.L8:
 211 0018 00000000 		.word	.LANCHOR2
 212              		.cfi_endproc
 213              	.LFE8:
 214              		.size	thread1, .-thread1
 215 001c C046C046 		.section	.text.thread10,"ax",%progbits
 216              		.align	2
 217              		.p2align 4,,15
 218              		.code	16
 219              		.thumb_func
 220              		.type	thread10, %function
 221              	thread10:
 222              	.LFB29:
 223              		.loc 1 484 0
 224              		.cfi_startproc
 225              	.LVL21:
 226 0000 10B5     		push	{r4, lr}
ARM GAS  C:\Users\3130\AppData\Local\Temp\ccEXtTs3.s 			page 5


 227              	.LCFI4:
 228              		.cfi_def_cfa_offset 8
 229              		.cfi_offset 4, -8
 230              		.cfi_offset 14, -4
 231              		.loc 1 484 0
 232 0002 041C     		mov	r4, r0
 233              		.loc 1 486 0
 234 0004 0648     		ldr	r0, .L11
 235              	.LVL22:
 236 0006 FFF7FEFF 		bl	chMtxLock
 237              	.LVL23:
 238              		.loc 1 487 0
 239 000a 0648     		ldr	r0, .L11+4
 240 000c FFF7FEFF 		bl	chCondWait
 241              	.LVL24:
 242              		.loc 1 488 0
 243 0010 2078     		ldrb	r0, [r4]
 244 0012 FFF7FEFF 		bl	test_emit_token
 245              	.LVL25:
 246              		.loc 1 491 0
 247              		@ sp needed for prologue
 248              		.loc 1 489 0
 249 0016 FFF7FEFF 		bl	chMtxUnlock
 250              	.LVL26:
 251              		.loc 1 491 0
 252 001a 0020     		mov	r0, #0
 253              	.LVL27:
 254 001c 10BD     		pop	{r4, pc}
 255              	.L12:
 256 001e C046     		.align	2
 257              	.L11:
 258 0020 00000000 		.word	.LANCHOR2
 259 0024 00000000 		.word	.LANCHOR0
 260              		.cfi_endproc
 261              	.LFE29:
 262              		.size	thread10, .-thread10
 263 0028 C046C046 		.section	.text.thread11,"ax",%progbits
 263      C046C046 
 264              		.align	2
 265              		.p2align 4,,15
 266              		.code	16
 267              		.thumb_func
 268              		.type	thread11, %function
 269              	thread11:
 270              	.LFB34:
 271              		.loc 1 572 0
 272              		.cfi_startproc
 273              	.LVL28:
 274 0000 10B5     		push	{r4, lr}
 275              	.LCFI5:
 276              		.cfi_def_cfa_offset 8
 277              		.cfi_offset 4, -8
 278              		.cfi_offset 14, -4
 279              		.loc 1 572 0
 280 0002 041C     		mov	r4, r0
 281              		.loc 1 574 0
 282 0004 0948     		ldr	r0, .L14
ARM GAS  C:\Users\3130\AppData\Local\Temp\ccEXtTs3.s 			page 6


 283              	.LVL29:
 284 0006 FFF7FEFF 		bl	chMtxLock
 285              	.LVL30:
 286              		.loc 1 575 0
 287 000a 0948     		ldr	r0, .L14+4
 288 000c FFF7FEFF 		bl	chMtxLock
 289              	.LVL31:
 290              		.loc 1 577 0
 291 0010 0121     		mov	r1, #1
 292 0012 4942     		neg	r1, r1
 293 0014 0748     		ldr	r0, .L14+8
 294 0016 FFF7FEFF 		bl	chCondWaitTimeout
 295              	.LVL32:
 296              		.loc 1 581 0
 297 001a 2078     		ldrb	r0, [r4]
 298 001c FFF7FEFF 		bl	test_emit_token
 299              	.LVL33:
 300              		.loc 1 585 0
 301              		@ sp needed for prologue
 302              		.loc 1 582 0
 303 0020 FFF7FEFF 		bl	chMtxUnlock
 304              	.LVL34:
 305              		.loc 1 583 0
 306 0024 FFF7FEFF 		bl	chMtxUnlock
 307              	.LVL35:
 308              		.loc 1 585 0
 309 0028 0020     		mov	r0, #0
 310              	.LVL36:
 311 002a 10BD     		pop	{r4, pc}
 312              	.L15:
 313              		.align	2
 314              	.L14:
 315 002c 00000000 		.word	.LANCHOR1
 316 0030 00000000 		.word	.LANCHOR2
 317 0034 00000000 		.word	.LANCHOR0
 318              		.cfi_endproc
 319              	.LFE34:
 320              		.size	thread11, .-thread11
 321 0038 C046C046 		.section	.text.mtx8_setup,"ax",%progbits
 321      C046C046 
 322              		.align	2
 323              		.p2align 4,,15
 324              		.code	16
 325              		.thumb_func
 326              		.type	mtx8_setup, %function
 327              	mtx8_setup:
 328              	.LFB33:
 329              		.loc 1 565 0
 330              		.cfi_startproc
 331 0000 08B5     		push	{r3, lr}
 332              	.LCFI6:
 333              		.cfi_def_cfa_offset 8
 334              		.cfi_offset 3, -8
 335              		.cfi_offset 14, -4
 336              		.loc 1 567 0
 337 0002 0548     		ldr	r0, .L17
 338 0004 FFF7FEFF 		bl	chCondInit
ARM GAS  C:\Users\3130\AppData\Local\Temp\ccEXtTs3.s 			page 7


 339              	.LVL37:
 340              		.loc 1 568 0
 341 0008 0448     		ldr	r0, .L17+4
 342 000a FFF7FEFF 		bl	chMtxInit
 343              	.LVL38:
 344              		.loc 1 569 0
 345 000e 0448     		ldr	r0, .L17+8
 346 0010 FFF7FEFF 		bl	chMtxInit
 347              	.LVL39:
 348              		.loc 1 570 0
 349              		@ sp needed for prologue
 350 0014 08BD     		pop	{r3, pc}
 351              	.L18:
 352 0016 C046     		.align	2
 353              	.L17:
 354 0018 00000000 		.word	.LANCHOR0
 355 001c 00000000 		.word	.LANCHOR2
 356 0020 00000000 		.word	.LANCHOR1
 357              		.cfi_endproc
 358              	.LFE33:
 359              		.size	mtx8_setup, .-mtx8_setup
 360 0024 C046C046 		.section	.text.mtx7_setup,"ax",%progbits
 360      C046C046 
 360      C046C046 
 361              		.align	2
 362              		.p2align 4,,15
 363              		.code	16
 364              		.thumb_func
 365              		.type	mtx7_setup, %function
 366              	mtx7_setup:
 367              	.LFB31:
 368              		.loc 1 530 0
 369              		.cfi_startproc
 370 0000 08B5     		push	{r3, lr}
 371              	.LCFI7:
 372              		.cfi_def_cfa_offset 8
 373              		.cfi_offset 3, -8
 374              		.cfi_offset 14, -4
 375              		.loc 1 532 0
 376 0002 0348     		ldr	r0, .L20
 377 0004 FFF7FEFF 		bl	chCondInit
 378              	.LVL40:
 379              		.loc 1 533 0
 380 0008 0248     		ldr	r0, .L20+4
 381 000a FFF7FEFF 		bl	chMtxInit
 382              	.LVL41:
 383              		.loc 1 534 0
 384              		@ sp needed for prologue
 385 000e 08BD     		pop	{r3, pc}
 386              	.L21:
 387              		.align	2
 388              	.L20:
 389 0010 00000000 		.word	.LANCHOR0
 390 0014 00000000 		.word	.LANCHOR2
 391              		.cfi_endproc
 392              	.LFE31:
 393              		.size	mtx7_setup, .-mtx7_setup
ARM GAS  C:\Users\3130\AppData\Local\Temp\ccEXtTs3.s 			page 8


 394 0018 C046C046 		.section	.text.mtx6_setup,"ax",%progbits
 394      C046C046 
 395              		.align	2
 396              		.p2align 4,,15
 397              		.code	16
 398              		.thumb_func
 399              		.type	mtx6_setup, %function
 400              	mtx6_setup:
 401              	.LFB28:
 402              		.loc 1 478 0
 403              		.cfi_startproc
 404 0000 08B5     		push	{r3, lr}
 405              	.LCFI8:
 406              		.cfi_def_cfa_offset 8
 407              		.cfi_offset 3, -8
 408              		.cfi_offset 14, -4
 409              		.loc 1 480 0
 410 0002 0348     		ldr	r0, .L23
 411 0004 FFF7FEFF 		bl	chCondInit
 412              	.LVL42:
 413              		.loc 1 481 0
 414 0008 0248     		ldr	r0, .L23+4
 415 000a FFF7FEFF 		bl	chMtxInit
 416              	.LVL43:
 417              		.loc 1 482 0
 418              		@ sp needed for prologue
 419 000e 08BD     		pop	{r3, pc}
 420              	.L24:
 421              		.align	2
 422              	.L23:
 423 0010 00000000 		.word	.LANCHOR0
 424 0014 00000000 		.word	.LANCHOR2
 425              		.cfi_endproc
 426              	.LFE28:
 427              		.size	mtx6_setup, .-mtx6_setup
 428 0018 C046C046 		.section	.text.mtx5_setup,"ax",%progbits
 428      C046C046 
 429              		.align	2
 430              		.p2align 4,,15
 431              		.code	16
 432              		.thumb_func
 433              		.type	mtx5_setup, %function
 434              	mtx5_setup:
 435              	.LFB26:
 436              		.loc 1 428 0
 437              		.cfi_startproc
 438 0000 08B5     		push	{r3, lr}
 439              	.LCFI9:
 440              		.cfi_def_cfa_offset 8
 441              		.cfi_offset 3, -8
 442              		.cfi_offset 14, -4
 443              		.loc 1 430 0
 444 0002 0248     		ldr	r0, .L26
 445 0004 FFF7FEFF 		bl	chMtxInit
 446              	.LVL44:
 447              		.loc 1 431 0
 448              		@ sp needed for prologue
ARM GAS  C:\Users\3130\AppData\Local\Temp\ccEXtTs3.s 			page 9


 449 0008 08BD     		pop	{r3, pc}
 450              	.L27:
 451 000a C046     		.align	2
 452              	.L26:
 453 000c 00000000 		.word	.LANCHOR2
 454              		.cfi_endproc
 455              	.LFE26:
 456              		.size	mtx5_setup, .-mtx5_setup
 457              		.section	.text.mtx4_setup,"ax",%progbits
 458              		.align	2
 459              		.p2align 4,,15
 460              		.code	16
 461              		.thumb_func
 462              		.type	mtx4_setup, %function
 463              	mtx4_setup:
 464              	.LFB22:
 465              		.loc 1 341 0
 466              		.cfi_startproc
 467 0000 08B5     		push	{r3, lr}
 468              	.LCFI10:
 469              		.cfi_def_cfa_offset 8
 470              		.cfi_offset 3, -8
 471              		.cfi_offset 14, -4
 472              		.loc 1 343 0
 473 0002 0348     		ldr	r0, .L29
 474 0004 FFF7FEFF 		bl	chMtxInit
 475              	.LVL45:
 476              		.loc 1 344 0
 477 0008 0248     		ldr	r0, .L29+4
 478 000a FFF7FEFF 		bl	chMtxInit
 479              	.LVL46:
 480              		.loc 1 345 0
 481              		@ sp needed for prologue
 482 000e 08BD     		pop	{r3, pc}
 483              	.L30:
 484              		.align	2
 485              	.L29:
 486 0010 00000000 		.word	.LANCHOR2
 487 0014 00000000 		.word	.LANCHOR1
 488              		.cfi_endproc
 489              	.LFE22:
 490              		.size	mtx4_setup, .-mtx4_setup
 491 0018 C046C046 		.section	.text.mtx3_setup,"ax",%progbits
 491      C046C046 
 492              		.align	2
 493              		.p2align 4,,15
 494              		.code	16
 495              		.thumb_func
 496              		.type	mtx3_setup, %function
 497              	mtx3_setup:
 498              	.LFB15:
 499              		.loc 1 241 0
 500              		.cfi_startproc
 501 0000 08B5     		push	{r3, lr}
 502              	.LCFI11:
 503              		.cfi_def_cfa_offset 8
 504              		.cfi_offset 3, -8
ARM GAS  C:\Users\3130\AppData\Local\Temp\ccEXtTs3.s 			page 10


 505              		.cfi_offset 14, -4
 506              		.loc 1 243 0
 507 0002 0348     		ldr	r0, .L32
 508 0004 FFF7FEFF 		bl	chMtxInit
 509              	.LVL47:
 510              		.loc 1 244 0
 511 0008 0248     		ldr	r0, .L32+4
 512 000a FFF7FEFF 		bl	chMtxInit
 513              	.LVL48:
 514              		.loc 1 245 0
 515              		@ sp needed for prologue
 516 000e 08BD     		pop	{r3, pc}
 517              	.L33:
 518              		.align	2
 519              	.L32:
 520 0010 00000000 		.word	.LANCHOR2
 521 0014 00000000 		.word	.LANCHOR1
 522              		.cfi_endproc
 523              	.LFE15:
 524              		.size	mtx3_setup, .-mtx3_setup
 525 0018 C046C046 		.section	.text.mtx2_setup,"ax",%progbits
 525      C046C046 
 526              		.align	2
 527              		.p2align 4,,15
 528              		.code	16
 529              		.thumb_func
 530              		.type	mtx2_setup, %function
 531              	mtx2_setup:
 532              	.LFB10:
 533              		.loc 1 151 0
 534              		.cfi_startproc
 535 0000 08B5     		push	{r3, lr}
 536              	.LCFI12:
 537              		.cfi_def_cfa_offset 8
 538              		.cfi_offset 3, -8
 539              		.cfi_offset 14, -4
 540              		.loc 1 153 0
 541 0002 0248     		ldr	r0, .L35
 542 0004 FFF7FEFF 		bl	chMtxInit
 543              	.LVL49:
 544              		.loc 1 154 0
 545              		@ sp needed for prologue
 546 0008 08BD     		pop	{r3, pc}
 547              	.L36:
 548 000a C046     		.align	2
 549              	.L35:
 550 000c 00000000 		.word	.LANCHOR2
 551              		.cfi_endproc
 552              	.LFE10:
 553              		.size	mtx2_setup, .-mtx2_setup
 554              		.section	.text.mtx1_setup,"ax",%progbits
 555              		.align	2
 556              		.p2align 4,,15
 557              		.code	16
 558              		.thumb_func
 559              		.type	mtx1_setup, %function
 560              	mtx1_setup:
ARM GAS  C:\Users\3130\AppData\Local\Temp\ccEXtTs3.s 			page 11


 561              	.LFB7:
 562              		.loc 1 84 0
 563              		.cfi_startproc
 564 0000 08B5     		push	{r3, lr}
 565              	.LCFI13:
 566              		.cfi_def_cfa_offset 8
 567              		.cfi_offset 3, -8
 568              		.cfi_offset 14, -4
 569              		.loc 1 86 0
 570 0002 0248     		ldr	r0, .L38
 571 0004 FFF7FEFF 		bl	chMtxInit
 572              	.LVL50:
 573              		.loc 1 87 0
 574              		@ sp needed for prologue
 575 0008 08BD     		pop	{r3, pc}
 576              	.L39:
 577 000a C046     		.align	2
 578              	.L38:
 579 000c 00000000 		.word	.LANCHOR2
 580              		.cfi_endproc
 581              	.LFE7:
 582              		.size	mtx1_setup, .-mtx1_setup
 583              		.section	.text.mtx7_execute,"ax",%progbits
 584              		.align	2
 585              		.p2align 4,,15
 586              		.code	16
 587              		.thumb_func
 588              		.type	mtx7_execute, %function
 589              	mtx7_execute:
 590              	.LFB32:
 591              		.loc 1 536 0
 592              		.cfi_startproc
 593 0000 F0B5     		push	{r4, r5, r6, r7, lr}
 594              	.LCFI14:
 595              		.cfi_def_cfa_offset 20
 596              		.cfi_offset 4, -20
 597              		.cfi_offset 5, -16
 598              		.cfi_offset 6, -12
 599              		.cfi_offset 7, -8
 600              		.cfi_offset 14, -4
 601 0002 4746     		mov	r7, r8
 602 0004 80B4     		push	{r7}
 603              	.LCFI15:
 604              		.cfi_def_cfa_offset 24
 605              		.cfi_offset 8, -24
 606              		.loc 1 538 0
 607 0006 244B     		ldr	r3, .L41
 608              		.loc 1 539 0
 609 0008 244A     		ldr	r2, .L41+4
 610              		.loc 1 538 0
 611 000a 9869     		ldr	r0, [r3, #24]
 612              		.loc 1 539 0
 613 000c 9046     		mov	r8, r2
 614              		.loc 1 538 0
 615 000e 8768     		ldr	r7, [r0, #8]
 616              	.LVL51:
 617              		.loc 1 539 0
ARM GAS  C:\Users\3130\AppData\Local\Temp\ccEXtTs3.s 			page 12


 618 0010 234D     		ldr	r5, .L41+8
 619 0012 2449     		ldr	r1, .L41+12
 620 0014 9826     		mov	r6, #152
 621              		.loc 1 536 0
 622 0016 82B0     		sub	sp, sp, #8
 623              	.LCFI16:
 624              		.cfi_def_cfa_offset 32
 625              		.loc 1 539 0
 626 0018 7600     		lsl	r6, r6, #1
 627 001a 4446     		mov	r4, r8
 628 001c 7A1C     		add	r2, r7, #1
 629 001e 0091     		str	r1, [sp]
 630 0020 2B1C     		mov	r3, r5
 631 0022 311C     		mov	r1, r6
 632 0024 2068     		ldr	r0, [r4]
 633 0026 FFF7FEFF 		bl	chThdCreateStatic
 634              	.LVL52:
 635 002a 1F4C     		ldr	r4, .L41+16
 636              		.loc 1 540 0
 637 002c 1F4B     		ldr	r3, .L41+20
 638              		.loc 1 539 0
 639 002e 2060     		str	r0, [r4]
 640              		.loc 1 540 0
 641 0030 4046     		mov	r0, r8
 642 0032 BA1C     		add	r2, r7, #2
 643 0034 0093     		str	r3, [sp]
 644 0036 311C     		mov	r1, r6
 645 0038 2B1C     		mov	r3, r5
 646 003a 4068     		ldr	r0, [r0, #4]
 647 003c FFF7FEFF 		bl	chThdCreateStatic
 648              	.LVL53:
 649              		.loc 1 541 0
 650 0040 1B49     		ldr	r1, .L41+24
 651 0042 4346     		mov	r3, r8
 652              		.loc 1 540 0
 653 0044 6060     		str	r0, [r4, #4]
 654              		.loc 1 541 0
 655 0046 FA1C     		add	r2, r7, #3
 656 0048 0091     		str	r1, [sp]
 657 004a 9868     		ldr	r0, [r3, #8]
 658 004c 311C     		mov	r1, r6
 659 004e 2B1C     		mov	r3, r5
 660 0050 FFF7FEFF 		bl	chThdCreateStatic
 661              	.LVL54:
 662 0054 A060     		str	r0, [r4, #8]
 663              		.loc 1 542 0
 664 0056 1748     		ldr	r0, .L41+28
 665 0058 4146     		mov	r1, r8
 666 005a 3A1D     		add	r2, r7, #4
 667 005c 0090     		str	r0, [sp]
 668 005e 2B1C     		mov	r3, r5
 669 0060 C868     		ldr	r0, [r1, #12]
 670 0062 311C     		mov	r1, r6
 671 0064 FFF7FEFF 		bl	chThdCreateStatic
 672              	.LVL55:
 673              		.loc 1 543 0
 674 0068 4246     		mov	r2, r8
ARM GAS  C:\Users\3130\AppData\Local\Temp\ccEXtTs3.s 			page 13


 675              		.loc 1 542 0
 676 006a E060     		str	r0, [r4, #12]
 677              		.loc 1 543 0
 678 006c 1069     		ldr	r0, [r2, #16]
 679 006e 7A1D     		add	r2, r7, #5
 680 0070 114F     		ldr	r7, .L41+32
 681              	.LVL56:
 682 0072 311C     		mov	r1, r6
 683 0074 2B1C     		mov	r3, r5
 684 0076 0097     		str	r7, [sp]
 685 0078 FFF7FEFF 		bl	chThdCreateStatic
 686              	.LVL57:
 687 007c 2061     		str	r0, [r4, #16]
 688              		.loc 1 544 0
 689 007e 0F48     		ldr	r0, .L41+36
 690 0080 FFF7FEFF 		bl	chCondBroadcast
 691              	.LVL58:
 692              		.loc 1 545 0
 693 0084 FFF7FEFF 		bl	test_wait_threads
 694              	.LVL59:
 695              		.loc 1 546 0
 696 0088 0D49     		ldr	r1, .L41+40
 697 008a 0120     		mov	r0, #1
 698 008c FFF7FEFF 		bl	_test_assert_sequence
 699              	.LVL60:
 700              		.loc 1 547 0
 701 0090 02B0     		add	sp, sp, #8
 702              		@ sp needed for prologue
 703 0092 04BC     		pop	{r2}
 704 0094 9046     		mov	r8, r2
 705 0096 F0BD     		pop	{r4, r5, r6, r7, pc}
 706              	.L42:
 707              		.align	2
 708              	.L41:
 709 0098 00000000 		.word	rlist
 710 009c 00000000 		.word	wa
 711 00a0 00000000 		.word	thread10
 712 00a4 10000000 		.word	.LC39
 713 00a8 00000000 		.word	threads
 714 00ac 14000000 		.word	.LC42
 715 00b0 04000000 		.word	.LC7
 716 00b4 08000000 		.word	.LC10
 717 00b8 00000000 		.word	.LC3
 718 00bc 00000000 		.word	.LANCHOR0
 719 00c0 18000000 		.word	.LC48
 720              		.cfi_endproc
 721              	.LFE32:
 722              		.size	mtx7_execute, .-mtx7_execute
 723 00c4 C046C046 		.section	.text.mtx6_execute,"ax",%progbits
 723      C046C046 
 723      C046C046 
 724              		.align	2
 725              		.p2align 4,,15
 726              		.code	16
 727              		.thumb_func
 728              		.type	mtx6_execute, %function
 729              	mtx6_execute:
ARM GAS  C:\Users\3130\AppData\Local\Temp\ccEXtTs3.s 			page 14


 730              	.LFB30:
 731              		.loc 1 493 0
 732              		.cfi_startproc
 733 0000 F0B5     		push	{r4, r5, r6, r7, lr}
 734              	.LCFI17:
 735              		.cfi_def_cfa_offset 20
 736              		.cfi_offset 4, -20
 737              		.cfi_offset 5, -16
 738              		.cfi_offset 6, -12
 739              		.cfi_offset 7, -8
 740              		.cfi_offset 14, -4
 741 0002 4746     		mov	r7, r8
 742 0004 80B4     		push	{r7}
 743              	.LCFI18:
 744              		.cfi_def_cfa_offset 24
 745              		.cfi_offset 8, -24
 746              		.loc 1 495 0
 747 0006 2D4B     		ldr	r3, .L44
 748              		.loc 1 496 0
 749 0008 2D4A     		ldr	r2, .L44+4
 750              		.loc 1 495 0
 751 000a 9869     		ldr	r0, [r3, #24]
 752              		.loc 1 496 0
 753 000c 9046     		mov	r8, r2
 754              		.loc 1 495 0
 755 000e 8768     		ldr	r7, [r0, #8]
 756              	.LVL61:
 757              		.loc 1 496 0
 758 0010 2C4D     		ldr	r5, .L44+8
 759 0012 2D49     		ldr	r1, .L44+12
 760 0014 9826     		mov	r6, #152
 761              		.loc 1 493 0
 762 0016 82B0     		sub	sp, sp, #8
 763              	.LCFI19:
 764              		.cfi_def_cfa_offset 32
 765              		.loc 1 496 0
 766 0018 7600     		lsl	r6, r6, #1
 767 001a 4446     		mov	r4, r8
 768 001c 7A1C     		add	r2, r7, #1
 769 001e 0091     		str	r1, [sp]
 770 0020 2B1C     		mov	r3, r5
 771 0022 311C     		mov	r1, r6
 772 0024 2068     		ldr	r0, [r4]
 773 0026 FFF7FEFF 		bl	chThdCreateStatic
 774              	.LVL62:
 775 002a 284C     		ldr	r4, .L44+16
 776              		.loc 1 497 0
 777 002c 284B     		ldr	r3, .L44+20
 778              		.loc 1 496 0
 779 002e 2060     		str	r0, [r4]
 780              		.loc 1 497 0
 781 0030 4046     		mov	r0, r8
 782 0032 BA1C     		add	r2, r7, #2
 783 0034 0093     		str	r3, [sp]
 784 0036 311C     		mov	r1, r6
 785 0038 2B1C     		mov	r3, r5
 786 003a 4068     		ldr	r0, [r0, #4]
ARM GAS  C:\Users\3130\AppData\Local\Temp\ccEXtTs3.s 			page 15


 787 003c FFF7FEFF 		bl	chThdCreateStatic
 788              	.LVL63:
 789              		.loc 1 498 0
 790 0040 2449     		ldr	r1, .L44+24
 791 0042 4346     		mov	r3, r8
 792              		.loc 1 497 0
 793 0044 6060     		str	r0, [r4, #4]
 794              		.loc 1 498 0
 795 0046 FA1C     		add	r2, r7, #3
 796 0048 0091     		str	r1, [sp]
 797 004a 9868     		ldr	r0, [r3, #8]
 798 004c 311C     		mov	r1, r6
 799 004e 2B1C     		mov	r3, r5
 800 0050 FFF7FEFF 		bl	chThdCreateStatic
 801              	.LVL64:
 802 0054 A060     		str	r0, [r4, #8]
 803              		.loc 1 499 0
 804 0056 2048     		ldr	r0, .L44+28
 805 0058 4146     		mov	r1, r8
 806 005a 3A1D     		add	r2, r7, #4
 807 005c 0090     		str	r0, [sp]
 808 005e 2B1C     		mov	r3, r5
 809 0060 C868     		ldr	r0, [r1, #12]
 810 0062 311C     		mov	r1, r6
 811 0064 FFF7FEFF 		bl	chThdCreateStatic
 812              	.LVL65:
 813              		.loc 1 500 0
 814 0068 4246     		mov	r2, r8
 815              		.loc 1 499 0
 816 006a E060     		str	r0, [r4, #12]
 817              		.loc 1 500 0
 818 006c 1069     		ldr	r0, [r2, #16]
 819 006e 7A1D     		add	r2, r7, #5
 820 0070 1A4F     		ldr	r7, .L44+32
 821              	.LVL66:
 822 0072 311C     		mov	r1, r6
 823 0074 0097     		str	r7, [sp]
 824 0076 2B1C     		mov	r3, r5
 825 0078 FFF7FEFF 		bl	chThdCreateStatic
 826              	.LVL67:
 827 007c 2061     		str	r0, [r4, #16]
 828              		.loc 1 501 0
 829              	@ 501 "../../ChibiOS_2.6.1/test/testmtx.c" 1
 830 007e 72B6     		cpsid   i
 831              	@ 0 "" 2
 832              		.loc 1 502 0
 833              		.code	16
 834 0080 174E     		ldr	r6, .L44+36
 835 0082 301C     		mov	r0, r6
 836 0084 FFF7FEFF 		bl	chCondSignalI
 837              	.LVL68:
 838              		.loc 1 503 0
 839 0088 301C     		mov	r0, r6
 840 008a FFF7FEFF 		bl	chCondSignalI
 841              	.LVL69:
 842              		.loc 1 504 0
 843 008e 301C     		mov	r0, r6
ARM GAS  C:\Users\3130\AppData\Local\Temp\ccEXtTs3.s 			page 16


 844 0090 FFF7FEFF 		bl	chCondSignalI
 845              	.LVL70:
 846              		.loc 1 505 0
 847 0094 301C     		mov	r0, r6
 848 0096 FFF7FEFF 		bl	chCondSignalI
 849              	.LVL71:
 850              		.loc 1 506 0
 851 009a 301C     		mov	r0, r6
 852 009c FFF7FEFF 		bl	chCondSignalI
 853              	.LVL72:
 854              		.loc 1 507 0
 855 00a0 FFF7FEFF 		bl	chSchRescheduleS
 856              	.LVL73:
 857              		.loc 1 508 0
 858              	@ 508 "../../ChibiOS_2.6.1/test/testmtx.c" 1
 859 00a4 62B6     		cpsie   i
 860              	@ 0 "" 2
 861              		.loc 1 509 0
 862              		.code	16
 863 00a6 FFF7FEFF 		bl	test_wait_threads
 864              	.LVL74:
 865              		.loc 1 510 0
 866 00aa 0E49     		ldr	r1, .L44+40
 867 00ac 0120     		mov	r0, #1
 868 00ae FFF7FEFF 		bl	_test_assert_sequence
 869              	.LVL75:
 870              		.loc 1 511 0
 871 00b2 02B0     		add	sp, sp, #8
 872              		@ sp needed for prologue
 873 00b4 04BC     		pop	{r2}
 874 00b6 9046     		mov	r8, r2
 875 00b8 F0BD     		pop	{r4, r5, r6, r7, pc}
 876              	.L45:
 877 00ba C046     		.align	2
 878              	.L44:
 879 00bc 00000000 		.word	rlist
 880 00c0 00000000 		.word	wa
 881 00c4 00000000 		.word	thread10
 882 00c8 10000000 		.word	.LC39
 883 00cc 00000000 		.word	threads
 884 00d0 14000000 		.word	.LC42
 885 00d4 04000000 		.word	.LC7
 886 00d8 08000000 		.word	.LC10
 887 00dc 00000000 		.word	.LC3
 888 00e0 00000000 		.word	.LANCHOR0
 889 00e4 18000000 		.word	.LC48
 890              		.cfi_endproc
 891              	.LFE30:
 892              		.size	mtx6_execute, .-mtx6_execute
 893 00e8 C046C046 		.section	.text.mtx1_execute,"ax",%progbits
 893      C046C046 
 894              		.align	2
 895              		.p2align 4,,15
 896              		.code	16
 897              		.thumb_func
 898              		.type	mtx1_execute, %function
 899              	mtx1_execute:
ARM GAS  C:\Users\3130\AppData\Local\Temp\ccEXtTs3.s 			page 17


 900              	.LFB9:
 901              		.loc 1 97 0
 902              		.cfi_startproc
 903 0000 F0B5     		push	{r4, r5, r6, r7, lr}
 904              	.LCFI20:
 905              		.cfi_def_cfa_offset 20
 906              		.cfi_offset 4, -20
 907              		.cfi_offset 5, -16
 908              		.cfi_offset 6, -12
 909              		.cfi_offset 7, -8
 910              		.cfi_offset 14, -4
 911 0002 4746     		mov	r7, r8
 912 0004 80B4     		push	{r7}
 913              	.LCFI21:
 914              		.cfi_def_cfa_offset 24
 915              		.cfi_offset 8, -24
 916              		.loc 1 99 0
 917 0006 2F4A     		ldr	r2, .L49
 918              		.loc 1 97 0
 919 0008 84B0     		sub	sp, sp, #16
 920              	.LCFI22:
 921              		.cfi_def_cfa_offset 40
 922              		.loc 1 99 0
 923 000a 9369     		ldr	r3, [r2, #24]
 924              		.loc 1 100 0
 925 000c 2E48     		ldr	r0, .L49+4
 926              		.loc 1 99 0
 927 000e 9C68     		ldr	r4, [r3, #8]
 928              	.LVL76:
 929 0010 9046     		mov	r8, r2
 930              		.loc 1 100 0
 931 0012 FFF7FEFF 		bl	chMtxLock
 932              	.LVL77:
 933              		.loc 1 101 0
 934 0016 2D4F     		ldr	r7, .L49+8
 935 0018 2D4E     		ldr	r6, .L49+12
 936 001a 3868     		ldr	r0, [r7]
 937 001c 2D49     		ldr	r1, .L49+16
 938 001e 0390     		str	r0, [sp, #12]
 939 0020 9825     		mov	r5, #152
 940 0022 621C     		add	r2, r4, #1
 941 0024 331C     		mov	r3, r6
 942 0026 0091     		str	r1, [sp]
 943 0028 0398     		ldr	r0, [sp, #12]
 944 002a 6900     		lsl	r1, r5, #1
 945 002c FFF7FEFF 		bl	chThdCreateStatic
 946              	.LVL78:
 947              		.loc 1 102 0
 948 0030 7A68     		ldr	r2, [r7, #4]
 949              		.loc 1 101 0
 950 0032 294D     		ldr	r5, .L49+20
 951              		.loc 1 102 0
 952 0034 294B     		ldr	r3, .L49+24
 953 0036 0392     		str	r2, [sp, #12]
 954 0038 9821     		mov	r1, #152
 955              		.loc 1 101 0
 956 003a 2860     		str	r0, [r5]
ARM GAS  C:\Users\3130\AppData\Local\Temp\ccEXtTs3.s 			page 18


 957              		.loc 1 102 0
 958 003c A21C     		add	r2, r4, #2
 959 003e 0093     		str	r3, [sp]
 960 0040 4900     		lsl	r1, r1, #1
 961 0042 331C     		mov	r3, r6
 962 0044 0398     		ldr	r0, [sp, #12]
 963 0046 FFF7FEFF 		bl	chThdCreateStatic
 964              	.LVL79:
 965 004a 6860     		str	r0, [r5, #4]
 966              		.loc 1 103 0
 967 004c B868     		ldr	r0, [r7, #8]
 968 004e 244B     		ldr	r3, .L49+28
 969 0050 0390     		str	r0, [sp, #12]
 970 0052 9821     		mov	r1, #152
 971 0054 E21C     		add	r2, r4, #3
 972 0056 0093     		str	r3, [sp]
 973 0058 4900     		lsl	r1, r1, #1
 974 005a 331C     		mov	r3, r6
 975 005c 0398     		ldr	r0, [sp, #12]
 976 005e FFF7FEFF 		bl	chThdCreateStatic
 977              	.LVL80:
 978              		.loc 1 104 0
 979 0062 FA68     		ldr	r2, [r7, #12]
 980              		.loc 1 103 0
 981 0064 A860     		str	r0, [r5, #8]
 982              		.loc 1 104 0
 983 0066 1F48     		ldr	r0, .L49+32
 984 0068 0392     		str	r2, [sp, #12]
 985 006a 9823     		mov	r3, #152
 986 006c 221D     		add	r2, r4, #4
 987 006e 5900     		lsl	r1, r3, #1
 988 0070 0090     		str	r0, [sp]
 989 0072 331C     		mov	r3, r6
 990 0074 0398     		ldr	r0, [sp, #12]
 991 0076 FFF7FEFF 		bl	chThdCreateStatic
 992              	.LVL81:
 993              		.loc 1 105 0
 994 007a 3F69     		ldr	r7, [r7, #16]
 995 007c 1A49     		ldr	r1, .L49+36
 996 007e 9823     		mov	r3, #152
 997 0080 621D     		add	r2, r4, #5
 998              		.loc 1 104 0
 999 0082 E860     		str	r0, [r5, #12]
 1000              		.loc 1 105 0
 1001 0084 0091     		str	r1, [sp]
 1002 0086 381C     		mov	r0, r7
 1003 0088 5900     		lsl	r1, r3, #1
 1004 008a 331C     		mov	r3, r6
 1005 008c 0397     		str	r7, [sp, #12]
 1006 008e FFF7FEFF 		bl	chThdCreateStatic
 1007              	.LVL82:
 1008              		.loc 1 108 0
 1009 0092 4646     		mov	r6, r8
 1010              		.loc 1 105 0
 1011 0094 2861     		str	r0, [r5, #16]
 1012              		.loc 1 106 0
 1013 0096 FFF7FEFF 		bl	chMtxUnlock
ARM GAS  C:\Users\3130\AppData\Local\Temp\ccEXtTs3.s 			page 19


 1014              	.LVL83:
 1015              		.loc 1 107 0
 1016 009a FFF7FEFF 		bl	test_wait_threads
 1017              	.LVL84:
 1018              		.loc 1 108 0
 1019 009e B569     		ldr	r5, [r6, #24]
 1020 00a0 0120     		mov	r0, #1
 1021 00a2 AA68     		ldr	r2, [r5, #8]
 1022 00a4 141B     		sub	r4, r2, r4
 1023              	.LVL85:
 1024 00a6 6142     		neg	r1, r4
 1025 00a8 6141     		adc	r1, r1, r4
 1026 00aa FFF7FEFF 		bl	_test_assert
 1027              	.LVL86:
 1028 00ae 0028     		cmp	r0, #0
 1029 00b0 03D1     		bne	.L46
 1030              		.loc 1 109 0
 1031 00b2 0220     		mov	r0, #2
 1032 00b4 0D49     		ldr	r1, .L49+40
 1033 00b6 FFF7FEFF 		bl	_test_assert_sequence
 1034              	.LVL87:
 1035              	.L46:
 1036              		.loc 1 110 0
 1037 00ba 04B0     		add	sp, sp, #16
 1038              		@ sp needed for prologue
 1039 00bc 04BC     		pop	{r2}
 1040 00be 9046     		mov	r8, r2
 1041 00c0 F0BD     		pop	{r4, r5, r6, r7, pc}
 1042              	.L50:
 1043 00c2 C046     		.align	2
 1044              	.L49:
 1045 00c4 00000000 		.word	rlist
 1046 00c8 00000000 		.word	.LANCHOR2
 1047 00cc 00000000 		.word	wa
 1048 00d0 00000000 		.word	thread1
 1049 00d4 10000000 		.word	.LC39
 1050 00d8 00000000 		.word	threads
 1051 00dc 14000000 		.word	.LC42
 1052 00e0 04000000 		.word	.LC7
 1053 00e4 08000000 		.word	.LC10
 1054 00e8 00000000 		.word	.LC3
 1055 00ec 18000000 		.word	.LC48
 1056              		.cfi_endproc
 1057              	.LFE9:
 1058              		.size	mtx1_execute, .-mtx1_execute
 1059              		.section	.text.mtx5_execute,"ax",%progbits
 1060              		.align	2
 1061              		.p2align 4,,15
 1062              		.code	16
 1063              		.thumb_func
 1064              		.type	mtx5_execute, %function
 1065              	mtx5_execute:
 1066              	.LFB27:
 1067              		.loc 1 433 0
 1068              		.cfi_startproc
 1069 0000 70B5     		push	{r4, r5, r6, lr}
 1070              	.LCFI23:
ARM GAS  C:\Users\3130\AppData\Local\Temp\ccEXtTs3.s 			page 20


 1071              		.cfi_def_cfa_offset 16
 1072              		.cfi_offset 4, -16
 1073              		.cfi_offset 5, -12
 1074              		.cfi_offset 6, -8
 1075              		.cfi_offset 14, -4
 1076              		.loc 1 437 0
 1077 0002 274D     		ldr	r5, .L56
 1078              		.loc 1 439 0
 1079 0004 274C     		ldr	r4, .L56+4
 1080              		.loc 1 437 0
 1081 0006 AB69     		ldr	r3, [r5, #24]
 1082              		.loc 1 439 0
 1083 0008 201C     		mov	r0, r4
 1084              		.loc 1 437 0
 1085 000a 9E68     		ldr	r6, [r3, #8]
 1086              	.LVL88:
 1087              		.loc 1 439 0
 1088 000c FFF7FEFF 		bl	chMtxTryLock
 1089              	.LVL89:
 1090 0010 011C     		mov	r1, r0
 1091              	.LVL90:
 1092              		.loc 1 440 0
 1093 0012 0120     		mov	r0, #1
 1094              	.LVL91:
 1095 0014 FFF7FEFF 		bl	_test_assert
 1096              	.LVL92:
 1097 0018 0028     		cmp	r0, #0
 1098 001a 00D0     		beq	.L55
 1099              	.LVL93:
 1100              	.L51:
 1101              		.loc 1 457 0
 1102              		@ sp needed for prologue
 1103 001c 70BD     		pop	{r4, r5, r6, pc}
 1104              	.LVL94:
 1105              	.L55:
 1106              		.loc 1 442 0
 1107 001e 201C     		mov	r0, r4
 1108 0020 FFF7FEFF 		bl	chMtxTryLock
 1109              	.LVL95:
 1110              		.loc 1 443 0
 1111 0024 0122     		mov	r2, #1
 1112 0026 011C     		mov	r1, r0
 1113 0028 5140     		eor	r1, r2
 1114 002a C9B2     		uxtb	r1, r1
 1115 002c 0220     		mov	r0, #2
 1116              	.LVL96:
 1117 002e FFF7FEFF 		bl	_test_assert
 1118              	.LVL97:
 1119 0032 0028     		cmp	r0, #0
 1120 0034 F2D1     		bne	.L51
 1121              		.loc 1 445 0
 1122              	@ 445 "../../ChibiOS_2.6.1/test/testmtx.c" 1
 1123 0036 72B6     		cpsid   i
 1124              	@ 0 "" 2
 1125              		.loc 1 446 0
 1126              		.code	16
 1127 0038 FFF7FEFF 		bl	chMtxUnlockS
ARM GAS  C:\Users\3130\AppData\Local\Temp\ccEXtTs3.s 			page 21


 1128              	.LVL98:
 1129              		.loc 1 447 0
 1130              	@ 447 "../../ChibiOS_2.6.1/test/testmtx.c" 1
 1131 003c 62B6     		cpsie   i
 1132              	@ 0 "" 2
 1133              		.loc 1 449 0
 1134              		.code	16
 1135 003e 2068     		ldr	r0, [r4]
 1136 0040 011B     		sub	r1, r0, r4
 1137 0042 4B42     		neg	r3, r1
 1138 0044 5941     		adc	r1, r1, r3
 1139 0046 0320     		mov	r0, #3
 1140 0048 FFF7FEFF 		bl	_test_assert
 1141              	.LVL99:
 1142 004c 0028     		cmp	r0, #0
 1143 004e E5D1     		bne	.L51
 1144              		.loc 1 450 0
 1145 0050 A368     		ldr	r3, [r4, #8]
 1146 0052 0420     		mov	r0, #4
 1147 0054 5942     		neg	r1, r3
 1148 0056 5941     		adc	r1, r1, r3
 1149 0058 FFF7FEFF 		bl	_test_assert
 1150              	.LVL100:
 1151 005c 0028     		cmp	r0, #0
 1152 005e DDD1     		bne	.L51
 1153              		.loc 1 451 0
 1154 0060 AD69     		ldr	r5, [r5, #24]
 1155 0062 0520     		mov	r0, #5
 1156 0064 AA68     		ldr	r2, [r5, #8]
 1157 0066 911B     		sub	r1, r2, r6
 1158 0068 4E42     		neg	r6, r1
 1159 006a 7141     		adc	r1, r1, r6
 1160              	.LVL101:
 1161 006c FFF7FEFF 		bl	_test_assert
 1162              	.LVL102:
 1163 0070 0028     		cmp	r0, #0
 1164 0072 D3D1     		bne	.L51
 1165              		.loc 1 453 0
 1166 0074 201C     		mov	r0, r4
 1167 0076 FFF7FEFF 		bl	chMtxLock
 1168              	.LVL103:
 1169              		.loc 1 454 0
 1170 007a FFF7FEFF 		bl	chMtxUnlockAll
 1171              	.LVL104:
 1172              		.loc 1 455 0
 1173 007e 2668     		ldr	r6, [r4]
 1174 0080 0620     		mov	r0, #6
 1175 0082 311B     		sub	r1, r6, r4
 1176 0084 4B42     		neg	r3, r1
 1177 0086 5941     		adc	r1, r1, r3
 1178 0088 FFF7FEFF 		bl	_test_assert
 1179              	.LVL105:
 1180 008c 0028     		cmp	r0, #0
 1181 008e C5D1     		bne	.L51
 1182              		.loc 1 456 0
 1183 0090 A168     		ldr	r1, [r4, #8]
 1184 0092 0720     		mov	r0, #7
ARM GAS  C:\Users\3130\AppData\Local\Temp\ccEXtTs3.s 			page 22


 1185 0094 4B42     		neg	r3, r1
 1186 0096 5941     		adc	r1, r1, r3
 1187 0098 FFF7FEFF 		bl	_test_assert
 1188              	.LVL106:
 1189 009c BEE7     		b	.L51
 1190              	.L57:
 1191 009e C046     		.align	2
 1192              	.L56:
 1193 00a0 00000000 		.word	rlist
 1194 00a4 00000000 		.word	.LANCHOR2
 1195              		.cfi_endproc
 1196              	.LFE27:
 1197              		.size	mtx5_execute, .-mtx5_execute
 1198 00a8 C046C046 		.section	.text.mtx4_execute,"ax",%progbits
 1198      C046C046 
 1199              		.align	2
 1200              		.p2align 4,,15
 1201              		.code	16
 1202              		.thumb_func
 1203              		.type	mtx4_execute, %function
 1204              	mtx4_execute:
 1205              	.LFB25:
 1206              		.loc 1 365 0
 1207              		.cfi_startproc
 1208 0000 F0B5     		push	{r4, r5, r6, r7, lr}
 1209              	.LCFI24:
 1210              		.cfi_def_cfa_offset 20
 1211              		.cfi_offset 4, -20
 1212              		.cfi_offset 5, -16
 1213              		.cfi_offset 6, -12
 1214              		.cfi_offset 7, -8
 1215              		.cfi_offset 14, -4
 1216 0002 5F46     		mov	r7, fp
 1217 0004 5646     		mov	r6, sl
 1218 0006 4D46     		mov	r5, r9
 1219 0008 4446     		mov	r4, r8
 1220 000a F0B4     		push	{r4, r5, r6, r7}
 1221              	.LCFI25:
 1222              		.cfi_def_cfa_offset 36
 1223              		.cfi_offset 8, -36
 1224              		.cfi_offset 9, -32
 1225              		.cfi_offset 10, -28
 1226              		.cfi_offset 11, -24
 1227              		.loc 1 368 0
 1228 000c 814D     		ldr	r5, .L63
 1229              		.loc 1 371 0
 1230 000e 8249     		ldr	r1, .L63+4
 1231              		.loc 1 368 0
 1232 0010 AB69     		ldr	r3, [r5, #24]
 1233              		.loc 1 371 0
 1234 0012 0A68     		ldr	r2, [r1]
 1235              		.loc 1 368 0
 1236 0014 9C68     		ldr	r4, [r3, #8]
 1237              	.LVL107:
 1238              		.loc 1 365 0
 1239 0016 85B0     		sub	sp, sp, #20
 1240              	.LCFI26:
ARM GAS  C:\Users\3130\AppData\Local\Temp\ccEXtTs3.s 			page 23


 1241              		.cfi_def_cfa_offset 56
 1242              		.loc 1 371 0
 1243 0018 804E     		ldr	r6, .L63+8
 1244 001a 814B     		ldr	r3, .L63+12
 1245 001c 8946     		mov	r9, r1
 1246 001e 0292     		str	r2, [sp, #8]
 1247              		.loc 1 370 0
 1248 0020 A01C     		add	r0, r4, #2
 1249              		.loc 1 369 0
 1250 0022 671C     		add	r7, r4, #1
 1251              	.LVL108:
 1252              		.loc 1 371 0
 1253 0024 9821     		mov	r1, #152
 1254              		.loc 1 370 0
 1255 0026 8046     		mov	r8, r0
 1256              	.LVL109:
 1257              		.loc 1 371 0
 1258 0028 0093     		str	r3, [sp]
 1259 002a 4900     		lsl	r1, r1, #1
 1260 002c 331C     		mov	r3, r6
 1261 002e 3A1C     		mov	r2, r7
 1262 0030 0298     		ldr	r0, [sp, #8]
 1263              	.LVL110:
 1264 0032 FFF7FEFF 		bl	chThdCreateStatic
 1265              	.LVL111:
 1266 0036 B346     		mov	fp, r6
 1267 0038 7A4E     		ldr	r6, .L63+16
 1268              		.loc 1 372 0
 1269 003a 7B49     		ldr	r1, .L63+20
 1270              		.loc 1 371 0
 1271 003c 3060     		str	r0, [r6]
 1272              		.loc 1 372 0
 1273 003e 4846     		mov	r0, r9
 1274 0040 4268     		ldr	r2, [r0, #4]
 1275 0042 7A4B     		ldr	r3, .L63+24
 1276 0044 0392     		str	r2, [sp, #12]
 1277 0046 9822     		mov	r2, #152
 1278 0048 0091     		str	r1, [sp]
 1279 004a 0398     		ldr	r0, [sp, #12]
 1280 004c 5100     		lsl	r1, r2, #1
 1281 004e 4246     		mov	r2, r8
 1282 0050 9A46     		mov	sl, r3
 1283 0052 FFF7FEFF 		bl	chThdCreateStatic
 1284              	.LVL112:
 1285 0056 7060     		str	r0, [r6, #4]
 1286              		.loc 1 373 0
 1287 0058 7548     		ldr	r0, .L63+28
 1288 005a 8146     		mov	r9, r0
 1289 005c FFF7FEFF 		bl	chMtxLock
 1290              	.LVL113:
 1291              		.loc 1 374 0
 1292 0060 AB69     		ldr	r3, [r5, #24]
 1293 0062 0120     		mov	r0, #1
 1294 0064 9968     		ldr	r1, [r3, #8]
 1295 0066 091B     		sub	r1, r1, r4
 1296 0068 4B42     		neg	r3, r1
 1297 006a 5941     		adc	r1, r1, r3
ARM GAS  C:\Users\3130\AppData\Local\Temp\ccEXtTs3.s 			page 24


 1298 006c FFF7FEFF 		bl	_test_assert
 1299              	.LVL114:
 1300 0070 0028     		cmp	r0, #0
 1301 0072 06D0     		beq	.L62
 1302              	.LVL115:
 1303              	.L58:
 1304              		.loc 1 409 0
 1305 0074 05B0     		add	sp, sp, #20
 1306              		@ sp needed for prologue
 1307              	.LVL116:
 1308 0076 3CBC     		pop	{r2, r3, r4, r5}
 1309 0078 9046     		mov	r8, r2
 1310 007a 9946     		mov	r9, r3
 1311 007c A246     		mov	sl, r4
 1312 007e AB46     		mov	fp, r5
 1313 0080 F0BD     		pop	{r4, r5, r6, r7, pc}
 1314              	.LVL117:
 1315              	.L62:
 1316              		.loc 1 375 0
 1317 0082 6420     		mov	r0, #100
 1318 0084 FFF7FEFF 		bl	chThdSleep
 1319              	.LVL118:
 1320              		.loc 1 376 0
 1321 0088 AA69     		ldr	r2, [r5, #24]
 1322 008a 9068     		ldr	r0, [r2, #8]
 1323 008c C11B     		sub	r1, r0, r7
 1324 008e 4B42     		neg	r3, r1
 1325 0090 5941     		adc	r1, r1, r3
 1326 0092 0220     		mov	r0, #2
 1327 0094 FFF7FEFF 		bl	_test_assert
 1328              	.LVL119:
 1329 0098 0028     		cmp	r0, #0
 1330 009a EBD1     		bne	.L58
 1331              		.loc 1 377 0
 1332 009c 6548     		ldr	r0, .L63+32
 1333 009e FFF7FEFF 		bl	chMtxLock
 1334              	.LVL120:
 1335              		.loc 1 378 0
 1336 00a2 AB69     		ldr	r3, [r5, #24]
 1337 00a4 0320     		mov	r0, #3
 1338 00a6 9968     		ldr	r1, [r3, #8]
 1339 00a8 C91B     		sub	r1, r1, r7
 1340 00aa 4B42     		neg	r3, r1
 1341 00ac 5941     		adc	r1, r1, r3
 1342 00ae FFF7FEFF 		bl	_test_assert
 1343              	.LVL121:
 1344 00b2 0028     		cmp	r0, #0
 1345 00b4 DED1     		bne	.L58
 1346              		.loc 1 379 0
 1347 00b6 6420     		mov	r0, #100
 1348 00b8 FFF7FEFF 		bl	chThdSleep
 1349              	.LVL122:
 1350              		.loc 1 380 0
 1351 00bc AA69     		ldr	r2, [r5, #24]
 1352 00be 4346     		mov	r3, r8
 1353 00c0 9068     		ldr	r0, [r2, #8]
 1354 00c2 C11A     		sub	r1, r0, r3
ARM GAS  C:\Users\3130\AppData\Local\Temp\ccEXtTs3.s 			page 25


 1355 00c4 4B42     		neg	r3, r1
 1356 00c6 5941     		adc	r1, r1, r3
 1357 00c8 0420     		mov	r0, #4
 1358 00ca FFF7FEFF 		bl	_test_assert
 1359              	.LVL123:
 1360 00ce 0028     		cmp	r0, #0
 1361 00d0 D0D1     		bne	.L58
 1362              		.loc 1 381 0
 1363 00d2 FFF7FEFF 		bl	chMtxUnlock
 1364              	.LVL124:
 1365              		.loc 1 382 0
 1366 00d6 A969     		ldr	r1, [r5, #24]
 1367 00d8 0520     		mov	r0, #5
 1368 00da 8A68     		ldr	r2, [r1, #8]
 1369 00dc D11B     		sub	r1, r2, r7
 1370 00de 4B42     		neg	r3, r1
 1371 00e0 5941     		adc	r1, r1, r3
 1372 00e2 FFF7FEFF 		bl	_test_assert
 1373              	.LVL125:
 1374 00e6 0028     		cmp	r0, #0
 1375 00e8 C4D1     		bne	.L58
 1376              		.loc 1 383 0
 1377 00ea 6420     		mov	r0, #100
 1378 00ec FFF7FEFF 		bl	chThdSleep
 1379              	.LVL126:
 1380              		.loc 1 384 0
 1381 00f0 A869     		ldr	r0, [r5, #24]
 1382 00f2 8368     		ldr	r3, [r0, #8]
 1383 00f4 0620     		mov	r0, #6
 1384 00f6 D91B     		sub	r1, r3, r7
 1385 00f8 4B42     		neg	r3, r1
 1386 00fa 5941     		adc	r1, r1, r3
 1387 00fc FFF7FEFF 		bl	_test_assert
 1388              	.LVL127:
 1389 0100 0028     		cmp	r0, #0
 1390 0102 B7D1     		bne	.L58
 1391              		.loc 1 385 0
 1392 0104 FFF7FEFF 		bl	chMtxUnlockAll
 1393              	.LVL128:
 1394              		.loc 1 386 0
 1395 0108 A969     		ldr	r1, [r5, #24]
 1396 010a 0720     		mov	r0, #7
 1397 010c 8A68     		ldr	r2, [r1, #8]
 1398 010e 111B     		sub	r1, r2, r4
 1399 0110 4B42     		neg	r3, r1
 1400 0112 5941     		adc	r1, r1, r3
 1401 0114 FFF7FEFF 		bl	_test_assert
 1402              	.LVL129:
 1403 0118 0028     		cmp	r0, #0
 1404 011a ABD1     		bne	.L58
 1405              		.loc 1 387 0
 1406 011c FFF7FEFF 		bl	test_wait_threads
 1407              	.LVL130:
 1408              		.loc 1 390 0
 1409 0120 4548     		ldr	r0, .L63+36
 1410 0122 9823     		mov	r3, #152
 1411 0124 5900     		lsl	r1, r3, #1
ARM GAS  C:\Users\3130\AppData\Local\Temp\ccEXtTs3.s 			page 26


 1412 0126 0090     		str	r0, [sp]
 1413 0128 3A1C     		mov	r2, r7
 1414 012a 5B46     		mov	r3, fp
 1415 012c 0298     		ldr	r0, [sp, #8]
 1416 012e FFF7FEFF 		bl	chThdCreateStatic
 1417              	.LVL131:
 1418              		.loc 1 391 0
 1419 0132 4249     		ldr	r1, .L63+40
 1420 0134 9822     		mov	r2, #152
 1421              		.loc 1 390 0
 1422 0136 3060     		str	r0, [r6]
 1423              		.loc 1 391 0
 1424 0138 5346     		mov	r3, sl
 1425 013a 0091     		str	r1, [sp]
 1426 013c 0398     		ldr	r0, [sp, #12]
 1427 013e 5100     		lsl	r1, r2, #1
 1428 0140 4246     		mov	r2, r8
 1429 0142 FFF7FEFF 		bl	chThdCreateStatic
 1430              	.LVL132:
 1431 0146 7060     		str	r0, [r6, #4]
 1432              		.loc 1 392 0
 1433 0148 4846     		mov	r0, r9
 1434 014a FFF7FEFF 		bl	chMtxLock
 1435              	.LVL133:
 1436              		.loc 1 393 0
 1437 014e AE69     		ldr	r6, [r5, #24]
 1438 0150 B068     		ldr	r0, [r6, #8]
 1439 0152 011B     		sub	r1, r0, r4
 1440 0154 4B42     		neg	r3, r1
 1441 0156 5941     		adc	r1, r1, r3
 1442 0158 0820     		mov	r0, #8
 1443 015a FFF7FEFF 		bl	_test_assert
 1444              	.LVL134:
 1445 015e 0028     		cmp	r0, #0
 1446 0160 00D0     		beq	.LCB1215
 1447 0162 87E7     		b	.L58	@long jump
 1448              	.LCB1215:
 1449              		.loc 1 394 0
 1450 0164 6420     		mov	r0, #100
 1451 0166 FFF7FEFF 		bl	chThdSleep
 1452              	.LVL135:
 1453              		.loc 1 395 0
 1454 016a AB69     		ldr	r3, [r5, #24]
 1455 016c 0920     		mov	r0, #9
 1456 016e 9968     		ldr	r1, [r3, #8]
 1457 0170 C91B     		sub	r1, r1, r7
 1458 0172 4B42     		neg	r3, r1
 1459 0174 5941     		adc	r1, r1, r3
 1460 0176 FFF7FEFF 		bl	_test_assert
 1461              	.LVL136:
 1462 017a 0028     		cmp	r0, #0
 1463 017c 00D0     		beq	.LCB1229
 1464 017e 79E7     		b	.L58	@long jump
 1465              	.LCB1229:
 1466              		.loc 1 396 0
 1467 0180 2C48     		ldr	r0, .L63+32
 1468 0182 FFF7FEFF 		bl	chMtxLock
ARM GAS  C:\Users\3130\AppData\Local\Temp\ccEXtTs3.s 			page 27


 1469              	.LVL137:
 1470              		.loc 1 397 0
 1471 0186 AA69     		ldr	r2, [r5, #24]
 1472 0188 0A20     		mov	r0, #10
 1473 018a 9668     		ldr	r6, [r2, #8]
 1474 018c F11B     		sub	r1, r6, r7
 1475 018e 4B42     		neg	r3, r1
 1476 0190 5941     		adc	r1, r1, r3
 1477 0192 FFF7FEFF 		bl	_test_assert
 1478              	.LVL138:
 1479 0196 0028     		cmp	r0, #0
 1480 0198 00D0     		beq	.LCB1243
 1481 019a 6BE7     		b	.L58	@long jump
 1482              	.LCB1243:
 1483              		.loc 1 398 0
 1484 019c 6420     		mov	r0, #100
 1485 019e FFF7FEFF 		bl	chThdSleep
 1486              	.LVL139:
 1487              		.loc 1 399 0
 1488 01a2 A869     		ldr	r0, [r5, #24]
 1489 01a4 4346     		mov	r3, r8
 1490 01a6 8168     		ldr	r1, [r0, #8]
 1491 01a8 0B20     		mov	r0, #11
 1492 01aa C91A     		sub	r1, r1, r3
 1493 01ac 4B42     		neg	r3, r1
 1494 01ae 5941     		adc	r1, r1, r3
 1495 01b0 FFF7FEFF 		bl	_test_assert
 1496              	.LVL140:
 1497 01b4 0028     		cmp	r0, #0
 1498 01b6 00D0     		beq	.LCB1258
 1499 01b8 5CE7     		b	.L58	@long jump
 1500              	.LCB1258:
 1501              		.loc 1 400 0
 1502              	@ 400 "../../ChibiOS_2.6.1/test/testmtx.c" 1
 1503 01ba 72B6     		cpsid   i
 1504              	@ 0 "" 2
 1505              		.loc 1 401 0
 1506              		.code	16
 1507 01bc FFF7FEFF 		bl	chMtxUnlockS
 1508              	.LVL141:
 1509              		.loc 1 402 0
 1510              	@ 402 "../../ChibiOS_2.6.1/test/testmtx.c" 1
 1511 01c0 62B6     		cpsie   i
 1512              	@ 0 "" 2
 1513              		.loc 1 403 0
 1514              		.code	16
 1515 01c2 AA69     		ldr	r2, [r5, #24]
 1516 01c4 0C20     		mov	r0, #12
 1517 01c6 9668     		ldr	r6, [r2, #8]
 1518 01c8 F11B     		sub	r1, r6, r7
 1519 01ca 4B42     		neg	r3, r1
 1520 01cc 5941     		adc	r1, r1, r3
 1521 01ce FFF7FEFF 		bl	_test_assert
 1522              	.LVL142:
 1523 01d2 0028     		cmp	r0, #0
 1524 01d4 00D0     		beq	.LCB1273
 1525 01d6 4DE7     		b	.L58	@long jump
ARM GAS  C:\Users\3130\AppData\Local\Temp\ccEXtTs3.s 			page 28


 1526              	.LCB1273:
 1527              		.loc 1 404 0
 1528 01d8 6420     		mov	r0, #100
 1529 01da FFF7FEFF 		bl	chThdSleep
 1530              	.LVL143:
 1531              		.loc 1 405 0
 1532 01de A869     		ldr	r0, [r5, #24]
 1533 01e0 8168     		ldr	r1, [r0, #8]
 1534 01e2 0D20     		mov	r0, #13
 1535 01e4 C91B     		sub	r1, r1, r7
 1536 01e6 4F42     		neg	r7, r1
 1537 01e8 7941     		adc	r1, r1, r7
 1538              	.LVL144:
 1539 01ea FFF7FEFF 		bl	_test_assert
 1540              	.LVL145:
 1541 01ee 0028     		cmp	r0, #0
 1542 01f0 00D0     		beq	.LCB1288
 1543 01f2 3FE7     		b	.L58	@long jump
 1544              	.LCB1288:
 1545              		.loc 1 406 0
 1546 01f4 FFF7FEFF 		bl	chMtxUnlockAll
 1547              	.LVL146:
 1548              		.loc 1 407 0
 1549 01f8 AD69     		ldr	r5, [r5, #24]
 1550 01fa 0E20     		mov	r0, #14
 1551 01fc AF68     		ldr	r7, [r5, #8]
 1552 01fe 391B     		sub	r1, r7, r4
 1553 0200 4C42     		neg	r4, r1
 1554 0202 6141     		adc	r1, r1, r4
 1555              	.LVL147:
 1556 0204 FFF7FEFF 		bl	_test_assert
 1557              	.LVL148:
 1558 0208 0028     		cmp	r0, #0
 1559 020a 00D0     		beq	.LCB1303
 1560 020c 32E7     		b	.L58	@long jump
 1561              	.LCB1303:
 1562              		.loc 1 408 0
 1563 020e FFF7FEFF 		bl	test_wait_threads
 1564              	.LVL149:
 1565 0212 2FE7     		b	.L58
 1566              	.L64:
 1567              		.align	2
 1568              	.L63:
 1569 0214 00000000 		.word	rlist
 1570 0218 00000000 		.word	wa
 1571 021c 00000000 		.word	thread4a
 1572 0220 08000000 		.word	.LC10
 1573 0224 00000000 		.word	threads
 1574 0228 00000000 		.word	.LC3
 1575 022c 00000000 		.word	thread4b
 1576 0230 00000000 		.word	.LANCHOR1
 1577 0234 00000000 		.word	.LANCHOR2
 1578 0238 14000000 		.word	.LC42
 1579 023c 04000000 		.word	.LC7
 1580              		.cfi_endproc
 1581              	.LFE25:
 1582              		.size	mtx4_execute, .-mtx4_execute
ARM GAS  C:\Users\3130\AppData\Local\Temp\ccEXtTs3.s 			page 29


 1583              		.section	.text.thread4b,"ax",%progbits
 1584              		.align	2
 1585              		.p2align 4,,15
 1586              		.code	16
 1587              		.thumb_func
 1588              		.type	thread4b, %function
 1589              	thread4b:
 1590              	.LFB24:
 1591              		.loc 1 356 0
 1592              		.cfi_startproc
 1593              	.LVL150:
 1594 0000 08B5     		push	{r3, lr}
 1595              	.LCFI27:
 1596              		.cfi_def_cfa_offset 8
 1597              		.cfi_offset 3, -8
 1598              		.cfi_offset 14, -4
 1599              		.loc 1 359 0
 1600 0002 9620     		mov	r0, #150
 1601              	.LVL151:
 1602 0004 FFF7FEFF 		bl	chThdSleep
 1603              	.LVL152:
 1604              		.loc 1 360 0
 1605 0008 0348     		ldr	r0, .L66
 1606 000a FFF7FEFF 		bl	chMtxLock
 1607              	.LVL153:
 1608              		.loc 1 363 0
 1609              		@ sp needed for prologue
 1610              		.loc 1 361 0
 1611 000e FFF7FEFF 		bl	chMtxUnlock
 1612              	.LVL154:
 1613              		.loc 1 363 0
 1614 0012 0020     		mov	r0, #0
 1615 0014 08BD     		pop	{r3, pc}
 1616              	.L67:
 1617 0016 C046     		.align	2
 1618              	.L66:
 1619 0018 00000000 		.word	.LANCHOR2
 1620              		.cfi_endproc
 1621              	.LFE24:
 1622              		.size	thread4b, .-thread4b
 1623 001c C046C046 		.section	.text.thread4a,"ax",%progbits
 1624              		.align	2
 1625              		.p2align 4,,15
 1626              		.code	16
 1627              		.thumb_func
 1628              		.type	thread4a, %function
 1629              	thread4a:
 1630              	.LFB23:
 1631              		.loc 1 347 0
 1632              		.cfi_startproc
 1633              	.LVL155:
 1634 0000 08B5     		push	{r3, lr}
 1635              	.LCFI28:
 1636              		.cfi_def_cfa_offset 8
 1637              		.cfi_offset 3, -8
 1638              		.cfi_offset 14, -4
 1639              		.loc 1 350 0
ARM GAS  C:\Users\3130\AppData\Local\Temp\ccEXtTs3.s 			page 30


 1640 0002 3220     		mov	r0, #50
 1641              	.LVL156:
 1642 0004 FFF7FEFF 		bl	chThdSleep
 1643              	.LVL157:
 1644              		.loc 1 351 0
 1645 0008 0348     		ldr	r0, .L69
 1646 000a FFF7FEFF 		bl	chMtxLock
 1647              	.LVL158:
 1648              		.loc 1 354 0
 1649              		@ sp needed for prologue
 1650              		.loc 1 352 0
 1651 000e FFF7FEFF 		bl	chMtxUnlock
 1652              	.LVL159:
 1653              		.loc 1 354 0
 1654 0012 0020     		mov	r0, #0
 1655 0014 08BD     		pop	{r3, pc}
 1656              	.L70:
 1657 0016 C046     		.align	2
 1658              	.L69:
 1659 0018 00000000 		.word	.LANCHOR1
 1660              		.cfi_endproc
 1661              	.LFE23:
 1662              		.size	thread4a, .-thread4a
 1663 001c C046C046 		.section	.text.mtx3_execute,"ax",%progbits
 1664              		.align	2
 1665              		.p2align 4,,15
 1666              		.code	16
 1667              		.thumb_func
 1668              		.type	mtx3_execute, %function
 1669              	mtx3_execute:
 1670              	.LFB21:
 1671              		.loc 1 308 0
 1672              		.cfi_startproc
 1673 0000 F0B5     		push	{r4, r5, r6, r7, lr}
 1674              	.LCFI29:
 1675              		.cfi_def_cfa_offset 20
 1676              		.cfi_offset 4, -20
 1677              		.cfi_offset 5, -16
 1678              		.cfi_offset 6, -12
 1679              		.cfi_offset 7, -8
 1680              		.cfi_offset 14, -4
 1681 0002 4746     		mov	r7, r8
 1682 0004 80B4     		push	{r7}
 1683              	.LCFI30:
 1684              		.cfi_def_cfa_offset 24
 1685              		.cfi_offset 8, -24
 1686 0006 84B0     		sub	sp, sp, #16
 1687              	.LCFI31:
 1688              		.cfi_def_cfa_offset 40
 1689              		.loc 1 311 0
 1690 0008 FFF7FEFF 		bl	test_wait_tick
 1691              	.LVL160:
 1692              		.loc 1 313 0
 1693 000c 2D4E     		ldr	r6, .L73
 1694              		.loc 1 312 0
 1695 000e 2E4B     		ldr	r3, .L73+4
 1696              		.loc 1 313 0
ARM GAS  C:\Users\3130\AppData\Local\Temp\ccEXtTs3.s 			page 31


 1697 0010 2E4F     		ldr	r7, .L73+8
 1698              		.loc 1 312 0
 1699 0012 DA68     		ldr	r2, [r3, #12]
 1700              		.loc 1 313 0
 1701 0014 B169     		ldr	r1, [r6, #24]
 1702 0016 3868     		ldr	r0, [r7]
 1703              		.loc 1 312 0
 1704 0018 9046     		mov	r8, r2
 1705              	.LVL161:
 1706              		.loc 1 313 0
 1707 001a 8A68     		ldr	r2, [r1, #8]
 1708              	.LVL162:
 1709 001c 0025     		mov	r5, #0
 1710 001e 0390     		str	r0, [sp, #12]
 1711 0020 9824     		mov	r4, #152
 1712 0022 6100     		lsl	r1, r4, #1
 1713 0024 053A     		sub	r2, r2, #5
 1714 0026 0095     		str	r5, [sp]
 1715 0028 294B     		ldr	r3, .L73+12
 1716 002a 0398     		ldr	r0, [sp, #12]
 1717 002c FFF7FEFF 		bl	chThdCreateStatic
 1718              	.LVL163:
 1719              		.loc 1 314 0
 1720 0030 B269     		ldr	r2, [r6, #24]
 1721 0032 7B68     		ldr	r3, [r7, #4]
 1722              		.loc 1 313 0
 1723 0034 274C     		ldr	r4, .L73+16
 1724              		.loc 1 314 0
 1725 0036 9268     		ldr	r2, [r2, #8]
 1726 0038 0393     		str	r3, [sp, #12]
 1727 003a 9821     		mov	r1, #152
 1728              		.loc 1 313 0
 1729 003c 2060     		str	r0, [r4]
 1730              		.loc 1 314 0
 1731 003e 043A     		sub	r2, r2, #4
 1732 0040 0095     		str	r5, [sp]
 1733 0042 4900     		lsl	r1, r1, #1
 1734 0044 244B     		ldr	r3, .L73+20
 1735 0046 0398     		ldr	r0, [sp, #12]
 1736 0048 FFF7FEFF 		bl	chThdCreateStatic
 1737              	.LVL164:
 1738              		.loc 1 315 0
 1739 004c B369     		ldr	r3, [r6, #24]
 1740              		.loc 1 314 0
 1741 004e 6060     		str	r0, [r4, #4]
 1742              		.loc 1 315 0
 1743 0050 B868     		ldr	r0, [r7, #8]
 1744 0052 9A68     		ldr	r2, [r3, #8]
 1745 0054 0390     		str	r0, [sp, #12]
 1746 0056 9821     		mov	r1, #152
 1747 0058 033A     		sub	r2, r2, #3
 1748 005a 0095     		str	r5, [sp]
 1749 005c 4900     		lsl	r1, r1, #1
 1750 005e 1F4B     		ldr	r3, .L73+24
 1751 0060 0398     		ldr	r0, [sp, #12]
 1752 0062 FFF7FEFF 		bl	chThdCreateStatic
 1753              	.LVL165:
ARM GAS  C:\Users\3130\AppData\Local\Temp\ccEXtTs3.s 			page 32


 1754              		.loc 1 316 0
 1755 0066 FA68     		ldr	r2, [r7, #12]
 1756              		.loc 1 315 0
 1757 0068 A060     		str	r0, [r4, #8]
 1758              		.loc 1 316 0
 1759 006a B069     		ldr	r0, [r6, #24]
 1760 006c 0392     		str	r2, [sp, #12]
 1761 006e 8268     		ldr	r2, [r0, #8]
 1762 0070 9823     		mov	r3, #152
 1763 0072 5900     		lsl	r1, r3, #1
 1764 0074 023A     		sub	r2, r2, #2
 1765 0076 0095     		str	r5, [sp]
 1766 0078 194B     		ldr	r3, .L73+28
 1767 007a 0398     		ldr	r0, [sp, #12]
 1768 007c FFF7FEFF 		bl	chThdCreateStatic
 1769              	.LVL166:
 1770              		.loc 1 317 0
 1771 0080 B669     		ldr	r6, [r6, #24]
 1772 0082 3F69     		ldr	r7, [r7, #16]
 1773 0084 B268     		ldr	r2, [r6, #8]
 1774              		.loc 1 316 0
 1775 0086 E060     		str	r0, [r4, #12]
 1776              		.loc 1 317 0
 1777 0088 0095     		str	r5, [sp]
 1778 008a 9825     		mov	r5, #152
 1779 008c 6900     		lsl	r1, r5, #1
 1780 008e 013A     		sub	r2, r2, #1
 1781 0090 144B     		ldr	r3, .L73+32
 1782 0092 381C     		mov	r0, r7
 1783 0094 0397     		str	r7, [sp, #12]
 1784 0096 FFF7FEFF 		bl	chThdCreateStatic
 1785              	.LVL167:
 1786 009a 2061     		str	r0, [r4, #16]
 1787              		.loc 1 318 0
 1788 009c FFF7FEFF 		bl	test_wait_threads
 1789              	.LVL168:
 1790              		.loc 1 319 0
 1791 00a0 0120     		mov	r0, #1
 1792 00a2 1149     		ldr	r1, .L73+36
 1793 00a4 FFF7FEFF 		bl	_test_assert_sequence
 1794              	.LVL169:
 1795 00a8 0028     		cmp	r0, #0
 1796 00aa 06D1     		bne	.L71
 1797              		.loc 1 320 0
 1798 00ac 4146     		mov	r1, r8
 1799 00ae 4246     		mov	r2, r8
 1800 00b0 6E31     		add	r1, r1, #110
 1801 00b2 7332     		add	r2, r2, #115
 1802 00b4 0220     		mov	r0, #2
 1803 00b6 FFF7FEFF 		bl	_test_assert_time_window
 1804              	.LVL170:
 1805              	.L71:
 1806              		.loc 1 321 0
 1807 00ba 04B0     		add	sp, sp, #16
 1808              		@ sp needed for prologue
 1809              	.LVL171:
 1810 00bc 04BC     		pop	{r2}
ARM GAS  C:\Users\3130\AppData\Local\Temp\ccEXtTs3.s 			page 33


 1811 00be 9046     		mov	r8, r2
 1812 00c0 F0BD     		pop	{r4, r5, r6, r7, pc}
 1813              	.L74:
 1814 00c2 C046     		.align	2
 1815              	.L73:
 1816 00c4 00000000 		.word	rlist
 1817 00c8 00000000 		.word	vtlist
 1818 00cc 00000000 		.word	wa
 1819 00d0 00000000 		.word	thread3LL
 1820 00d4 00000000 		.word	threads
 1821 00d8 00000000 		.word	thread3L
 1822 00dc 00000000 		.word	thread3M
 1823 00e0 00000000 		.word	thread3H
 1824 00e4 00000000 		.word	thread3HH
 1825 00e8 18000000 		.word	.LC48
 1826              		.cfi_endproc
 1827              	.LFE21:
 1828              		.size	mtx3_execute, .-mtx3_execute
 1829 00ec C046C046 		.section	.text.mtx2_execute,"ax",%progbits
 1830              		.align	2
 1831              		.p2align 4,,15
 1832              		.code	16
 1833              		.thumb_func
 1834              		.type	mtx2_execute, %function
 1835              	mtx2_execute:
 1836              	.LFB14:
 1837              		.loc 1 190 0
 1838              		.cfi_startproc
 1839 0000 F0B5     		push	{r4, r5, r6, r7, lr}
 1840              	.LCFI32:
 1841              		.cfi_def_cfa_offset 20
 1842              		.cfi_offset 4, -20
 1843              		.cfi_offset 5, -16
 1844              		.cfi_offset 6, -12
 1845              		.cfi_offset 7, -8
 1846              		.cfi_offset 14, -4
 1847 0002 4746     		mov	r7, r8
 1848 0004 80B4     		push	{r7}
 1849              	.LCFI33:
 1850              		.cfi_def_cfa_offset 24
 1851              		.cfi_offset 8, -24
 1852 0006 84B0     		sub	sp, sp, #16
 1853              	.LCFI34:
 1854              		.cfi_def_cfa_offset 40
 1855              		.loc 1 193 0
 1856 0008 FFF7FEFF 		bl	test_wait_tick
 1857              	.LVL172:
 1858              		.loc 1 195 0
 1859 000c 204E     		ldr	r6, .L77
 1860              		.loc 1 194 0
 1861 000e 214B     		ldr	r3, .L77+4
 1862              		.loc 1 195 0
 1863 0010 214F     		ldr	r7, .L77+8
 1864              		.loc 1 194 0
 1865 0012 DA68     		ldr	r2, [r3, #12]
 1866              		.loc 1 195 0
 1867 0014 B169     		ldr	r1, [r6, #24]
ARM GAS  C:\Users\3130\AppData\Local\Temp\ccEXtTs3.s 			page 34


 1868 0016 3868     		ldr	r0, [r7]
 1869              		.loc 1 194 0
 1870 0018 9046     		mov	r8, r2
 1871              	.LVL173:
 1872              		.loc 1 195 0
 1873 001a 8A68     		ldr	r2, [r1, #8]
 1874              	.LVL174:
 1875 001c 0025     		mov	r5, #0
 1876 001e 0390     		str	r0, [sp, #12]
 1877 0020 9824     		mov	r4, #152
 1878 0022 6100     		lsl	r1, r4, #1
 1879 0024 013A     		sub	r2, r2, #1
 1880 0026 1D4B     		ldr	r3, .L77+12
 1881 0028 0095     		str	r5, [sp]
 1882 002a 0398     		ldr	r0, [sp, #12]
 1883 002c FFF7FEFF 		bl	chThdCreateStatic
 1884              	.LVL175:
 1885              		.loc 1 196 0
 1886 0030 B269     		ldr	r2, [r6, #24]
 1887 0032 7B68     		ldr	r3, [r7, #4]
 1888              		.loc 1 195 0
 1889 0034 1A4C     		ldr	r4, .L77+16
 1890              		.loc 1 196 0
 1891 0036 9268     		ldr	r2, [r2, #8]
 1892 0038 0393     		str	r3, [sp, #12]
 1893 003a 9821     		mov	r1, #152
 1894              		.loc 1 195 0
 1895 003c 2060     		str	r0, [r4]
 1896              		.loc 1 196 0
 1897 003e 023A     		sub	r2, r2, #2
 1898 0040 4900     		lsl	r1, r1, #1
 1899 0042 184B     		ldr	r3, .L77+20
 1900 0044 0095     		str	r5, [sp]
 1901 0046 0398     		ldr	r0, [sp, #12]
 1902 0048 FFF7FEFF 		bl	chThdCreateStatic
 1903              	.LVL176:
 1904 004c 6060     		str	r0, [r4, #4]
 1905              		.loc 1 197 0
 1906 004e B069     		ldr	r0, [r6, #24]
 1907 0050 BF68     		ldr	r7, [r7, #8]
 1908 0052 8268     		ldr	r2, [r0, #8]
 1909 0054 9826     		mov	r6, #152
 1910 0056 7100     		lsl	r1, r6, #1
 1911 0058 033A     		sub	r2, r2, #3
 1912 005a 134B     		ldr	r3, .L77+24
 1913 005c 0095     		str	r5, [sp]
 1914 005e 381C     		mov	r0, r7
 1915 0060 0397     		str	r7, [sp, #12]
 1916 0062 FFF7FEFF 		bl	chThdCreateStatic
 1917              	.LVL177:
 1918 0066 A060     		str	r0, [r4, #8]
 1919              		.loc 1 198 0
 1920 0068 FFF7FEFF 		bl	test_wait_threads
 1921              	.LVL178:
 1922              		.loc 1 199 0
 1923 006c 0120     		mov	r0, #1
 1924 006e 0F49     		ldr	r1, .L77+28
ARM GAS  C:\Users\3130\AppData\Local\Temp\ccEXtTs3.s 			page 35


 1925 0070 FFF7FEFF 		bl	_test_assert_sequence
 1926              	.LVL179:
 1927 0074 0028     		cmp	r0, #0
 1928 0076 06D1     		bne	.L75
 1929              		.loc 1 200 0
 1930 0078 4146     		mov	r1, r8
 1931 007a 4246     		mov	r2, r8
 1932 007c 6431     		add	r1, r1, #100
 1933 007e 6932     		add	r2, r2, #105
 1934 0080 0220     		mov	r0, #2
 1935 0082 FFF7FEFF 		bl	_test_assert_time_window
 1936              	.LVL180:
 1937              	.L75:
 1938              		.loc 1 201 0
 1939 0086 04B0     		add	sp, sp, #16
 1940              		@ sp needed for prologue
 1941              	.LVL181:
 1942 0088 04BC     		pop	{r2}
 1943 008a 9046     		mov	r8, r2
 1944 008c F0BD     		pop	{r4, r5, r6, r7, pc}
 1945              	.L78:
 1946 008e C046     		.align	2
 1947              	.L77:
 1948 0090 00000000 		.word	rlist
 1949 0094 00000000 		.word	vtlist
 1950 0098 00000000 		.word	wa
 1951 009c 00000000 		.word	thread2H
 1952 00a0 00000000 		.word	threads
 1953 00a4 00000000 		.word	thread2M
 1954 00a8 00000000 		.word	thread2L
 1955 00ac 0C000000 		.word	.LC13
 1956              		.cfi_endproc
 1957              	.LFE14:
 1958              		.size	mtx2_execute, .-mtx2_execute
 1959              		.section	.text.thread3HH,"ax",%progbits
 1960              		.align	2
 1961              		.p2align 4,,15
 1962              		.code	16
 1963              		.thumb_func
 1964              		.type	thread3HH, %function
 1965              	thread3HH:
 1966              	.LFB20:
 1967              		.loc 1 297 0
 1968              		.cfi_startproc
 1969              	.LVL182:
 1970 0000 08B5     		push	{r3, lr}
 1971              	.LCFI35:
 1972              		.cfi_def_cfa_offset 8
 1973              		.cfi_offset 3, -8
 1974              		.cfi_offset 14, -4
 1975              		.loc 1 300 0
 1976 0002 3220     		mov	r0, #50
 1977              	.LVL183:
 1978 0004 FFF7FEFF 		bl	chThdSleep
 1979              	.LVL184:
 1980              		.loc 1 301 0
 1981 0008 0648     		ldr	r0, .L80
ARM GAS  C:\Users\3130\AppData\Local\Temp\ccEXtTs3.s 			page 36


 1982 000a FFF7FEFF 		bl	chMtxLock
 1983              	.LVL185:
 1984              		.loc 1 302 0
 1985 000e 0A20     		mov	r0, #10
 1986 0010 FFF7FEFF 		bl	test_cpu_pulse
 1987              	.LVL186:
 1988              		.loc 1 303 0
 1989 0014 FFF7FEFF 		bl	chMtxUnlock
 1990              	.LVL187:
 1991              		.loc 1 304 0
 1992 0018 4120     		mov	r0, #65
 1993 001a FFF7FEFF 		bl	test_emit_token
 1994              	.LVL188:
 1995              		.loc 1 306 0
 1996              		@ sp needed for prologue
 1997 001e 0020     		mov	r0, #0
 1998 0020 08BD     		pop	{r3, pc}
 1999              	.L81:
 2000 0022 C046     		.align	2
 2001              	.L80:
 2002 0024 00000000 		.word	.LANCHOR1
 2003              		.cfi_endproc
 2004              	.LFE20:
 2005              		.size	thread3HH, .-thread3HH
 2006 0028 C046C046 		.section	.text.thread3H,"ax",%progbits
 2006      C046C046 
 2007              		.align	2
 2008              		.p2align 4,,15
 2009              		.code	16
 2010              		.thumb_func
 2011              		.type	thread3H, %function
 2012              	thread3H:
 2013              	.LFB19:
 2014              		.loc 1 287 0
 2015              		.cfi_startproc
 2016              	.LVL189:
 2017 0000 08B5     		push	{r3, lr}
 2018              	.LCFI36:
 2019              		.cfi_def_cfa_offset 8
 2020              		.cfi_offset 3, -8
 2021              		.cfi_offset 14, -4
 2022              		.loc 1 290 0
 2023 0002 2820     		mov	r0, #40
 2024              	.LVL190:
 2025 0004 FFF7FEFF 		bl	chThdSleep
 2026              	.LVL191:
 2027              		.loc 1 291 0
 2028 0008 1420     		mov	r0, #20
 2029 000a FFF7FEFF 		bl	test_cpu_pulse
 2030              	.LVL192:
 2031              		.loc 1 292 0
 2032 000e 4220     		mov	r0, #66
 2033 0010 FFF7FEFF 		bl	test_emit_token
 2034              	.LVL193:
 2035              		.loc 1 294 0
 2036              		@ sp needed for prologue
 2037 0014 0020     		mov	r0, #0
ARM GAS  C:\Users\3130\AppData\Local\Temp\ccEXtTs3.s 			page 37


 2038 0016 08BD     		pop	{r3, pc}
 2039              		.cfi_endproc
 2040              	.LFE19:
 2041              		.size	thread3H, .-thread3H
 2042 0018 C046C046 		.section	.text.thread3M,"ax",%progbits
 2042      C046C046 
 2043              		.align	2
 2044              		.p2align 4,,15
 2045              		.code	16
 2046              		.thumb_func
 2047              		.type	thread3M, %function
 2048              	thread3M:
 2049              	.LFB18:
 2050              		.loc 1 275 0
 2051              		.cfi_startproc
 2052              	.LVL194:
 2053 0000 08B5     		push	{r3, lr}
 2054              	.LCFI37:
 2055              		.cfi_def_cfa_offset 8
 2056              		.cfi_offset 3, -8
 2057              		.cfi_offset 14, -4
 2058              		.loc 1 278 0
 2059 0002 1420     		mov	r0, #20
 2060              	.LVL195:
 2061 0004 FFF7FEFF 		bl	chThdSleep
 2062              	.LVL196:
 2063              		.loc 1 279 0
 2064 0008 0648     		ldr	r0, .L84
 2065 000a FFF7FEFF 		bl	chMtxLock
 2066              	.LVL197:
 2067              		.loc 1 280 0
 2068 000e 0A20     		mov	r0, #10
 2069 0010 FFF7FEFF 		bl	test_cpu_pulse
 2070              	.LVL198:
 2071              		.loc 1 281 0
 2072 0014 FFF7FEFF 		bl	chMtxUnlock
 2073              	.LVL199:
 2074              		.loc 1 282 0
 2075 0018 4320     		mov	r0, #67
 2076 001a FFF7FEFF 		bl	test_emit_token
 2077              	.LVL200:
 2078              		.loc 1 284 0
 2079              		@ sp needed for prologue
 2080 001e 0020     		mov	r0, #0
 2081 0020 08BD     		pop	{r3, pc}
 2082              	.L85:
 2083 0022 C046     		.align	2
 2084              	.L84:
 2085 0024 00000000 		.word	.LANCHOR1
 2086              		.cfi_endproc
 2087              	.LFE18:
 2088              		.size	thread3M, .-thread3M
 2089 0028 C046C046 		.section	.text.thread3L,"ax",%progbits
 2089      C046C046 
 2090              		.align	2
 2091              		.p2align 4,,15
 2092              		.code	16
ARM GAS  C:\Users\3130\AppData\Local\Temp\ccEXtTs3.s 			page 38


 2093              		.thumb_func
 2094              		.type	thread3L, %function
 2095              	thread3L:
 2096              	.LFB17:
 2097              		.loc 1 259 0
 2098              		.cfi_startproc
 2099              	.LVL201:
 2100 0000 08B5     		push	{r3, lr}
 2101              	.LCFI38:
 2102              		.cfi_def_cfa_offset 8
 2103              		.cfi_offset 3, -8
 2104              		.cfi_offset 14, -4
 2105              		.loc 1 262 0
 2106 0002 0A20     		mov	r0, #10
 2107              	.LVL202:
 2108 0004 FFF7FEFF 		bl	chThdSleep
 2109              	.LVL203:
 2110              		.loc 1 263 0
 2111 0008 0B48     		ldr	r0, .L87
 2112 000a FFF7FEFF 		bl	chMtxLock
 2113              	.LVL204:
 2114              		.loc 1 264 0
 2115 000e 1420     		mov	r0, #20
 2116 0010 FFF7FEFF 		bl	test_cpu_pulse
 2117              	.LVL205:
 2118              		.loc 1 265 0
 2119 0014 0948     		ldr	r0, .L87+4
 2120 0016 FFF7FEFF 		bl	chMtxLock
 2121              	.LVL206:
 2122              		.loc 1 266 0
 2123 001a 0A20     		mov	r0, #10
 2124 001c FFF7FEFF 		bl	test_cpu_pulse
 2125              	.LVL207:
 2126              		.loc 1 267 0
 2127 0020 FFF7FEFF 		bl	chMtxUnlock
 2128              	.LVL208:
 2129              		.loc 1 268 0
 2130 0024 0A20     		mov	r0, #10
 2131 0026 FFF7FEFF 		bl	test_cpu_pulse
 2132              	.LVL209:
 2133              		.loc 1 269 0
 2134 002a FFF7FEFF 		bl	chMtxUnlock
 2135              	.LVL210:
 2136              		.loc 1 270 0
 2137 002e 4420     		mov	r0, #68
 2138 0030 FFF7FEFF 		bl	test_emit_token
 2139              	.LVL211:
 2140              		.loc 1 272 0
 2141              		@ sp needed for prologue
 2142 0034 0020     		mov	r0, #0
 2143 0036 08BD     		pop	{r3, pc}
 2144              	.L88:
 2145              		.align	2
 2146              	.L87:
 2147 0038 00000000 		.word	.LANCHOR1
 2148 003c 00000000 		.word	.LANCHOR2
 2149              		.cfi_endproc
ARM GAS  C:\Users\3130\AppData\Local\Temp\ccEXtTs3.s 			page 39


 2150              	.LFE17:
 2151              		.size	thread3L, .-thread3L
 2152              		.section	.text.thread3LL,"ax",%progbits
 2153              		.align	2
 2154              		.p2align 4,,15
 2155              		.code	16
 2156              		.thumb_func
 2157              		.type	thread3LL, %function
 2158              	thread3LL:
 2159              	.LFB16:
 2160              		.loc 1 248 0
 2161              		.cfi_startproc
 2162              	.LVL212:
 2163 0000 08B5     		push	{r3, lr}
 2164              	.LCFI39:
 2165              		.cfi_def_cfa_offset 8
 2166              		.cfi_offset 3, -8
 2167              		.cfi_offset 14, -4
 2168              		.loc 1 251 0
 2169 0002 0648     		ldr	r0, .L90
 2170              	.LVL213:
 2171 0004 FFF7FEFF 		bl	chMtxLock
 2172              	.LVL214:
 2173              		.loc 1 252 0
 2174 0008 1E20     		mov	r0, #30
 2175 000a FFF7FEFF 		bl	test_cpu_pulse
 2176              	.LVL215:
 2177              		.loc 1 253 0
 2178 000e FFF7FEFF 		bl	chMtxUnlock
 2179              	.LVL216:
 2180              		.loc 1 254 0
 2181 0012 4520     		mov	r0, #69
 2182 0014 FFF7FEFF 		bl	test_emit_token
 2183              	.LVL217:
 2184              		.loc 1 256 0
 2185              		@ sp needed for prologue
 2186 0018 0020     		mov	r0, #0
 2187 001a 08BD     		pop	{r3, pc}
 2188              	.L91:
 2189              		.align	2
 2190              	.L90:
 2191 001c 00000000 		.word	.LANCHOR2
 2192              		.cfi_endproc
 2193              	.LFE16:
 2194              		.size	thread3LL, .-thread3LL
 2195              		.section	.text.thread2L,"ax",%progbits
 2196              		.align	2
 2197              		.p2align 4,,15
 2198              		.code	16
 2199              		.thumb_func
 2200              		.type	thread2L, %function
 2201              	thread2L:
 2202              	.LFB11:
 2203              		.loc 1 157 0
 2204              		.cfi_startproc
 2205              	.LVL218:
 2206 0000 08B5     		push	{r3, lr}
ARM GAS  C:\Users\3130\AppData\Local\Temp\ccEXtTs3.s 			page 40


 2207              	.LCFI40:
 2208              		.cfi_def_cfa_offset 8
 2209              		.cfi_offset 3, -8
 2210              		.cfi_offset 14, -4
 2211              		.loc 1 160 0
 2212 0002 0848     		ldr	r0, .L93
 2213              	.LVL219:
 2214 0004 FFF7FEFF 		bl	chMtxLock
 2215              	.LVL220:
 2216              		.loc 1 161 0
 2217 0008 2820     		mov	r0, #40
 2218 000a FFF7FEFF 		bl	test_cpu_pulse
 2219              	.LVL221:
 2220              		.loc 1 162 0
 2221 000e FFF7FEFF 		bl	chMtxUnlock
 2222              	.LVL222:
 2223              		.loc 1 163 0
 2224 0012 0A20     		mov	r0, #10
 2225 0014 FFF7FEFF 		bl	test_cpu_pulse
 2226              	.LVL223:
 2227              		.loc 1 164 0
 2228 0018 4320     		mov	r0, #67
 2229 001a FFF7FEFF 		bl	test_emit_token
 2230              	.LVL224:
 2231              		.loc 1 166 0
 2232              		@ sp needed for prologue
 2233 001e 0020     		mov	r0, #0
 2234 0020 08BD     		pop	{r3, pc}
 2235              	.L94:
 2236 0022 C046     		.align	2
 2237              	.L93:
 2238 0024 00000000 		.word	.LANCHOR2
 2239              		.cfi_endproc
 2240              	.LFE11:
 2241              		.size	thread2L, .-thread2L
 2242 0028 C046C046 		.section	.text.thread2M,"ax",%progbits
 2242      C046C046 
 2243              		.align	2
 2244              		.p2align 4,,15
 2245              		.code	16
 2246              		.thumb_func
 2247              		.type	thread2M, %function
 2248              	thread2M:
 2249              	.LFB12:
 2250              		.loc 1 169 0
 2251              		.cfi_startproc
 2252              	.LVL225:
 2253 0000 08B5     		push	{r3, lr}
 2254              	.LCFI41:
 2255              		.cfi_def_cfa_offset 8
 2256              		.cfi_offset 3, -8
 2257              		.cfi_offset 14, -4
 2258              		.loc 1 172 0
 2259 0002 1420     		mov	r0, #20
 2260              	.LVL226:
 2261 0004 FFF7FEFF 		bl	chThdSleep
 2262              	.LVL227:
ARM GAS  C:\Users\3130\AppData\Local\Temp\ccEXtTs3.s 			page 41


 2263              		.loc 1 173 0
 2264 0008 2820     		mov	r0, #40
 2265 000a FFF7FEFF 		bl	test_cpu_pulse
 2266              	.LVL228:
 2267              		.loc 1 174 0
 2268 000e 4220     		mov	r0, #66
 2269 0010 FFF7FEFF 		bl	test_emit_token
 2270              	.LVL229:
 2271              		.loc 1 176 0
 2272              		@ sp needed for prologue
 2273 0014 0020     		mov	r0, #0
 2274 0016 08BD     		pop	{r3, pc}
 2275              		.cfi_endproc
 2276              	.LFE12:
 2277              		.size	thread2M, .-thread2M
 2278 0018 C046C046 		.section	.text.thread2H,"ax",%progbits
 2278      C046C046 
 2279              		.align	2
 2280              		.p2align 4,,15
 2281              		.code	16
 2282              		.thumb_func
 2283              		.type	thread2H, %function
 2284              	thread2H:
 2285              	.LFB13:
 2286              		.loc 1 179 0
 2287              		.cfi_startproc
 2288              	.LVL230:
 2289 0000 08B5     		push	{r3, lr}
 2290              	.LCFI42:
 2291              		.cfi_def_cfa_offset 8
 2292              		.cfi_offset 3, -8
 2293              		.cfi_offset 14, -4
 2294              		.loc 1 182 0
 2295 0002 2820     		mov	r0, #40
 2296              	.LVL231:
 2297 0004 FFF7FEFF 		bl	chThdSleep
 2298              	.LVL232:
 2299              		.loc 1 183 0
 2300 0008 0648     		ldr	r0, .L97
 2301 000a FFF7FEFF 		bl	chMtxLock
 2302              	.LVL233:
 2303              		.loc 1 184 0
 2304 000e 0A20     		mov	r0, #10
 2305 0010 FFF7FEFF 		bl	test_cpu_pulse
 2306              	.LVL234:
 2307              		.loc 1 185 0
 2308 0014 FFF7FEFF 		bl	chMtxUnlock
 2309              	.LVL235:
 2310              		.loc 1 186 0
 2311 0018 4120     		mov	r0, #65
 2312 001a FFF7FEFF 		bl	test_emit_token
 2313              	.LVL236:
 2314              		.loc 1 188 0
 2315              		@ sp needed for prologue
 2316 001e 0020     		mov	r0, #0
 2317 0020 08BD     		pop	{r3, pc}
 2318              	.L98:
ARM GAS  C:\Users\3130\AppData\Local\Temp\ccEXtTs3.s 			page 42


 2319 0022 C046     		.align	2
 2320              	.L97:
 2321 0024 00000000 		.word	.LANCHOR2
 2322              		.cfi_endproc
 2323              	.LFE13:
 2324              		.size	thread2H, .-thread2H
 2325              		.global	patternmtx
 2326              		.global	testmtx8
 2327              		.global	testmtx7
 2328              		.global	testmtx6
 2329              		.global	testmtx5
 2330              		.global	testmtx4
 2331              		.global	testmtx3
 2332              		.global	testmtx2
 2333              		.global	testmtx1
 2334 0028 C046C046 		.section	.rodata.testmtx5,"a",%progbits
 2334      C046C046 
 2335              		.align	2
 2336              		.type	testmtx5, %object
 2337              		.size	testmtx5, 16
 2338              	testmtx5:
 2339 0000 64000000 		.word	.LC115
 2340 0004 00000000 		.word	mtx5_setup
 2341 0008 00000000 		.word	0
 2342 000c 00000000 		.word	mtx5_execute
 2343              		.section	.rodata.testmtx6,"a",%progbits
 2344              		.align	2
 2345              		.type	testmtx6, %object
 2346              		.size	testmtx6, 16
 2347              	testmtx6:
 2348 0000 4C000000 		.word	.LC114
 2349 0004 00000000 		.word	mtx6_setup
 2350 0008 00000000 		.word	0
 2351 000c 00000000 		.word	mtx6_execute
 2352              		.section	.rodata.testmtx7,"a",%progbits
 2353              		.align	2
 2354              		.type	testmtx7, %object
 2355              		.size	testmtx7, 16
 2356              	testmtx7:
 2357 0000 34000000 		.word	.LC113
 2358 0004 00000000 		.word	mtx7_setup
 2359 0008 00000000 		.word	0
 2360 000c 00000000 		.word	mtx7_execute
 2361              		.section	.rodata.testmtx8,"a",%progbits
 2362              		.align	2
 2363              		.type	testmtx8, %object
 2364              		.size	testmtx8, 16
 2365              	testmtx8:
 2366 0000 20000000 		.word	.LC112
 2367 0004 00000000 		.word	mtx8_setup
 2368 0008 00000000 		.word	0
 2369 000c 00000000 		.word	mtx8_execute
 2370              		.section	.data.m1,"aw",%progbits
 2371              		.align	2
 2372              		.set	.LANCHOR2,. + 0
 2373              		.type	m1, %object
 2374              		.size	m1, 16
ARM GAS  C:\Users\3130\AppData\Local\Temp\ccEXtTs3.s 			page 43


 2375              	m1:
 2376 0000 00000000 		.word	m1
 2377 0004 00000000 		.word	m1
 2378 0008 00000000 		.word	0
 2379 000c 00000000 		.word	0
 2380              		.section	.data.m2,"aw",%progbits
 2381              		.align	2
 2382              		.set	.LANCHOR1,. + 0
 2383              		.type	m2, %object
 2384              		.size	m2, 16
 2385              	m2:
 2386 0000 00000000 		.word	m2
 2387 0004 00000000 		.word	m2
 2388 0008 00000000 		.word	0
 2389 000c 00000000 		.word	0
 2390              		.section	.rodata.str1.4,"aMS",%progbits,1
 2391              		.align	2
 2392              	.LC3:
 2393 0000 4100     		.ascii	"A\000"
 2394 0002 0000     		.space	2
 2395              	.LC7:
 2396 0004 4300     		.ascii	"C\000"
 2397 0006 0000     		.space	2
 2398              	.LC10:
 2399 0008 4200     		.ascii	"B\000"
 2400 000a 0000     		.space	2
 2401              	.LC13:
 2402 000c 41424300 		.ascii	"ABC\000"
 2403              	.LC39:
 2404 0010 4500     		.ascii	"E\000"
 2405 0012 0000     		.space	2
 2406              	.LC42:
 2407 0014 4400     		.ascii	"D\000"
 2408 0016 0000     		.space	2
 2409              	.LC48:
 2410 0018 41424344 		.ascii	"ABCDE\000"
 2410      4500
 2411 001e 0000     		.space	2
 2412              	.LC112:
 2413 0020 436F6E64 		.ascii	"CondVar, boost test\000"
 2413      5661722C 
 2413      20626F6F 
 2413      73742074 
 2413      65737400 
 2414              	.LC113:
 2415 0034 436F6E64 		.ascii	"CondVar, broadcast test\000"
 2415      5661722C 
 2415      2062726F 
 2415      61646361 
 2415      73742074 
 2416              	.LC114:
 2417 004c 436F6E64 		.ascii	"CondVar, signal test\000"
 2417      5661722C 
 2417      20736967 
 2417      6E616C20 
 2417      74657374 
 2418 0061 000000   		.space	3
ARM GAS  C:\Users\3130\AppData\Local\Temp\ccEXtTs3.s 			page 44


 2419              	.LC115:
 2420 0064 4D757465 		.ascii	"Mutexes, status\000"
 2420      7865732C 
 2420      20737461 
 2420      74757300 
 2421              	.LC116:
 2422 0074 4D757465 		.ascii	"Mutexes, priority return\000"
 2422      7865732C 
 2422      20707269 
 2422      6F726974 
 2422      79207265 
 2423 008d 000000   		.space	3
 2424              	.LC117:
 2425 0090 4D757465 		.ascii	"Mutexes, priority inheritance, complex case\000"
 2425      7865732C 
 2425      20707269 
 2425      6F726974 
 2425      7920696E 
 2426              	.LC118:
 2427 00bc 4D757465 		.ascii	"Mutexes, priority inheritance, simple case\000"
 2427      7865732C 
 2427      20707269 
 2427      6F726974 
 2427      7920696E 
 2428 00e7 00       		.space	1
 2429              	.LC119:
 2430 00e8 4D757465 		.ascii	"Mutexes, priority enqueuing test\000"
 2430      7865732C 
 2430      20707269 
 2430      6F726974 
 2430      7920656E 
 2431 0109 000000   		.section	.rodata.patternmtx,"a",%progbits
 2432              		.align	2
 2433              		.type	patternmtx, %object
 2434              		.size	patternmtx, 36
 2435              	patternmtx:
 2436 0000 00000000 		.word	testmtx1
 2437 0004 00000000 		.word	testmtx2
 2438 0008 00000000 		.word	testmtx3
 2439 000c 00000000 		.word	testmtx4
 2440 0010 00000000 		.word	testmtx5
 2441 0014 00000000 		.word	testmtx6
 2442 0018 00000000 		.word	testmtx7
 2443 001c 00000000 		.word	testmtx8
 2444 0020 00000000 		.word	0
 2445              		.section	.data.c1,"aw",%progbits
 2446              		.align	2
 2447              		.set	.LANCHOR0,. + 0
 2448              		.type	c1, %object
 2449              		.size	c1, 8
 2450              	c1:
 2451 0000 00000000 		.word	c1
 2452 0004 00000000 		.word	c1
 2453              		.section	.rodata.testmtx1,"a",%progbits
 2454              		.align	2
 2455              		.type	testmtx1, %object
 2456              		.size	testmtx1, 16
ARM GAS  C:\Users\3130\AppData\Local\Temp\ccEXtTs3.s 			page 45


 2457              	testmtx1:
 2458 0000 E8000000 		.word	.LC119
 2459 0004 00000000 		.word	mtx1_setup
 2460 0008 00000000 		.word	0
 2461 000c 00000000 		.word	mtx1_execute
 2462              		.section	.rodata.testmtx2,"a",%progbits
 2463              		.align	2
 2464              		.type	testmtx2, %object
 2465              		.size	testmtx2, 16
 2466              	testmtx2:
 2467 0000 BC000000 		.word	.LC118
 2468 0004 00000000 		.word	mtx2_setup
 2469 0008 00000000 		.word	0
 2470 000c 00000000 		.word	mtx2_execute
 2471              		.section	.rodata.testmtx3,"a",%progbits
 2472              		.align	2
 2473              		.type	testmtx3, %object
 2474              		.size	testmtx3, 16
 2475              	testmtx3:
 2476 0000 90000000 		.word	.LC117
 2477 0004 00000000 		.word	mtx3_setup
 2478 0008 00000000 		.word	0
 2479 000c 00000000 		.word	mtx3_execute
 2480              		.section	.rodata.testmtx4,"a",%progbits
 2481              		.align	2
 2482              		.type	testmtx4, %object
 2483              		.size	testmtx4, 16
 2484              	testmtx4:
 2485 0000 74000000 		.word	.LC116
 2486 0004 00000000 		.word	mtx4_setup
 2487 0008 00000000 		.word	0
 2488 000c 00000000 		.word	mtx4_execute
 2489              		.text
 2490              	.Letext0:
 2491              		.file 2 "c:\\stm32f0-discovery_tools\\gcc-arm-none-eabi\\bin\\../lib/gcc/arm-none-eabi/4.7.4/inclu
 2492              		.file 3 "c:\\stm32f0-discovery_tools\\gcc-arm-none-eabi\\bin\\../lib/gcc/arm-none-eabi/4.7.4/../..
 2493              		.file 4 "../../ChibiOS_2.6.1/os/ports/GCC/ARMCMx/chtypes.h"
 2494              		.file 5 "../../ChibiOS_2.6.1/os/kernel/include/chlists.h"
 2495              		.file 6 "../../ChibiOS_2.6.1/os/kernel/include/chthreads.h"
 2496              		.file 7 "../../ChibiOS_2.6.1/os/ports/GCC/ARMCMx/chcore_v6m.h"
 2497              		.file 8 "../../ChibiOS_2.6.1/os/kernel/include/chvt.h"
 2498              		.file 9 "../../ChibiOS_2.6.1/os/kernel/include/chschd.h"
 2499              		.file 10 "../../ChibiOS_2.6.1/os/kernel/include/chmtx.h"
 2500              		.file 11 "../../ChibiOS_2.6.1/os/kernel/include/chcond.h"
 2501              		.file 12 "../../ChibiOS_2.6.1/test/test.h"